GAS LISTING /tmp/ccRJCNDp.s 			page 1


   1              		.file	"_console.cpp"
   2              		.option pic
   3              		.option norelax
   4              		.text
   5              	.Ltext0:
   6              		.align	2
   7              		.globl	_ZN13BoundedBufferC2Ev
   9              	_ZN13BoundedBufferC2Ev:
  10              	.LFB20:
  11              		.file 1 "src/_console.cpp"
   1:src/_console.cpp **** //
   2:src/_console.cpp **** // Created by os on 8/15/23.
   3:src/_console.cpp **** //
   4:src/_console.cpp **** 
   5:src/_console.cpp **** #include "../h/_console.hpp"
   6:src/_console.cpp **** #include "../h/syscall_c.hpp"
   7:src/_console.cpp **** 
   8:src/_console.cpp **** BoundedBuffer* _console::outputBuff= nullptr;
   9:src/_console.cpp **** BoundedBuffer* _console::inputBuff= nullptr;
  10:src/_console.cpp **** 
  11:src/_console.cpp **** 
  12:src/_console.cpp **** void _console::consumerConsole(void*){
  13:src/_console.cpp ****     while(true) {
  14:src/_console.cpp ****         while ((*(char *) CONSOLE_STATUS) & CONSOLE_TX_STATUS_BIT) {
  15:src/_console.cpp ****             char c = _console::outputBuff_get();
  16:src/_console.cpp ****             *(char *) CONSOLE_TX_DATA = c;
  17:src/_console.cpp ****         }
  18:src/_console.cpp ****     }
  19:src/_console.cpp **** }
  20:src/_console.cpp **** 
  21:src/_console.cpp **** 
  22:src/_console.cpp **** BoundedBuffer::BoundedBuffer():head(0), tail(0){
  12              		.loc 1 22 1
  13              		.cfi_startproc
  14              	.LVL0:
  15 0000 130101FE 		addi	sp,sp,-32
  16              		.cfi_def_cfa_offset 32
  17 0004 233C1100 		sd	ra,24(sp)
  18 0008 23388100 		sd	s0,16(sp)
  19 000c 23349100 		sd	s1,8(sp)
  20              		.cfi_offset 1, -8
  21              		.cfi_offset 8, -16
  22              		.cfi_offset 9, -24
  23 0010 13040102 		addi	s0,sp,32
  24              		.cfi_def_cfa 8, 0
  25 0014 93040500 		mv	s1,a0
  26              	.LBB2:
  27              		.loc 1 22 47 is_stmt 0
  28 0018 23240500 		sw	zero,8(a0)
  29 001c 23260500 		sw	zero,12(a0)
  23:src/_console.cpp ****     buffer=(char*)MemoryAllocator::alloc((BUFF_CAP+MEM_BLOCK_SIZE-1)/MEM_BLOCK_SIZE);
  30              		.loc 1 23 5 is_stmt 1
  31              		.loc 1 23 41 is_stmt 0
  32 0020 13050001 		li	a0,16
  33              	.LVL1:
  34 0024 97000000 		call	_ZN15MemoryAllocator5allocEm@plt
  34      E7800000 
GAS LISTING /tmp/ccRJCNDp.s 			page 2


  35              	.LVL2:
  36              		.loc 1 23 11
  37 002c 23B0A400 		sd	a0,0(s1)
  24:src/_console.cpp ****     spaceAvailable=_sem::open(BUFF_CAP);
  38              		.loc 1 24 5 is_stmt 1
  39              		.loc 1 24 30 is_stmt 0
  40 0030 1305803E 		li	a0,1000
  41 0034 97000000 		call	_ZN4_sem4openEi@plt
  41      E7800000 
  42              	.LVL3:
  43              		.loc 1 24 19
  44 003c 23B8A400 		sd	a0,16(s1)
  25:src/_console.cpp ****     itemAvailable=_sem::open(0);
  45              		.loc 1 25 5 is_stmt 1
  46              		.loc 1 25 29 is_stmt 0
  47 0040 13050000 		li	a0,0
  48 0044 97000000 		call	_ZN4_sem4openEi@plt
  48      E7800000 
  49              	.LVL4:
  50              		.loc 1 25 18
  51 004c 23BCA400 		sd	a0,24(s1)
  52              	.LBE2:
  26:src/_console.cpp **** }
  53              		.loc 1 26 1
  54 0050 83308101 		ld	ra,24(sp)
  55              		.cfi_restore 1
  56 0054 03340101 		ld	s0,16(sp)
  57              		.cfi_restore 8
  58              		.cfi_def_cfa 2, 32
  59 0058 83348100 		ld	s1,8(sp)
  60              		.cfi_restore 9
  61              	.LVL5:
  62 005c 13010102 		addi	sp,sp,32
  63              		.cfi_def_cfa_offset 0
  64 0060 67800000 		jr	ra
  65              		.cfi_endproc
  66              	.LFE20:
  68              		.globl	_ZN13BoundedBufferC1Ev
  69              		.set	_ZN13BoundedBufferC1Ev,_ZN13BoundedBufferC2Ev
  70              		.align	2
  71              		.globl	_ZN13BoundedBuffer3putEc
  73              	_ZN13BoundedBuffer3putEc:
  74              	.LFB22:
  27:src/_console.cpp **** 
  28:src/_console.cpp **** void BoundedBuffer::put(char c) {
  75              		.loc 1 28 33 is_stmt 1
  76              		.cfi_startproc
  77              	.LVL6:
  78 0064 130101FE 		addi	sp,sp,-32
  79              		.cfi_def_cfa_offset 32
  80 0068 233C1100 		sd	ra,24(sp)
  81 006c 23388100 		sd	s0,16(sp)
  82 0070 23349100 		sd	s1,8(sp)
  83 0074 23302101 		sd	s2,0(sp)
  84              		.cfi_offset 1, -8
  85              		.cfi_offset 8, -16
  86              		.cfi_offset 9, -24
GAS LISTING /tmp/ccRJCNDp.s 			page 3


  87              		.cfi_offset 18, -32
  88 0078 13040102 		addi	s0,sp,32
  89              		.cfi_def_cfa 8, 0
  90 007c 93040500 		mv	s1,a0
  91 0080 13890500 		mv	s2,a1
  29:src/_console.cpp ****     spaceAvailable->wait();
  92              		.loc 1 29 5
  93              		.loc 1 29 25 is_stmt 0
  94 0084 03350501 		ld	a0,16(a0)
  95              	.LVL7:
  96 0088 97000000 		call	_ZN4_sem4waitEv@plt
  96      E7800000 
  97              	.LVL8:
  30:src/_console.cpp ****     buffer[tail]=c;
  98              		.loc 1 30 5 is_stmt 1
  99 0090 83B70400 		ld	a5,0(s1)
 100              		.loc 1 30 12 is_stmt 0
 101 0094 03A7C400 		lw	a4,12(s1)
 102              		.loc 1 30 16
 103 0098 B387E700 		add	a5,a5,a4
 104              		.loc 1 30 17
 105 009c 23802701 		sb	s2,0(a5)
  31:src/_console.cpp ****     tail=(tail+1)%BUFF_CAP;
 106              		.loc 1 31 5 is_stmt 1
 107              		.loc 1 31 11 is_stmt 0
 108 00a0 83A7C400 		lw	a5,12(s1)
 109              		.loc 1 31 15
 110 00a4 9B871700 		addiw	a5,a5,1
 111              		.loc 1 31 18
 112 00a8 1307803E 		li	a4,1000
 113 00ac BBE7E702 		remw	a5,a5,a4
 114              		.loc 1 31 9
 115 00b0 23A6F400 		sw	a5,12(s1)
  32:src/_console.cpp ****     itemAvailable->signal();
 116              		.loc 1 32 5 is_stmt 1
 117              		.loc 1 32 26 is_stmt 0
 118 00b4 03B58401 		ld	a0,24(s1)
 119 00b8 97000000 		call	_ZN4_sem6signalEv@plt
 119      E7800000 
 120              	.LVL9:
  33:src/_console.cpp **** }
 121              		.loc 1 33 1
 122 00c0 83308101 		ld	ra,24(sp)
 123              		.cfi_restore 1
 124 00c4 03340101 		ld	s0,16(sp)
 125              		.cfi_restore 8
 126              		.cfi_def_cfa 2, 32
 127 00c8 83348100 		ld	s1,8(sp)
 128              		.cfi_restore 9
 129              	.LVL10:
 130 00cc 03390100 		ld	s2,0(sp)
 131              		.cfi_restore 18
 132 00d0 13010102 		addi	sp,sp,32
 133              		.cfi_def_cfa_offset 0
 134 00d4 67800000 		jr	ra
 135              		.cfi_endproc
 136              	.LFE22:
GAS LISTING /tmp/ccRJCNDp.s 			page 4


 138              		.align	2
 139              		.globl	_ZN13BoundedBuffer4takeEv
 141              	_ZN13BoundedBuffer4takeEv:
 142              	.LFB23:
  34:src/_console.cpp **** 
  35:src/_console.cpp **** 
  36:src/_console.cpp **** char BoundedBuffer::take() {
 143              		.loc 1 36 28 is_stmt 1
 144              		.cfi_startproc
 145              	.LVL11:
 146 00d8 130101FE 		addi	sp,sp,-32
 147              		.cfi_def_cfa_offset 32
 148 00dc 233C1100 		sd	ra,24(sp)
 149 00e0 23388100 		sd	s0,16(sp)
 150 00e4 23349100 		sd	s1,8(sp)
 151 00e8 23302101 		sd	s2,0(sp)
 152              		.cfi_offset 1, -8
 153              		.cfi_offset 8, -16
 154              		.cfi_offset 9, -24
 155              		.cfi_offset 18, -32
 156 00ec 13040102 		addi	s0,sp,32
 157              		.cfi_def_cfa 8, 0
 158 00f0 93040500 		mv	s1,a0
  37:src/_console.cpp ****     //poziva se ovaj wait dok nije usao u prekid sto nije dobro
  38:src/_console.cpp ****     //itemAvailable->wait();
  39:src/_console.cpp ****     sem_wait(itemAvailable);
 159              		.loc 1 39 5
 160              		.loc 1 39 13 is_stmt 0
 161 00f4 03358501 		ld	a0,24(a0)
 162              	.LVL12:
 163 00f8 97000000 		call	_Z8sem_waitP4_sem@plt
 163      E7800000 
 164              	.LVL13:
  40:src/_console.cpp ****     char c=buffer[head];
 165              		.loc 1 40 5 is_stmt 1
 166              		.loc 1 40 12 is_stmt 0
 167 0100 03B70400 		ld	a4,0(s1)
 168              		.loc 1 40 19
 169 0104 83A78400 		lw	a5,8(s1)
 170              		.loc 1 40 23
 171 0108 3307F700 		add	a4,a4,a5
 172              		.loc 1 40 10
 173 010c 03490700 		lbu	s2,0(a4)
 174              	.LVL14:
  41:src/_console.cpp ****     head=(head+1)%BUFF_CAP;
 175              		.loc 1 41 5 is_stmt 1
 176              		.loc 1 41 15 is_stmt 0
 177 0110 9B871700 		addiw	a5,a5,1
 178              		.loc 1 41 18
 179 0114 1307803E 		li	a4,1000
 180 0118 BBE7E702 		remw	a5,a5,a4
 181              		.loc 1 41 9
 182 011c 23A4F400 		sw	a5,8(s1)
  42:src/_console.cpp ****     spaceAvailable->signal();
 183              		.loc 1 42 5 is_stmt 1
 184              		.loc 1 42 27 is_stmt 0
 185 0120 03B50401 		ld	a0,16(s1)
GAS LISTING /tmp/ccRJCNDp.s 			page 5


 186 0124 97000000 		call	_ZN4_sem6signalEv@plt
 186      E7800000 
 187              	.LVL15:
  43:src/_console.cpp ****     return c;
 188              		.loc 1 43 5 is_stmt 1
  44:src/_console.cpp **** }
 189              		.loc 1 44 1 is_stmt 0
 190 012c 13050900 		mv	a0,s2
 191 0130 83308101 		ld	ra,24(sp)
 192              		.cfi_restore 1
 193 0134 03340101 		ld	s0,16(sp)
 194              		.cfi_restore 8
 195              		.cfi_def_cfa 2, 32
 196 0138 83348100 		ld	s1,8(sp)
 197              		.cfi_restore 9
 198              	.LVL16:
 199 013c 03390100 		ld	s2,0(sp)
 200              		.cfi_restore 18
 201              	.LVL17:
 202 0140 13010102 		addi	sp,sp,32
 203              		.cfi_def_cfa_offset 0
 204 0144 67800000 		jr	ra
 205              		.cfi_endproc
 206              	.LFE23:
 208              		.align	2
 209              		.globl	_ZN13BoundedBufferD2Ev
 211              	_ZN13BoundedBufferD2Ev:
 212              	.LFB25:
  45:src/_console.cpp **** 
  46:src/_console.cpp **** BoundedBuffer::~BoundedBuffer() {
 213              		.loc 1 46 1 is_stmt 1
 214              		.cfi_startproc
 215              		.cfi_personality 0x9b,DW.ref.__gxx_personality_v0
 216              		.cfi_lsda 0x1b,.LLSDA25
 217              	.LVL18:
 218 0148 130101FE 		addi	sp,sp,-32
 219              		.cfi_def_cfa_offset 32
 220 014c 233C1100 		sd	ra,24(sp)
 221 0150 23388100 		sd	s0,16(sp)
 222 0154 23349100 		sd	s1,8(sp)
 223              		.cfi_offset 1, -8
 224              		.cfi_offset 8, -16
 225              		.cfi_offset 9, -24
 226 0158 13040102 		addi	s0,sp,32
 227              		.cfi_def_cfa 8, 0
 228 015c 93040500 		mv	s1,a0
 229              	.LBB3:
  47:src/_console.cpp ****     MemoryAllocator::free(buffer);
 230              		.loc 1 47 5
 231              		.loc 1 47 26 is_stmt 0
 232 0160 03350500 		ld	a0,0(a0)
 233              	.LVL19:
 234 0164 97000000 		call	_ZN15MemoryAllocator4freeEPv@plt
 234      E7800000 
 235              	.LVL20:
  48:src/_console.cpp ****     /*itemAvailable->close();
  49:src/_console.cpp ****     spaceAvailable->close();*/
GAS LISTING /tmp/ccRJCNDp.s 			page 6


  50:src/_console.cpp ****     sem_close(itemAvailable);
 236              		.loc 1 50 5 is_stmt 1
 237              		.loc 1 50 14 is_stmt 0
 238 016c 03B58401 		ld	a0,24(s1)
 239 0170 97000000 		call	_Z9sem_closeP4_sem@plt
 239      E7800000 
 240              	.LVL21:
  51:src/_console.cpp ****     sem_close(spaceAvailable);
 241              		.loc 1 51 5 is_stmt 1
 242              		.loc 1 51 14 is_stmt 0
 243 0178 03B50401 		ld	a0,16(s1)
 244 017c 97000000 		call	_Z9sem_closeP4_sem@plt
 244      E7800000 
 245              	.LVL22:
 246              	.LBE3:
  52:src/_console.cpp **** }
 247              		.loc 1 52 1
 248 0184 83308101 		ld	ra,24(sp)
 249              		.cfi_restore 1
 250 0188 03340101 		ld	s0,16(sp)
 251              		.cfi_restore 8
 252              		.cfi_def_cfa 2, 32
 253 018c 83348100 		ld	s1,8(sp)
 254              		.cfi_restore 9
 255              	.LVL23:
 256 0190 13010102 		addi	sp,sp,32
 257              		.cfi_def_cfa_offset 0
 258 0194 67800000 		jr	ra
 259              		.cfi_endproc
 260              	.LFE25:
 261              		.globl	__gxx_personality_v0
 262              		.section	.gcc_except_table,"a",@progbits
 263              	.LLSDA25:
 264 0000 FF       		.byte	0xff
 265 0001 FF       		.byte	0xff
 266 0002 03       		.byte	0x3
 267 0003 00       		.byte	0
 268              		.text
 270              		.globl	_ZN13BoundedBufferD1Ev
 271              		.set	_ZN13BoundedBufferD1Ev,_ZN13BoundedBufferD2Ev
 272              		.align	2
 273              		.globl	_ZN8_console13inputBuff_putEc
 275              	_ZN8_console13inputBuff_putEc:
 276              	.LFB27:
  53:src/_console.cpp **** 
  54:src/_console.cpp **** void _console::inputBuff_put(char c) {
 277              		.loc 1 54 38 is_stmt 1
 278              		.cfi_startproc
 279              	.LVL24:
 280 0198 130101FF 		addi	sp,sp,-16
 281              		.cfi_def_cfa_offset 16
 282 019c 23341100 		sd	ra,8(sp)
 283 01a0 23308100 		sd	s0,0(sp)
 284              		.cfi_offset 1, -8
 285              		.cfi_offset 8, -16
 286 01a4 13040101 		addi	s0,sp,16
 287              		.cfi_def_cfa 8, 0
GAS LISTING /tmp/ccRJCNDp.s 			page 7


 288 01a8 93050500 		mv	a1,a0
  55:src/_console.cpp ****     inputBuff->put(c);
 289              		.loc 1 55 5
 290              		.loc 1 55 19 is_stmt 0
 291 01ac 17050000 		ld	a0,.LANCHOR0
 291      03350500 
 292              	.LVL25:
 293 01b4 97000000 		call	_ZN13BoundedBuffer3putEc
 293      E7800000 
 294              	.LVL26:
  56:src/_console.cpp **** }
 295              		.loc 1 56 1
 296 01bc 83308100 		ld	ra,8(sp)
 297              		.cfi_restore 1
 298 01c0 03340100 		ld	s0,0(sp)
 299              		.cfi_restore 8
 300              		.cfi_def_cfa 2, 16
 301 01c4 13010101 		addi	sp,sp,16
 302              		.cfi_def_cfa_offset 0
 303 01c8 67800000 		jr	ra
 304              		.cfi_endproc
 305              	.LFE27:
 307              		.align	2
 308              		.globl	_ZN8_console13inputBuff_getEv
 310              	_ZN8_console13inputBuff_getEv:
 311              	.LFB28:
  57:src/_console.cpp **** 
  58:src/_console.cpp **** char _console::inputBuff_get() {
 312              		.loc 1 58 32 is_stmt 1
 313              		.cfi_startproc
 314 01cc 130101FF 		addi	sp,sp,-16
 315              		.cfi_def_cfa_offset 16
 316 01d0 23341100 		sd	ra,8(sp)
 317 01d4 23308100 		sd	s0,0(sp)
 318              		.cfi_offset 1, -8
 319              		.cfi_offset 8, -16
 320 01d8 13040101 		addi	s0,sp,16
 321              		.cfi_def_cfa 8, 0
  59:src/_console.cpp ****     return inputBuff->take();
 322              		.loc 1 59 5
 323              		.loc 1 59 27 is_stmt 0
 324 01dc 17050000 		ld	a0,.LANCHOR0
 324      03350500 
 325 01e4 97000000 		call	_ZN13BoundedBuffer4takeEv
 325      E7800000 
 326              	.LVL27:
  60:src/_console.cpp **** }
 327              		.loc 1 60 1
 328 01ec 83308100 		ld	ra,8(sp)
 329              		.cfi_restore 1
 330 01f0 03340100 		ld	s0,0(sp)
 331              		.cfi_restore 8
 332              		.cfi_def_cfa 2, 16
 333 01f4 13010101 		addi	sp,sp,16
 334              		.cfi_def_cfa_offset 0
 335 01f8 67800000 		jr	ra
 336              		.cfi_endproc
GAS LISTING /tmp/ccRJCNDp.s 			page 8


 337              	.LFE28:
 339              		.align	2
 340              		.globl	_ZN8_console14outputBuff_putEc
 342              	_ZN8_console14outputBuff_putEc:
 343              	.LFB29:
  61:src/_console.cpp **** 
  62:src/_console.cpp **** void _console::outputBuff_put(char c) {
 344              		.loc 1 62 39 is_stmt 1
 345              		.cfi_startproc
 346              	.LVL28:
 347 01fc 130101FF 		addi	sp,sp,-16
 348              		.cfi_def_cfa_offset 16
 349 0200 23341100 		sd	ra,8(sp)
 350 0204 23308100 		sd	s0,0(sp)
 351              		.cfi_offset 1, -8
 352              		.cfi_offset 8, -16
 353 0208 13040101 		addi	s0,sp,16
 354              		.cfi_def_cfa 8, 0
 355 020c 93050500 		mv	a1,a0
  63:src/_console.cpp ****     outputBuff->put(c);
 356              		.loc 1 63 5
 357              		.loc 1 63 20 is_stmt 0
 358 0210 17050000 		ld	a0,.LANCHOR0+8
 358      03350500 
 359              	.LVL29:
 360 0218 97000000 		call	_ZN13BoundedBuffer3putEc
 360      E7800000 
 361              	.LVL30:
  64:src/_console.cpp **** }
 362              		.loc 1 64 1
 363 0220 83308100 		ld	ra,8(sp)
 364              		.cfi_restore 1
 365 0224 03340100 		ld	s0,0(sp)
 366              		.cfi_restore 8
 367              		.cfi_def_cfa 2, 16
 368 0228 13010101 		addi	sp,sp,16
 369              		.cfi_def_cfa_offset 0
 370 022c 67800000 		jr	ra
 371              		.cfi_endproc
 372              	.LFE29:
 374              		.align	2
 375              		.globl	_ZN8_console14outputBuff_getEv
 377              	_ZN8_console14outputBuff_getEv:
 378              	.LFB30:
  65:src/_console.cpp **** 
  66:src/_console.cpp **** char _console::outputBuff_get() {
 379              		.loc 1 66 33 is_stmt 1
 380              		.cfi_startproc
 381 0230 130101FF 		addi	sp,sp,-16
 382              		.cfi_def_cfa_offset 16
 383 0234 23341100 		sd	ra,8(sp)
 384 0238 23308100 		sd	s0,0(sp)
 385              		.cfi_offset 1, -8
 386              		.cfi_offset 8, -16
 387 023c 13040101 		addi	s0,sp,16
 388              		.cfi_def_cfa 8, 0
  67:src/_console.cpp ****     return outputBuff->take();
GAS LISTING /tmp/ccRJCNDp.s 			page 9


 389              		.loc 1 67 5
 390              		.loc 1 67 28 is_stmt 0
 391 0240 17050000 		ld	a0,.LANCHOR0+8
 391      03350500 
 392 0248 97000000 		call	_ZN13BoundedBuffer4takeEv
 392      E7800000 
 393              	.LVL31:
  68:src/_console.cpp **** }
 394              		.loc 1 68 1
 395 0250 83308100 		ld	ra,8(sp)
 396              		.cfi_restore 1
 397 0254 03340100 		ld	s0,0(sp)
 398              		.cfi_restore 8
 399              		.cfi_def_cfa 2, 16
 400 0258 13010101 		addi	sp,sp,16
 401              		.cfi_def_cfa_offset 0
 402 025c 67800000 		jr	ra
 403              		.cfi_endproc
 404              	.LFE30:
 406              		.align	2
 407              		.globl	_ZN8_console15consumerConsoleEPv
 409              	_ZN8_console15consumerConsoleEPv:
 410              	.LFB18:
  12:src/_console.cpp ****     while(true) {
 411              		.loc 1 12 38 is_stmt 1
 412              		.cfi_startproc
 413              	.L21:
  13:src/_console.cpp ****         while ((*(char *) CONSOLE_STATUS) & CONSOLE_TX_STATUS_BIT) {
 414              		.loc 1 13 5
 415              	.LBB4:
  14:src/_console.cpp ****             char c = _console::outputBuff_get();
 416              		.loc 1 14 9
  14:src/_console.cpp ****             char c = _console::outputBuff_get();
 417              		.loc 1 14 45
  14:src/_console.cpp ****             char c = _console::outputBuff_get();
 418              		.loc 1 14 17 is_stmt 0
 419 0260 97070000 		la	a5,CONSOLE_STATUS
 419      83B70700 
 420 0268 83B70700 		ld	a5,0(a5)
 421 026c 83C70700 		lbu	a5,0(a5)
  14:src/_console.cpp ****             char c = _console::outputBuff_get();
 422              		.loc 1 14 45
 423 0270 93F70702 		andi	a5,a5,32
 424 0274 E38607FE 		beqz	a5,.L21
 425              	.LBE4:
  12:src/_console.cpp ****     while(true) {
 426              		.loc 1 12 38
 427 0278 130101FF 		addi	sp,sp,-16
 428              		.cfi_def_cfa_offset 16
 429 027c 23341100 		sd	ra,8(sp)
 430 0280 23308100 		sd	s0,0(sp)
 431              		.cfi_offset 1, -8
 432              		.cfi_offset 8, -16
 433 0284 13040101 		addi	s0,sp,16
 434              		.cfi_def_cfa 8, 0
 435              	.L22:
 436              	.LBB6:
GAS LISTING /tmp/ccRJCNDp.s 			page 10


 437              	.LBB5:
  15:src/_console.cpp ****             *(char *) CONSOLE_TX_DATA = c;
 438              		.loc 1 15 13 is_stmt 1
  15:src/_console.cpp ****             *(char *) CONSOLE_TX_DATA = c;
 439              		.loc 1 15 46 is_stmt 0
 440 0288 97000000 		call	_ZN8_console14outputBuff_getEv
 440      E7800000 
 441              	.LVL32:
  16:src/_console.cpp ****         }
 442              		.loc 1 16 13 is_stmt 1
 443 0290 97070000 		la	a5,CONSOLE_TX_DATA
 443      83B70700 
 444 0298 83B70700 		ld	a5,0(a5)
  16:src/_console.cpp ****         }
 445              		.loc 1 16 39 is_stmt 0
 446 029c 2380A700 		sb	a0,0(a5)
 447              	.L18:
 448              	.LBE5:
 449              	.LBE6:
  13:src/_console.cpp ****         while ((*(char *) CONSOLE_STATUS) & CONSOLE_TX_STATUS_BIT) {
 450              		.loc 1 13 5 is_stmt 1
 451              	.LBB7:
  14:src/_console.cpp ****             char c = _console::outputBuff_get();
 452              		.loc 1 14 9
  14:src/_console.cpp ****             char c = _console::outputBuff_get();
 453              		.loc 1 14 45
  14:src/_console.cpp ****             char c = _console::outputBuff_get();
 454              		.loc 1 14 17 is_stmt 0
 455 02a0 97070000 		la	a5,CONSOLE_STATUS
 455      83B70700 
 456 02a8 83B70700 		ld	a5,0(a5)
 457 02ac 83C70700 		lbu	a5,0(a5)
  14:src/_console.cpp ****             char c = _console::outputBuff_get();
 458              		.loc 1 14 45
 459 02b0 93F70702 		andi	a5,a5,32
 460 02b4 E38607FE 		beqz	a5,.L18
 461 02b8 6FF01FFD 		j	.L22
 462              	.LBE7:
 463              		.cfi_endproc
 464              	.LFE18:
 466              		.globl	_ZN8_console9inputBuffE
 467              		.globl	_ZN8_console10outputBuffE
 468              		.bss
 469              		.align	3
 470              		.set	.LANCHOR0,. + 0
 473              	_ZN8_console9inputBuffE:
 474 0000 00000000 		.zero	8
 474      00000000 
 477              	_ZN8_console10outputBuffE:
 478 0008 00000000 		.zero	8
 478      00000000 
 479              		.text
 480              	.Letext0:
 481              		.file 2 "src/../h/../h/../h/../lib/hw.h"
 482              		.file 3 "src/../h/../h/../h/MemoryAllocator.hpp"
 483              		.file 4 "src/../h/../h/../h/list.hpp"
 484              		.file 5 "src/../h/../h/_sem.hpp"
GAS LISTING /tmp/ccRJCNDp.s 			page 11


 485              		.file 6 "src/../h/_console.hpp"
 486              		.file 7 "src/../h/syscall_c.hpp"
 2690              		.align	3
 2693              	DW.ref.__gxx_personality_v0:
 2694 0000 00000000 		.dword	__gxx_personality_v0
 2694      00000000 
 2695              		.ident	"GCC: (Ubuntu 9.4.0-1ubuntu1~20.04) 9.4.0"
 2696              		.section	.note.GNU-stack,"",@progbits
GAS LISTING /tmp/ccRJCNDp.s 			page 12


DEFINED SYMBOLS
                            *ABS*:0000000000000000 _console.cpp
     /tmp/ccRJCNDp.s:9      .text:0000000000000000 _ZN13BoundedBufferC2Ev
     /tmp/ccRJCNDp.s:13     .text:0000000000000000 .L0 
     /tmp/ccRJCNDp.s:15     .text:0000000000000000 .L0 
     /tmp/ccRJCNDp.s:16     .text:0000000000000004 .L0 
     /tmp/ccRJCNDp.s:20     .text:0000000000000010 .L0 
     /tmp/ccRJCNDp.s:21     .text:0000000000000010 .L0 
     /tmp/ccRJCNDp.s:22     .text:0000000000000010 .L0 
     /tmp/ccRJCNDp.s:24     .text:0000000000000014 .L0 
     /tmp/ccRJCNDp.s:28     .text:0000000000000018 .L0 
     /tmp/ccRJCNDp.s:31     .text:0000000000000020 .L0 
     /tmp/ccRJCNDp.s:32     .text:0000000000000020 .L0 
     /tmp/ccRJCNDp.s:37     .text:000000000000002c .L0 
     /tmp/ccRJCNDp.s:39     .text:0000000000000030 .L0 
     /tmp/ccRJCNDp.s:40     .text:0000000000000030 .L0 
     /tmp/ccRJCNDp.s:44     .text:000000000000003c .L0 
     /tmp/ccRJCNDp.s:46     .text:0000000000000040 .L0 
     /tmp/ccRJCNDp.s:47     .text:0000000000000040 .L0 
     /tmp/ccRJCNDp.s:51     .text:000000000000004c .L0 
     /tmp/ccRJCNDp.s:54     .text:0000000000000050 .L0 
     /tmp/ccRJCNDp.s:55     .text:0000000000000054 .L0 
     /tmp/ccRJCNDp.s:57     .text:0000000000000058 .L0 
     /tmp/ccRJCNDp.s:58     .text:0000000000000058 .L0 
     /tmp/ccRJCNDp.s:60     .text:000000000000005c .L0 
     /tmp/ccRJCNDp.s:63     .text:0000000000000060 .L0 
     /tmp/ccRJCNDp.s:65     .text:0000000000000064 .L0 
     /tmp/ccRJCNDp.s:9      .text:0000000000000000 _ZN13BoundedBufferC1Ev
     /tmp/ccRJCNDp.s:73     .text:0000000000000064 _ZN13BoundedBuffer3putEc
     /tmp/ccRJCNDp.s:76     .text:0000000000000064 .L0 
     /tmp/ccRJCNDp.s:78     .text:0000000000000064 .L0 
     /tmp/ccRJCNDp.s:79     .text:0000000000000068 .L0 
     /tmp/ccRJCNDp.s:84     .text:0000000000000078 .L0 
     /tmp/ccRJCNDp.s:85     .text:0000000000000078 .L0 
     /tmp/ccRJCNDp.s:86     .text:0000000000000078 .L0 
     /tmp/ccRJCNDp.s:87     .text:0000000000000078 .L0 
     /tmp/ccRJCNDp.s:89     .text:000000000000007c .L0 
     /tmp/ccRJCNDp.s:93     .text:0000000000000084 .L0 
     /tmp/ccRJCNDp.s:94     .text:0000000000000084 .L0 
     /tmp/ccRJCNDp.s:99     .text:0000000000000090 .L0 
     /tmp/ccRJCNDp.s:101    .text:0000000000000094 .L0 
     /tmp/ccRJCNDp.s:103    .text:0000000000000098 .L0 
     /tmp/ccRJCNDp.s:105    .text:000000000000009c .L0 
     /tmp/ccRJCNDp.s:107    .text:00000000000000a0 .L0 
     /tmp/ccRJCNDp.s:108    .text:00000000000000a0 .L0 
     /tmp/ccRJCNDp.s:110    .text:00000000000000a4 .L0 
     /tmp/ccRJCNDp.s:112    .text:00000000000000a8 .L0 
     /tmp/ccRJCNDp.s:115    .text:00000000000000b0 .L0 
     /tmp/ccRJCNDp.s:117    .text:00000000000000b4 .L0 
     /tmp/ccRJCNDp.s:118    .text:00000000000000b4 .L0 
     /tmp/ccRJCNDp.s:122    .text:00000000000000c0 .L0 
     /tmp/ccRJCNDp.s:123    .text:00000000000000c4 .L0 
     /tmp/ccRJCNDp.s:125    .text:00000000000000c8 .L0 
     /tmp/ccRJCNDp.s:126    .text:00000000000000c8 .L0 
     /tmp/ccRJCNDp.s:128    .text:00000000000000cc .L0 
     /tmp/ccRJCNDp.s:131    .text:00000000000000d0 .L0 
     /tmp/ccRJCNDp.s:133    .text:00000000000000d4 .L0 
GAS LISTING /tmp/ccRJCNDp.s 			page 13


     /tmp/ccRJCNDp.s:135    .text:00000000000000d8 .L0 
     /tmp/ccRJCNDp.s:141    .text:00000000000000d8 _ZN13BoundedBuffer4takeEv
     /tmp/ccRJCNDp.s:144    .text:00000000000000d8 .L0 
     /tmp/ccRJCNDp.s:146    .text:00000000000000d8 .L0 
     /tmp/ccRJCNDp.s:147    .text:00000000000000dc .L0 
     /tmp/ccRJCNDp.s:152    .text:00000000000000ec .L0 
     /tmp/ccRJCNDp.s:153    .text:00000000000000ec .L0 
     /tmp/ccRJCNDp.s:154    .text:00000000000000ec .L0 
     /tmp/ccRJCNDp.s:155    .text:00000000000000ec .L0 
     /tmp/ccRJCNDp.s:157    .text:00000000000000f0 .L0 
     /tmp/ccRJCNDp.s:160    .text:00000000000000f4 .L0 
     /tmp/ccRJCNDp.s:161    .text:00000000000000f4 .L0 
     /tmp/ccRJCNDp.s:166    .text:0000000000000100 .L0 
     /tmp/ccRJCNDp.s:167    .text:0000000000000100 .L0 
     /tmp/ccRJCNDp.s:169    .text:0000000000000104 .L0 
     /tmp/ccRJCNDp.s:171    .text:0000000000000108 .L0 
     /tmp/ccRJCNDp.s:173    .text:000000000000010c .L0 
     /tmp/ccRJCNDp.s:176    .text:0000000000000110 .L0 
     /tmp/ccRJCNDp.s:177    .text:0000000000000110 .L0 
     /tmp/ccRJCNDp.s:179    .text:0000000000000114 .L0 
     /tmp/ccRJCNDp.s:182    .text:000000000000011c .L0 
     /tmp/ccRJCNDp.s:184    .text:0000000000000120 .L0 
     /tmp/ccRJCNDp.s:185    .text:0000000000000120 .L0 
     /tmp/ccRJCNDp.s:189    .text:000000000000012c .L0 
     /tmp/ccRJCNDp.s:190    .text:000000000000012c .L0 
     /tmp/ccRJCNDp.s:192    .text:0000000000000134 .L0 
     /tmp/ccRJCNDp.s:194    .text:0000000000000138 .L0 
     /tmp/ccRJCNDp.s:195    .text:0000000000000138 .L0 
     /tmp/ccRJCNDp.s:197    .text:000000000000013c .L0 
     /tmp/ccRJCNDp.s:200    .text:0000000000000140 .L0 
     /tmp/ccRJCNDp.s:203    .text:0000000000000144 .L0 
     /tmp/ccRJCNDp.s:205    .text:0000000000000148 .L0 
     /tmp/ccRJCNDp.s:211    .text:0000000000000148 _ZN13BoundedBufferD2Ev
     /tmp/ccRJCNDp.s:214    .text:0000000000000148 .L0 
     /tmp/ccRJCNDp.s:2693   .data.rel.local.DW.ref.__gxx_personality_v0:0000000000000000 DW.ref.__gxx_personality_v0
     /tmp/ccRJCNDp.s:218    .text:0000000000000148 .L0 
     /tmp/ccRJCNDp.s:219    .text:000000000000014c .L0 
     /tmp/ccRJCNDp.s:223    .text:0000000000000158 .L0 
     /tmp/ccRJCNDp.s:224    .text:0000000000000158 .L0 
     /tmp/ccRJCNDp.s:225    .text:0000000000000158 .L0 
     /tmp/ccRJCNDp.s:227    .text:000000000000015c .L0 
     /tmp/ccRJCNDp.s:231    .text:0000000000000160 .L0 
     /tmp/ccRJCNDp.s:232    .text:0000000000000160 .L0 
     /tmp/ccRJCNDp.s:237    .text:000000000000016c .L0 
     /tmp/ccRJCNDp.s:238    .text:000000000000016c .L0 
     /tmp/ccRJCNDp.s:242    .text:0000000000000178 .L0 
     /tmp/ccRJCNDp.s:243    .text:0000000000000178 .L0 
     /tmp/ccRJCNDp.s:248    .text:0000000000000184 .L0 
     /tmp/ccRJCNDp.s:249    .text:0000000000000188 .L0 
     /tmp/ccRJCNDp.s:251    .text:000000000000018c .L0 
     /tmp/ccRJCNDp.s:252    .text:000000000000018c .L0 
     /tmp/ccRJCNDp.s:254    .text:0000000000000190 .L0 
     /tmp/ccRJCNDp.s:257    .text:0000000000000194 .L0 
     /tmp/ccRJCNDp.s:259    .text:0000000000000198 .L0 
     /tmp/ccRJCNDp.s:211    .text:0000000000000148 _ZN13BoundedBufferD1Ev
     /tmp/ccRJCNDp.s:275    .text:0000000000000198 _ZN8_console13inputBuff_putEc
     /tmp/ccRJCNDp.s:278    .text:0000000000000198 .L0 
GAS LISTING /tmp/ccRJCNDp.s 			page 14


     /tmp/ccRJCNDp.s:280    .text:0000000000000198 .L0 
     /tmp/ccRJCNDp.s:281    .text:000000000000019c .L0 
     /tmp/ccRJCNDp.s:284    .text:00000000000001a4 .L0 
     /tmp/ccRJCNDp.s:285    .text:00000000000001a4 .L0 
     /tmp/ccRJCNDp.s:287    .text:00000000000001a8 .L0 
     /tmp/ccRJCNDp.s:290    .text:00000000000001ac .L0 
     /tmp/ccRJCNDp.s:291    .text:00000000000001ac .L0 
     /tmp/ccRJCNDp.s:296    .text:00000000000001bc .L0 
     /tmp/ccRJCNDp.s:297    .text:00000000000001c0 .L0 
     /tmp/ccRJCNDp.s:299    .text:00000000000001c4 .L0 
     /tmp/ccRJCNDp.s:300    .text:00000000000001c4 .L0 
     /tmp/ccRJCNDp.s:302    .text:00000000000001c8 .L0 
     /tmp/ccRJCNDp.s:304    .text:00000000000001cc .L0 
     /tmp/ccRJCNDp.s:310    .text:00000000000001cc _ZN8_console13inputBuff_getEv
     /tmp/ccRJCNDp.s:313    .text:00000000000001cc .L0 
     /tmp/ccRJCNDp.s:314    .text:00000000000001cc .L0 
     /tmp/ccRJCNDp.s:315    .text:00000000000001d0 .L0 
     /tmp/ccRJCNDp.s:318    .text:00000000000001d8 .L0 
     /tmp/ccRJCNDp.s:319    .text:00000000000001d8 .L0 
     /tmp/ccRJCNDp.s:321    .text:00000000000001dc .L0 
     /tmp/ccRJCNDp.s:323    .text:00000000000001dc .L0 
     /tmp/ccRJCNDp.s:324    .text:00000000000001dc .L0 
     /tmp/ccRJCNDp.s:328    .text:00000000000001ec .L0 
     /tmp/ccRJCNDp.s:329    .text:00000000000001f0 .L0 
     /tmp/ccRJCNDp.s:331    .text:00000000000001f4 .L0 
     /tmp/ccRJCNDp.s:332    .text:00000000000001f4 .L0 
     /tmp/ccRJCNDp.s:334    .text:00000000000001f8 .L0 
     /tmp/ccRJCNDp.s:336    .text:00000000000001fc .L0 
     /tmp/ccRJCNDp.s:342    .text:00000000000001fc _ZN8_console14outputBuff_putEc
     /tmp/ccRJCNDp.s:345    .text:00000000000001fc .L0 
     /tmp/ccRJCNDp.s:347    .text:00000000000001fc .L0 
     /tmp/ccRJCNDp.s:348    .text:0000000000000200 .L0 
     /tmp/ccRJCNDp.s:351    .text:0000000000000208 .L0 
     /tmp/ccRJCNDp.s:352    .text:0000000000000208 .L0 
     /tmp/ccRJCNDp.s:354    .text:000000000000020c .L0 
     /tmp/ccRJCNDp.s:357    .text:0000000000000210 .L0 
     /tmp/ccRJCNDp.s:358    .text:0000000000000210 .L0 
     /tmp/ccRJCNDp.s:363    .text:0000000000000220 .L0 
     /tmp/ccRJCNDp.s:364    .text:0000000000000224 .L0 
     /tmp/ccRJCNDp.s:366    .text:0000000000000228 .L0 
     /tmp/ccRJCNDp.s:367    .text:0000000000000228 .L0 
     /tmp/ccRJCNDp.s:369    .text:000000000000022c .L0 
     /tmp/ccRJCNDp.s:371    .text:0000000000000230 .L0 
     /tmp/ccRJCNDp.s:377    .text:0000000000000230 _ZN8_console14outputBuff_getEv
     /tmp/ccRJCNDp.s:380    .text:0000000000000230 .L0 
     /tmp/ccRJCNDp.s:381    .text:0000000000000230 .L0 
     /tmp/ccRJCNDp.s:382    .text:0000000000000234 .L0 
     /tmp/ccRJCNDp.s:385    .text:000000000000023c .L0 
     /tmp/ccRJCNDp.s:386    .text:000000000000023c .L0 
     /tmp/ccRJCNDp.s:388    .text:0000000000000240 .L0 
     /tmp/ccRJCNDp.s:390    .text:0000000000000240 .L0 
     /tmp/ccRJCNDp.s:391    .text:0000000000000240 .L0 
     /tmp/ccRJCNDp.s:395    .text:0000000000000250 .L0 
     /tmp/ccRJCNDp.s:396    .text:0000000000000254 .L0 
     /tmp/ccRJCNDp.s:398    .text:0000000000000258 .L0 
     /tmp/ccRJCNDp.s:399    .text:0000000000000258 .L0 
     /tmp/ccRJCNDp.s:401    .text:000000000000025c .L0 
GAS LISTING /tmp/ccRJCNDp.s 			page 15


     /tmp/ccRJCNDp.s:403    .text:0000000000000260 .L0 
     /tmp/ccRJCNDp.s:409    .text:0000000000000260 _ZN8_console15consumerConsoleEPv
     /tmp/ccRJCNDp.s:412    .text:0000000000000260 .L0 
     /tmp/ccRJCNDp.s:414    .text:0000000000000260 .L0 
     /tmp/ccRJCNDp.s:416    .text:0000000000000260 .L0 
     /tmp/ccRJCNDp.s:417    .text:0000000000000260 .L0 
     /tmp/ccRJCNDp.s:418    .text:0000000000000260 .L0 
     /tmp/ccRJCNDp.s:419    .text:0000000000000260 .L0 
     /tmp/ccRJCNDp.s:423    .text:0000000000000270 .L0 
     /tmp/ccRJCNDp.s:427    .text:0000000000000278 .L0 
     /tmp/ccRJCNDp.s:428    .text:000000000000027c .L0 
     /tmp/ccRJCNDp.s:431    .text:0000000000000284 .L0 
     /tmp/ccRJCNDp.s:432    .text:0000000000000284 .L0 
     /tmp/ccRJCNDp.s:434    .text:0000000000000288 .L0 
     /tmp/ccRJCNDp.s:439    .text:0000000000000288 .L0 
     /tmp/ccRJCNDp.s:440    .text:0000000000000288 .L0 
     /tmp/ccRJCNDp.s:443    .text:0000000000000290 .L0 
     /tmp/ccRJCNDp.s:446    .text:000000000000029c .L0 
     /tmp/ccRJCNDp.s:452    .text:00000000000002a0 .L0 
     /tmp/ccRJCNDp.s:453    .text:00000000000002a0 .L0 
     /tmp/ccRJCNDp.s:454    .text:00000000000002a0 .L0 
     /tmp/ccRJCNDp.s:455    .text:00000000000002a0 .L0 
     /tmp/ccRJCNDp.s:459    .text:00000000000002b0 .L0 
     /tmp/ccRJCNDp.s:463    .text:00000000000002bc .L0 
     /tmp/ccRJCNDp.s:473    .bss:0000000000000000 _ZN8_console9inputBuffE
     /tmp/ccRJCNDp.s:477    .bss:0000000000000008 _ZN8_console10outputBuffE
     /tmp/ccRJCNDp.s:470    .bss:0000000000000000 .LANCHOR0
     /tmp/ccRJCNDp.s:487    .text:00000000000002bc .L0 
     /tmp/ccRJCNDp.s:291    .text:00000000000001ac .L0 
     /tmp/ccRJCNDp.s:324    .text:00000000000001dc .L0 
     /tmp/ccRJCNDp.s:358    .text:0000000000000210 .L0 
     /tmp/ccRJCNDp.s:391    .text:0000000000000240 .L0 
     /tmp/ccRJCNDp.s:419    .text:0000000000000260 .L0 
     /tmp/ccRJCNDp.s:443    .text:0000000000000290 .L0 
     /tmp/ccRJCNDp.s:455    .text:00000000000002a0 .L0 
     /tmp/ccRJCNDp.s:413    .text:0000000000000260 .L21
     /tmp/ccRJCNDp.s:447    .text:00000000000002a0 .L18
     /tmp/ccRJCNDp.s:435    .text:0000000000000288 .L22
     /tmp/ccRJCNDp.s:1535   .debug_abbrev:0000000000000000 .Ldebug_abbrev0
     /tmp/ccRJCNDp.s:2647   .debug_str:000000000000058f .LASF104
     /tmp/ccRJCNDp.s:2605   .debug_str:000000000000045d .LASF105
     /tmp/ccRJCNDp.s:2529   .debug_str:0000000000000212 .LASF106
     /tmp/ccRJCNDp.s:5      .text:0000000000000000 .Ltext0
     /tmp/ccRJCNDp.s:480    .text:00000000000002bc .Letext0
     /tmp/ccRJCNDp.s:2461   .debug_line:0000000000000000 .Ldebug_line0
     /tmp/ccRJCNDp.s:2587   .debug_str:00000000000003ca .LASF0
     /tmp/ccRJCNDp.s:2597   .debug_str:0000000000000418 .LASF1
     /tmp/ccRJCNDp.s:2573   .debug_str:0000000000000381 .LASF2
     /tmp/ccRJCNDp.s:2549   .debug_str:00000000000002b8 .LASF4
     /tmp/ccRJCNDp.s:2633   .debug_str:000000000000053c .LASF3
     /tmp/ccRJCNDp.s:2479   .debug_str:000000000000008b .LASF5
     /tmp/ccRJCNDp.s:2603   .debug_str:000000000000044a .LASF6
     /tmp/ccRJCNDp.s:2585   .debug_str:00000000000003b7 .LASF7
     /tmp/ccRJCNDp.s:2661   .debug_str:00000000000006af .LASF8
     /tmp/ccRJCNDp.s:2537   .debug_str:000000000000025d .LASF9
     /tmp/ccRJCNDp.s:2611   .debug_str:0000000000000488 .LASF10
     /tmp/ccRJCNDp.s:2651   .debug_str:000000000000065f .LASF11
GAS LISTING /tmp/ccRJCNDp.s 			page 16


     /tmp/ccRJCNDp.s:2485   .debug_str:00000000000000a8 .LASF12
     /tmp/ccRJCNDp.s:2473   .debug_str:0000000000000053 .LASF13
     /tmp/ccRJCNDp.s:2493   .debug_str:00000000000000e4 .LASF14
     /tmp/ccRJCNDp.s:2627   .debug_str:0000000000000511 .LASF15
     /tmp/ccRJCNDp.s:2505   .debug_str:0000000000000156 .LASF16
     /tmp/ccRJCNDp.s:2567   .debug_str:0000000000000359 .LASF23
     /tmp/ccRJCNDp.s:2509   .debug_str:0000000000000172 .LASF107
     /tmp/ccRJCNDp.s:2641   .debug_str:0000000000000574 .LASF17
     /tmp/ccRJCNDp.s:2683   .debug_str:0000000000000752 .LASF18
     /tmp/ccRJCNDp.s:2593   .debug_str:0000000000000404 .LASF19
     /tmp/ccRJCNDp.s:2685   .debug_str:0000000000000757 .LASF21
     /tmp/ccRJCNDp.s:2523   .debug_str:0000000000000203 .LASF20
     /tmp/ccRJCNDp.s:2621   .debug_str:00000000000004d6 .LASF22
     /tmp/ccRJCNDp.s:2571   .debug_str:0000000000000376 .LASF108
     /tmp/ccRJCNDp.s:2675   .debug_str:0000000000000709 .LASF109
     /tmp/ccRJCNDp.s:2657   .debug_str:000000000000068e .LASF29
     /tmp/ccRJCNDp.s:2579   .debug_str:000000000000039c .LASF31
     /tmp/ccRJCNDp.s:2557   .debug_str:0000000000000301 .LASF32
     /tmp/ccRJCNDp.s:2569   .debug_str:0000000000000369 .LASF91
     /tmp/ccRJCNDp.s:2563   .debug_str:000000000000034a .LASF24
     /tmp/ccRJCNDp.s:2565   .debug_str:0000000000000354 .LASF110
     /tmp/ccRJCNDp.s:2511   .debug_str:0000000000000179 .LASF25
     /tmp/ccRJCNDp.s:2575   .debug_str:000000000000038f .LASF26
     /tmp/ccRJCNDp.s:2547   .debug_str:00000000000002b3 .LASF27
     /tmp/ccRJCNDp.s:2591   .debug_str:00000000000003f1 .LASF28
     /tmp/ccRJCNDp.s:2623   .debug_str:00000000000004f3 .LASF30
     /tmp/ccRJCNDp.s:2541   .debug_str:0000000000000285 .LASF33
     /tmp/ccRJCNDp.s:2645   .debug_str:0000000000000586 .LASF34
     /tmp/ccRJCNDp.s:2519   .debug_str:00000000000001d7 .LASF35
     /tmp/ccRJCNDp.s:2535   .debug_str:0000000000000255 .LASF36
     /tmp/ccRJCNDp.s:2517   .debug_str:00000000000001bb .LASF37
     /tmp/ccRJCNDp.s:2649   .debug_str:0000000000000653 .LASF38
     /tmp/ccRJCNDp.s:2467   .debug_str:0000000000000017 .LASF39
     /tmp/ccRJCNDp.s:2491   .debug_str:00000000000000da .LASF40
     /tmp/ccRJCNDp.s:2555   .debug_str:00000000000002e6 .LASF41
     /tmp/ccRJCNDp.s:2671   .debug_str:00000000000006fa .LASF42
     /tmp/ccRJCNDp.s:2643   .debug_str:0000000000000579 .LASF43
     /tmp/ccRJCNDp.s:2659   .debug_str:00000000000006aa .LASF44
     /tmp/ccRJCNDp.s:2487   .debug_str:00000000000000b8 .LASF45
     /tmp/ccRJCNDp.s:2463   .debug_str:0000000000000000 .LASF46
     /tmp/ccRJCNDp.s:2599   .debug_str:000000000000042b .LASF47
     /tmp/ccRJCNDp.s:2525   .debug_str:0000000000000208 .LASF48
     /tmp/ccRJCNDp.s:2501   .debug_str:000000000000012f .LASF49
     /tmp/ccRJCNDp.s:2607   .debug_str:000000000000046e .LASF50
     /tmp/ccRJCNDp.s:2543   .debug_str:000000000000029c .LASF51
     /tmp/ccRJCNDp.s:2507   .debug_str:000000000000016c .LASF52
     /tmp/ccRJCNDp.s:2655   .debug_str:000000000000067c .LASF53
     /tmp/ccRJCNDp.s:2667   .debug_str:00000000000006dd .LASF54
     /tmp/ccRJCNDp.s:2481   .debug_str:0000000000000092 .LASF55
     /tmp/ccRJCNDp.s:2635   .debug_str:000000000000054e .LASF79
     /tmp/ccRJCNDp.s:2531   .debug_str:0000000000000230 .LASF81
     /tmp/ccRJCNDp.s:2663   .debug_str:00000000000006bf .LASF56
     /tmp/ccRJCNDp.s:2665   .debug_str:00000000000006c8 .LASF57
     /tmp/ccRJCNDp.s:2631   .debug_str:0000000000000532 .LASF58
     /tmp/ccRJCNDp.s:2559   .debug_str:000000000000031d .LASF59
     /tmp/ccRJCNDp.s:2553   .debug_str:00000000000002e0 .LASF60
     /tmp/ccRJCNDp.s:2465   .debug_str:0000000000000006 .LASF61
GAS LISTING /tmp/ccRJCNDp.s 			page 17


     /tmp/ccRJCNDp.s:2577   .debug_str:0000000000000394 .LASF62
     /tmp/ccRJCNDp.s:2495   .debug_str:00000000000000f0 .LASF63
     /tmp/ccRJCNDp.s:2583   .debug_str:00000000000003af .LASF64
     /tmp/ccRJCNDp.s:2637   .debug_str:000000000000055e .LASF65
     /tmp/ccRJCNDp.s:2527   .debug_str:000000000000020d .LASF66
     /tmp/ccRJCNDp.s:2477   .debug_str:0000000000000082 .LASF67
     /tmp/ccRJCNDp.s:2601   .debug_str:000000000000043c .LASF68
     /tmp/ccRJCNDp.s:2619   .debug_str:00000000000004bf .LASF69
     /tmp/ccRJCNDp.s:2469   .debug_str:0000000000000035 .LASF70
     /tmp/ccRJCNDp.s:2679   .debug_str:0000000000000736 .LASF71
     /tmp/ccRJCNDp.s:2617   .debug_str:00000000000004a6 .LASF111
     /tmp/ccRJCNDp.s:2681   .debug_str:000000000000074d .LASF72
     /tmp/ccRJCNDp.s:2589   .debug_str:00000000000003d7 .LASF73
     /tmp/ccRJCNDp.s:2625   .debug_str:000000000000050a .LASF74
     /tmp/ccRJCNDp.s:2521   .debug_str:00000000000001f4 .LASF75
     /tmp/ccRJCNDp.s:2499   .debug_str:0000000000000121 .LASF76
     /tmp/ccRJCNDp.s:2545   .debug_str:00000000000002ae .LASF77
     /tmp/ccRJCNDp.s:2483   .debug_str:000000000000009f .LASF78
     /tmp/ccRJCNDp.s:2653   .debug_str:000000000000066e .LASF80
     /tmp/ccRJCNDp.s:2513   .debug_str:000000000000017e .LASF82
     /tmp/ccRJCNDp.s:2595   .debug_str:000000000000040a .LASF85
     /tmp/ccRJCNDp.s:2497   .debug_str:0000000000000103 .LASF87
     /tmp/ccRJCNDp.s:2471   .debug_str:0000000000000044 .LASF83
     /tmp/ccRJCNDp.s:2515   .debug_str:000000000000019c .LASF84
     /tmp/ccRJCNDp.s:2639   .debug_str:0000000000000565 .LASF86
     /tmp/ccRJCNDp.s:2475   .debug_str:0000000000000063 .LASF88
     /tmp/ccRJCNDp.s:2669   .debug_str:00000000000006ea .LASF89
     /tmp/ccRJCNDp.s:2551   .debug_str:00000000000002bf .LASF90
     /tmp/ccRJCNDp.s:2629   .debug_str:0000000000000527 .LASF92
     /tmp/ccRJCNDp.s:2673   .debug_str:00000000000006ff .LASF93
     /tmp/ccRJCNDp.s:2539   .debug_str:000000000000026b .LASF94
     /tmp/ccRJCNDp.s:2561   .debug_str:0000000000000332 .LASF95
     /tmp/ccRJCNDp.s:378    .text:0000000000000230 .LFB30
     /tmp/ccRJCNDp.s:404    .text:0000000000000260 .LFE30
     /tmp/ccRJCNDp.s:393    .text:0000000000000250 .LVL31
     /tmp/ccRJCNDp.s:343    .text:00000000000001fc .LFB29
     /tmp/ccRJCNDp.s:372    .text:0000000000000230 .LFE29
     /tmp/ccRJCNDp.s:2323   .debug_loc:0000000000000000 .LLST7
     /tmp/ccRJCNDp.s:361    .text:0000000000000220 .LVL30
     /tmp/ccRJCNDp.s:311    .text:00000000000001cc .LFB28
     /tmp/ccRJCNDp.s:337    .text:00000000000001fc .LFE28
     /tmp/ccRJCNDp.s:326    .text:00000000000001ec .LVL27
     /tmp/ccRJCNDp.s:276    .text:0000000000000198 .LFB27
     /tmp/ccRJCNDp.s:305    .text:00000000000001cc .LFE27
     /tmp/ccRJCNDp.s:2337   .debug_loc:0000000000000039 .LLST6
     /tmp/ccRJCNDp.s:294    .text:00000000000001bc .LVL26
     /tmp/ccRJCNDp.s:2615   .debug_str:00000000000004a1 .LASF96
     /tmp/ccRJCNDp.s:2613   .debug_str:0000000000000497 .LASF97
     /tmp/ccRJCNDp.s:2503   .debug_str:000000000000013f .LASF98
     /tmp/ccRJCNDp.s:212    .text:0000000000000148 .LFB25
     /tmp/ccRJCNDp.s:260    .text:0000000000000198 .LFE25
     /tmp/ccRJCNDp.s:2351   .debug_loc:0000000000000072 .LLST5
     /tmp/ccRJCNDp.s:235    .text:000000000000016c .LVL20
     /tmp/ccRJCNDp.s:240    .text:0000000000000178 .LVL21
     /tmp/ccRJCNDp.s:245    .text:0000000000000184 .LVL22
     /tmp/ccRJCNDp.s:142    .text:00000000000000d8 .LFB23
     /tmp/ccRJCNDp.s:206    .text:0000000000000148 .LFE23
GAS LISTING /tmp/ccRJCNDp.s 			page 18


     /tmp/ccRJCNDp.s:2369   .debug_loc:00000000000000be .LLST3
     /tmp/ccRJCNDp.s:2387   .debug_loc:000000000000010a .LLST4
     /tmp/ccRJCNDp.s:164    .text:0000000000000100 .LVL13
     /tmp/ccRJCNDp.s:187    .text:000000000000012c .LVL15
     /tmp/ccRJCNDp.s:74     .text:0000000000000064 .LFB22
     /tmp/ccRJCNDp.s:136    .text:00000000000000d8 .LFE22
     /tmp/ccRJCNDp.s:2398   .debug_loc:0000000000000140 .LLST1
     /tmp/ccRJCNDp.s:2416   .debug_loc:000000000000018c .LLST2
     /tmp/ccRJCNDp.s:97     .text:0000000000000090 .LVL8
     /tmp/ccRJCNDp.s:120    .text:00000000000000c0 .LVL9
     /tmp/ccRJCNDp.s:2533   .debug_str:000000000000023e .LASF99
     /tmp/ccRJCNDp.s:10     .text:0000000000000000 .LFB20
     /tmp/ccRJCNDp.s:66     .text:0000000000000064 .LFE20
     /tmp/ccRJCNDp.s:2430   .debug_loc:00000000000001c5 .LLST0
     /tmp/ccRJCNDp.s:35     .text:000000000000002c .LVL2
     /tmp/ccRJCNDp.s:42     .text:000000000000003c .LVL3
     /tmp/ccRJCNDp.s:49     .text:000000000000004c .LVL4
     /tmp/ccRJCNDp.s:410    .text:0000000000000260 .LFB18
     /tmp/ccRJCNDp.s:464    .text:00000000000002bc .LFE18
     /tmp/ccRJCNDp.s:437    .text:0000000000000288 .LBB5
     /tmp/ccRJCNDp.s:448    .text:00000000000002a0 .LBE5
     /tmp/ccRJCNDp.s:441    .text:0000000000000290 .LVL32
     /tmp/ccRJCNDp.s:2609   .debug_str:0000000000000475 .LASF100
     /tmp/ccRJCNDp.s:2677   .debug_str:000000000000072c .LASF102
     /tmp/ccRJCNDp.s:2489   .debug_str:00000000000000c8 .LASF101
     /tmp/ccRJCNDp.s:2581   .debug_str:00000000000003a6 .LASF103
     /tmp/ccRJCNDp.s:346    .text:00000000000001fc .LVL28
     /tmp/ccRJCNDp.s:359    .text:0000000000000218 .LVL29
     /tmp/ccRJCNDp.s:279    .text:0000000000000198 .LVL24
     /tmp/ccRJCNDp.s:292    .text:00000000000001b4 .LVL25
     /tmp/ccRJCNDp.s:217    .text:0000000000000148 .LVL18
     /tmp/ccRJCNDp.s:233    .text:0000000000000164 .LVL19
     /tmp/ccRJCNDp.s:255    .text:0000000000000190 .LVL23
     /tmp/ccRJCNDp.s:145    .text:00000000000000d8 .LVL11
     /tmp/ccRJCNDp.s:162    .text:00000000000000f8 .LVL12
     /tmp/ccRJCNDp.s:198    .text:000000000000013c .LVL16
     /tmp/ccRJCNDp.s:174    .text:0000000000000110 .LVL14
     /tmp/ccRJCNDp.s:201    .text:0000000000000140 .LVL17
     /tmp/ccRJCNDp.s:77     .text:0000000000000064 .LVL6
     /tmp/ccRJCNDp.s:95     .text:0000000000000088 .LVL7
     /tmp/ccRJCNDp.s:129    .text:00000000000000cc .LVL10
     /tmp/ccRJCNDp.s:14     .text:0000000000000000 .LVL0
     /tmp/ccRJCNDp.s:33     .text:0000000000000024 .LVL1
     /tmp/ccRJCNDp.s:61     .text:000000000000005c .LVL5
     /tmp/ccRJCNDp.s:488    .debug_info:0000000000000000 .Ldebug_info0
     /tmp/ccRJCNDp.s:263    .gcc_except_table:0000000000000000 .LLSDA25

UNDEFINED SYMBOLS
_ZN15MemoryAllocator5allocEm
_ZN4_sem4openEi
_ZN4_sem4waitEv
_ZN4_sem6signalEv
_Z8sem_waitP4_sem
_ZN15MemoryAllocator4freeEPv
_Z9sem_closeP4_sem
__gxx_personality_v0
CONSOLE_STATUS
GAS LISTING /tmp/ccRJCNDp.s 			page 19


CONSOLE_TX_DATA
