GAS LISTING /tmp/ccF1nelH.s 			page 1


   1              		.file	"_console.cpp"
   2              		.option pic
   3              		.option norelax
   4              		.text
   5              	.Ltext0:
   6              		.align	2
   7              		.globl	_ZN13BoundedBufferC2Ev
   9              	_ZN13BoundedBufferC2Ev:
  10              	.LFB20:
  11              		.file 1 "src/_console.cpp"
   1:src/_console.cpp **** //
   2:src/_console.cpp **** // Created by os on 8/15/23.
   3:src/_console.cpp **** //
   4:src/_console.cpp **** 
   5:src/_console.cpp **** #include "../h/_console.hpp"
   6:src/_console.cpp **** #include "../h/syscall_c.hpp"
   7:src/_console.cpp **** 
   8:src/_console.cpp **** BoundedBuffer* _console::outputBuff= nullptr;
   9:src/_console.cpp **** BoundedBuffer* _console::inputBuff= nullptr;
  10:src/_console.cpp **** 
  11:src/_console.cpp **** 
  12:src/_console.cpp **** void _console::consumerConsole(void*){
  13:src/_console.cpp ****     while(true) {
  14:src/_console.cpp ****         while ((*(char *) CONSOLE_STATUS) & CONSOLE_TX_STATUS_BIT) {
  15:src/_console.cpp ****             char c = _console::outputBuff_take();
  16:src/_console.cpp ****             *(char *) CONSOLE_TX_DATA = c;
  17:src/_console.cpp ****         }
  18:src/_console.cpp ****     }
  19:src/_console.cpp **** }
  20:src/_console.cpp **** 
  21:src/_console.cpp **** 
  22:src/_console.cpp **** BoundedBuffer::BoundedBuffer():head(0), tail(0){
  12              		.loc 1 22 1
  13              		.cfi_startproc
  14              	.LVL0:
  15 0000 130101FE 		addi	sp,sp,-32
  16              		.cfi_def_cfa_offset 32
  17 0004 233C1100 		sd	ra,24(sp)
  18 0008 23388100 		sd	s0,16(sp)
  19 000c 23349100 		sd	s1,8(sp)
  20              		.cfi_offset 1, -8
  21              		.cfi_offset 8, -16
  22              		.cfi_offset 9, -24
  23 0010 13040102 		addi	s0,sp,32
  24              		.cfi_def_cfa 8, 0
  25 0014 93040500 		mv	s1,a0
  26              	.LBB2:
  27              		.loc 1 22 47 is_stmt 0
  28 0018 23240500 		sw	zero,8(a0)
  29 001c 23260500 		sw	zero,12(a0)
  23:src/_console.cpp ****     buffer=(char*)MemoryAllocator::alloc((BUFF_CAP+MEM_BLOCK_SIZE-1)/MEM_BLOCK_SIZE);
  30              		.loc 1 23 5 is_stmt 1
  31              		.loc 1 23 41 is_stmt 0
  32 0020 13050001 		li	a0,16
  33              	.LVL1:
  34 0024 97000000 		call	_ZN15MemoryAllocator5allocEm@plt
  34      E7800000 
GAS LISTING /tmp/ccF1nelH.s 			page 2


  35              	.LVL2:
  36              		.loc 1 23 11
  37 002c 23B0A400 		sd	a0,0(s1)
  24:src/_console.cpp ****     spaceAvailable=_sem::open(BUFF_CAP);
  38              		.loc 1 24 5 is_stmt 1
  39              		.loc 1 24 30 is_stmt 0
  40 0030 1305803E 		li	a0,1000
  41 0034 97000000 		call	_ZN4_sem4openEi@plt
  41      E7800000 
  42              	.LVL3:
  43              		.loc 1 24 19
  44 003c 23B8A400 		sd	a0,16(s1)
  25:src/_console.cpp ****     itemAvailable=_sem::open(0);
  45              		.loc 1 25 5 is_stmt 1
  46              		.loc 1 25 29 is_stmt 0
  47 0040 13050000 		li	a0,0
  48 0044 97000000 		call	_ZN4_sem4openEi@plt
  48      E7800000 
  49              	.LVL4:
  50              		.loc 1 25 18
  51 004c 23BCA400 		sd	a0,24(s1)
  52              	.LBE2:
  26:src/_console.cpp **** }
  53              		.loc 1 26 1
  54 0050 83308101 		ld	ra,24(sp)
  55              		.cfi_restore 1
  56 0054 03340101 		ld	s0,16(sp)
  57              		.cfi_restore 8
  58              		.cfi_def_cfa 2, 32
  59 0058 83348100 		ld	s1,8(sp)
  60              		.cfi_restore 9
  61              	.LVL5:
  62 005c 13010102 		addi	sp,sp,32
  63              		.cfi_def_cfa_offset 0
  64 0060 67800000 		jr	ra
  65              		.cfi_endproc
  66              	.LFE20:
  68              		.globl	_ZN13BoundedBufferC1Ev
  69              		.set	_ZN13BoundedBufferC1Ev,_ZN13BoundedBufferC2Ev
  70              		.align	2
  71              		.globl	_ZN13BoundedBuffer3putEc
  73              	_ZN13BoundedBuffer3putEc:
  74              	.LFB22:
  27:src/_console.cpp **** 
  28:src/_console.cpp **** void BoundedBuffer::put(char c) {
  75              		.loc 1 28 33 is_stmt 1
  76              		.cfi_startproc
  77              	.LVL6:
  78 0064 130101FE 		addi	sp,sp,-32
  79              		.cfi_def_cfa_offset 32
  80 0068 233C1100 		sd	ra,24(sp)
  81 006c 23388100 		sd	s0,16(sp)
  82 0070 23349100 		sd	s1,8(sp)
  83 0074 23302101 		sd	s2,0(sp)
  84              		.cfi_offset 1, -8
  85              		.cfi_offset 8, -16
  86              		.cfi_offset 9, -24
GAS LISTING /tmp/ccF1nelH.s 			page 3


  87              		.cfi_offset 18, -32
  88 0078 13040102 		addi	s0,sp,32
  89              		.cfi_def_cfa 8, 0
  90 007c 93040500 		mv	s1,a0
  91 0080 13890500 		mv	s2,a1
  29:src/_console.cpp ****     spaceAvailable->wait();
  92              		.loc 1 29 5
  93              		.loc 1 29 25 is_stmt 0
  94 0084 03350501 		ld	a0,16(a0)
  95              	.LVL7:
  96 0088 97000000 		call	_ZN4_sem4waitEv@plt
  96      E7800000 
  97              	.LVL8:
  30:src/_console.cpp ****     buffer[tail]=c;
  98              		.loc 1 30 5 is_stmt 1
  99 0090 83B70400 		ld	a5,0(s1)
 100              		.loc 1 30 12 is_stmt 0
 101 0094 03A7C400 		lw	a4,12(s1)
 102              		.loc 1 30 16
 103 0098 B387E700 		add	a5,a5,a4
 104              		.loc 1 30 17
 105 009c 23802701 		sb	s2,0(a5)
  31:src/_console.cpp ****     tail=(tail+1)%BUFF_CAP;
 106              		.loc 1 31 5 is_stmt 1
 107              		.loc 1 31 11 is_stmt 0
 108 00a0 83A7C400 		lw	a5,12(s1)
 109              		.loc 1 31 15
 110 00a4 9B871700 		addiw	a5,a5,1
 111              		.loc 1 31 18
 112 00a8 1307803E 		li	a4,1000
 113 00ac BBE7E702 		remw	a5,a5,a4
 114              		.loc 1 31 9
 115 00b0 23A6F400 		sw	a5,12(s1)
  32:src/_console.cpp ****     itemAvailable->signal();
 116              		.loc 1 32 5 is_stmt 1
 117              		.loc 1 32 26 is_stmt 0
 118 00b4 03B58401 		ld	a0,24(s1)
 119 00b8 97000000 		call	_ZN4_sem6signalEv@plt
 119      E7800000 
 120              	.LVL9:
  33:src/_console.cpp **** }
 121              		.loc 1 33 1
 122 00c0 83308101 		ld	ra,24(sp)
 123              		.cfi_restore 1
 124 00c4 03340101 		ld	s0,16(sp)
 125              		.cfi_restore 8
 126              		.cfi_def_cfa 2, 32
 127 00c8 83348100 		ld	s1,8(sp)
 128              		.cfi_restore 9
 129              	.LVL10:
 130 00cc 03390100 		ld	s2,0(sp)
 131              		.cfi_restore 18
 132 00d0 13010102 		addi	sp,sp,32
 133              		.cfi_def_cfa_offset 0
 134 00d4 67800000 		jr	ra
 135              		.cfi_endproc
 136              	.LFE22:
GAS LISTING /tmp/ccF1nelH.s 			page 4


 138              		.align	2
 139              		.globl	_ZN13BoundedBuffer17takeFromInterruptEv
 141              	_ZN13BoundedBuffer17takeFromInterruptEv:
 142              	.LFB23:
  34:src/_console.cpp **** 
  35:src/_console.cpp **** 
  36:src/_console.cpp **** char BoundedBuffer::takeFromInterrupt() {
 143              		.loc 1 36 41 is_stmt 1
 144              		.cfi_startproc
 145              	.LVL11:
 146 00d8 130101FE 		addi	sp,sp,-32
 147              		.cfi_def_cfa_offset 32
 148 00dc 233C1100 		sd	ra,24(sp)
 149 00e0 23388100 		sd	s0,16(sp)
 150 00e4 23349100 		sd	s1,8(sp)
 151 00e8 23302101 		sd	s2,0(sp)
 152              		.cfi_offset 1, -8
 153              		.cfi_offset 8, -16
 154              		.cfi_offset 9, -24
 155              		.cfi_offset 18, -32
 156 00ec 13040102 		addi	s0,sp,32
 157              		.cfi_def_cfa 8, 0
 158 00f0 93040500 		mv	s1,a0
  37:src/_console.cpp ****     itemAvailable->wait();
 159              		.loc 1 37 5
 160              		.loc 1 37 24 is_stmt 0
 161 00f4 03358501 		ld	a0,24(a0)
 162              	.LVL12:
 163 00f8 97000000 		call	_ZN4_sem4waitEv@plt
 163      E7800000 
 164              	.LVL13:
  38:src/_console.cpp ****     char c=buffer[head];
 165              		.loc 1 38 5 is_stmt 1
 166              		.loc 1 38 12 is_stmt 0
 167 0100 03B70400 		ld	a4,0(s1)
 168              		.loc 1 38 19
 169 0104 83A78400 		lw	a5,8(s1)
 170              		.loc 1 38 23
 171 0108 3307F700 		add	a4,a4,a5
 172              		.loc 1 38 10
 173 010c 03490700 		lbu	s2,0(a4)
 174              	.LVL14:
  39:src/_console.cpp ****     head=(head+1)%BUFF_CAP;
 175              		.loc 1 39 5 is_stmt 1
 176              		.loc 1 39 15 is_stmt 0
 177 0110 9B871700 		addiw	a5,a5,1
 178              		.loc 1 39 18
 179 0114 1307803E 		li	a4,1000
 180 0118 BBE7E702 		remw	a5,a5,a4
 181              		.loc 1 39 9
 182 011c 23A4F400 		sw	a5,8(s1)
  40:src/_console.cpp ****     spaceAvailable->signal();
 183              		.loc 1 40 5 is_stmt 1
 184              		.loc 1 40 27 is_stmt 0
 185 0120 03B50401 		ld	a0,16(s1)
 186 0124 97000000 		call	_ZN4_sem6signalEv@plt
 186      E7800000 
GAS LISTING /tmp/ccF1nelH.s 			page 5


 187              	.LVL15:
  41:src/_console.cpp ****     return c;
 188              		.loc 1 41 5 is_stmt 1
  42:src/_console.cpp **** }
 189              		.loc 1 42 1 is_stmt 0
 190 012c 13050900 		mv	a0,s2
 191 0130 83308101 		ld	ra,24(sp)
 192              		.cfi_restore 1
 193 0134 03340101 		ld	s0,16(sp)
 194              		.cfi_restore 8
 195              		.cfi_def_cfa 2, 32
 196 0138 83348100 		ld	s1,8(sp)
 197              		.cfi_restore 9
 198              	.LVL16:
 199 013c 03390100 		ld	s2,0(sp)
 200              		.cfi_restore 18
 201              	.LVL17:
 202 0140 13010102 		addi	sp,sp,32
 203              		.cfi_def_cfa_offset 0
 204 0144 67800000 		jr	ra
 205              		.cfi_endproc
 206              	.LFE23:
 208              		.align	2
 209              		.globl	_ZN13BoundedBufferD2Ev
 211              	_ZN13BoundedBufferD2Ev:
 212              	.LFB25:
  43:src/_console.cpp **** 
  44:src/_console.cpp **** BoundedBuffer::~BoundedBuffer() {
 213              		.loc 1 44 1 is_stmt 1
 214              		.cfi_startproc
 215              		.cfi_personality 0x9b,DW.ref.__gxx_personality_v0
 216              		.cfi_lsda 0x1b,.LLSDA25
 217              	.LVL18:
 218 0148 130101FE 		addi	sp,sp,-32
 219              		.cfi_def_cfa_offset 32
 220 014c 233C1100 		sd	ra,24(sp)
 221 0150 23388100 		sd	s0,16(sp)
 222 0154 23349100 		sd	s1,8(sp)
 223              		.cfi_offset 1, -8
 224              		.cfi_offset 8, -16
 225              		.cfi_offset 9, -24
 226 0158 13040102 		addi	s0,sp,32
 227              		.cfi_def_cfa 8, 0
 228 015c 93040500 		mv	s1,a0
 229              	.LBB3:
  45:src/_console.cpp ****     MemoryAllocator::free(buffer);
 230              		.loc 1 45 5
 231              		.loc 1 45 26 is_stmt 0
 232 0160 03350500 		ld	a0,0(a0)
 233              	.LVL19:
 234 0164 97000000 		call	_ZN15MemoryAllocator4freeEPv@plt
 234      E7800000 
 235              	.LVL20:
  46:src/_console.cpp ****     /*itemAvailable->close();
  47:src/_console.cpp ****     spaceAvailable->close();*/
  48:src/_console.cpp ****     sem_close(itemAvailable);
 236              		.loc 1 48 5 is_stmt 1
GAS LISTING /tmp/ccF1nelH.s 			page 6


 237              		.loc 1 48 14 is_stmt 0
 238 016c 03B58401 		ld	a0,24(s1)
 239 0170 97000000 		call	_Z9sem_closeP4_sem@plt
 239      E7800000 
 240              	.LVL21:
  49:src/_console.cpp ****     sem_close(spaceAvailable);
 241              		.loc 1 49 5 is_stmt 1
 242              		.loc 1 49 14 is_stmt 0
 243 0178 03B50401 		ld	a0,16(s1)
 244 017c 97000000 		call	_Z9sem_closeP4_sem@plt
 244      E7800000 
 245              	.LVL22:
 246              	.LBE3:
  50:src/_console.cpp **** }
 247              		.loc 1 50 1
 248 0184 83308101 		ld	ra,24(sp)
 249              		.cfi_restore 1
 250 0188 03340101 		ld	s0,16(sp)
 251              		.cfi_restore 8
 252              		.cfi_def_cfa 2, 32
 253 018c 83348100 		ld	s1,8(sp)
 254              		.cfi_restore 9
 255              	.LVL23:
 256 0190 13010102 		addi	sp,sp,32
 257              		.cfi_def_cfa_offset 0
 258 0194 67800000 		jr	ra
 259              		.cfi_endproc
 260              	.LFE25:
 261              		.globl	__gxx_personality_v0
 262              		.section	.gcc_except_table,"a",@progbits
 263              	.LLSDA25:
 264 0000 FF       		.byte	0xff
 265 0001 FF       		.byte	0xff
 266 0002 03       		.byte	0x3
 267 0003 00       		.byte	0
 268              		.text
 270              		.globl	_ZN13BoundedBufferD1Ev
 271              		.set	_ZN13BoundedBufferD1Ev,_ZN13BoundedBufferD2Ev
 272              		.align	2
 273              		.globl	_ZN13BoundedBuffer17takeFromSysThreadEv
 275              	_ZN13BoundedBuffer17takeFromSysThreadEv:
 276              	.LFB27:
  51:src/_console.cpp **** 
  52:src/_console.cpp **** char BoundedBuffer::takeFromSysThread() {
 277              		.loc 1 52 41 is_stmt 1
 278              		.cfi_startproc
 279              	.LVL24:
 280 0198 130101FE 		addi	sp,sp,-32
 281              		.cfi_def_cfa_offset 32
 282 019c 233C1100 		sd	ra,24(sp)
 283 01a0 23388100 		sd	s0,16(sp)
 284 01a4 23349100 		sd	s1,8(sp)
 285 01a8 23302101 		sd	s2,0(sp)
 286              		.cfi_offset 1, -8
 287              		.cfi_offset 8, -16
 288              		.cfi_offset 9, -24
 289              		.cfi_offset 18, -32
GAS LISTING /tmp/ccF1nelH.s 			page 7


 290 01ac 13040102 		addi	s0,sp,32
 291              		.cfi_def_cfa 8, 0
 292 01b0 93040500 		mv	s1,a0
  53:src/_console.cpp ****     sem_wait(itemAvailable);
 293              		.loc 1 53 5
 294              		.loc 1 53 13 is_stmt 0
 295 01b4 03358501 		ld	a0,24(a0)
 296              	.LVL25:
 297 01b8 97000000 		call	_Z8sem_waitP4_sem@plt
 297      E7800000 
 298              	.LVL26:
  54:src/_console.cpp ****     char c=buffer[head];
 299              		.loc 1 54 5 is_stmt 1
 300              		.loc 1 54 12 is_stmt 0
 301 01c0 03B70400 		ld	a4,0(s1)
 302              		.loc 1 54 19
 303 01c4 83A78400 		lw	a5,8(s1)
 304              		.loc 1 54 23
 305 01c8 3307F700 		add	a4,a4,a5
 306              		.loc 1 54 10
 307 01cc 03490700 		lbu	s2,0(a4)
 308              	.LVL27:
  55:src/_console.cpp ****     head=(head+1)%BUFF_CAP;
 309              		.loc 1 55 5 is_stmt 1
 310              		.loc 1 55 15 is_stmt 0
 311 01d0 9B871700 		addiw	a5,a5,1
 312              		.loc 1 55 18
 313 01d4 1307803E 		li	a4,1000
 314 01d8 BBE7E702 		remw	a5,a5,a4
 315              		.loc 1 55 9
 316 01dc 23A4F400 		sw	a5,8(s1)
  56:src/_console.cpp ****     sem_signal(spaceAvailable);
 317              		.loc 1 56 5 is_stmt 1
 318              		.loc 1 56 15 is_stmt 0
 319 01e0 03B50401 		ld	a0,16(s1)
 320 01e4 97000000 		call	_Z10sem_signalP4_sem@plt
 320      E7800000 
 321              	.LVL28:
  57:src/_console.cpp ****     return c;
 322              		.loc 1 57 5 is_stmt 1
  58:src/_console.cpp **** }
 323              		.loc 1 58 1 is_stmt 0
 324 01ec 13050900 		mv	a0,s2
 325 01f0 83308101 		ld	ra,24(sp)
 326              		.cfi_restore 1
 327 01f4 03340101 		ld	s0,16(sp)
 328              		.cfi_restore 8
 329              		.cfi_def_cfa 2, 32
 330 01f8 83348100 		ld	s1,8(sp)
 331              		.cfi_restore 9
 332              	.LVL29:
 333 01fc 03390100 		ld	s2,0(sp)
 334              		.cfi_restore 18
 335              	.LVL30:
 336 0200 13010102 		addi	sp,sp,32
 337              		.cfi_def_cfa_offset 0
 338 0204 67800000 		jr	ra
GAS LISTING /tmp/ccF1nelH.s 			page 8


 339              		.cfi_endproc
 340              	.LFE27:
 342              		.align	2
 343              		.globl	_ZN8_console13inputBuff_putEc
 345              	_ZN8_console13inputBuff_putEc:
 346              	.LFB28:
  59:src/_console.cpp **** 
  60:src/_console.cpp **** void _console::inputBuff_put(char c) {
 347              		.loc 1 60 38 is_stmt 1
 348              		.cfi_startproc
 349              	.LVL31:
 350 0208 130101FF 		addi	sp,sp,-16
 351              		.cfi_def_cfa_offset 16
 352 020c 23341100 		sd	ra,8(sp)
 353 0210 23308100 		sd	s0,0(sp)
 354              		.cfi_offset 1, -8
 355              		.cfi_offset 8, -16
 356 0214 13040101 		addi	s0,sp,16
 357              		.cfi_def_cfa 8, 0
 358 0218 93050500 		mv	a1,a0
  61:src/_console.cpp ****     inputBuff->put(c);
 359              		.loc 1 61 5
 360              		.loc 1 61 19 is_stmt 0
 361 021c 17050000 		ld	a0,.LANCHOR0
 361      03350500 
 362              	.LVL32:
 363 0224 97000000 		call	_ZN13BoundedBuffer3putEc
 363      E7800000 
 364              	.LVL33:
  62:src/_console.cpp **** }
 365              		.loc 1 62 1
 366 022c 83308100 		ld	ra,8(sp)
 367              		.cfi_restore 1
 368 0230 03340100 		ld	s0,0(sp)
 369              		.cfi_restore 8
 370              		.cfi_def_cfa 2, 16
 371 0234 13010101 		addi	sp,sp,16
 372              		.cfi_def_cfa_offset 0
 373 0238 67800000 		jr	ra
 374              		.cfi_endproc
 375              	.LFE28:
 377              		.align	2
 378              		.globl	_ZN8_console14inputBuff_takeEv
 380              	_ZN8_console14inputBuff_takeEv:
 381              	.LFB29:
  63:src/_console.cpp **** 
  64:src/_console.cpp **** char _console::inputBuff_take() {
 382              		.loc 1 64 33 is_stmt 1
 383              		.cfi_startproc
 384 023c 130101FF 		addi	sp,sp,-16
 385              		.cfi_def_cfa_offset 16
 386 0240 23341100 		sd	ra,8(sp)
 387 0244 23308100 		sd	s0,0(sp)
 388              		.cfi_offset 1, -8
 389              		.cfi_offset 8, -16
 390 0248 13040101 		addi	s0,sp,16
 391              		.cfi_def_cfa 8, 0
GAS LISTING /tmp/ccF1nelH.s 			page 9


  65:src/_console.cpp ****     return inputBuff->takeFromInterrupt();
 392              		.loc 1 65 5
 393              		.loc 1 65 40 is_stmt 0
 394 024c 17050000 		ld	a0,.LANCHOR0
 394      03350500 
 395 0254 97000000 		call	_ZN13BoundedBuffer17takeFromInterruptEv
 395      E7800000 
 396              	.LVL34:
  66:src/_console.cpp **** }
 397              		.loc 1 66 1
 398 025c 83308100 		ld	ra,8(sp)
 399              		.cfi_restore 1
 400 0260 03340100 		ld	s0,0(sp)
 401              		.cfi_restore 8
 402              		.cfi_def_cfa 2, 16
 403 0264 13010101 		addi	sp,sp,16
 404              		.cfi_def_cfa_offset 0
 405 0268 67800000 		jr	ra
 406              		.cfi_endproc
 407              	.LFE29:
 409              		.align	2
 410              		.globl	_ZN8_console14outputBuff_putEc
 412              	_ZN8_console14outputBuff_putEc:
 413              	.LFB30:
  67:src/_console.cpp **** 
  68:src/_console.cpp **** void _console::outputBuff_put(char c) {
 414              		.loc 1 68 39 is_stmt 1
 415              		.cfi_startproc
 416              	.LVL35:
 417 026c 130101FF 		addi	sp,sp,-16
 418              		.cfi_def_cfa_offset 16
 419 0270 23341100 		sd	ra,8(sp)
 420 0274 23308100 		sd	s0,0(sp)
 421              		.cfi_offset 1, -8
 422              		.cfi_offset 8, -16
 423 0278 13040101 		addi	s0,sp,16
 424              		.cfi_def_cfa 8, 0
 425 027c 93050500 		mv	a1,a0
  69:src/_console.cpp ****     outputBuff->put(c);
 426              		.loc 1 69 5
 427              		.loc 1 69 20 is_stmt 0
 428 0280 17050000 		ld	a0,.LANCHOR0+8
 428      03350500 
 429              	.LVL36:
 430 0288 97000000 		call	_ZN13BoundedBuffer3putEc
 430      E7800000 
 431              	.LVL37:
  70:src/_console.cpp **** }
 432              		.loc 1 70 1
 433 0290 83308100 		ld	ra,8(sp)
 434              		.cfi_restore 1
 435 0294 03340100 		ld	s0,0(sp)
 436              		.cfi_restore 8
 437              		.cfi_def_cfa 2, 16
 438 0298 13010101 		addi	sp,sp,16
 439              		.cfi_def_cfa_offset 0
 440 029c 67800000 		jr	ra
GAS LISTING /tmp/ccF1nelH.s 			page 10


 441              		.cfi_endproc
 442              	.LFE30:
 444              		.align	2
 445              		.globl	_ZN8_console15outputBuff_takeEv
 447              	_ZN8_console15outputBuff_takeEv:
 448              	.LFB31:
  71:src/_console.cpp **** 
  72:src/_console.cpp **** char _console::outputBuff_take() {
 449              		.loc 1 72 34 is_stmt 1
 450              		.cfi_startproc
 451 02a0 130101FF 		addi	sp,sp,-16
 452              		.cfi_def_cfa_offset 16
 453 02a4 23341100 		sd	ra,8(sp)
 454 02a8 23308100 		sd	s0,0(sp)
 455              		.cfi_offset 1, -8
 456              		.cfi_offset 8, -16
 457 02ac 13040101 		addi	s0,sp,16
 458              		.cfi_def_cfa 8, 0
  73:src/_console.cpp ****     return outputBuff->takeFromSysThread();
 459              		.loc 1 73 5
 460              		.loc 1 73 41 is_stmt 0
 461 02b0 17050000 		ld	a0,.LANCHOR0+8
 461      03350500 
 462 02b8 97000000 		call	_ZN13BoundedBuffer17takeFromSysThreadEv
 462      E7800000 
 463              	.LVL38:
  74:src/_console.cpp **** }
 464              		.loc 1 74 1
 465 02c0 83308100 		ld	ra,8(sp)
 466              		.cfi_restore 1
 467 02c4 03340100 		ld	s0,0(sp)
 468              		.cfi_restore 8
 469              		.cfi_def_cfa 2, 16
 470 02c8 13010101 		addi	sp,sp,16
 471              		.cfi_def_cfa_offset 0
 472 02cc 67800000 		jr	ra
 473              		.cfi_endproc
 474              	.LFE31:
 476              		.align	2
 477              		.globl	_ZN8_console15consumerConsoleEPv
 479              	_ZN8_console15consumerConsoleEPv:
 480              	.LFB18:
  12:src/_console.cpp ****     while(true) {
 481              		.loc 1 12 38 is_stmt 1
 482              		.cfi_startproc
 483              	.L23:
  13:src/_console.cpp ****         while ((*(char *) CONSOLE_STATUS) & CONSOLE_TX_STATUS_BIT) {
 484              		.loc 1 13 5
 485              	.LBB4:
  14:src/_console.cpp ****             char c = _console::outputBuff_take();
 486              		.loc 1 14 9
  14:src/_console.cpp ****             char c = _console::outputBuff_take();
 487              		.loc 1 14 45
  14:src/_console.cpp ****             char c = _console::outputBuff_take();
 488              		.loc 1 14 17 is_stmt 0
 489 02d0 97070000 		la	a5,CONSOLE_STATUS
 489      83B70700 
GAS LISTING /tmp/ccF1nelH.s 			page 11


 490 02d8 83B70700 		ld	a5,0(a5)
 491 02dc 83C70700 		lbu	a5,0(a5)
  14:src/_console.cpp ****             char c = _console::outputBuff_take();
 492              		.loc 1 14 45
 493 02e0 93F70702 		andi	a5,a5,32
 494 02e4 E38607FE 		beqz	a5,.L23
 495              	.LBE4:
  12:src/_console.cpp ****     while(true) {
 496              		.loc 1 12 38
 497 02e8 130101FF 		addi	sp,sp,-16
 498              		.cfi_def_cfa_offset 16
 499 02ec 23341100 		sd	ra,8(sp)
 500 02f0 23308100 		sd	s0,0(sp)
 501              		.cfi_offset 1, -8
 502              		.cfi_offset 8, -16
 503 02f4 13040101 		addi	s0,sp,16
 504              		.cfi_def_cfa 8, 0
 505              	.L24:
 506              	.LBB6:
 507              	.LBB5:
  15:src/_console.cpp ****             *(char *) CONSOLE_TX_DATA = c;
 508              		.loc 1 15 13 is_stmt 1
  15:src/_console.cpp ****             *(char *) CONSOLE_TX_DATA = c;
 509              		.loc 1 15 47 is_stmt 0
 510 02f8 97000000 		call	_ZN8_console15outputBuff_takeEv
 510      E7800000 
 511              	.LVL39:
  16:src/_console.cpp ****         }
 512              		.loc 1 16 13 is_stmt 1
 513 0300 97070000 		la	a5,CONSOLE_TX_DATA
 513      83B70700 
 514 0308 83B70700 		ld	a5,0(a5)
  16:src/_console.cpp ****         }
 515              		.loc 1 16 39 is_stmt 0
 516 030c 2380A700 		sb	a0,0(a5)
 517              	.L20:
 518              	.LBE5:
 519              	.LBE6:
  13:src/_console.cpp ****         while ((*(char *) CONSOLE_STATUS) & CONSOLE_TX_STATUS_BIT) {
 520              		.loc 1 13 5 is_stmt 1
 521              	.LBB7:
  14:src/_console.cpp ****             char c = _console::outputBuff_take();
 522              		.loc 1 14 9
  14:src/_console.cpp ****             char c = _console::outputBuff_take();
 523              		.loc 1 14 45
  14:src/_console.cpp ****             char c = _console::outputBuff_take();
 524              		.loc 1 14 17 is_stmt 0
 525 0310 97070000 		la	a5,CONSOLE_STATUS
 525      83B70700 
 526 0318 83B70700 		ld	a5,0(a5)
 527 031c 83C70700 		lbu	a5,0(a5)
  14:src/_console.cpp ****             char c = _console::outputBuff_take();
 528              		.loc 1 14 45
 529 0320 93F70702 		andi	a5,a5,32
 530 0324 E38607FE 		beqz	a5,.L20
 531 0328 6FF01FFD 		j	.L24
 532              	.LBE7:
GAS LISTING /tmp/ccF1nelH.s 			page 12


 533              		.cfi_endproc
 534              	.LFE18:
 536              		.globl	_ZN8_console9inputBuffE
 537              		.globl	_ZN8_console10outputBuffE
 538              		.bss
 539              		.align	3
 540              		.set	.LANCHOR0,. + 0
 543              	_ZN8_console9inputBuffE:
 544 0000 00000000 		.zero	8
 544      00000000 
 547              	_ZN8_console10outputBuffE:
 548 0008 00000000 		.zero	8
 548      00000000 
 549              		.text
 550              	.Letext0:
 551              		.file 2 "src/../h/../h/../h/../lib/hw.h"
 552              		.file 3 "src/../h/../h/../h/MemoryAllocator.hpp"
 553              		.file 4 "src/../h/../h/../h/list.hpp"
 554              		.file 5 "src/../h/../h/_sem.hpp"
 555              		.file 6 "src/../h/_console.hpp"
 556              		.file 7 "src/../h/syscall_c.hpp"
 2845              		.align	3
 2848              	DW.ref.__gxx_personality_v0:
 2849 0000 00000000 		.dword	__gxx_personality_v0
 2849      00000000 
 2850              		.ident	"GCC: (Ubuntu 9.4.0-1ubuntu1~20.04) 9.4.0"
 2851              		.section	.note.GNU-stack,"",@progbits
GAS LISTING /tmp/ccF1nelH.s 			page 13


DEFINED SYMBOLS
                            *ABS*:0000000000000000 _console.cpp
     /tmp/ccF1nelH.s:9      .text:0000000000000000 _ZN13BoundedBufferC2Ev
     /tmp/ccF1nelH.s:13     .text:0000000000000000 .L0 
     /tmp/ccF1nelH.s:15     .text:0000000000000000 .L0 
     /tmp/ccF1nelH.s:16     .text:0000000000000004 .L0 
     /tmp/ccF1nelH.s:20     .text:0000000000000010 .L0 
     /tmp/ccF1nelH.s:21     .text:0000000000000010 .L0 
     /tmp/ccF1nelH.s:22     .text:0000000000000010 .L0 
     /tmp/ccF1nelH.s:24     .text:0000000000000014 .L0 
     /tmp/ccF1nelH.s:28     .text:0000000000000018 .L0 
     /tmp/ccF1nelH.s:31     .text:0000000000000020 .L0 
     /tmp/ccF1nelH.s:32     .text:0000000000000020 .L0 
     /tmp/ccF1nelH.s:37     .text:000000000000002c .L0 
     /tmp/ccF1nelH.s:39     .text:0000000000000030 .L0 
     /tmp/ccF1nelH.s:40     .text:0000000000000030 .L0 
     /tmp/ccF1nelH.s:44     .text:000000000000003c .L0 
     /tmp/ccF1nelH.s:46     .text:0000000000000040 .L0 
     /tmp/ccF1nelH.s:47     .text:0000000000000040 .L0 
     /tmp/ccF1nelH.s:51     .text:000000000000004c .L0 
     /tmp/ccF1nelH.s:54     .text:0000000000000050 .L0 
     /tmp/ccF1nelH.s:55     .text:0000000000000054 .L0 
     /tmp/ccF1nelH.s:57     .text:0000000000000058 .L0 
     /tmp/ccF1nelH.s:58     .text:0000000000000058 .L0 
     /tmp/ccF1nelH.s:60     .text:000000000000005c .L0 
     /tmp/ccF1nelH.s:63     .text:0000000000000060 .L0 
     /tmp/ccF1nelH.s:65     .text:0000000000000064 .L0 
     /tmp/ccF1nelH.s:9      .text:0000000000000000 _ZN13BoundedBufferC1Ev
     /tmp/ccF1nelH.s:73     .text:0000000000000064 _ZN13BoundedBuffer3putEc
     /tmp/ccF1nelH.s:76     .text:0000000000000064 .L0 
     /tmp/ccF1nelH.s:78     .text:0000000000000064 .L0 
     /tmp/ccF1nelH.s:79     .text:0000000000000068 .L0 
     /tmp/ccF1nelH.s:84     .text:0000000000000078 .L0 
     /tmp/ccF1nelH.s:85     .text:0000000000000078 .L0 
     /tmp/ccF1nelH.s:86     .text:0000000000000078 .L0 
     /tmp/ccF1nelH.s:87     .text:0000000000000078 .L0 
     /tmp/ccF1nelH.s:89     .text:000000000000007c .L0 
     /tmp/ccF1nelH.s:93     .text:0000000000000084 .L0 
     /tmp/ccF1nelH.s:94     .text:0000000000000084 .L0 
     /tmp/ccF1nelH.s:99     .text:0000000000000090 .L0 
     /tmp/ccF1nelH.s:101    .text:0000000000000094 .L0 
     /tmp/ccF1nelH.s:103    .text:0000000000000098 .L0 
     /tmp/ccF1nelH.s:105    .text:000000000000009c .L0 
     /tmp/ccF1nelH.s:107    .text:00000000000000a0 .L0 
     /tmp/ccF1nelH.s:108    .text:00000000000000a0 .L0 
     /tmp/ccF1nelH.s:110    .text:00000000000000a4 .L0 
     /tmp/ccF1nelH.s:112    .text:00000000000000a8 .L0 
     /tmp/ccF1nelH.s:115    .text:00000000000000b0 .L0 
     /tmp/ccF1nelH.s:117    .text:00000000000000b4 .L0 
     /tmp/ccF1nelH.s:118    .text:00000000000000b4 .L0 
     /tmp/ccF1nelH.s:122    .text:00000000000000c0 .L0 
     /tmp/ccF1nelH.s:123    .text:00000000000000c4 .L0 
     /tmp/ccF1nelH.s:125    .text:00000000000000c8 .L0 
     /tmp/ccF1nelH.s:126    .text:00000000000000c8 .L0 
     /tmp/ccF1nelH.s:128    .text:00000000000000cc .L0 
     /tmp/ccF1nelH.s:131    .text:00000000000000d0 .L0 
     /tmp/ccF1nelH.s:133    .text:00000000000000d4 .L0 
GAS LISTING /tmp/ccF1nelH.s 			page 14


     /tmp/ccF1nelH.s:135    .text:00000000000000d8 .L0 
     /tmp/ccF1nelH.s:141    .text:00000000000000d8 _ZN13BoundedBuffer17takeFromInterruptEv
     /tmp/ccF1nelH.s:144    .text:00000000000000d8 .L0 
     /tmp/ccF1nelH.s:146    .text:00000000000000d8 .L0 
     /tmp/ccF1nelH.s:147    .text:00000000000000dc .L0 
     /tmp/ccF1nelH.s:152    .text:00000000000000ec .L0 
     /tmp/ccF1nelH.s:153    .text:00000000000000ec .L0 
     /tmp/ccF1nelH.s:154    .text:00000000000000ec .L0 
     /tmp/ccF1nelH.s:155    .text:00000000000000ec .L0 
     /tmp/ccF1nelH.s:157    .text:00000000000000f0 .L0 
     /tmp/ccF1nelH.s:160    .text:00000000000000f4 .L0 
     /tmp/ccF1nelH.s:161    .text:00000000000000f4 .L0 
     /tmp/ccF1nelH.s:166    .text:0000000000000100 .L0 
     /tmp/ccF1nelH.s:167    .text:0000000000000100 .L0 
     /tmp/ccF1nelH.s:169    .text:0000000000000104 .L0 
     /tmp/ccF1nelH.s:171    .text:0000000000000108 .L0 
     /tmp/ccF1nelH.s:173    .text:000000000000010c .L0 
     /tmp/ccF1nelH.s:176    .text:0000000000000110 .L0 
     /tmp/ccF1nelH.s:177    .text:0000000000000110 .L0 
     /tmp/ccF1nelH.s:179    .text:0000000000000114 .L0 
     /tmp/ccF1nelH.s:182    .text:000000000000011c .L0 
     /tmp/ccF1nelH.s:184    .text:0000000000000120 .L0 
     /tmp/ccF1nelH.s:185    .text:0000000000000120 .L0 
     /tmp/ccF1nelH.s:189    .text:000000000000012c .L0 
     /tmp/ccF1nelH.s:190    .text:000000000000012c .L0 
     /tmp/ccF1nelH.s:192    .text:0000000000000134 .L0 
     /tmp/ccF1nelH.s:194    .text:0000000000000138 .L0 
     /tmp/ccF1nelH.s:195    .text:0000000000000138 .L0 
     /tmp/ccF1nelH.s:197    .text:000000000000013c .L0 
     /tmp/ccF1nelH.s:200    .text:0000000000000140 .L0 
     /tmp/ccF1nelH.s:203    .text:0000000000000144 .L0 
     /tmp/ccF1nelH.s:205    .text:0000000000000148 .L0 
     /tmp/ccF1nelH.s:211    .text:0000000000000148 _ZN13BoundedBufferD2Ev
     /tmp/ccF1nelH.s:214    .text:0000000000000148 .L0 
     /tmp/ccF1nelH.s:2848   .data.rel.local.DW.ref.__gxx_personality_v0:0000000000000000 DW.ref.__gxx_personality_v0
     /tmp/ccF1nelH.s:218    .text:0000000000000148 .L0 
     /tmp/ccF1nelH.s:219    .text:000000000000014c .L0 
     /tmp/ccF1nelH.s:223    .text:0000000000000158 .L0 
     /tmp/ccF1nelH.s:224    .text:0000000000000158 .L0 
     /tmp/ccF1nelH.s:225    .text:0000000000000158 .L0 
     /tmp/ccF1nelH.s:227    .text:000000000000015c .L0 
     /tmp/ccF1nelH.s:231    .text:0000000000000160 .L0 
     /tmp/ccF1nelH.s:232    .text:0000000000000160 .L0 
     /tmp/ccF1nelH.s:237    .text:000000000000016c .L0 
     /tmp/ccF1nelH.s:238    .text:000000000000016c .L0 
     /tmp/ccF1nelH.s:242    .text:0000000000000178 .L0 
     /tmp/ccF1nelH.s:243    .text:0000000000000178 .L0 
     /tmp/ccF1nelH.s:248    .text:0000000000000184 .L0 
     /tmp/ccF1nelH.s:249    .text:0000000000000188 .L0 
     /tmp/ccF1nelH.s:251    .text:000000000000018c .L0 
     /tmp/ccF1nelH.s:252    .text:000000000000018c .L0 
     /tmp/ccF1nelH.s:254    .text:0000000000000190 .L0 
     /tmp/ccF1nelH.s:257    .text:0000000000000194 .L0 
     /tmp/ccF1nelH.s:259    .text:0000000000000198 .L0 
     /tmp/ccF1nelH.s:211    .text:0000000000000148 _ZN13BoundedBufferD1Ev
     /tmp/ccF1nelH.s:275    .text:0000000000000198 _ZN13BoundedBuffer17takeFromSysThreadEv
     /tmp/ccF1nelH.s:278    .text:0000000000000198 .L0 
GAS LISTING /tmp/ccF1nelH.s 			page 15


     /tmp/ccF1nelH.s:280    .text:0000000000000198 .L0 
     /tmp/ccF1nelH.s:281    .text:000000000000019c .L0 
     /tmp/ccF1nelH.s:286    .text:00000000000001ac .L0 
     /tmp/ccF1nelH.s:287    .text:00000000000001ac .L0 
     /tmp/ccF1nelH.s:288    .text:00000000000001ac .L0 
     /tmp/ccF1nelH.s:289    .text:00000000000001ac .L0 
     /tmp/ccF1nelH.s:291    .text:00000000000001b0 .L0 
     /tmp/ccF1nelH.s:294    .text:00000000000001b4 .L0 
     /tmp/ccF1nelH.s:295    .text:00000000000001b4 .L0 
     /tmp/ccF1nelH.s:300    .text:00000000000001c0 .L0 
     /tmp/ccF1nelH.s:301    .text:00000000000001c0 .L0 
     /tmp/ccF1nelH.s:303    .text:00000000000001c4 .L0 
     /tmp/ccF1nelH.s:305    .text:00000000000001c8 .L0 
     /tmp/ccF1nelH.s:307    .text:00000000000001cc .L0 
     /tmp/ccF1nelH.s:310    .text:00000000000001d0 .L0 
     /tmp/ccF1nelH.s:311    .text:00000000000001d0 .L0 
     /tmp/ccF1nelH.s:313    .text:00000000000001d4 .L0 
     /tmp/ccF1nelH.s:316    .text:00000000000001dc .L0 
     /tmp/ccF1nelH.s:318    .text:00000000000001e0 .L0 
     /tmp/ccF1nelH.s:319    .text:00000000000001e0 .L0 
     /tmp/ccF1nelH.s:323    .text:00000000000001ec .L0 
     /tmp/ccF1nelH.s:324    .text:00000000000001ec .L0 
     /tmp/ccF1nelH.s:326    .text:00000000000001f4 .L0 
     /tmp/ccF1nelH.s:328    .text:00000000000001f8 .L0 
     /tmp/ccF1nelH.s:329    .text:00000000000001f8 .L0 
     /tmp/ccF1nelH.s:331    .text:00000000000001fc .L0 
     /tmp/ccF1nelH.s:334    .text:0000000000000200 .L0 
     /tmp/ccF1nelH.s:337    .text:0000000000000204 .L0 
     /tmp/ccF1nelH.s:339    .text:0000000000000208 .L0 
     /tmp/ccF1nelH.s:345    .text:0000000000000208 _ZN8_console13inputBuff_putEc
     /tmp/ccF1nelH.s:348    .text:0000000000000208 .L0 
     /tmp/ccF1nelH.s:350    .text:0000000000000208 .L0 
     /tmp/ccF1nelH.s:351    .text:000000000000020c .L0 
     /tmp/ccF1nelH.s:354    .text:0000000000000214 .L0 
     /tmp/ccF1nelH.s:355    .text:0000000000000214 .L0 
     /tmp/ccF1nelH.s:357    .text:0000000000000218 .L0 
     /tmp/ccF1nelH.s:360    .text:000000000000021c .L0 
     /tmp/ccF1nelH.s:361    .text:000000000000021c .L0 
     /tmp/ccF1nelH.s:366    .text:000000000000022c .L0 
     /tmp/ccF1nelH.s:367    .text:0000000000000230 .L0 
     /tmp/ccF1nelH.s:369    .text:0000000000000234 .L0 
     /tmp/ccF1nelH.s:370    .text:0000000000000234 .L0 
     /tmp/ccF1nelH.s:372    .text:0000000000000238 .L0 
     /tmp/ccF1nelH.s:374    .text:000000000000023c .L0 
     /tmp/ccF1nelH.s:380    .text:000000000000023c _ZN8_console14inputBuff_takeEv
     /tmp/ccF1nelH.s:383    .text:000000000000023c .L0 
     /tmp/ccF1nelH.s:384    .text:000000000000023c .L0 
     /tmp/ccF1nelH.s:385    .text:0000000000000240 .L0 
     /tmp/ccF1nelH.s:388    .text:0000000000000248 .L0 
     /tmp/ccF1nelH.s:389    .text:0000000000000248 .L0 
     /tmp/ccF1nelH.s:391    .text:000000000000024c .L0 
     /tmp/ccF1nelH.s:393    .text:000000000000024c .L0 
     /tmp/ccF1nelH.s:394    .text:000000000000024c .L0 
     /tmp/ccF1nelH.s:398    .text:000000000000025c .L0 
     /tmp/ccF1nelH.s:399    .text:0000000000000260 .L0 
     /tmp/ccF1nelH.s:401    .text:0000000000000264 .L0 
     /tmp/ccF1nelH.s:402    .text:0000000000000264 .L0 
GAS LISTING /tmp/ccF1nelH.s 			page 16


     /tmp/ccF1nelH.s:404    .text:0000000000000268 .L0 
     /tmp/ccF1nelH.s:406    .text:000000000000026c .L0 
     /tmp/ccF1nelH.s:412    .text:000000000000026c _ZN8_console14outputBuff_putEc
     /tmp/ccF1nelH.s:415    .text:000000000000026c .L0 
     /tmp/ccF1nelH.s:417    .text:000000000000026c .L0 
     /tmp/ccF1nelH.s:418    .text:0000000000000270 .L0 
     /tmp/ccF1nelH.s:421    .text:0000000000000278 .L0 
     /tmp/ccF1nelH.s:422    .text:0000000000000278 .L0 
     /tmp/ccF1nelH.s:424    .text:000000000000027c .L0 
     /tmp/ccF1nelH.s:427    .text:0000000000000280 .L0 
     /tmp/ccF1nelH.s:428    .text:0000000000000280 .L0 
     /tmp/ccF1nelH.s:433    .text:0000000000000290 .L0 
     /tmp/ccF1nelH.s:434    .text:0000000000000294 .L0 
     /tmp/ccF1nelH.s:436    .text:0000000000000298 .L0 
     /tmp/ccF1nelH.s:437    .text:0000000000000298 .L0 
     /tmp/ccF1nelH.s:439    .text:000000000000029c .L0 
     /tmp/ccF1nelH.s:441    .text:00000000000002a0 .L0 
     /tmp/ccF1nelH.s:447    .text:00000000000002a0 _ZN8_console15outputBuff_takeEv
     /tmp/ccF1nelH.s:450    .text:00000000000002a0 .L0 
     /tmp/ccF1nelH.s:451    .text:00000000000002a0 .L0 
     /tmp/ccF1nelH.s:452    .text:00000000000002a4 .L0 
     /tmp/ccF1nelH.s:455    .text:00000000000002ac .L0 
     /tmp/ccF1nelH.s:456    .text:00000000000002ac .L0 
     /tmp/ccF1nelH.s:458    .text:00000000000002b0 .L0 
     /tmp/ccF1nelH.s:460    .text:00000000000002b0 .L0 
     /tmp/ccF1nelH.s:461    .text:00000000000002b0 .L0 
     /tmp/ccF1nelH.s:465    .text:00000000000002c0 .L0 
     /tmp/ccF1nelH.s:466    .text:00000000000002c4 .L0 
     /tmp/ccF1nelH.s:468    .text:00000000000002c8 .L0 
     /tmp/ccF1nelH.s:469    .text:00000000000002c8 .L0 
     /tmp/ccF1nelH.s:471    .text:00000000000002cc .L0 
     /tmp/ccF1nelH.s:473    .text:00000000000002d0 .L0 
     /tmp/ccF1nelH.s:479    .text:00000000000002d0 _ZN8_console15consumerConsoleEPv
     /tmp/ccF1nelH.s:482    .text:00000000000002d0 .L0 
     /tmp/ccF1nelH.s:484    .text:00000000000002d0 .L0 
     /tmp/ccF1nelH.s:486    .text:00000000000002d0 .L0 
     /tmp/ccF1nelH.s:487    .text:00000000000002d0 .L0 
     /tmp/ccF1nelH.s:488    .text:00000000000002d0 .L0 
     /tmp/ccF1nelH.s:489    .text:00000000000002d0 .L0 
     /tmp/ccF1nelH.s:493    .text:00000000000002e0 .L0 
     /tmp/ccF1nelH.s:497    .text:00000000000002e8 .L0 
     /tmp/ccF1nelH.s:498    .text:00000000000002ec .L0 
     /tmp/ccF1nelH.s:501    .text:00000000000002f4 .L0 
     /tmp/ccF1nelH.s:502    .text:00000000000002f4 .L0 
     /tmp/ccF1nelH.s:504    .text:00000000000002f8 .L0 
     /tmp/ccF1nelH.s:509    .text:00000000000002f8 .L0 
     /tmp/ccF1nelH.s:510    .text:00000000000002f8 .L0 
     /tmp/ccF1nelH.s:513    .text:0000000000000300 .L0 
     /tmp/ccF1nelH.s:516    .text:000000000000030c .L0 
     /tmp/ccF1nelH.s:522    .text:0000000000000310 .L0 
     /tmp/ccF1nelH.s:523    .text:0000000000000310 .L0 
     /tmp/ccF1nelH.s:524    .text:0000000000000310 .L0 
     /tmp/ccF1nelH.s:525    .text:0000000000000310 .L0 
     /tmp/ccF1nelH.s:529    .text:0000000000000320 .L0 
     /tmp/ccF1nelH.s:533    .text:000000000000032c .L0 
     /tmp/ccF1nelH.s:543    .bss:0000000000000000 _ZN8_console9inputBuffE
     /tmp/ccF1nelH.s:547    .bss:0000000000000008 _ZN8_console10outputBuffE
GAS LISTING /tmp/ccF1nelH.s 			page 17


     /tmp/ccF1nelH.s:540    .bss:0000000000000000 .LANCHOR0
     /tmp/ccF1nelH.s:557    .text:000000000000032c .L0 
     /tmp/ccF1nelH.s:361    .text:000000000000021c .L0 
     /tmp/ccF1nelH.s:394    .text:000000000000024c .L0 
     /tmp/ccF1nelH.s:428    .text:0000000000000280 .L0 
     /tmp/ccF1nelH.s:461    .text:00000000000002b0 .L0 
     /tmp/ccF1nelH.s:489    .text:00000000000002d0 .L0 
     /tmp/ccF1nelH.s:513    .text:0000000000000300 .L0 
     /tmp/ccF1nelH.s:525    .text:0000000000000310 .L0 
     /tmp/ccF1nelH.s:483    .text:00000000000002d0 .L23
     /tmp/ccF1nelH.s:517    .text:0000000000000310 .L20
     /tmp/ccF1nelH.s:505    .text:00000000000002f8 .L24
     /tmp/ccF1nelH.s:1653   .debug_abbrev:0000000000000000 .Ldebug_abbrev0
     /tmp/ccF1nelH.s:2806   .debug_str:0000000000000617 .LASF108
     /tmp/ccF1nelH.s:2758   .debug_str:00000000000004a1 .LASF109
     /tmp/ccF1nelH.s:2684   .debug_str:000000000000025b .LASF110
     /tmp/ccF1nelH.s:5      .text:0000000000000000 .Ltext0
     /tmp/ccF1nelH.s:550    .text:000000000000032c .Letext0
     /tmp/ccF1nelH.s:2608   .debug_line:0000000000000000 .Ldebug_line0
     /tmp/ccF1nelH.s:2742   .debug_str:000000000000041c .LASF0
     /tmp/ccF1nelH.s:2750   .debug_str:000000000000045c .LASF1
     /tmp/ccF1nelH.s:2730   .debug_str:00000000000003dc .LASF2
     /tmp/ccF1nelH.s:2706   .debug_str:000000000000031b .LASF4
     /tmp/ccF1nelH.s:2790   .debug_str:00000000000005ba .LASF3
     /tmp/ccF1nelH.s:2626   .debug_str:0000000000000084 .LASF5
     /tmp/ccF1nelH.s:2756   .debug_str:000000000000048e .LASF6
     /tmp/ccF1nelH.s:2740   .debug_str:0000000000000409 .LASF7
     /tmp/ccF1nelH.s:2820   .debug_str:0000000000000737 .LASF8
     /tmp/ccF1nelH.s:2696   .debug_str:00000000000002da .LASF9
     /tmp/ccF1nelH.s:2766   .debug_str:00000000000004f4 .LASF10
     /tmp/ccF1nelH.s:2810   .debug_str:00000000000006e7 .LASF11
     /tmp/ccF1nelH.s:2632   .debug_str:00000000000000a1 .LASF12
     /tmp/ccF1nelH.s:2620   .debug_str:0000000000000053 .LASF13
     /tmp/ccF1nelH.s:2640   .debug_str:00000000000000dd .LASF14
     /tmp/ccF1nelH.s:2784   .debug_str:000000000000058f .LASF15
     /tmp/ccF1nelH.s:2656   .debug_str:0000000000000174 .LASF16
     /tmp/ccF1nelH.s:2724   .debug_str:00000000000003b4 .LASF23
     /tmp/ccF1nelH.s:2662   .debug_str:000000000000019b .LASF111
     /tmp/ccF1nelH.s:2800   .debug_str:00000000000005fc .LASF17
     /tmp/ccF1nelH.s:2838   .debug_str:00000000000007cb .LASF18
     /tmp/ccF1nelH.s:2746   .debug_str:000000000000043c .LASF19
     /tmp/ccF1nelH.s:2840   .debug_str:00000000000007d0 .LASF21
     /tmp/ccF1nelH.s:2678   .debug_str:000000000000024c .LASF20
     /tmp/ccF1nelH.s:2778   .debug_str:0000000000000554 .LASF22
     /tmp/ccF1nelH.s:2728   .debug_str:00000000000003d1 .LASF112
     /tmp/ccF1nelH.s:2834   .debug_str:0000000000000791 .LASF113
     /tmp/ccF1nelH.s:2816   .debug_str:0000000000000716 .LASF29
     /tmp/ccF1nelH.s:2736   .debug_str:00000000000003f7 .LASF31
     /tmp/ccF1nelH.s:2714   .debug_str:0000000000000364 .LASF32
     /tmp/ccF1nelH.s:2726   .debug_str:00000000000003c4 .LASF93
     /tmp/ccF1nelH.s:2720   .debug_str:00000000000003a5 .LASF24
     /tmp/ccF1nelH.s:2722   .debug_str:00000000000003af .LASF114
     /tmp/ccF1nelH.s:2664   .debug_str:00000000000001a2 .LASF25
     /tmp/ccF1nelH.s:2732   .debug_str:00000000000003ea .LASF26
     /tmp/ccF1nelH.s:2704   .debug_str:0000000000000316 .LASF27
     /tmp/ccF1nelH.s:2744   .debug_str:0000000000000429 .LASF28
     /tmp/ccF1nelH.s:2780   .debug_str:0000000000000571 .LASF30
GAS LISTING /tmp/ccF1nelH.s 			page 18


     /tmp/ccF1nelH.s:2698   .debug_str:00000000000002e8 .LASF33
     /tmp/ccF1nelH.s:2804   .debug_str:000000000000060e .LASF34
     /tmp/ccF1nelH.s:2674   .debug_str:0000000000000220 .LASF35
     /tmp/ccF1nelH.s:2694   .debug_str:00000000000002d2 .LASF36
     /tmp/ccF1nelH.s:2670   .debug_str:00000000000001e4 .LASF37
     /tmp/ccF1nelH.s:2808   .debug_str:00000000000006db .LASF38
     /tmp/ccF1nelH.s:2614   .debug_str:0000000000000017 .LASF39
     /tmp/ccF1nelH.s:2638   .debug_str:00000000000000d3 .LASF40
     /tmp/ccF1nelH.s:2712   .debug_str:0000000000000349 .LASF41
     /tmp/ccF1nelH.s:2830   .debug_str:0000000000000782 .LASF42
     /tmp/ccF1nelH.s:2802   .debug_str:0000000000000601 .LASF43
     /tmp/ccF1nelH.s:2818   .debug_str:0000000000000732 .LASF44
     /tmp/ccF1nelH.s:2634   .debug_str:00000000000000b1 .LASF45
     /tmp/ccF1nelH.s:2610   .debug_str:0000000000000000 .LASF46
     /tmp/ccF1nelH.s:2752   .debug_str:000000000000046f .LASF47
     /tmp/ccF1nelH.s:2680   .debug_str:0000000000000251 .LASF48
     /tmp/ccF1nelH.s:2652   .debug_str:000000000000014d .LASF49
     /tmp/ccF1nelH.s:2760   .debug_str:00000000000004b2 .LASF50
     /tmp/ccF1nelH.s:2700   .debug_str:00000000000002ff .LASF51
     /tmp/ccF1nelH.s:2658   .debug_str:000000000000018a .LASF52
     /tmp/ccF1nelH.s:2814   .debug_str:0000000000000704 .LASF53
     /tmp/ccF1nelH.s:2826   .debug_str:0000000000000765 .LASF54
     /tmp/ccF1nelH.s:2628   .debug_str:000000000000008b .LASF55
     /tmp/ccF1nelH.s:2792   .debug_str:00000000000005cc .LASF81
     /tmp/ccF1nelH.s:2688   .debug_str:0000000000000298 .LASF83
     /tmp/ccF1nelH.s:2822   .debug_str:0000000000000747 .LASF56
     /tmp/ccF1nelH.s:2824   .debug_str:0000000000000750 .LASF57
     /tmp/ccF1nelH.s:2788   .debug_str:00000000000005b0 .LASF58
     /tmp/ccF1nelH.s:2716   .debug_str:0000000000000380 .LASF59
     /tmp/ccF1nelH.s:2710   .debug_str:0000000000000343 .LASF60
     /tmp/ccF1nelH.s:2612   .debug_str:0000000000000006 .LASF61
     /tmp/ccF1nelH.s:2734   .debug_str:00000000000003ef .LASF62
     /tmp/ccF1nelH.s:2642   .debug_str:00000000000000e9 .LASF63
     /tmp/ccF1nelH.s:2738   .debug_str:0000000000000401 .LASF64
     /tmp/ccF1nelH.s:2794   .debug_str:00000000000005dc .LASF65
     /tmp/ccF1nelH.s:2682   .debug_str:0000000000000256 .LASF66
     /tmp/ccF1nelH.s:2624   .debug_str:000000000000007b .LASF67
     /tmp/ccF1nelH.s:2754   .debug_str:0000000000000480 .LASF68
     /tmp/ccF1nelH.s:2776   .debug_str:000000000000053d .LASF69
     /tmp/ccF1nelH.s:2616   .debug_str:0000000000000035 .LASF70
     /tmp/ccF1nelH.s:2836   .debug_str:00000000000007b4 .LASF71
     /tmp/ccF1nelH.s:2774   .debug_str:0000000000000524 .LASF115
     /tmp/ccF1nelH.s:2772   .debug_str:0000000000000512 .LASF72
     /tmp/ccF1nelH.s:2764   .debug_str:00000000000004cc .LASF73
     /tmp/ccF1nelH.s:2650   .debug_str:000000000000013b .LASF74
     /tmp/ccF1nelH.s:2644   .debug_str:00000000000000fc .LASF75
     /tmp/ccF1nelH.s:2782   .debug_str:0000000000000588 .LASF76
     /tmp/ccF1nelH.s:2676   .debug_str:000000000000023d .LASF77
     /tmp/ccF1nelH.s:2648   .debug_str:000000000000012d .LASF78
     /tmp/ccF1nelH.s:2702   .debug_str:0000000000000311 .LASF79
     /tmp/ccF1nelH.s:2630   .debug_str:0000000000000098 .LASF80
     /tmp/ccF1nelH.s:2812   .debug_str:00000000000006f6 .LASF82
     /tmp/ccF1nelH.s:2666   .debug_str:00000000000001a7 .LASF84
     /tmp/ccF1nelH.s:2796   .debug_str:00000000000005e3 .LASF87
     /tmp/ccF1nelH.s:2686   .debug_str:0000000000000279 .LASF89
     /tmp/ccF1nelH.s:2618   .debug_str:0000000000000044 .LASF85
     /tmp/ccF1nelH.s:2668   .debug_str:00000000000001c5 .LASF86
GAS LISTING /tmp/ccF1nelH.s 			page 19


     /tmp/ccF1nelH.s:2718   .debug_str:0000000000000395 .LASF88
     /tmp/ccF1nelH.s:2672   .debug_str:0000000000000200 .LASF90
     /tmp/ccF1nelH.s:2828   .debug_str:0000000000000772 .LASF91
     /tmp/ccF1nelH.s:2708   .debug_str:0000000000000322 .LASF92
     /tmp/ccF1nelH.s:2786   .debug_str:00000000000005a5 .LASF94
     /tmp/ccF1nelH.s:2832   .debug_str:0000000000000787 .LASF95
     /tmp/ccF1nelH.s:2748   .debug_str:0000000000000442 .LASF96
     /tmp/ccF1nelH.s:2622   .debug_str:0000000000000063 .LASF97
     /tmp/ccF1nelH.s:448    .text:00000000000002a0 .LFB31
     /tmp/ccF1nelH.s:474    .text:00000000000002d0 .LFE31
     /tmp/ccF1nelH.s:463    .text:00000000000002c0 .LVL38
     /tmp/ccF1nelH.s:413    .text:000000000000026c .LFB30
     /tmp/ccF1nelH.s:442    .text:00000000000002a0 .LFE30
     /tmp/ccF1nelH.s:2441   .debug_loc:0000000000000000 .LLST9
     /tmp/ccF1nelH.s:431    .text:0000000000000290 .LVL37
     /tmp/ccF1nelH.s:381    .text:000000000000023c .LFB29
     /tmp/ccF1nelH.s:407    .text:000000000000026c .LFE29
     /tmp/ccF1nelH.s:396    .text:000000000000025c .LVL34
     /tmp/ccF1nelH.s:346    .text:0000000000000208 .LFB28
     /tmp/ccF1nelH.s:375    .text:000000000000023c .LFE28
     /tmp/ccF1nelH.s:2455   .debug_loc:0000000000000039 .LLST8
     /tmp/ccF1nelH.s:364    .text:000000000000022c .LVL33
     /tmp/ccF1nelH.s:276    .text:0000000000000198 .LFB27
     /tmp/ccF1nelH.s:340    .text:0000000000000208 .LFE27
     /tmp/ccF1nelH.s:2770   .debug_str:000000000000050d .LASF98
     /tmp/ccF1nelH.s:2469   .debug_loc:0000000000000072 .LLST6
     /tmp/ccF1nelH.s:2487   .debug_loc:00000000000000be .LLST7
     /tmp/ccF1nelH.s:298    .text:00000000000001c0 .LVL26
     /tmp/ccF1nelH.s:321    .text:00000000000001ec .LVL28
     /tmp/ccF1nelH.s:2768   .debug_str:0000000000000503 .LASF99
     /tmp/ccF1nelH.s:2654   .debug_str:000000000000015d .LASF100
     /tmp/ccF1nelH.s:212    .text:0000000000000148 .LFB25
     /tmp/ccF1nelH.s:260    .text:0000000000000198 .LFE25
     /tmp/ccF1nelH.s:2498   .debug_loc:00000000000000f4 .LLST5
     /tmp/ccF1nelH.s:235    .text:000000000000016c .LVL20
     /tmp/ccF1nelH.s:240    .text:0000000000000178 .LVL21
     /tmp/ccF1nelH.s:245    .text:0000000000000184 .LVL22
     /tmp/ccF1nelH.s:142    .text:00000000000000d8 .LFB23
     /tmp/ccF1nelH.s:206    .text:0000000000000148 .LFE23
     /tmp/ccF1nelH.s:2516   .debug_loc:0000000000000140 .LLST3
     /tmp/ccF1nelH.s:2534   .debug_loc:000000000000018c .LLST4
     /tmp/ccF1nelH.s:164    .text:0000000000000100 .LVL13
     /tmp/ccF1nelH.s:187    .text:000000000000012c .LVL15
     /tmp/ccF1nelH.s:74     .text:0000000000000064 .LFB22
     /tmp/ccF1nelH.s:136    .text:00000000000000d8 .LFE22
     /tmp/ccF1nelH.s:2545   .debug_loc:00000000000001c2 .LLST1
     /tmp/ccF1nelH.s:2563   .debug_loc:000000000000020e .LLST2
     /tmp/ccF1nelH.s:97     .text:0000000000000090 .LVL8
     /tmp/ccF1nelH.s:120    .text:00000000000000c0 .LVL9
     /tmp/ccF1nelH.s:2692   .debug_str:00000000000002bb .LASF101
     /tmp/ccF1nelH.s:10     .text:0000000000000000 .LFB20
     /tmp/ccF1nelH.s:66     .text:0000000000000064 .LFE20
     /tmp/ccF1nelH.s:2577   .debug_loc:0000000000000247 .LLST0
     /tmp/ccF1nelH.s:35     .text:000000000000002c .LVL2
     /tmp/ccF1nelH.s:42     .text:000000000000003c .LVL3
     /tmp/ccF1nelH.s:49     .text:000000000000004c .LVL4
     /tmp/ccF1nelH.s:480    .text:00000000000002d0 .LFB18
GAS LISTING /tmp/ccF1nelH.s 			page 20


     /tmp/ccF1nelH.s:534    .text:000000000000032c .LFE18
     /tmp/ccF1nelH.s:507    .text:00000000000002f8 .LBB5
     /tmp/ccF1nelH.s:518    .text:0000000000000310 .LBE5
     /tmp/ccF1nelH.s:511    .text:0000000000000300 .LVL39
     /tmp/ccF1nelH.s:2636   .debug_str:00000000000000c1 .LASF102
     /tmp/ccF1nelH.s:2646   .debug_str:0000000000000124 .LASF104
     /tmp/ccF1nelH.s:2690   .debug_str:00000000000002a6 .LASF103
     /tmp/ccF1nelH.s:2660   .debug_str:0000000000000190 .LASF105
     /tmp/ccF1nelH.s:2762   .debug_str:00000000000004b9 .LASF106
     /tmp/ccF1nelH.s:2798   .debug_str:00000000000005f2 .LASF107
     /tmp/ccF1nelH.s:416    .text:000000000000026c .LVL35
     /tmp/ccF1nelH.s:429    .text:0000000000000288 .LVL36
     /tmp/ccF1nelH.s:349    .text:0000000000000208 .LVL31
     /tmp/ccF1nelH.s:362    .text:0000000000000224 .LVL32
     /tmp/ccF1nelH.s:279    .text:0000000000000198 .LVL24
     /tmp/ccF1nelH.s:296    .text:00000000000001b8 .LVL25
     /tmp/ccF1nelH.s:332    .text:00000000000001fc .LVL29
     /tmp/ccF1nelH.s:308    .text:00000000000001d0 .LVL27
     /tmp/ccF1nelH.s:335    .text:0000000000000200 .LVL30
     /tmp/ccF1nelH.s:217    .text:0000000000000148 .LVL18
     /tmp/ccF1nelH.s:233    .text:0000000000000164 .LVL19
     /tmp/ccF1nelH.s:255    .text:0000000000000190 .LVL23
     /tmp/ccF1nelH.s:145    .text:00000000000000d8 .LVL11
     /tmp/ccF1nelH.s:162    .text:00000000000000f8 .LVL12
     /tmp/ccF1nelH.s:198    .text:000000000000013c .LVL16
     /tmp/ccF1nelH.s:174    .text:0000000000000110 .LVL14
     /tmp/ccF1nelH.s:201    .text:0000000000000140 .LVL17
     /tmp/ccF1nelH.s:77     .text:0000000000000064 .LVL6
     /tmp/ccF1nelH.s:95     .text:0000000000000088 .LVL7
     /tmp/ccF1nelH.s:129    .text:00000000000000cc .LVL10
     /tmp/ccF1nelH.s:14     .text:0000000000000000 .LVL0
     /tmp/ccF1nelH.s:33     .text:0000000000000024 .LVL1
     /tmp/ccF1nelH.s:61     .text:000000000000005c .LVL5
     /tmp/ccF1nelH.s:558    .debug_info:0000000000000000 .Ldebug_info0
     /tmp/ccF1nelH.s:263    .gcc_except_table:0000000000000000 .LLSDA25

UNDEFINED SYMBOLS
_ZN15MemoryAllocator5allocEm
_ZN4_sem4openEi
_ZN4_sem4waitEv
_ZN4_sem6signalEv
_ZN15MemoryAllocator4freeEPv
_Z9sem_closeP4_sem
__gxx_personality_v0
_Z8sem_waitP4_sem
_Z10sem_signalP4_sem
CONSOLE_STATUS
CONSOLE_TX_DATA
