GAS LISTING /tmp/ccF1nelH.s 			page 1


   1              		.file	"_console.cpp"
   2              		.option pic
   3              		.option norelax
   4              		.text
   5              	.Ltext0:
   6              		.align	2
   7              		.globl	_ZN13BoundedBufferC2Ev
   9              	_ZN13BoundedBufferC2Ev:
  10              	.LFB20:
  11              		.file 1 "src/_console.cpp"
   1:src/_console.cpp **** //
   2:src/_console.cpp **** // Created by os on 8/15/23.
   3:src/_console.cpp **** //
   4:src/_console.cpp **** 
   5:src/_console.cpp **** #include "../h/_console.hpp"
   6:src/_console.cpp **** #include "../h/syscall_c.hpp"
   7:src/_console.cpp **** 
   8:src/_console.cpp **** BoundedBuffer* _console::outputBuff= nullptr;
   9:src/_console.cpp **** BoundedBuffer* _console::inputBuff= nullptr;
  10:src/_console.cpp **** 
  11:src/_console.cpp **** 
  12:src/_console.cpp **** void _console::consumerConsole(void*){
  13:src/_console.cpp ****     while(true) {
  14:src/_console.cpp ****         while ((*(char *) CONSOLE_STATUS) & CONSOLE_TX_STATUS_BIT) {
  15:src/_console.cpp ****             char c = _console::outputBuff_take();
  16:src/_console.cpp ****             *(char *) CONSOLE_TX_DATA = c;
  17:src/_console.cpp ****         }
  18:src/_console.cpp ****     }
  19:src/_console.cpp **** }
  20:src/_console.cpp **** 
  21:src/_console.cpp **** 
  22:src/_console.cpp **** BoundedBuffer::BoundedBuffer():head(0), tail(0){
  12              		.loc 1 22 1
  13              		.cfi_startproc
  14              	.LVL0:
  15 0000 130101FE 		addi	sp,sp,-32
  16              		.cfi_def_cfa_offset 32
  17 0004 233C1100 		sd	ra,24(sp)
  18 0008 23388100 		sd	s0,16(sp)
  19 000c 23349100 		sd	s1,8(sp)
  20              		.cfi_offset 1, -8
  21              		.cfi_offset 8, -16
  22              		.cfi_offset 9, -24
  23 0010 13040102 		addi	s0,sp,32
  24              		.cfi_def_cfa 8, 0
  25 0014 93040500 		mv	s1,a0
  26              	.LBB2:
  27              		.loc 1 22 47 is_stmt 0
  28 0018 23240500 		sw	zero,8(a0)
  29 001c 23260500 		sw	zero,12(a0)
  23:src/_console.cpp ****     buffer=(char*)MemoryAllocator::alloc((BUFF_CAP+MEM_BLOCK_SIZE-1)/MEM_BLOCK_SIZE);
  30              		.loc 1 23 5 is_stmt 1
  31              		.loc 1 23 41 is_stmt 0
  32 0020 13050001 		li	a0,16
  33              	.LVL1:
  34 0024 97000000 		call	_ZN15MemoryAllocator5allocEm@plt
  34      E7800000 
GAS LISTING /tmp/ccF1nelH.s 			page 2


  35              	.LVL2:
  36              		.loc 1 23 11
  37 002c 23B0A400 		sd	a0,0(s1)
  24:src/_console.cpp ****     spaceAvailable=_sem::open(BUFF_CAP);
  38              		.loc 1 24 5 is_stmt 1
  39              		.loc 1 24 30 is_stmt 0
  40 0030 1305803E 		li	a0,1000
  41 0034 97000000 		call	_ZN4_sem4openEi@plt
  41      E7800000 
  42              	.LVL3:
  43              		.loc 1 24 19
  44 003c 23B8A400 		sd	a0,16(s1)
  25:src/_console.cpp ****     itemAvailable=_sem::open(0);
  45              		.loc 1 25 5 is_stmt 1
  46              		.loc 1 25 29 is_stmt 0
  47 0040 13050000 		li	a0,0
  48 0044 97000000 		call	_ZN4_sem4openEi@plt
  48      E7800000 
  49              	.LVL4:
  50              		.loc 1 25 18
  51 004c 23BCA400 		sd	a0,24(s1)
  52              	.LBE2:
  26:src/_console.cpp **** }
  53              		.loc 1 26 1
  54 0050 83308101 		ld	ra,24(sp)
  55              		.cfi_restore 1
  56 0054 03340101 		ld	s0,16(sp)
  57              		.cfi_restore 8
  58              		.cfi_def_cfa 2, 32
  59 0058 83348100 		ld	s1,8(sp)
  60              		.cfi_restore 9
  61              	.LVL5:
  62 005c 13010102 		addi	sp,sp,32
  63              		.cfi_def_cfa_offset 0
  64 0060 67800000 		jr	ra
  65              		.cfi_endproc
  66              	.LFE20:
  68              		.globl	_ZN13BoundedBufferC1Ev
  69              		.set	_ZN13BoundedBufferC1Ev,_ZN13BoundedBufferC2Ev
  70              		.align	2
  71              		.globl	_ZN13BoundedBuffer3putEc
  73              	_ZN13BoundedBuffer3putEc:
  74              	.LFB22:
  27:src/_console.cpp **** 
  28:src/_console.cpp **** void BoundedBuffer::put(char c) {
  75              		.loc 1 28 33 is_stmt 1
  76              		.cfi_startproc
  77              	.LVL6:
  78 0064 130101FE 		addi	sp,sp,-32
  79              		.cfi_def_cfa_offset 32
  80 0068 233C1100 		sd	ra,24(sp)
  81 006c 23388100 		sd	s0,16(sp)
  82 0070 23349100 		sd	s1,8(sp)
  83 0074 23302101 		sd	s2,0(sp)
  84              		.cfi_offset 1, -8
  85              		.cfi_offset 8, -16
  86              		.cfi_offset 9, -24
GAS LISTING /tmp/ccF1nelH.s 			page 3


  87              		.cfi_offset 18, -32
  88 0078 13040102 		addi	s0,sp,32
  89              		.cfi_def_cfa 8, 0
  90 007c 93040500 		mv	s1,a0
  91 0080 13890500 		mv	s2,a1
  29:src/_console.cpp ****     spaceAvailable->wait();
  92              		.loc 1 29 5
  93              		.loc 1 29 25 is_stmt 0
  94 0084 03350501 		ld	a0,16(a0)
  95              	.LVL7:
  96 0088 97000000 		call	_ZN4_sem4waitEv@plt
  96      E7800000 
  97              	.LVL8:
  30:src/_console.cpp ****     buffer[tail]=c;
  98              		.loc 1 30 5 is_stmt 1
  99 0090 83B70400 		ld	a5,0(s1)
 100              		.loc 1 30 12 is_stmt 0
 101 0094 03A7C400 		lw	a4,12(s1)
 102              		.loc 1 30 16
 103 0098 B387E700 		add	a5,a5,a4
 104              		.loc 1 30 17
 105 009c 23802701 		sb	s2,0(a5)
  31:src/_console.cpp ****     tail=(tail+1)%BUFF_CAP;
 106              		.loc 1 31 5 is_stmt 1
 107              		.loc 1 31 11 is_stmt 0
 108 00a0 83A7C400 		lw	a5,12(s1)
 109              		.loc 1 31 15
 110 00a4 9B871700 		addiw	a5,a5,1
 111              		.loc 1 31 18
 112 00a8 1307803E 		li	a4,1000
 113 00ac BBE7E702 		remw	a5,a5,a4
 114              		.loc 1 31 9
 115 00b0 23A6F400 		sw	a5,12(s1)
  32:src/_console.cpp ****     itemAvailable->signal();
 116              		.loc 1 32 5 is_stmt 1
 117              		.loc 1 32 26 is_stmt 0
 118 00b4 03B58401 		ld	a0,24(s1)
 119 00b8 97000000 		call	_ZN4_sem6signalEv@plt
 119      E7800000 
 120              	.LVL9:
  33:src/_console.cpp **** }
 121              		.loc 1 33 1
 122 00c0 83308101 		ld	ra,24(sp)
 123              		.cfi_restore 1
 124 00c4 03340101 		ld	s0,16(sp)
 125              		.cfi_restore 8
 126              		.cfi_def_cfa 2, 32
 127 00c8 83348100 		ld	s1,8(sp)
 128              		.cfi_restore 9
 129              	.LVL10:
 130 00cc 03390100 		ld	s2,0(sp)
 131              		.cfi_restore 18
 132 00d0 13010102 		addi	sp,sp,32
 133              		.cfi_def_cfa_offset 0
 134 00d4 67800000 		jr	ra
 135              		.cfi_endproc
 136              	.LFE22:
GAS LISTING /tmp/ccF1nelH.s 			page 4


 138              		.align	2
 139              		.globl	_ZN13BoundedBuffer17takeFromInterruptEv
 141              	_ZN13BoundedBuffer17takeFromInterruptEv:
 142              	.LFB23:
  34:src/_console.cpp **** 
  35:src/_console.cpp **** 
  36:src/_console.cpp **** char BoundedBuffer::takeFromInterrupt() {
 143              		.loc 1 36 41 is_stmt 1
 144              		.cfi_startproc
 145              	.LVL11:
 146 00d8 130101FE 		addi	sp,sp,-32
 147              		.cfi_def_cfa_offset 32
 148 00dc 233C1100 		sd	ra,24(sp)
 149 00e0 23388100 		sd	s0,16(sp)
 150 00e4 23349100 		sd	s1,8(sp)
 151 00e8 23302101 		sd	s2,0(sp)
 152              		.cfi_offset 1, -8
 153              		.cfi_offset 8, -16
 154              		.cfi_offset 9, -24
 155              		.cfi_offset 18, -32
 156 00ec 13040102 		addi	s0,sp,32
 157              		.cfi_def_cfa 8, 0
 158 00f0 93040500 		mv	s1,a0
  37:src/_console.cpp ****     itemAvailable->wait();
 159              		.loc 1 37 5
 160              		.loc 1 37 24 is_stmt 0
 161 00f4 03358501 		ld	a0,24(a0)
 162              	.LVL12:
 163 00f8 97000000 		call	_ZN4_sem4waitEv@plt
 163      E7800000 
 164              	.LVL13:
  38:src/_console.cpp ****     char c=buffer[head];
 165              		.loc 1 38 5 is_stmt 1
 166              		.loc 1 38 12 is_stmt 0
 167 0100 03B70400 		ld	a4,0(s1)
 168              		.loc 1 38 19
 169 0104 83A78400 		lw	a5,8(s1)
 170              		.loc 1 38 23
 171 0108 3307F700 		add	a4,a4,a5
 172              		.loc 1 38 10
 173 010c 03490700 		lbu	s2,0(a4)
 174              	.LVL14:
  39:src/_console.cpp ****     head=(head+1)%BUFF_CAP;
 175              		.loc 1 39 5 is_stmt 1
 176              		.loc 1 39 15 is_stmt 0
 177 0110 9B871700 		addiw	a5,a5,1
 178              		.loc 1 39 18
 179 0114 1307803E 		li	a4,1000
 180 0118 BBE7E702 		remw	a5,a5,a4
 181              		.loc 1 39 9
 182 011c 23A4F400 		sw	a5,8(s1)
  40:src/_console.cpp ****     spaceAvailable->signal();
 183              		.loc 1 40 5 is_stmt 1
 184              		.loc 1 40 27 is_stmt 0
 185 0120 03B50401 		ld	a0,16(s1)
 186 0124 97000000 		call	_ZN4_sem6signalEv@plt
 186      E7800000 
GAS LISTING /tmp/ccF1nelH.s 			page 5


 187              	.LVL15:
  41:src/_console.cpp ****     return c;
 188              		.loc 1 41 5 is_stmt 1
  42:src/_console.cpp **** }
 189              		.loc 1 42 1 is_stmt 0
 190 012c 13050900 		mv	a0,s2
 191 0130 83308101 		ld	ra,24(sp)
 192              		.cfi_restore 1
 193 0134 03340101 		ld	s0,16(sp)
 194              		.cfi_restore 8
 195              		.cfi_def_cfa 2, 32
 196 0138 83348100 		ld	s1,8(sp)
 197              		.cfi_restore 9
 198              	.LVL16:
 199 013c 03390100 		ld	s2,0(sp)
 200              		.cfi_restore 18
 201              	.LVL17:
 202 0140 13010102 		addi	sp,sp,32
 203              		.cfi_def_cfa_offset 0
 204 0144 67800000 		jr	ra
 205              		.cfi_endproc
 206              	.LFE23:
 208              		.align	2
 209              		.globl	_ZN13BoundedBufferD2Ev
 211              	_ZN13BoundedBufferD2Ev:
 212              	.LFB25:
  43:src/_console.cpp **** 
  44:src/_console.cpp **** BoundedBuffer::~BoundedBuffer() {
 213              		.loc 1 44 1 is_stmt 1
 214              		.cfi_startproc
 215              		.cfi_personality 0x9b,DW.ref.__gxx_personality_v0
 216              		.cfi_lsda 0x1b,.LLSDA25
 217              	.LVL18:
 218 0148 130101FE 		addi	sp,sp,-32
 219              		.cfi_def_cfa_offset 32
 220 014c 233C1100 		sd	ra,24(sp)
 221 0150 23388100 		sd	s0,16(sp)
 222 0154 23349100 		sd	s1,8(sp)
 223              		.cfi_offset 1, -8
 224              		.cfi_offset 8, -16
 225              		.cfi_offset 9, -24
 226 0158 13040102 		addi	s0,sp,32
 227              		.cfi_def_cfa 8, 0
 228 015c 93040500 		mv	s1,a0
 229              	.LBB3:
  45:src/_console.cpp ****     MemoryAllocator::free(buffer);
 230              		.loc 1 45 5
 231              		.loc 1 45 26 is_stmt 0
 232 0160 03350500 		ld	a0,0(a0)
 233              	.LVL19:
 234 0164 97000000 		call	_ZN15MemoryAllocator4freeEPv@plt
 234      E7800000 
 235              	.LVL20:
  46:src/_console.cpp ****     /*itemAvailable->close();
  47:src/_console.cpp ****     spaceAvailable->close();*/
  48:src/_console.cpp ****     sem_close(itemAvailable);
 236              		.loc 1 48 5 is_stmt 1
GAS LISTING /tmp/ccF1nelH.s 			page 6


 237              		.loc 1 48 14 is_stmt 0
 238 016c 03B58401 		ld	a0,24(s1)
 239 0170 97000000 		call	_Z9sem_closeP4_sem@plt
 239      E7800000 
 240              	.LVL21:
  49:src/_console.cpp ****     sem_close(spaceAvailable);
 241              		.loc 1 49 5 is_stmt 1
 242              		.loc 1 49 14 is_stmt 0
 243 0178 03B50401 		ld	a0,16(s1)
 244 017c 97000000 		call	_Z9sem_closeP4_sem@plt
 244      E7800000 
 245              	.LVL22:
 246              	.LBE3:
  50:src/_console.cpp **** }
 247              		.loc 1 50 1
 248 0184 83308101 		ld	ra,24(sp)
 249              		.cfi_restore 1
 250 0188 03340101 		ld	s0,16(sp)
 251              		.cfi_restore 8
 252              		.cfi_def_cfa 2, 32
 253 018c 83348100 		ld	s1,8(sp)
 254              		.cfi_restore 9
 255              	.LVL23:
 256 0190 13010102 		addi	sp,sp,32
 257              		.cfi_def_cfa_offset 0
 258 0194 67800000 		jr	ra
 259              		.cfi_endproc
 260              	.LFE25:
 261              		.globl	__gxx_personality_v0
 262              		.section	.gcc_except_table,"a",@progbits
 263              	.LLSDA25:
 264 0000 FF       		.byte	0xff
 265 0001 FF       		.byte	0xff
 266 0002 03       		.byte	0x3
 267 0003 00       		.byte	0
 268              		.text
 270              		.globl	_ZN13BoundedBufferD1Ev
 271              		.set	_ZN13BoundedBufferD1Ev,_ZN13BoundedBufferD2Ev
 272              		.align	2
 273              		.globl	_ZN13BoundedBuffer17takeFromSysThreadEv
 275              	_ZN13BoundedBuffer17takeFromSysThreadEv:
 276              	.LFB27:
  51:src/_console.cpp **** 
  52:src/_console.cpp **** char BoundedBuffer::takeFromSysThread() {
 277              		.loc 1 52 41 is_stmt 1
 278              		.cfi_startproc
 279              	.LVL24:
 280 0198 130101FE 		addi	sp,sp,-32
 281              		.cfi_def_cfa_offset 32
 282 019c 233C1100 		sd	ra,24(sp)
 283 01a0 23388100 		sd	s0,16(sp)
 284 01a4 23349100 		sd	s1,8(sp)
 285 01a8 23302101 		sd	s2,0(sp)
 286              		.cfi_offset 1, -8
 287              		.cfi_offset 8, -16
 288              		.cfi_offset 9, -24
 289              		.cfi_offset 18, -32
GAS LISTING /tmp/ccF1nelH.s 			page 7


 290 01ac 13040102 		addi	s0,sp,32
 291              		.cfi_def_cfa 8, 0
 292 01b0 93040500 		mv	s1,a0
  53:src/_console.cpp ****     sem_wait(itemAvailable);
 293              		.loc 1 53 5
 294              		.loc 1 53 13 is_stmt 0
 295 01b4 03358501 		ld	a0,24(a0)
 296              	.LVL25:
 297 01b8 97000000 		call	_Z8sem_waitP4_sem@plt
 297      E7800000 
 298              	.LVL26:
  54:src/_console.cpp ****     char c=buffer[head];
 299              		.loc 1 54 5 is_stmt 1
 300              		.loc 1 54 12 is_stmt 0
 301 01c0 03B70400 		ld	a4,0(s1)
 302              		.loc 1 54 19
 303 01c4 83A78400 		lw	a5,8(s1)
 304              		.loc 1 54 23
 305 01c8 3307F700 		add	a4,a4,a5
 306              		.loc 1 54 10
 307 01cc 03490700 		lbu	s2,0(a4)
 308              	.LVL27:
  55:src/_console.cpp ****     head=(head+1)%BUFF_CAP;
 309              		.loc 1 55 5 is_stmt 1
 310              		.loc 1 55 15 is_stmt 0
 311 01d0 9B871700 		addiw	a5,a5,1
 312              		.loc 1 55 18
 313 01d4 1307803E 		li	a4,1000
 314 01d8 BBE7E702 		remw	a5,a5,a4
 315              		.loc 1 55 9
 316 01dc 23A4F400 		sw	a5,8(s1)
  56:src/_console.cpp ****     sem_signal(spaceAvailable);
 317              		.loc 1 56 5 is_stmt 1
 318              		.loc 1 56 15 is_stmt 0
 319 01e0 03B50401 		ld	a0,16(s1)
 320 01e4 97000000 		call	_Z10sem_signalP4_sem@plt
 320      E7800000 
 321              	.LVL28:
  57:src/_console.cpp ****     return c;
 322              		.loc 1 57 5 is_stmt 1
  58:src/_console.cpp **** }
 323              		.loc 1 58 1 is_stmt 0
 324 01ec 13050900 		mv	a0,s2
 325 01f0 83308101 		ld	ra,24(sp)
 326              		.cfi_restore 1
 327 01f4 03340101 		ld	s0,16(sp)
 328              		.cfi_restore 8
 329              		.cfi_def_cfa 2, 32
 330 01f8 83348100 		ld	s1,8(sp)
 331              		.cfi_restore 9
 332              	.LVL29:
 333 01fc 03390100 		ld	s2,0(sp)
 334              		.cfi_restore 18
 335              	.LVL30:
 336 0200 13010102 		addi	sp,sp,32
 337              		.cfi_def_cfa_offset 0
 338 0204 67800000 		jr	ra
GAS LISTING /tmp/ccF1nelH.s 			page 8


 339              		.cfi_endproc
 340              	.LFE27:
 342              		.align	2
 343              		.globl	_ZN8_console13inputBuff_putEc
 345              	_ZN8_console13inputBuff_putEc:
 346              	.LFB28:
  59:src/_console.cpp **** 
  60:src/_console.cpp **** void _console::inputBuff_put(char c) {
 347              		.loc 1 60 38 is_stmt 1
 348              		.cfi_startproc
 349              	.LVL31:
 350 0208 130101FF 		addi	sp,sp,-16
 351              		.cfi_def_cfa_offset 16
 352 020c 23341100 		sd	ra,8(sp)
 353 0210 23308100 		sd	s0,0(sp)
 354              		.cfi_offset 1, -8
 355              		.cfi_offset 8, -16
 356 0214 13040101 		addi	s0,sp,16
 357              		.cfi_def_cfa 8, 0
 358 0218 93050500 		mv	a1,a0
  61:src/_console.cpp ****     inputBuff->put(c);
 359              		.loc 1 61 5
 360              		.loc 1 61 19 is_stmt 0
 361 021c 17050000 		ld	a0,.LANCHOR0
 361      03350500 
 362              	.LVL32:
 363 0224 97000000 		call	_ZN13BoundedBuffer3putEc
 363      E7800000 
 364              	.LVL33:
  62:src/_console.cpp **** }
 365              		.loc 1 62 1
 366 022c 83308100 		ld	ra,8(sp)
 367              		.cfi_restore 1
 368 0230 03340100 		ld	s0,0(sp)
 369              		.cfi_restore 8
 370              		.cfi_def_cfa 2, 16
 371 0234 13010101 		addi	sp,sp,16
 372              		.cfi_def_cfa_offset 0
 373 0238 67800000 		jr	ra
 374              		.cfi_endproc
 375              	.LFE28:
 377              		.align	2
 378              		.globl	_ZN8_console14inputBuff_takeEv
 380              	_ZN8_console14inputBuff_takeEv:
 381              	.LFB29:
  63:src/_console.cpp **** 
  64:src/_console.cpp **** char _console::inputBuff_take() {
 382              		.loc 1 64 33 is_stmt 1
 383              		.cfi_startproc
 384 023c 130101FF 		addi	sp,sp,-16
 385              		.cfi_def_cfa_offset 16
 386 0240 23341100 		sd	ra,8(sp)
 387 0244 23308100 		sd	s0,0(sp)
 388              		.cfi_offset 1, -8
 389              		.cfi_offset 8, -16
 390 0248 13040101 		addi	s0,sp,16
 391              		.cfi_def_cfa 8, 0
GAS LISTING /tmp/ccF1nelH.s 			page 9


  65:src/_console.cpp ****     return inputBuff->takeFromInterrupt();
 392              		.loc 1 65 5
 393              		.loc 1 65 40 is_stmt 0
 394 024c 17050000 		ld	a0,.LANCHOR0
 394      03350500 
 395 0254 97000000 		call	_ZN13BoundedBuffer17takeFromInterruptEv
 395      E7800000 
 396              	.LVL34:
  66:src/_console.cpp **** }
 397              		.loc 1 66 1
 398 025c 83308100 		ld	ra,8(sp)
 399              		.cfi_restore 1
 400 0260 03340100 		ld	s0,0(sp)
 401              		.cfi_restore 8
 402              		.cfi_def_cfa 2, 16
 403 0264 13010101 		addi	sp,sp,16
 404              		.cfi_def_cfa_offset 0
 405 0268 67800000 		jr	ra
 406              		.cfi_endproc
 407              	.LFE29:
 409              		.align	2
 410              		.globl	_ZN8_console14outputBuff_putEc
 412              	_ZN8_console14outputBuff_putEc:
 413              	.LFB30:
  67:src/_console.cpp **** 
  68:src/_console.cpp **** void _console::outputBuff_put(char c) {
 414              		.loc 1 68 39 is_stmt 1
 415              		.cfi_startproc
 416              	.LVL35:
 417 026c 130101FF 		addi	sp,sp,-16
 418              		.cfi_def_cfa_offset 16
 419 0270 23341100 		sd	ra,8(sp)
 420 0274 23308100 		sd	s0,0(sp)
 421              		.cfi_offset 1, -8
 422              		.cfi_offset 8, -16
 423 0278 13040101 		addi	s0,sp,16
 424              		.cfi_def_cfa 8, 0
 425 027c 93050500 		mv	a1,a0
  69:src/_console.cpp ****     outputBuff->put(c);
 426              		.loc 1 69 5
 427              		.loc 1 69 20 is_stmt 0
 428 0280 17050000 		ld	a0,.LANCHOR0+8
 428      03350500 
 429              	.LVL36:
 430 0288 97000000 		call	_ZN13BoundedBuffer3putEc
 430      E7800000 
 431              	.LVL37:
  70:src/_console.cpp **** }
 432              		.loc 1 70 1
 433 0290 83308100 		ld	ra,8(sp)
 434              		.cfi_restore 1
 435 0294 03340100 		ld	s0,0(sp)
 436              		.cfi_restore 8
 437              		.cfi_def_cfa 2, 16
 438 0298 13010101 		addi	sp,sp,16
 439              		.cfi_def_cfa_offset 0
 440 029c 67800000 		jr	ra
GAS LISTING /tmp/ccF1nelH.s 			page 10


 441              		.cfi_endproc
 442              	.LFE30:
 444              		.align	2
 445              		.globl	_ZN8_console15outputBuff_takeEv
 447              	_ZN8_console15outputBuff_takeEv:
 448              	.LFB31:
  71:src/_console.cpp **** 
  72:src/_console.cpp **** char _console::outputBuff_take() {
 449              		.loc 1 72 34 is_stmt 1
 450              		.cfi_startproc
 451 02a0 130101FF 		addi	sp,sp,-16
 452              		.cfi_def_cfa_offset 16
 453 02a4 23341100 		sd	ra,8(sp)
 454 02a8 23308100 		sd	s0,0(sp)
 455              		.cfi_offset 1, -8
 456              		.cfi_offset 8, -16
 457 02ac 13040101 		addi	s0,sp,16
 458              		.cfi_def_cfa 8, 0
  73:src/_console.cpp ****     return outputBuff->takeFromSysThread();
 459              		.loc 1 73 5
 460              		.loc 1 73 41 is_stmt 0
 461 02b0 17050000 		ld	a0,.LANCHOR0+8
 461      03350500 
 462 02b8 97000000 		call	_ZN13BoundedBuffer17takeFromSysThreadEv
 462      E7800000 
 463              	.LVL38:
  74:src/_console.cpp **** }
 464              		.loc 1 74 1
 465 02c0 83308100 		ld	ra,8(sp)
 466              		.cfi_restore 1
 467 02c4 03340100 		ld	s0,0(sp)
 468              		.cfi_restore 8
 469              		.cfi_def_cfa 2, 16
 470 02c8 13010101 		addi	sp,sp,16
 471              		.cfi_def_cfa_offset 0
 472 02cc 67800000 		jr	ra
 473              		.cfi_endproc
 474              	.LFE31:
 476              		.align	2
 477              		.globl	_ZN8_console15consumerConsoleEPv
 479              	_ZN8_console15consumerConsoleEPv:
 480              	.LFB18:
  12:src/_console.cpp ****     while(true) {
 481              		.loc 1 12 38 is_stmt 1
 482              		.cfi_startproc
 483              	.L23:
  13:src/_console.cpp ****         while ((*(char *) CONSOLE_STATUS) & CONSOLE_TX_STATUS_BIT) {
 484              		.loc 1 13 5
 485              	.LBB4:
  14:src/_console.cpp ****             char c = _console::outputBuff_take();
 486              		.loc 1 14 9
  14:src/_console.cpp ****             char c = _console::outputBuff_take();
 487              		.loc 1 14 45
  14:src/_console.cpp ****             char c = _console::outputBuff_take();
 488              		.loc 1 14 17 is_stmt 0
 489 02d0 97070000 		la	a5,CONSOLE_STATUS
 489      83B70700 
GAS LISTING /tmp/ccF1nelH.s 			page 11


 490 02d8 83B70700 		ld	a5,0(a5)
 491 02dc 83C70700 		lbu	a5,0(a5)
  14:src/_console.cpp ****             char c = _console::outputBuff_take();
 492              		.loc 1 14 45
 493 02e0 93F70702 		andi	a5,a5,32
 494 02e4 E38607FE 		beqz	a5,.L23
 495              	.LBE4:
  12:src/_console.cpp ****     while(true) {
 496              		.loc 1 12 38
 497 02e8 130101FF 		addi	sp,sp,-16
 498              		.cfi_def_cfa_offset 16
 499 02ec 23341100 		sd	ra,8(sp)
 500 02f0 23308100 		sd	s0,0(sp)
 501              		.cfi_offset 1, -8
 502              		.cfi_offset 8, -16
 503 02f4 13040101 		addi	s0,sp,16
 504              		.cfi_def_cfa 8, 0
 505              	.L24:
 506              	.LBB6:
 507              	.LBB5:
  15:src/_console.cpp ****             *(char *) CONSOLE_TX_DATA = c;
 508              		.loc 1 15 13 is_stmt 1
  15:src/_console.cpp ****             *(char *) CONSOLE_TX_DATA = c;
 509              		.loc 1 15 47 is_stmt 0
 510 02f8 97000000 		call	_ZN8_console15outputBuff_takeEv
 510      E7800000 
 511              	.LVL39:
  16:src/_console.cpp ****         }
 512              		.loc 1 16 13 is_stmt 1
 513 0300 97070000 		la	a5,CONSOLE_TX_DATA
 513      83B70700 
 514 0308 83B70700 		ld	a5,0(a5)
  16:src/_console.cpp ****         }
 515              		.loc 1 16 39 is_stmt 0
 516 030c 2380A700 		sb	a0,0(a5)
 517              	.L20:
 518              	.LBE5:
 519              	.LBE6:
  13:src/_console.cpp ****         while ((*(char *) CONSOLE_STATUS) & CONSOLE_TX_STATUS_BIT) {
 520              		.loc 1 13 5 is_stmt 1
 521              	.LBB7:
  14:src/_console.cpp ****             char c = _console::outputBuff_take();
 522              		.loc 1 14 9
  14:src/_console.cpp ****             char c = _console::outputBuff_take();
 523              		.loc 1 14 45
  14:src/_console.cpp ****             char c = _console::outputBuff_take();
 524              		.loc 1 14 17 is_stmt 0
 525 0310 97070000 		la	a5,CONSOLE_STATUS
 525      83B70700 
 526 0318 83B70700 		ld	a5,0(a5)
 527 031c 83C70700 		lbu	a5,0(a5)
  14:src/_console.cpp ****             char c = _console::outputBuff_take();
 528              		.loc 1 14 45
 529 0320 93F70702 		andi	a5,a5,32
 530 0324 E38607FE 		beqz	a5,.L20
 531 0328 6FF01FFD 		j	.L24
 532              	.LBE7:
GAS LISTING /tmp/ccF1nelH.s 			page 12


 533              		.cfi_endproc
 534              	.LFE18:
 536              		.globl	_ZN8_console9inputBuffE
 537              		.globl	_ZN8_console10outputBuffE
 538              		.bss
 539              		.align	3
 540              		.set	.LANCHOR0,. + 0
 543              	_ZN8_console9inputBuffE:
 544 0000 00000000 		.zero	8
 544      00000000 
 547              	_ZN8_console10outputBuffE:
 548 0008 00000000 		.zero	8
 548      00000000 
 549              		.text
 550              	.Letext0:
 551              		.file 2 "src/../h/../h/../h/../lib/hw.h"
 552              		.file 3 "src/../h/../h/../h/MemoryAllocator.hpp"
 553              		.file 4 "src/../h/../h/../h/list.hpp"
 554              		.file 5 "src/../h/../h/_sem.hpp"
 555              		.file 6 "src/../h/_console.hpp"
 556              		.file 7 "src/../h/syscall_c.hpp"
 2845              		.align	3
 2848              	DW.ref.__gxx_personality_v0:
 2849 0000 00000000 		.dword	__gxx_personality_v0
 2849      00000000 
 2850              		.ident	"GCC: (Ubuntu 9.4.0-1ubuntu1~20.04) 9.4.0"
 2851              		.section	.note.GNU-stack,"",@progbits
GAS LISTING /tmp/ccF1nelH.s 			page 13

