GAS LISTING /tmp/ccsuSu3c.s 			page 1


   1              		.file	"_console.cpp"
   2              		.option pic
   3              		.option norelax
   4              		.text
   5              	.Ltext0:
   6              		.align	2
   7              		.globl	_ZN13BoundedBufferC2Ev
   9              	_ZN13BoundedBufferC2Ev:
  10              	.LFB20:
  11              		.file 1 "src/_console.cpp"
   1:src/_console.cpp **** //
   2:src/_console.cpp **** // Created by os on 8/15/23.
   3:src/_console.cpp **** //
   4:src/_console.cpp **** 
   5:src/_console.cpp **** #include "../h/_console.hpp"
   6:src/_console.cpp **** #include "../h/syscall_c.hpp"
   7:src/_console.cpp **** 
   8:src/_console.cpp **** BoundedBuffer* _console::outputBuff= nullptr;
   9:src/_console.cpp **** BoundedBuffer* _console::inputBuff= nullptr;
  10:src/_console.cpp **** 
  11:src/_console.cpp **** 
  12:src/_console.cpp **** void _console::consumerConsole(void*){
  13:src/_console.cpp ****     while(true) {
  14:src/_console.cpp ****         while ((*(char *) CONSOLE_STATUS) & CONSOLE_TX_STATUS_BIT) {
  15:src/_console.cpp ****             char c = _console::outputBuff_take();
  16:src/_console.cpp ****             *(char *) CONSOLE_TX_DATA = c;
  17:src/_console.cpp ****         }
  18:src/_console.cpp ****     }
  19:src/_console.cpp **** }
  20:src/_console.cpp **** 
  21:src/_console.cpp **** 
  22:src/_console.cpp **** BoundedBuffer::BoundedBuffer():head(0), tail(0), count(0){
  12              		.loc 1 22 1
  13              		.cfi_startproc
  14              	.LVL0:
  15 0000 130101FE 		addi	sp,sp,-32
  16              		.cfi_def_cfa_offset 32
  17 0004 233C1100 		sd	ra,24(sp)
  18 0008 23388100 		sd	s0,16(sp)
  19 000c 23349100 		sd	s1,8(sp)
  20              		.cfi_offset 1, -8
  21              		.cfi_offset 8, -16
  22              		.cfi_offset 9, -24
  23 0010 13040102 		addi	s0,sp,32
  24              		.cfi_def_cfa 8, 0
  25 0014 93040500 		mv	s1,a0
  26              	.LBB2:
  27              		.loc 1 22 57 is_stmt 0
  28 0018 23240500 		sw	zero,8(a0)
  29 001c 23260500 		sw	zero,12(a0)
  30 0020 23280500 		sw	zero,16(a0)
  23:src/_console.cpp ****     buffer=(char*)MemoryAllocator::alloc((BUFF_CAP+MEM_BLOCK_SIZE-1)/MEM_BLOCK_SIZE);
  31              		.loc 1 23 5 is_stmt 1
  32              		.loc 1 23 41 is_stmt 0
  33 0024 13050001 		li	a0,16
  34              	.LVL1:
  35 0028 97000000 		call	_ZN15MemoryAllocator5allocEm@plt
GAS LISTING /tmp/ccsuSu3c.s 			page 2


  35      E7800000 
  36              	.LVL2:
  37              		.loc 1 23 11
  38 0030 23B0A400 		sd	a0,0(s1)
  24:src/_console.cpp ****     spaceAvailable=_sem::open(BUFF_CAP);
  39              		.loc 1 24 5 is_stmt 1
  40              		.loc 1 24 30 is_stmt 0
  41 0034 1305803E 		li	a0,1000
  42 0038 97000000 		call	_ZN4_sem4openEi@plt
  42      E7800000 
  43              	.LVL3:
  44              		.loc 1 24 19
  45 0040 23BCA400 		sd	a0,24(s1)
  25:src/_console.cpp ****     itemAvailable=_sem::open(0);
  46              		.loc 1 25 5 is_stmt 1
  47              		.loc 1 25 29 is_stmt 0
  48 0044 13050000 		li	a0,0
  49 0048 97000000 		call	_ZN4_sem4openEi@plt
  49      E7800000 
  50              	.LVL4:
  51              		.loc 1 25 18
  52 0050 23B0A402 		sd	a0,32(s1)
  53              	.LBE2:
  26:src/_console.cpp **** }
  54              		.loc 1 26 1
  55 0054 83308101 		ld	ra,24(sp)
  56              		.cfi_restore 1
  57 0058 03340101 		ld	s0,16(sp)
  58              		.cfi_restore 8
  59              		.cfi_def_cfa 2, 32
  60 005c 83348100 		ld	s1,8(sp)
  61              		.cfi_restore 9
  62              	.LVL5:
  63 0060 13010102 		addi	sp,sp,32
  64              		.cfi_def_cfa_offset 0
  65 0064 67800000 		jr	ra
  66              		.cfi_endproc
  67              	.LFE20:
  69              		.globl	_ZN13BoundedBufferC1Ev
  70              		.set	_ZN13BoundedBufferC1Ev,_ZN13BoundedBufferC2Ev
  71              		.align	2
  72              		.globl	_ZN13BoundedBuffer3putEc
  74              	_ZN13BoundedBuffer3putEc:
  75              	.LFB22:
  27:src/_console.cpp **** 
  28:src/_console.cpp **** void BoundedBuffer::put(char c) {
  76              		.loc 1 28 33 is_stmt 1
  77              		.cfi_startproc
  78              	.LVL6:
  79 0068 130101FE 		addi	sp,sp,-32
  80              		.cfi_def_cfa_offset 32
  81 006c 233C1100 		sd	ra,24(sp)
  82 0070 23388100 		sd	s0,16(sp)
  83 0074 23349100 		sd	s1,8(sp)
  84 0078 23302101 		sd	s2,0(sp)
  85              		.cfi_offset 1, -8
  86              		.cfi_offset 8, -16
GAS LISTING /tmp/ccsuSu3c.s 			page 3


  87              		.cfi_offset 9, -24
  88              		.cfi_offset 18, -32
  89 007c 13040102 		addi	s0,sp,32
  90              		.cfi_def_cfa 8, 0
  91 0080 93040500 		mv	s1,a0
  92 0084 13890500 		mv	s2,a1
  29:src/_console.cpp ****     spaceAvailable->wait();
  93              		.loc 1 29 5
  94              		.loc 1 29 25 is_stmt 0
  95 0088 03358501 		ld	a0,24(a0)
  96              	.LVL7:
  97 008c 97000000 		call	_ZN4_sem4waitEv@plt
  97      E7800000 
  98              	.LVL8:
  30:src/_console.cpp ****     buffer[tail]=c;
  99              		.loc 1 30 5 is_stmt 1
 100 0094 83B70400 		ld	a5,0(s1)
 101              		.loc 1 30 12 is_stmt 0
 102 0098 03A7C400 		lw	a4,12(s1)
 103              		.loc 1 30 16
 104 009c B387E700 		add	a5,a5,a4
 105              		.loc 1 30 17
 106 00a0 23802701 		sb	s2,0(a5)
  31:src/_console.cpp ****     tail=(tail+1)%BUFF_CAP;
 107              		.loc 1 31 5 is_stmt 1
 108              		.loc 1 31 11 is_stmt 0
 109 00a4 83A7C400 		lw	a5,12(s1)
 110              		.loc 1 31 15
 111 00a8 9B871700 		addiw	a5,a5,1
 112              		.loc 1 31 18
 113 00ac 1307803E 		li	a4,1000
 114 00b0 BBE7E702 		remw	a5,a5,a4
 115              		.loc 1 31 9
 116 00b4 23A6F400 		sw	a5,12(s1)
  32:src/_console.cpp ****     count++;
 117              		.loc 1 32 5 is_stmt 1
 118 00b8 83A70401 		lw	a5,16(s1)
 119              		.loc 1 32 10 is_stmt 0
 120 00bc 9B871700 		addiw	a5,a5,1
 121 00c0 23A8F400 		sw	a5,16(s1)
  33:src/_console.cpp ****     itemAvailable->signal();
 122              		.loc 1 33 5 is_stmt 1
 123              		.loc 1 33 26 is_stmt 0
 124 00c4 03B50402 		ld	a0,32(s1)
 125 00c8 97000000 		call	_ZN4_sem6signalEv@plt
 125      E7800000 
 126              	.LVL9:
  34:src/_console.cpp **** }
 127              		.loc 1 34 1
 128 00d0 83308101 		ld	ra,24(sp)
 129              		.cfi_restore 1
 130 00d4 03340101 		ld	s0,16(sp)
 131              		.cfi_restore 8
 132              		.cfi_def_cfa 2, 32
 133 00d8 83348100 		ld	s1,8(sp)
 134              		.cfi_restore 9
 135              	.LVL10:
GAS LISTING /tmp/ccsuSu3c.s 			page 4


 136 00dc 03390100 		ld	s2,0(sp)
 137              		.cfi_restore 18
 138 00e0 13010102 		addi	sp,sp,32
 139              		.cfi_def_cfa_offset 0
 140 00e4 67800000 		jr	ra
 141              		.cfi_endproc
 142              	.LFE22:
 144              		.align	2
 145              		.globl	_ZN13BoundedBuffer17takeFromInterruptEv
 147              	_ZN13BoundedBuffer17takeFromInterruptEv:
 148              	.LFB23:
  35:src/_console.cpp **** 
  36:src/_console.cpp **** 
  37:src/_console.cpp **** char BoundedBuffer::takeFromInterrupt() {
 149              		.loc 1 37 41 is_stmt 1
 150              		.cfi_startproc
 151              	.LVL11:
 152 00e8 130101FE 		addi	sp,sp,-32
 153              		.cfi_def_cfa_offset 32
 154 00ec 233C1100 		sd	ra,24(sp)
 155 00f0 23388100 		sd	s0,16(sp)
 156 00f4 23349100 		sd	s1,8(sp)
 157 00f8 23302101 		sd	s2,0(sp)
 158              		.cfi_offset 1, -8
 159              		.cfi_offset 8, -16
 160              		.cfi_offset 9, -24
 161              		.cfi_offset 18, -32
 162 00fc 13040102 		addi	s0,sp,32
 163              		.cfi_def_cfa 8, 0
 164 0100 93040500 		mv	s1,a0
  38:src/_console.cpp ****     itemAvailable->wait();
 165              		.loc 1 38 5
 166              		.loc 1 38 24 is_stmt 0
 167 0104 03350502 		ld	a0,32(a0)
 168              	.LVL12:
 169 0108 97000000 		call	_ZN4_sem4waitEv@plt
 169      E7800000 
 170              	.LVL13:
  39:src/_console.cpp ****     char c=buffer[head];
 171              		.loc 1 39 5 is_stmt 1
 172              		.loc 1 39 12 is_stmt 0
 173 0110 03B70400 		ld	a4,0(s1)
 174              		.loc 1 39 19
 175 0114 83A78400 		lw	a5,8(s1)
 176              		.loc 1 39 23
 177 0118 3307F700 		add	a4,a4,a5
 178              		.loc 1 39 10
 179 011c 03490700 		lbu	s2,0(a4)
 180              	.LVL14:
  40:src/_console.cpp ****     head=(head+1)%BUFF_CAP;
 181              		.loc 1 40 5 is_stmt 1
 182              		.loc 1 40 15 is_stmt 0
 183 0120 9B871700 		addiw	a5,a5,1
 184              		.loc 1 40 18
 185 0124 1307803E 		li	a4,1000
 186 0128 BBE7E702 		remw	a5,a5,a4
 187              		.loc 1 40 9
GAS LISTING /tmp/ccsuSu3c.s 			page 5


 188 012c 23A4F400 		sw	a5,8(s1)
  41:src/_console.cpp ****     count--;
 189              		.loc 1 41 5 is_stmt 1
 190 0130 83A70401 		lw	a5,16(s1)
 191              		.loc 1 41 10 is_stmt 0
 192 0134 9B87F7FF 		addiw	a5,a5,-1
 193 0138 23A8F400 		sw	a5,16(s1)
  42:src/_console.cpp ****     spaceAvailable->signal();
 194              		.loc 1 42 5 is_stmt 1
 195              		.loc 1 42 27 is_stmt 0
 196 013c 03B58401 		ld	a0,24(s1)
 197 0140 97000000 		call	_ZN4_sem6signalEv@plt
 197      E7800000 
 198              	.LVL15:
  43:src/_console.cpp ****     return c;
 199              		.loc 1 43 5 is_stmt 1
  44:src/_console.cpp **** }
 200              		.loc 1 44 1 is_stmt 0
 201 0148 13050900 		mv	a0,s2
 202 014c 83308101 		ld	ra,24(sp)
 203              		.cfi_restore 1
 204 0150 03340101 		ld	s0,16(sp)
 205              		.cfi_restore 8
 206              		.cfi_def_cfa 2, 32
 207 0154 83348100 		ld	s1,8(sp)
 208              		.cfi_restore 9
 209              	.LVL16:
 210 0158 03390100 		ld	s2,0(sp)
 211              		.cfi_restore 18
 212              	.LVL17:
 213 015c 13010102 		addi	sp,sp,32
 214              		.cfi_def_cfa_offset 0
 215 0160 67800000 		jr	ra
 216              		.cfi_endproc
 217              	.LFE23:
 219              		.align	2
 220              		.globl	_ZN13BoundedBufferD2Ev
 222              	_ZN13BoundedBufferD2Ev:
 223              	.LFB25:
  45:src/_console.cpp **** 
  46:src/_console.cpp **** BoundedBuffer::~BoundedBuffer() {
 224              		.loc 1 46 1 is_stmt 1
 225              		.cfi_startproc
 226              		.cfi_personality 0x9b,DW.ref.__gxx_personality_v0
 227              		.cfi_lsda 0x1b,.LLSDA25
 228              	.LVL18:
 229 0164 130101FE 		addi	sp,sp,-32
 230              		.cfi_def_cfa_offset 32
 231 0168 233C1100 		sd	ra,24(sp)
 232 016c 23388100 		sd	s0,16(sp)
 233 0170 23349100 		sd	s1,8(sp)
 234              		.cfi_offset 1, -8
 235              		.cfi_offset 8, -16
 236              		.cfi_offset 9, -24
 237 0174 13040102 		addi	s0,sp,32
 238              		.cfi_def_cfa 8, 0
 239 0178 93040500 		mv	s1,a0
GAS LISTING /tmp/ccsuSu3c.s 			page 6


 240              	.LBB3:
  47:src/_console.cpp ****     mem_free(buffer);
 241              		.loc 1 47 5
 242              		.loc 1 47 13 is_stmt 0
 243 017c 03350500 		ld	a0,0(a0)
 244              	.LVL19:
 245 0180 97000000 		call	_Z8mem_freePv@plt
 245      E7800000 
 246              	.LVL20:
  48:src/_console.cpp ****     sem_close(itemAvailable);
 247              		.loc 1 48 5 is_stmt 1
 248              		.loc 1 48 14 is_stmt 0
 249 0188 03B50402 		ld	a0,32(s1)
 250 018c 97000000 		call	_Z9sem_closeP4_sem@plt
 250      E7800000 
 251              	.LVL21:
  49:src/_console.cpp ****     sem_close(spaceAvailable);
 252              		.loc 1 49 5 is_stmt 1
 253              		.loc 1 49 14 is_stmt 0
 254 0194 03B58401 		ld	a0,24(s1)
 255 0198 97000000 		call	_Z9sem_closeP4_sem@plt
 255      E7800000 
 256              	.LVL22:
 257              	.LBE3:
  50:src/_console.cpp **** }
 258              		.loc 1 50 1
 259 01a0 83308101 		ld	ra,24(sp)
 260              		.cfi_restore 1
 261 01a4 03340101 		ld	s0,16(sp)
 262              		.cfi_restore 8
 263              		.cfi_def_cfa 2, 32
 264 01a8 83348100 		ld	s1,8(sp)
 265              		.cfi_restore 9
 266              	.LVL23:
 267 01ac 13010102 		addi	sp,sp,32
 268              		.cfi_def_cfa_offset 0
 269 01b0 67800000 		jr	ra
 270              		.cfi_endproc
 271              	.LFE25:
 272              		.globl	__gxx_personality_v0
 273              		.section	.gcc_except_table,"a",@progbits
 274              	.LLSDA25:
 275 0000 FF       		.byte	0xff
 276 0001 FF       		.byte	0xff
 277 0002 03       		.byte	0x3
 278 0003 00       		.byte	0
 279              		.text
 281              		.globl	_ZN13BoundedBufferD1Ev
 282              		.set	_ZN13BoundedBufferD1Ev,_ZN13BoundedBufferD2Ev
 283              		.align	2
 284              		.globl	_ZN13BoundedBuffer17takeFromSysThreadEv
 286              	_ZN13BoundedBuffer17takeFromSysThreadEv:
 287              	.LFB27:
  51:src/_console.cpp **** 
  52:src/_console.cpp **** char BoundedBuffer::takeFromSysThread() {
 288              		.loc 1 52 41 is_stmt 1
 289              		.cfi_startproc
GAS LISTING /tmp/ccsuSu3c.s 			page 7


 290              	.LVL24:
 291 01b4 130101FE 		addi	sp,sp,-32
 292              		.cfi_def_cfa_offset 32
 293 01b8 233C1100 		sd	ra,24(sp)
 294 01bc 23388100 		sd	s0,16(sp)
 295 01c0 23349100 		sd	s1,8(sp)
 296 01c4 23302101 		sd	s2,0(sp)
 297              		.cfi_offset 1, -8
 298              		.cfi_offset 8, -16
 299              		.cfi_offset 9, -24
 300              		.cfi_offset 18, -32
 301 01c8 13040102 		addi	s0,sp,32
 302              		.cfi_def_cfa 8, 0
 303 01cc 93040500 		mv	s1,a0
  53:src/_console.cpp ****     sem_wait(itemAvailable);
 304              		.loc 1 53 5
 305              		.loc 1 53 13 is_stmt 0
 306 01d0 03350502 		ld	a0,32(a0)
 307              	.LVL25:
 308 01d4 97000000 		call	_Z8sem_waitP4_sem@plt
 308      E7800000 
 309              	.LVL26:
  54:src/_console.cpp ****     char c=buffer[head];
 310              		.loc 1 54 5 is_stmt 1
 311              		.loc 1 54 12 is_stmt 0
 312 01dc 03B70400 		ld	a4,0(s1)
 313              		.loc 1 54 19
 314 01e0 83A78400 		lw	a5,8(s1)
 315              		.loc 1 54 23
 316 01e4 3307F700 		add	a4,a4,a5
 317              		.loc 1 54 10
 318 01e8 03490700 		lbu	s2,0(a4)
 319              	.LVL27:
  55:src/_console.cpp ****     head=(head+1)%BUFF_CAP;
 320              		.loc 1 55 5 is_stmt 1
 321              		.loc 1 55 15 is_stmt 0
 322 01ec 9B871700 		addiw	a5,a5,1
 323              		.loc 1 55 18
 324 01f0 1307803E 		li	a4,1000
 325 01f4 BBE7E702 		remw	a5,a5,a4
 326              		.loc 1 55 9
 327 01f8 23A4F400 		sw	a5,8(s1)
  56:src/_console.cpp ****     count--;
 328              		.loc 1 56 5 is_stmt 1
 329 01fc 83A70401 		lw	a5,16(s1)
 330              		.loc 1 56 10 is_stmt 0
 331 0200 9B87F7FF 		addiw	a5,a5,-1
 332 0204 23A8F400 		sw	a5,16(s1)
  57:src/_console.cpp ****     sem_signal(spaceAvailable);
 333              		.loc 1 57 5 is_stmt 1
 334              		.loc 1 57 15 is_stmt 0
 335 0208 03B58401 		ld	a0,24(s1)
 336 020c 97000000 		call	_Z10sem_signalP4_sem@plt
 336      E7800000 
 337              	.LVL28:
  58:src/_console.cpp ****     return c;
 338              		.loc 1 58 5 is_stmt 1
GAS LISTING /tmp/ccsuSu3c.s 			page 8


  59:src/_console.cpp **** }
 339              		.loc 1 59 1 is_stmt 0
 340 0214 13050900 		mv	a0,s2
 341 0218 83308101 		ld	ra,24(sp)
 342              		.cfi_restore 1
 343 021c 03340101 		ld	s0,16(sp)
 344              		.cfi_restore 8
 345              		.cfi_def_cfa 2, 32
 346 0220 83348100 		ld	s1,8(sp)
 347              		.cfi_restore 9
 348              	.LVL29:
 349 0224 03390100 		ld	s2,0(sp)
 350              		.cfi_restore 18
 351              	.LVL30:
 352 0228 13010102 		addi	sp,sp,32
 353              		.cfi_def_cfa_offset 0
 354 022c 67800000 		jr	ra
 355              		.cfi_endproc
 356              	.LFE27:
 358              		.align	2
 359              		.globl	_ZN13BoundedBuffer6isFullEv
 361              	_ZN13BoundedBuffer6isFullEv:
 362              	.LFB28:
  60:src/_console.cpp **** 
  61:src/_console.cpp **** bool BoundedBuffer::isFull() {
 363              		.loc 1 61 30 is_stmt 1
 364              		.cfi_startproc
 365              	.LVL31:
 366 0230 130101FF 		addi	sp,sp,-16
 367              		.cfi_def_cfa_offset 16
 368 0234 23348100 		sd	s0,8(sp)
 369              		.cfi_offset 8, -8
 370 0238 13040101 		addi	s0,sp,16
 371              		.cfi_def_cfa 8, 0
  62:src/_console.cpp ****     return count==BUFF_CAP;
 372              		.loc 1 62 5
 373              		.loc 1 62 12 is_stmt 0
 374 023c 03250501 		lw	a0,16(a0)
 375              	.LVL32:
 376              		.loc 1 62 19
 377 0240 130585C1 		addi	a0,a0,-1000
  63:src/_console.cpp **** }
 378              		.loc 1 63 1
 379 0244 13351500 		seqz	a0,a0
 380 0248 03348100 		ld	s0,8(sp)
 381              		.cfi_restore 8
 382              		.cfi_def_cfa 2, 16
 383 024c 13010101 		addi	sp,sp,16
 384              		.cfi_def_cfa_offset 0
 385 0250 67800000 		jr	ra
 386              		.cfi_endproc
 387              	.LFE28:
 389              		.align	2
 390              		.globl	_ZN8_console13inputBuff_putEc
 392              	_ZN8_console13inputBuff_putEc:
 393              	.LFB29:
  64:src/_console.cpp **** 
GAS LISTING /tmp/ccsuSu3c.s 			page 9


  65:src/_console.cpp **** void _console::inputBuff_put(char c) {
 394              		.loc 1 65 38 is_stmt 1
 395              		.cfi_startproc
 396              	.LVL33:
 397 0254 130101FF 		addi	sp,sp,-16
 398              		.cfi_def_cfa_offset 16
 399 0258 23341100 		sd	ra,8(sp)
 400 025c 23308100 		sd	s0,0(sp)
 401              		.cfi_offset 1, -8
 402              		.cfi_offset 8, -16
 403 0260 13040101 		addi	s0,sp,16
 404              		.cfi_def_cfa 8, 0
 405 0264 93050500 		mv	a1,a0
  66:src/_console.cpp ****     inputBuff->put(c);
 406              		.loc 1 66 5
 407              		.loc 1 66 19 is_stmt 0
 408 0268 17050000 		ld	a0,.LANCHOR0
 408      03350500 
 409              	.LVL34:
 410 0270 97000000 		call	_ZN13BoundedBuffer3putEc
 410      E7800000 
 411              	.LVL35:
  67:src/_console.cpp **** }
 412              		.loc 1 67 1
 413 0278 83308100 		ld	ra,8(sp)
 414              		.cfi_restore 1
 415 027c 03340100 		ld	s0,0(sp)
 416              		.cfi_restore 8
 417              		.cfi_def_cfa 2, 16
 418 0280 13010101 		addi	sp,sp,16
 419              		.cfi_def_cfa_offset 0
 420 0284 67800000 		jr	ra
 421              		.cfi_endproc
 422              	.LFE29:
 424              		.align	2
 425              		.globl	_ZN8_console14inputBuff_takeEv
 427              	_ZN8_console14inputBuff_takeEv:
 428              	.LFB30:
  68:src/_console.cpp **** 
  69:src/_console.cpp **** char _console::inputBuff_take() {
 429              		.loc 1 69 33 is_stmt 1
 430              		.cfi_startproc
 431 0288 130101FF 		addi	sp,sp,-16
 432              		.cfi_def_cfa_offset 16
 433 028c 23341100 		sd	ra,8(sp)
 434 0290 23308100 		sd	s0,0(sp)
 435              		.cfi_offset 1, -8
 436              		.cfi_offset 8, -16
 437 0294 13040101 		addi	s0,sp,16
 438              		.cfi_def_cfa 8, 0
  70:src/_console.cpp ****     return inputBuff->takeFromInterrupt();
 439              		.loc 1 70 5
 440              		.loc 1 70 40 is_stmt 0
 441 0298 17050000 		ld	a0,.LANCHOR0
 441      03350500 
 442 02a0 97000000 		call	_ZN13BoundedBuffer17takeFromInterruptEv
 442      E7800000 
GAS LISTING /tmp/ccsuSu3c.s 			page 10


 443              	.LVL36:
  71:src/_console.cpp **** }
 444              		.loc 1 71 1
 445 02a8 83308100 		ld	ra,8(sp)
 446              		.cfi_restore 1
 447 02ac 03340100 		ld	s0,0(sp)
 448              		.cfi_restore 8
 449              		.cfi_def_cfa 2, 16
 450 02b0 13010101 		addi	sp,sp,16
 451              		.cfi_def_cfa_offset 0
 452 02b4 67800000 		jr	ra
 453              		.cfi_endproc
 454              	.LFE30:
 456              		.align	2
 457              		.globl	_ZN8_console14outputBuff_putEc
 459              	_ZN8_console14outputBuff_putEc:
 460              	.LFB31:
  72:src/_console.cpp **** 
  73:src/_console.cpp **** void _console::outputBuff_put(char c) {
 461              		.loc 1 73 39 is_stmt 1
 462              		.cfi_startproc
 463              	.LVL37:
 464 02b8 130101FF 		addi	sp,sp,-16
 465              		.cfi_def_cfa_offset 16
 466 02bc 23341100 		sd	ra,8(sp)
 467 02c0 23308100 		sd	s0,0(sp)
 468              		.cfi_offset 1, -8
 469              		.cfi_offset 8, -16
 470 02c4 13040101 		addi	s0,sp,16
 471              		.cfi_def_cfa 8, 0
 472 02c8 93050500 		mv	a1,a0
  74:src/_console.cpp ****     outputBuff->put(c);
 473              		.loc 1 74 5
 474              		.loc 1 74 20 is_stmt 0
 475 02cc 17050000 		ld	a0,.LANCHOR0+8
 475      03350500 
 476              	.LVL38:
 477 02d4 97000000 		call	_ZN13BoundedBuffer3putEc
 477      E7800000 
 478              	.LVL39:
  75:src/_console.cpp **** }
 479              		.loc 1 75 1
 480 02dc 83308100 		ld	ra,8(sp)
 481              		.cfi_restore 1
 482 02e0 03340100 		ld	s0,0(sp)
 483              		.cfi_restore 8
 484              		.cfi_def_cfa 2, 16
 485 02e4 13010101 		addi	sp,sp,16
 486              		.cfi_def_cfa_offset 0
 487 02e8 67800000 		jr	ra
 488              		.cfi_endproc
 489              	.LFE31:
 491              		.align	2
 492              		.globl	_ZN8_console15outputBuff_takeEv
 494              	_ZN8_console15outputBuff_takeEv:
 495              	.LFB32:
  76:src/_console.cpp **** 
GAS LISTING /tmp/ccsuSu3c.s 			page 11


  77:src/_console.cpp **** char _console::outputBuff_take() {
 496              		.loc 1 77 34 is_stmt 1
 497              		.cfi_startproc
 498 02ec 130101FF 		addi	sp,sp,-16
 499              		.cfi_def_cfa_offset 16
 500 02f0 23341100 		sd	ra,8(sp)
 501 02f4 23308100 		sd	s0,0(sp)
 502              		.cfi_offset 1, -8
 503              		.cfi_offset 8, -16
 504 02f8 13040101 		addi	s0,sp,16
 505              		.cfi_def_cfa 8, 0
  78:src/_console.cpp ****     return outputBuff->takeFromSysThread();
 506              		.loc 1 78 5
 507              		.loc 1 78 41 is_stmt 0
 508 02fc 17050000 		ld	a0,.LANCHOR0+8
 508      03350500 
 509 0304 97000000 		call	_ZN13BoundedBuffer17takeFromSysThreadEv
 509      E7800000 
 510              	.LVL40:
  79:src/_console.cpp **** }
 511              		.loc 1 79 1
 512 030c 83308100 		ld	ra,8(sp)
 513              		.cfi_restore 1
 514 0310 03340100 		ld	s0,0(sp)
 515              		.cfi_restore 8
 516              		.cfi_def_cfa 2, 16
 517 0314 13010101 		addi	sp,sp,16
 518              		.cfi_def_cfa_offset 0
 519 0318 67800000 		jr	ra
 520              		.cfi_endproc
 521              	.LFE32:
 523              		.align	2
 524              		.globl	_ZN8_console15consumerConsoleEPv
 526              	_ZN8_console15consumerConsoleEPv:
 527              	.LFB18:
  12:src/_console.cpp ****     while(true) {
 528              		.loc 1 12 38 is_stmt 1
 529              		.cfi_startproc
 530              	.L25:
  13:src/_console.cpp ****         while ((*(char *) CONSOLE_STATUS) & CONSOLE_TX_STATUS_BIT) {
 531              		.loc 1 13 5
 532              	.LBB4:
  14:src/_console.cpp ****             char c = _console::outputBuff_take();
 533              		.loc 1 14 9
  14:src/_console.cpp ****             char c = _console::outputBuff_take();
 534              		.loc 1 14 45
  14:src/_console.cpp ****             char c = _console::outputBuff_take();
 535              		.loc 1 14 17 is_stmt 0
 536 031c 97070000 		la	a5,CONSOLE_STATUS
 536      83B70700 
 537 0324 83B70700 		ld	a5,0(a5)
 538 0328 83C70700 		lbu	a5,0(a5)
  14:src/_console.cpp ****             char c = _console::outputBuff_take();
 539              		.loc 1 14 45
 540 032c 93F70702 		andi	a5,a5,32
 541 0330 E38607FE 		beqz	a5,.L25
 542              	.LBE4:
GAS LISTING /tmp/ccsuSu3c.s 			page 12


  12:src/_console.cpp ****     while(true) {
 543              		.loc 1 12 38
 544 0334 130101FF 		addi	sp,sp,-16
 545              		.cfi_def_cfa_offset 16
 546 0338 23341100 		sd	ra,8(sp)
 547 033c 23308100 		sd	s0,0(sp)
 548              		.cfi_offset 1, -8
 549              		.cfi_offset 8, -16
 550 0340 13040101 		addi	s0,sp,16
 551              		.cfi_def_cfa 8, 0
 552              	.L26:
 553              	.LBB6:
 554              	.LBB5:
  15:src/_console.cpp ****             *(char *) CONSOLE_TX_DATA = c;
 555              		.loc 1 15 13 is_stmt 1
  15:src/_console.cpp ****             *(char *) CONSOLE_TX_DATA = c;
 556              		.loc 1 15 47 is_stmt 0
 557 0344 97000000 		call	_ZN8_console15outputBuff_takeEv
 557      E7800000 
 558              	.LVL41:
  16:src/_console.cpp ****         }
 559              		.loc 1 16 13 is_stmt 1
 560 034c 97070000 		la	a5,CONSOLE_TX_DATA
 560      83B70700 
 561 0354 83B70700 		ld	a5,0(a5)
  16:src/_console.cpp ****         }
 562              		.loc 1 16 39 is_stmt 0
 563 0358 2380A700 		sb	a0,0(a5)
 564              	.L22:
 565              	.LBE5:
 566              	.LBE6:
  13:src/_console.cpp ****         while ((*(char *) CONSOLE_STATUS) & CONSOLE_TX_STATUS_BIT) {
 567              		.loc 1 13 5 is_stmt 1
 568              	.LBB7:
  14:src/_console.cpp ****             char c = _console::outputBuff_take();
 569              		.loc 1 14 9
  14:src/_console.cpp ****             char c = _console::outputBuff_take();
 570              		.loc 1 14 45
  14:src/_console.cpp ****             char c = _console::outputBuff_take();
 571              		.loc 1 14 17 is_stmt 0
 572 035c 97070000 		la	a5,CONSOLE_STATUS
 572      83B70700 
 573 0364 83B70700 		ld	a5,0(a5)
 574 0368 83C70700 		lbu	a5,0(a5)
  14:src/_console.cpp ****             char c = _console::outputBuff_take();
 575              		.loc 1 14 45
 576 036c 93F70702 		andi	a5,a5,32
 577 0370 E38607FE 		beqz	a5,.L22
 578 0374 6FF01FFD 		j	.L26
 579              	.LBE7:
 580              		.cfi_endproc
 581              	.LFE18:
 583              		.align	2
 584              		.globl	_ZN8_console14inputBuff_fullEv
 586              	_ZN8_console14inputBuff_fullEv:
 587              	.LFB33:
  80:src/_console.cpp **** 
GAS LISTING /tmp/ccsuSu3c.s 			page 13


  81:src/_console.cpp **** bool _console::inputBuff_full() {
 588              		.loc 1 81 33 is_stmt 1
 589              		.cfi_startproc
 590 0378 130101FF 		addi	sp,sp,-16
 591              		.cfi_def_cfa_offset 16
 592 037c 23341100 		sd	ra,8(sp)
 593 0380 23308100 		sd	s0,0(sp)
 594              		.cfi_offset 1, -8
 595              		.cfi_offset 8, -16
 596 0384 13040101 		addi	s0,sp,16
 597              		.cfi_def_cfa 8, 0
  82:src/_console.cpp ****     return inputBuff->isFull();
 598              		.loc 1 82 5
 599              		.loc 1 82 29 is_stmt 0
 600 0388 17050000 		ld	a0,.LANCHOR0
 600      03350500 
 601 0390 97000000 		call	_ZN13BoundedBuffer6isFullEv
 601      E7800000 
 602              	.LVL42:
  83:src/_console.cpp **** }
 603              		.loc 1 83 1
 604 0398 83308100 		ld	ra,8(sp)
 605              		.cfi_restore 1
 606 039c 03340100 		ld	s0,0(sp)
 607              		.cfi_restore 8
 608              		.cfi_def_cfa 2, 16
 609 03a0 13010101 		addi	sp,sp,16
 610              		.cfi_def_cfa_offset 0
 611 03a4 67800000 		jr	ra
 612              		.cfi_endproc
 613              	.LFE33:
 615              		.globl	_ZN8_console9inputBuffE
 616              		.globl	_ZN8_console10outputBuffE
 617              		.bss
 618              		.align	3
 619              		.set	.LANCHOR0,. + 0
 622              	_ZN8_console9inputBuffE:
 623 0000 00000000 		.zero	8
 623      00000000 
 626              	_ZN8_console10outputBuffE:
 627 0008 00000000 		.zero	8
 627      00000000 
 628              		.text
 629              	.Letext0:
 630              		.file 2 "src/../h/../h/../h/../lib/hw.h"
 631              		.file 3 "src/../h/../h/../h/MemoryAllocator.hpp"
 632              		.file 4 "src/../h/../h/../h/list.hpp"
 633              		.file 5 "src/../h/../h/_sem.hpp"
 634              		.file 6 "src/../h/_console.hpp"
 635              		.file 7 "src/../h/syscall_c.hpp"
 2972              		.align	3
 2975              	DW.ref.__gxx_personality_v0:
 2976 0000 00000000 		.dword	__gxx_personality_v0
 2976      00000000 
 2977              		.ident	"GCC: (Ubuntu 9.4.0-1ubuntu1~20.04) 9.4.0"
 2978              		.section	.note.GNU-stack,"",@progbits
GAS LISTING /tmp/ccsuSu3c.s 			page 14


DEFINED SYMBOLS
                            *ABS*:0000000000000000 _console.cpp
     /tmp/ccsuSu3c.s:9      .text:0000000000000000 _ZN13BoundedBufferC2Ev
     /tmp/ccsuSu3c.s:13     .text:0000000000000000 .L0 
     /tmp/ccsuSu3c.s:15     .text:0000000000000000 .L0 
     /tmp/ccsuSu3c.s:16     .text:0000000000000004 .L0 
     /tmp/ccsuSu3c.s:20     .text:0000000000000010 .L0 
     /tmp/ccsuSu3c.s:21     .text:0000000000000010 .L0 
     /tmp/ccsuSu3c.s:22     .text:0000000000000010 .L0 
     /tmp/ccsuSu3c.s:24     .text:0000000000000014 .L0 
     /tmp/ccsuSu3c.s:28     .text:0000000000000018 .L0 
     /tmp/ccsuSu3c.s:32     .text:0000000000000024 .L0 
     /tmp/ccsuSu3c.s:33     .text:0000000000000024 .L0 
     /tmp/ccsuSu3c.s:38     .text:0000000000000030 .L0 
     /tmp/ccsuSu3c.s:40     .text:0000000000000034 .L0 
     /tmp/ccsuSu3c.s:41     .text:0000000000000034 .L0 
     /tmp/ccsuSu3c.s:45     .text:0000000000000040 .L0 
     /tmp/ccsuSu3c.s:47     .text:0000000000000044 .L0 
     /tmp/ccsuSu3c.s:48     .text:0000000000000044 .L0 
     /tmp/ccsuSu3c.s:52     .text:0000000000000050 .L0 
     /tmp/ccsuSu3c.s:55     .text:0000000000000054 .L0 
     /tmp/ccsuSu3c.s:56     .text:0000000000000058 .L0 
     /tmp/ccsuSu3c.s:58     .text:000000000000005c .L0 
     /tmp/ccsuSu3c.s:59     .text:000000000000005c .L0 
     /tmp/ccsuSu3c.s:61     .text:0000000000000060 .L0 
     /tmp/ccsuSu3c.s:64     .text:0000000000000064 .L0 
     /tmp/ccsuSu3c.s:66     .text:0000000000000068 .L0 
     /tmp/ccsuSu3c.s:9      .text:0000000000000000 _ZN13BoundedBufferC1Ev
     /tmp/ccsuSu3c.s:74     .text:0000000000000068 _ZN13BoundedBuffer3putEc
     /tmp/ccsuSu3c.s:77     .text:0000000000000068 .L0 
     /tmp/ccsuSu3c.s:79     .text:0000000000000068 .L0 
     /tmp/ccsuSu3c.s:80     .text:000000000000006c .L0 
     /tmp/ccsuSu3c.s:85     .text:000000000000007c .L0 
     /tmp/ccsuSu3c.s:86     .text:000000000000007c .L0 
     /tmp/ccsuSu3c.s:87     .text:000000000000007c .L0 
     /tmp/ccsuSu3c.s:88     .text:000000000000007c .L0 
     /tmp/ccsuSu3c.s:90     .text:0000000000000080 .L0 
     /tmp/ccsuSu3c.s:94     .text:0000000000000088 .L0 
     /tmp/ccsuSu3c.s:95     .text:0000000000000088 .L0 
     /tmp/ccsuSu3c.s:100    .text:0000000000000094 .L0 
     /tmp/ccsuSu3c.s:102    .text:0000000000000098 .L0 
     /tmp/ccsuSu3c.s:104    .text:000000000000009c .L0 
     /tmp/ccsuSu3c.s:106    .text:00000000000000a0 .L0 
     /tmp/ccsuSu3c.s:108    .text:00000000000000a4 .L0 
     /tmp/ccsuSu3c.s:109    .text:00000000000000a4 .L0 
     /tmp/ccsuSu3c.s:111    .text:00000000000000a8 .L0 
     /tmp/ccsuSu3c.s:113    .text:00000000000000ac .L0 
     /tmp/ccsuSu3c.s:116    .text:00000000000000b4 .L0 
     /tmp/ccsuSu3c.s:118    .text:00000000000000b8 .L0 
     /tmp/ccsuSu3c.s:120    .text:00000000000000bc .L0 
     /tmp/ccsuSu3c.s:123    .text:00000000000000c4 .L0 
     /tmp/ccsuSu3c.s:124    .text:00000000000000c4 .L0 
     /tmp/ccsuSu3c.s:128    .text:00000000000000d0 .L0 
     /tmp/ccsuSu3c.s:129    .text:00000000000000d4 .L0 
     /tmp/ccsuSu3c.s:131    .text:00000000000000d8 .L0 
     /tmp/ccsuSu3c.s:132    .text:00000000000000d8 .L0 
     /tmp/ccsuSu3c.s:134    .text:00000000000000dc .L0 
GAS LISTING /tmp/ccsuSu3c.s 			page 15


     /tmp/ccsuSu3c.s:137    .text:00000000000000e0 .L0 
     /tmp/ccsuSu3c.s:139    .text:00000000000000e4 .L0 
     /tmp/ccsuSu3c.s:141    .text:00000000000000e8 .L0 
     /tmp/ccsuSu3c.s:147    .text:00000000000000e8 _ZN13BoundedBuffer17takeFromInterruptEv
     /tmp/ccsuSu3c.s:150    .text:00000000000000e8 .L0 
     /tmp/ccsuSu3c.s:152    .text:00000000000000e8 .L0 
     /tmp/ccsuSu3c.s:153    .text:00000000000000ec .L0 
     /tmp/ccsuSu3c.s:158    .text:00000000000000fc .L0 
     /tmp/ccsuSu3c.s:159    .text:00000000000000fc .L0 
     /tmp/ccsuSu3c.s:160    .text:00000000000000fc .L0 
     /tmp/ccsuSu3c.s:161    .text:00000000000000fc .L0 
     /tmp/ccsuSu3c.s:163    .text:0000000000000100 .L0 
     /tmp/ccsuSu3c.s:166    .text:0000000000000104 .L0 
     /tmp/ccsuSu3c.s:167    .text:0000000000000104 .L0 
     /tmp/ccsuSu3c.s:172    .text:0000000000000110 .L0 
     /tmp/ccsuSu3c.s:173    .text:0000000000000110 .L0 
     /tmp/ccsuSu3c.s:175    .text:0000000000000114 .L0 
     /tmp/ccsuSu3c.s:177    .text:0000000000000118 .L0 
     /tmp/ccsuSu3c.s:179    .text:000000000000011c .L0 
     /tmp/ccsuSu3c.s:182    .text:0000000000000120 .L0 
     /tmp/ccsuSu3c.s:183    .text:0000000000000120 .L0 
     /tmp/ccsuSu3c.s:185    .text:0000000000000124 .L0 
     /tmp/ccsuSu3c.s:188    .text:000000000000012c .L0 
     /tmp/ccsuSu3c.s:190    .text:0000000000000130 .L0 
     /tmp/ccsuSu3c.s:192    .text:0000000000000134 .L0 
     /tmp/ccsuSu3c.s:195    .text:000000000000013c .L0 
     /tmp/ccsuSu3c.s:196    .text:000000000000013c .L0 
     /tmp/ccsuSu3c.s:200    .text:0000000000000148 .L0 
     /tmp/ccsuSu3c.s:201    .text:0000000000000148 .L0 
     /tmp/ccsuSu3c.s:203    .text:0000000000000150 .L0 
     /tmp/ccsuSu3c.s:205    .text:0000000000000154 .L0 
     /tmp/ccsuSu3c.s:206    .text:0000000000000154 .L0 
     /tmp/ccsuSu3c.s:208    .text:0000000000000158 .L0 
     /tmp/ccsuSu3c.s:211    .text:000000000000015c .L0 
     /tmp/ccsuSu3c.s:214    .text:0000000000000160 .L0 
     /tmp/ccsuSu3c.s:216    .text:0000000000000164 .L0 
     /tmp/ccsuSu3c.s:222    .text:0000000000000164 _ZN13BoundedBufferD2Ev
     /tmp/ccsuSu3c.s:225    .text:0000000000000164 .L0 
     /tmp/ccsuSu3c.s:2975   .data.rel.local.DW.ref.__gxx_personality_v0:0000000000000000 DW.ref.__gxx_personality_v0
     /tmp/ccsuSu3c.s:229    .text:0000000000000164 .L0 
     /tmp/ccsuSu3c.s:230    .text:0000000000000168 .L0 
     /tmp/ccsuSu3c.s:234    .text:0000000000000174 .L0 
     /tmp/ccsuSu3c.s:235    .text:0000000000000174 .L0 
     /tmp/ccsuSu3c.s:236    .text:0000000000000174 .L0 
     /tmp/ccsuSu3c.s:238    .text:0000000000000178 .L0 
     /tmp/ccsuSu3c.s:242    .text:000000000000017c .L0 
     /tmp/ccsuSu3c.s:243    .text:000000000000017c .L0 
     /tmp/ccsuSu3c.s:248    .text:0000000000000188 .L0 
     /tmp/ccsuSu3c.s:249    .text:0000000000000188 .L0 
     /tmp/ccsuSu3c.s:253    .text:0000000000000194 .L0 
     /tmp/ccsuSu3c.s:254    .text:0000000000000194 .L0 
     /tmp/ccsuSu3c.s:259    .text:00000000000001a0 .L0 
     /tmp/ccsuSu3c.s:260    .text:00000000000001a4 .L0 
     /tmp/ccsuSu3c.s:262    .text:00000000000001a8 .L0 
     /tmp/ccsuSu3c.s:263    .text:00000000000001a8 .L0 
     /tmp/ccsuSu3c.s:265    .text:00000000000001ac .L0 
     /tmp/ccsuSu3c.s:268    .text:00000000000001b0 .L0 
GAS LISTING /tmp/ccsuSu3c.s 			page 16


     /tmp/ccsuSu3c.s:270    .text:00000000000001b4 .L0 
     /tmp/ccsuSu3c.s:222    .text:0000000000000164 _ZN13BoundedBufferD1Ev
     /tmp/ccsuSu3c.s:286    .text:00000000000001b4 _ZN13BoundedBuffer17takeFromSysThreadEv
     /tmp/ccsuSu3c.s:289    .text:00000000000001b4 .L0 
     /tmp/ccsuSu3c.s:291    .text:00000000000001b4 .L0 
     /tmp/ccsuSu3c.s:292    .text:00000000000001b8 .L0 
     /tmp/ccsuSu3c.s:297    .text:00000000000001c8 .L0 
     /tmp/ccsuSu3c.s:298    .text:00000000000001c8 .L0 
     /tmp/ccsuSu3c.s:299    .text:00000000000001c8 .L0 
     /tmp/ccsuSu3c.s:300    .text:00000000000001c8 .L0 
     /tmp/ccsuSu3c.s:302    .text:00000000000001cc .L0 
     /tmp/ccsuSu3c.s:305    .text:00000000000001d0 .L0 
     /tmp/ccsuSu3c.s:306    .text:00000000000001d0 .L0 
     /tmp/ccsuSu3c.s:311    .text:00000000000001dc .L0 
     /tmp/ccsuSu3c.s:312    .text:00000000000001dc .L0 
     /tmp/ccsuSu3c.s:314    .text:00000000000001e0 .L0 
     /tmp/ccsuSu3c.s:316    .text:00000000000001e4 .L0 
     /tmp/ccsuSu3c.s:318    .text:00000000000001e8 .L0 
     /tmp/ccsuSu3c.s:321    .text:00000000000001ec .L0 
     /tmp/ccsuSu3c.s:322    .text:00000000000001ec .L0 
     /tmp/ccsuSu3c.s:324    .text:00000000000001f0 .L0 
     /tmp/ccsuSu3c.s:327    .text:00000000000001f8 .L0 
     /tmp/ccsuSu3c.s:329    .text:00000000000001fc .L0 
     /tmp/ccsuSu3c.s:331    .text:0000000000000200 .L0 
     /tmp/ccsuSu3c.s:334    .text:0000000000000208 .L0 
     /tmp/ccsuSu3c.s:335    .text:0000000000000208 .L0 
     /tmp/ccsuSu3c.s:339    .text:0000000000000214 .L0 
     /tmp/ccsuSu3c.s:340    .text:0000000000000214 .L0 
     /tmp/ccsuSu3c.s:342    .text:000000000000021c .L0 
     /tmp/ccsuSu3c.s:344    .text:0000000000000220 .L0 
     /tmp/ccsuSu3c.s:345    .text:0000000000000220 .L0 
     /tmp/ccsuSu3c.s:347    .text:0000000000000224 .L0 
     /tmp/ccsuSu3c.s:350    .text:0000000000000228 .L0 
     /tmp/ccsuSu3c.s:353    .text:000000000000022c .L0 
     /tmp/ccsuSu3c.s:355    .text:0000000000000230 .L0 
     /tmp/ccsuSu3c.s:361    .text:0000000000000230 _ZN13BoundedBuffer6isFullEv
     /tmp/ccsuSu3c.s:364    .text:0000000000000230 .L0 
     /tmp/ccsuSu3c.s:366    .text:0000000000000230 .L0 
     /tmp/ccsuSu3c.s:367    .text:0000000000000234 .L0 
     /tmp/ccsuSu3c.s:369    .text:0000000000000238 .L0 
     /tmp/ccsuSu3c.s:371    .text:000000000000023c .L0 
     /tmp/ccsuSu3c.s:373    .text:000000000000023c .L0 
     /tmp/ccsuSu3c.s:374    .text:000000000000023c .L0 
     /tmp/ccsuSu3c.s:377    .text:0000000000000240 .L0 
     /tmp/ccsuSu3c.s:379    .text:0000000000000244 .L0 
     /tmp/ccsuSu3c.s:381    .text:000000000000024c .L0 
     /tmp/ccsuSu3c.s:382    .text:000000000000024c .L0 
     /tmp/ccsuSu3c.s:384    .text:0000000000000250 .L0 
     /tmp/ccsuSu3c.s:386    .text:0000000000000254 .L0 
     /tmp/ccsuSu3c.s:392    .text:0000000000000254 _ZN8_console13inputBuff_putEc
     /tmp/ccsuSu3c.s:395    .text:0000000000000254 .L0 
     /tmp/ccsuSu3c.s:397    .text:0000000000000254 .L0 
     /tmp/ccsuSu3c.s:398    .text:0000000000000258 .L0 
     /tmp/ccsuSu3c.s:401    .text:0000000000000260 .L0 
     /tmp/ccsuSu3c.s:402    .text:0000000000000260 .L0 
     /tmp/ccsuSu3c.s:404    .text:0000000000000264 .L0 
     /tmp/ccsuSu3c.s:407    .text:0000000000000268 .L0 
GAS LISTING /tmp/ccsuSu3c.s 			page 17


     /tmp/ccsuSu3c.s:408    .text:0000000000000268 .L0 
     /tmp/ccsuSu3c.s:413    .text:0000000000000278 .L0 
     /tmp/ccsuSu3c.s:414    .text:000000000000027c .L0 
     /tmp/ccsuSu3c.s:416    .text:0000000000000280 .L0 
     /tmp/ccsuSu3c.s:417    .text:0000000000000280 .L0 
     /tmp/ccsuSu3c.s:419    .text:0000000000000284 .L0 
     /tmp/ccsuSu3c.s:421    .text:0000000000000288 .L0 
     /tmp/ccsuSu3c.s:427    .text:0000000000000288 _ZN8_console14inputBuff_takeEv
     /tmp/ccsuSu3c.s:430    .text:0000000000000288 .L0 
     /tmp/ccsuSu3c.s:431    .text:0000000000000288 .L0 
     /tmp/ccsuSu3c.s:432    .text:000000000000028c .L0 
     /tmp/ccsuSu3c.s:435    .text:0000000000000294 .L0 
     /tmp/ccsuSu3c.s:436    .text:0000000000000294 .L0 
     /tmp/ccsuSu3c.s:438    .text:0000000000000298 .L0 
     /tmp/ccsuSu3c.s:440    .text:0000000000000298 .L0 
     /tmp/ccsuSu3c.s:441    .text:0000000000000298 .L0 
     /tmp/ccsuSu3c.s:445    .text:00000000000002a8 .L0 
     /tmp/ccsuSu3c.s:446    .text:00000000000002ac .L0 
     /tmp/ccsuSu3c.s:448    .text:00000000000002b0 .L0 
     /tmp/ccsuSu3c.s:449    .text:00000000000002b0 .L0 
     /tmp/ccsuSu3c.s:451    .text:00000000000002b4 .L0 
     /tmp/ccsuSu3c.s:453    .text:00000000000002b8 .L0 
     /tmp/ccsuSu3c.s:459    .text:00000000000002b8 _ZN8_console14outputBuff_putEc
     /tmp/ccsuSu3c.s:462    .text:00000000000002b8 .L0 
     /tmp/ccsuSu3c.s:464    .text:00000000000002b8 .L0 
     /tmp/ccsuSu3c.s:465    .text:00000000000002bc .L0 
     /tmp/ccsuSu3c.s:468    .text:00000000000002c4 .L0 
     /tmp/ccsuSu3c.s:469    .text:00000000000002c4 .L0 
     /tmp/ccsuSu3c.s:471    .text:00000000000002c8 .L0 
     /tmp/ccsuSu3c.s:474    .text:00000000000002cc .L0 
     /tmp/ccsuSu3c.s:475    .text:00000000000002cc .L0 
     /tmp/ccsuSu3c.s:480    .text:00000000000002dc .L0 
     /tmp/ccsuSu3c.s:481    .text:00000000000002e0 .L0 
     /tmp/ccsuSu3c.s:483    .text:00000000000002e4 .L0 
     /tmp/ccsuSu3c.s:484    .text:00000000000002e4 .L0 
     /tmp/ccsuSu3c.s:486    .text:00000000000002e8 .L0 
     /tmp/ccsuSu3c.s:488    .text:00000000000002ec .L0 
     /tmp/ccsuSu3c.s:494    .text:00000000000002ec _ZN8_console15outputBuff_takeEv
     /tmp/ccsuSu3c.s:497    .text:00000000000002ec .L0 
     /tmp/ccsuSu3c.s:498    .text:00000000000002ec .L0 
     /tmp/ccsuSu3c.s:499    .text:00000000000002f0 .L0 
     /tmp/ccsuSu3c.s:502    .text:00000000000002f8 .L0 
     /tmp/ccsuSu3c.s:503    .text:00000000000002f8 .L0 
     /tmp/ccsuSu3c.s:505    .text:00000000000002fc .L0 
     /tmp/ccsuSu3c.s:507    .text:00000000000002fc .L0 
     /tmp/ccsuSu3c.s:508    .text:00000000000002fc .L0 
     /tmp/ccsuSu3c.s:512    .text:000000000000030c .L0 
     /tmp/ccsuSu3c.s:513    .text:0000000000000310 .L0 
     /tmp/ccsuSu3c.s:515    .text:0000000000000314 .L0 
     /tmp/ccsuSu3c.s:516    .text:0000000000000314 .L0 
     /tmp/ccsuSu3c.s:518    .text:0000000000000318 .L0 
     /tmp/ccsuSu3c.s:520    .text:000000000000031c .L0 
     /tmp/ccsuSu3c.s:526    .text:000000000000031c _ZN8_console15consumerConsoleEPv
     /tmp/ccsuSu3c.s:529    .text:000000000000031c .L0 
     /tmp/ccsuSu3c.s:531    .text:000000000000031c .L0 
     /tmp/ccsuSu3c.s:533    .text:000000000000031c .L0 
     /tmp/ccsuSu3c.s:534    .text:000000000000031c .L0 
GAS LISTING /tmp/ccsuSu3c.s 			page 18


     /tmp/ccsuSu3c.s:535    .text:000000000000031c .L0 
     /tmp/ccsuSu3c.s:536    .text:000000000000031c .L0 
     /tmp/ccsuSu3c.s:540    .text:000000000000032c .L0 
     /tmp/ccsuSu3c.s:544    .text:0000000000000334 .L0 
     /tmp/ccsuSu3c.s:545    .text:0000000000000338 .L0 
     /tmp/ccsuSu3c.s:548    .text:0000000000000340 .L0 
     /tmp/ccsuSu3c.s:549    .text:0000000000000340 .L0 
     /tmp/ccsuSu3c.s:551    .text:0000000000000344 .L0 
     /tmp/ccsuSu3c.s:556    .text:0000000000000344 .L0 
     /tmp/ccsuSu3c.s:557    .text:0000000000000344 .L0 
     /tmp/ccsuSu3c.s:560    .text:000000000000034c .L0 
     /tmp/ccsuSu3c.s:563    .text:0000000000000358 .L0 
     /tmp/ccsuSu3c.s:569    .text:000000000000035c .L0 
     /tmp/ccsuSu3c.s:570    .text:000000000000035c .L0 
     /tmp/ccsuSu3c.s:571    .text:000000000000035c .L0 
     /tmp/ccsuSu3c.s:572    .text:000000000000035c .L0 
     /tmp/ccsuSu3c.s:576    .text:000000000000036c .L0 
     /tmp/ccsuSu3c.s:580    .text:0000000000000378 .L0 
     /tmp/ccsuSu3c.s:586    .text:0000000000000378 _ZN8_console14inputBuff_fullEv
     /tmp/ccsuSu3c.s:589    .text:0000000000000378 .L0 
     /tmp/ccsuSu3c.s:590    .text:0000000000000378 .L0 
     /tmp/ccsuSu3c.s:591    .text:000000000000037c .L0 
     /tmp/ccsuSu3c.s:594    .text:0000000000000384 .L0 
     /tmp/ccsuSu3c.s:595    .text:0000000000000384 .L0 
     /tmp/ccsuSu3c.s:597    .text:0000000000000388 .L0 
     /tmp/ccsuSu3c.s:599    .text:0000000000000388 .L0 
     /tmp/ccsuSu3c.s:600    .text:0000000000000388 .L0 
     /tmp/ccsuSu3c.s:604    .text:0000000000000398 .L0 
     /tmp/ccsuSu3c.s:605    .text:000000000000039c .L0 
     /tmp/ccsuSu3c.s:607    .text:00000000000003a0 .L0 
     /tmp/ccsuSu3c.s:608    .text:00000000000003a0 .L0 
     /tmp/ccsuSu3c.s:610    .text:00000000000003a4 .L0 
     /tmp/ccsuSu3c.s:612    .text:00000000000003a8 .L0 
     /tmp/ccsuSu3c.s:622    .bss:0000000000000000 _ZN8_console9inputBuffE
     /tmp/ccsuSu3c.s:626    .bss:0000000000000008 _ZN8_console10outputBuffE
     /tmp/ccsuSu3c.s:619    .bss:0000000000000000 .LANCHOR0
     /tmp/ccsuSu3c.s:636    .text:00000000000003a8 .L0 
     /tmp/ccsuSu3c.s:408    .text:0000000000000268 .L0 
     /tmp/ccsuSu3c.s:441    .text:0000000000000298 .L0 
     /tmp/ccsuSu3c.s:475    .text:00000000000002cc .L0 
     /tmp/ccsuSu3c.s:508    .text:00000000000002fc .L0 
     /tmp/ccsuSu3c.s:536    .text:000000000000031c .L0 
     /tmp/ccsuSu3c.s:560    .text:000000000000034c .L0 
     /tmp/ccsuSu3c.s:572    .text:000000000000035c .L0 
     /tmp/ccsuSu3c.s:600    .text:0000000000000388 .L0 
     /tmp/ccsuSu3c.s:530    .text:000000000000031c .L25
     /tmp/ccsuSu3c.s:564    .text:000000000000035c .L22
     /tmp/ccsuSu3c.s:552    .text:0000000000000344 .L26
     /tmp/ccsuSu3c.s:1756   .debug_abbrev:0000000000000000 .Ldebug_abbrev0
     /tmp/ccsuSu3c.s:2929   .debug_str:000000000000062a .LASF111
     /tmp/ccsuSu3c.s:2875   .debug_str:000000000000048e .LASF112
     /tmp/ccsuSu3c.s:2803   .debug_str:000000000000026e .LASF113
     /tmp/ccsuSu3c.s:5      .text:0000000000000000 .Ltext0
     /tmp/ccsuSu3c.s:629    .text:00000000000003a8 .Letext0
     /tmp/ccsuSu3c.s:2725   .debug_line:0000000000000000 .Ldebug_line0
     /tmp/ccsuSu3c.s:2861   .debug_str:000000000000041a .LASF0
     /tmp/ccsuSu3c.s:2869   .debug_str:000000000000045a .LASF1
GAS LISTING /tmp/ccsuSu3c.s 			page 19


     /tmp/ccsuSu3c.s:2849   .debug_str:00000000000003da .LASF2
     /tmp/ccsuSu3c.s:2825   .debug_str:0000000000000316 .LASF4
     /tmp/ccsuSu3c.s:2909   .debug_str:00000000000005ab .LASF3
     /tmp/ccsuSu3c.s:2743   .debug_str:0000000000000084 .LASF5
     /tmp/ccsuSu3c.s:2873   .debug_str:000000000000047b .LASF6
     /tmp/ccsuSu3c.s:2859   .debug_str:0000000000000407 .LASF7
     /tmp/ccsuSu3c.s:2945   .debug_str:000000000000075e .LASF8
     /tmp/ccsuSu3c.s:2815   .debug_str:00000000000002d5 .LASF9
     /tmp/ccsuSu3c.s:2883   .debug_str:00000000000004dc .LASF10
     /tmp/ccsuSu3c.s:2933   .debug_str:00000000000006fa .LASF11
     /tmp/ccsuSu3c.s:2749   .debug_str:00000000000000a1 .LASF12
     /tmp/ccsuSu3c.s:2737   .debug_str:0000000000000053 .LASF13
     /tmp/ccsuSu3c.s:2757   .debug_str:00000000000000dd .LASF14
     /tmp/ccsuSu3c.s:2903   .debug_str:0000000000000580 .LASF15
     /tmp/ccsuSu3c.s:2773   .debug_str:0000000000000174 .LASF16
     /tmp/ccsuSu3c.s:2843   .debug_str:00000000000003b2 .LASF23
     /tmp/ccsuSu3c.s:2781   .debug_str:00000000000001ae .LASF114
     /tmp/ccsuSu3c.s:2921   .debug_str:0000000000000609 .LASF17
     /tmp/ccsuSu3c.s:2963   .debug_str:00000000000007f2 .LASF18
     /tmp/ccsuSu3c.s:2865   .debug_str:000000000000043a .LASF19
     /tmp/ccsuSu3c.s:2967   .debug_str:0000000000000806 .LASF21
     /tmp/ccsuSu3c.s:2797   .debug_str:000000000000025f .LASF20
     /tmp/ccsuSu3c.s:2897   .debug_str:0000000000000545 .LASF22
     /tmp/ccsuSu3c.s:2847   .debug_str:00000000000003cf .LASF115
     /tmp/ccsuSu3c.s:2959   .debug_str:00000000000007b8 .LASF116
     /tmp/ccsuSu3c.s:2845   .debug_str:00000000000003c2 .LASF94
     /tmp/ccsuSu3c.s:2839   .debug_str:00000000000003a3 .LASF24
     /tmp/ccsuSu3c.s:2841   .debug_str:00000000000003ad .LASF117
     /tmp/ccsuSu3c.s:2783   .debug_str:00000000000001b5 .LASF25
     /tmp/ccsuSu3c.s:2851   .debug_str:00000000000003e8 .LASF26
     /tmp/ccsuSu3c.s:2823   .debug_str:0000000000000311 .LASF27
     /tmp/ccsuSu3c.s:2863   .debug_str:0000000000000427 .LASF28
     /tmp/ccsuSu3c.s:2899   .debug_str:0000000000000562 .LASF34
     /tmp/ccsuSu3c.s:2855   .debug_str:00000000000003f5 .LASF118
     /tmp/ccsuSu3c.s:2817   .debug_str:00000000000002e3 .LASF119
     /tmp/ccsuSu3c.s:2927   .debug_str:0000000000000621 .LASF29
     /tmp/ccsuSu3c.s:2793   .debug_str:0000000000000233 .LASF30
     /tmp/ccsuSu3c.s:2813   .debug_str:00000000000002cd .LASF31
     /tmp/ccsuSu3c.s:2789   .debug_str:00000000000001f7 .LASF32
     /tmp/ccsuSu3c.s:2931   .debug_str:00000000000006ee .LASF33
     /tmp/ccsuSu3c.s:2731   .debug_str:0000000000000017 .LASF35
     /tmp/ccsuSu3c.s:2755   .debug_str:00000000000000d3 .LASF36
     /tmp/ccsuSu3c.s:2831   .debug_str:0000000000000344 .LASF37
     /tmp/ccsuSu3c.s:2955   .debug_str:00000000000007a9 .LASF38
     /tmp/ccsuSu3c.s:2923   .debug_str:000000000000060e .LASF39
     /tmp/ccsuSu3c.s:2943   .debug_str:0000000000000759 .LASF40
     /tmp/ccsuSu3c.s:2751   .debug_str:00000000000000b1 .LASF41
     /tmp/ccsuSu3c.s:2727   .debug_str:0000000000000000 .LASF42
     /tmp/ccsuSu3c.s:2941   .debug_str:0000000000000748 .LASF43
     /tmp/ccsuSu3c.s:2799   .debug_str:0000000000000264 .LASF44
     /tmp/ccsuSu3c.s:2769   .debug_str:000000000000014d .LASF45
     /tmp/ccsuSu3c.s:2877   .debug_str:000000000000049f .LASF46
     /tmp/ccsuSu3c.s:2819   .debug_str:00000000000002fa .LASF47
     /tmp/ccsuSu3c.s:2775   .debug_str:000000000000018a .LASF48
     /tmp/ccsuSu3c.s:2937   .debug_str:0000000000000717 .LASF49
     /tmp/ccsuSu3c.s:2951   .debug_str:000000000000078c .LASF50
     /tmp/ccsuSu3c.s:2745   .debug_str:000000000000008b .LASF51
GAS LISTING /tmp/ccsuSu3c.s 			page 20


     /tmp/ccsuSu3c.s:2913   .debug_str:00000000000005d9 .LASF80
     /tmp/ccsuSu3c.s:2807   .debug_str:0000000000000293 .LASF82
     /tmp/ccsuSu3c.s:2947   .debug_str:000000000000076e .LASF52
     /tmp/ccsuSu3c.s:2949   .debug_str:0000000000000777 .LASF53
     /tmp/ccsuSu3c.s:2907   .debug_str:00000000000005a1 .LASF54
     /tmp/ccsuSu3c.s:2835   .debug_str:000000000000037e .LASF55
     /tmp/ccsuSu3c.s:2829   .debug_str:000000000000033e .LASF56
     /tmp/ccsuSu3c.s:2729   .debug_str:0000000000000006 .LASF57
     /tmp/ccsuSu3c.s:2853   .debug_str:00000000000003ed .LASF58
     /tmp/ccsuSu3c.s:2759   .debug_str:00000000000000e9 .LASF59
     /tmp/ccsuSu3c.s:2857   .debug_str:00000000000003ff .LASF60
     /tmp/ccsuSu3c.s:2915   .debug_str:00000000000005e9 .LASF61
     /tmp/ccsuSu3c.s:2801   .debug_str:0000000000000269 .LASF62
     /tmp/ccsuSu3c.s:2741   .debug_str:000000000000007b .LASF63
     /tmp/ccsuSu3c.s:2871   .debug_str:000000000000046d .LASF64
     /tmp/ccsuSu3c.s:2895   .debug_str:000000000000052e .LASF65
     /tmp/ccsuSu3c.s:2733   .debug_str:0000000000000035 .LASF66
     /tmp/ccsuSu3c.s:2961   .debug_str:00000000000007db .LASF67
     /tmp/ccsuSu3c.s:2893   .debug_str:0000000000000515 .LASF120
     /tmp/ccsuSu3c.s:2891   .debug_str:0000000000000503 .LASF68
     /tmp/ccsuSu3c.s:2881   .debug_str:00000000000004b4 .LASF69
     /tmp/ccsuSu3c.s:2767   .debug_str:000000000000013b .LASF70
     /tmp/ccsuSu3c.s:2761   .debug_str:00000000000000fc .LASF71
     /tmp/ccsuSu3c.s:2805   .debug_str:000000000000028c .LASF72
     /tmp/ccsuSu3c.s:2911   .debug_str:00000000000005bd .LASF73
     /tmp/ccsuSu3c.s:2901   .debug_str:0000000000000579 .LASF74
     /tmp/ccsuSu3c.s:2925   .debug_str:000000000000061b .LASF75
     /tmp/ccsuSu3c.s:2795   .debug_str:0000000000000250 .LASF76
     /tmp/ccsuSu3c.s:2765   .debug_str:000000000000012d .LASF77
     /tmp/ccsuSu3c.s:2821   .debug_str:000000000000030c .LASF78
     /tmp/ccsuSu3c.s:2747   .debug_str:0000000000000098 .LASF79
     /tmp/ccsuSu3c.s:2935   .debug_str:0000000000000709 .LASF81
     /tmp/ccsuSu3c.s:2785   .debug_str:00000000000001ba .LASF83
     /tmp/ccsuSu3c.s:2917   .debug_str:00000000000005f0 .LASF84
     /tmp/ccsuSu3c.s:2833   .debug_str:000000000000035f .LASF86
     /tmp/ccsuSu3c.s:2965   .debug_str:00000000000007f7 .LASF85
     /tmp/ccsuSu3c.s:2939   .debug_str:0000000000000729 .LASF87
     /tmp/ccsuSu3c.s:2735   .debug_str:0000000000000044 .LASF88
     /tmp/ccsuSu3c.s:2787   .debug_str:00000000000001d8 .LASF89
     /tmp/ccsuSu3c.s:2837   .debug_str:0000000000000393 .LASF90
     /tmp/ccsuSu3c.s:2791   .debug_str:0000000000000213 .LASF91
     /tmp/ccsuSu3c.s:2953   .debug_str:0000000000000799 .LASF92
     /tmp/ccsuSu3c.s:2827   .debug_str:000000000000031d .LASF93
     /tmp/ccsuSu3c.s:2905   .debug_str:0000000000000596 .LASF95
     /tmp/ccsuSu3c.s:2957   .debug_str:00000000000007ae .LASF96
     /tmp/ccsuSu3c.s:2867   .debug_str:0000000000000440 .LASF97
     /tmp/ccsuSu3c.s:2739   .debug_str:0000000000000063 .LASF98
     /tmp/ccsuSu3c.s:587    .text:0000000000000378 .LFB33
     /tmp/ccsuSu3c.s:613    .text:00000000000003a8 .LFE33
     /tmp/ccsuSu3c.s:602    .text:0000000000000398 .LVL42
     /tmp/ccsuSu3c.s:495    .text:00000000000002ec .LFB32
     /tmp/ccsuSu3c.s:521    .text:000000000000031c .LFE32
     /tmp/ccsuSu3c.s:510    .text:000000000000030c .LVL40
     /tmp/ccsuSu3c.s:460    .text:00000000000002b8 .LFB31
     /tmp/ccsuSu3c.s:489    .text:00000000000002ec .LFE31
     /tmp/ccsuSu3c.s:2544   .debug_loc:0000000000000000 .LLST10
     /tmp/ccsuSu3c.s:478    .text:00000000000002dc .LVL39
GAS LISTING /tmp/ccsuSu3c.s 			page 21


     /tmp/ccsuSu3c.s:428    .text:0000000000000288 .LFB30
     /tmp/ccsuSu3c.s:454    .text:00000000000002b8 .LFE30
     /tmp/ccsuSu3c.s:443    .text:00000000000002a8 .LVL36
     /tmp/ccsuSu3c.s:393    .text:0000000000000254 .LFB29
     /tmp/ccsuSu3c.s:422    .text:0000000000000288 .LFE29
     /tmp/ccsuSu3c.s:2558   .debug_loc:0000000000000039 .LLST9
     /tmp/ccsuSu3c.s:411    .text:0000000000000278 .LVL35
     /tmp/ccsuSu3c.s:362    .text:0000000000000230 .LFB28
     /tmp/ccsuSu3c.s:387    .text:0000000000000254 .LFE28
     /tmp/ccsuSu3c.s:2889   .debug_str:00000000000004fe .LASF99
     /tmp/ccsuSu3c.s:2572   .debug_loc:0000000000000072 .LLST8
     /tmp/ccsuSu3c.s:287    .text:00000000000001b4 .LFB27
     /tmp/ccsuSu3c.s:356    .text:0000000000000230 .LFE27
     /tmp/ccsuSu3c.s:2586   .debug_loc:00000000000000ab .LLST6
     /tmp/ccsuSu3c.s:2604   .debug_loc:00000000000000f7 .LLST7
     /tmp/ccsuSu3c.s:309    .text:00000000000001dc .LVL26
     /tmp/ccsuSu3c.s:337    .text:0000000000000214 .LVL28
     /tmp/ccsuSu3c.s:2885   .debug_str:00000000000004eb .LASF100
     /tmp/ccsuSu3c.s:2771   .debug_str:000000000000015d .LASF101
     /tmp/ccsuSu3c.s:223    .text:0000000000000164 .LFB25
     /tmp/ccsuSu3c.s:271    .text:00000000000001b4 .LFE25
     /tmp/ccsuSu3c.s:2615   .debug_loc:000000000000012d .LLST5
     /tmp/ccsuSu3c.s:246    .text:0000000000000188 .LVL20
     /tmp/ccsuSu3c.s:251    .text:0000000000000194 .LVL21
     /tmp/ccsuSu3c.s:256    .text:00000000000001a0 .LVL22
     /tmp/ccsuSu3c.s:148    .text:00000000000000e8 .LFB23
     /tmp/ccsuSu3c.s:217    .text:0000000000000164 .LFE23
     /tmp/ccsuSu3c.s:2633   .debug_loc:0000000000000179 .LLST3
     /tmp/ccsuSu3c.s:2651   .debug_loc:00000000000001c5 .LLST4
     /tmp/ccsuSu3c.s:170    .text:0000000000000110 .LVL13
     /tmp/ccsuSu3c.s:198    .text:0000000000000148 .LVL15
     /tmp/ccsuSu3c.s:75     .text:0000000000000068 .LFB22
     /tmp/ccsuSu3c.s:142    .text:00000000000000e8 .LFE22
     /tmp/ccsuSu3c.s:2662   .debug_loc:00000000000001fb .LLST1
     /tmp/ccsuSu3c.s:2680   .debug_loc:0000000000000247 .LLST2
     /tmp/ccsuSu3c.s:98     .text:0000000000000094 .LVL8
     /tmp/ccsuSu3c.s:126    .text:00000000000000d0 .LVL9
     /tmp/ccsuSu3c.s:2811   .debug_str:00000000000002b6 .LASF102
     /tmp/ccsuSu3c.s:10     .text:0000000000000000 .LFB20
     /tmp/ccsuSu3c.s:67     .text:0000000000000068 .LFE20
     /tmp/ccsuSu3c.s:2694   .debug_loc:0000000000000280 .LLST0
     /tmp/ccsuSu3c.s:36     .text:0000000000000030 .LVL2
     /tmp/ccsuSu3c.s:43     .text:0000000000000040 .LVL3
     /tmp/ccsuSu3c.s:50     .text:0000000000000050 .LVL4
     /tmp/ccsuSu3c.s:527    .text:000000000000031c .LFB18
     /tmp/ccsuSu3c.s:581    .text:0000000000000378 .LFE18
     /tmp/ccsuSu3c.s:554    .text:0000000000000344 .LBB5
     /tmp/ccsuSu3c.s:565    .text:000000000000035c .LBE5
     /tmp/ccsuSu3c.s:558    .text:000000000000034c .LVL41
     /tmp/ccsuSu3c.s:2753   .debug_str:00000000000000c1 .LASF103
     /tmp/ccsuSu3c.s:2763   .debug_str:0000000000000124 .LASF105
     /tmp/ccsuSu3c.s:2809   .debug_str:00000000000002a1 .LASF104
     /tmp/ccsuSu3c.s:2777   .debug_str:0000000000000190 .LASF106
     /tmp/ccsuSu3c.s:2879   .debug_str:00000000000004a6 .LASF107
     /tmp/ccsuSu3c.s:2887   .debug_str:00000000000004f5 .LASF108
     /tmp/ccsuSu3c.s:2779   .debug_str:000000000000019b .LASF109
     /tmp/ccsuSu3c.s:2919   .debug_str:00000000000005ff .LASF110
GAS LISTING /tmp/ccsuSu3c.s 			page 22


     /tmp/ccsuSu3c.s:463    .text:00000000000002b8 .LVL37
     /tmp/ccsuSu3c.s:476    .text:00000000000002d4 .LVL38
     /tmp/ccsuSu3c.s:396    .text:0000000000000254 .LVL33
     /tmp/ccsuSu3c.s:409    .text:0000000000000270 .LVL34
     /tmp/ccsuSu3c.s:365    .text:0000000000000230 .LVL31
     /tmp/ccsuSu3c.s:375    .text:0000000000000240 .LVL32
     /tmp/ccsuSu3c.s:290    .text:00000000000001b4 .LVL24
     /tmp/ccsuSu3c.s:307    .text:00000000000001d4 .LVL25
     /tmp/ccsuSu3c.s:348    .text:0000000000000224 .LVL29
     /tmp/ccsuSu3c.s:319    .text:00000000000001ec .LVL27
     /tmp/ccsuSu3c.s:351    .text:0000000000000228 .LVL30
     /tmp/ccsuSu3c.s:228    .text:0000000000000164 .LVL18
     /tmp/ccsuSu3c.s:244    .text:0000000000000180 .LVL19
     /tmp/ccsuSu3c.s:266    .text:00000000000001ac .LVL23
     /tmp/ccsuSu3c.s:151    .text:00000000000000e8 .LVL11
     /tmp/ccsuSu3c.s:168    .text:0000000000000108 .LVL12
     /tmp/ccsuSu3c.s:209    .text:0000000000000158 .LVL16
     /tmp/ccsuSu3c.s:180    .text:0000000000000120 .LVL14
     /tmp/ccsuSu3c.s:212    .text:000000000000015c .LVL17
     /tmp/ccsuSu3c.s:78     .text:0000000000000068 .LVL6
     /tmp/ccsuSu3c.s:96     .text:000000000000008c .LVL7
     /tmp/ccsuSu3c.s:135    .text:00000000000000dc .LVL10
     /tmp/ccsuSu3c.s:14     .text:0000000000000000 .LVL0
     /tmp/ccsuSu3c.s:34     .text:0000000000000028 .LVL1
     /tmp/ccsuSu3c.s:62     .text:0000000000000060 .LVL5
     /tmp/ccsuSu3c.s:637    .debug_info:0000000000000000 .Ldebug_info0
     /tmp/ccsuSu3c.s:274    .gcc_except_table:0000000000000000 .LLSDA25

UNDEFINED SYMBOLS
_ZN15MemoryAllocator5allocEm
_ZN4_sem4openEi
_ZN4_sem4waitEv
_ZN4_sem6signalEv
_Z8mem_freePv
_Z9sem_closeP4_sem
__gxx_personality_v0
_Z8sem_waitP4_sem
_Z10sem_signalP4_sem
CONSOLE_STATUS
CONSOLE_TX_DATA
