GAS LISTING /tmp/ccgKSkzL.s 			page 1


   1              		.file	"_sem.cpp"
   2              		.option pic
   3              		.option norelax
   4              		.text
   5              	.Ltext0:
   6              		.align	2
   7              		.globl	_ZN4_semnwEm
   9              	_ZN4_semnwEm:
  10              	.LFB19:
  11              		.file 1 "src/_sem.cpp"
   1:src/_sem.cpp  **** //
   2:src/_sem.cpp  **** // Created by os on 8/8/23.
   3:src/_sem.cpp  **** //
   4:src/_sem.cpp  **** 
   5:src/_sem.cpp  **** #include "../h/_sem.hpp"
   6:src/_sem.cpp  **** #include "../h/TCB.hpp"
   7:src/_sem.cpp  **** #include "../h/Scheduler.hpp"
   8:src/_sem.cpp  **** 
   9:src/_sem.cpp  **** _sem* _sem::open(int val) {
  10:src/_sem.cpp  ****     return new _sem(val);
  11:src/_sem.cpp  **** }
  12:src/_sem.cpp  **** 
  13:src/_sem.cpp  **** void *_sem::operator new(uint64 n) {
  12              		.loc 1 13 36
  13              		.cfi_startproc
  14              	.LVL0:
  15 0000 130101FF 		addi	sp,sp,-16
  16              		.cfi_def_cfa_offset 16
  17 0004 23341100 		sd	ra,8(sp)
  18 0008 23308100 		sd	s0,0(sp)
  19              		.cfi_offset 1, -8
  20              		.cfi_offset 8, -16
  21 000c 13040101 		addi	s0,sp,16
  22              		.cfi_def_cfa 8, 0
  14:src/_sem.cpp  ****     void* ptr=MemoryAllocator::alloc(((n+MEM_BLOCK_SIZE-1)/MEM_BLOCK_SIZE));
  23              		.loc 1 14 5
  24              		.loc 1 14 56 is_stmt 0
  25 0010 1305F503 		addi	a0,a0,63
  26              	.LVL1:
  27              		.loc 1 14 37
  28 0014 13556500 		srli	a0,a0,6
  29              	.LVL2:
  30 0018 97000000 		call	_ZN15MemoryAllocator5allocEm@plt
  30      E7800000 
  31              	.LVL3:
  15:src/_sem.cpp  ****     return ptr;
  32              		.loc 1 15 5 is_stmt 1
  16:src/_sem.cpp  **** }
  33              		.loc 1 16 1 is_stmt 0
  34 0020 83308100 		ld	ra,8(sp)
  35              		.cfi_restore 1
  36 0024 03340100 		ld	s0,0(sp)
  37              		.cfi_restore 8
  38              		.cfi_def_cfa 2, 16
  39 0028 13010101 		addi	sp,sp,16
  40              		.cfi_def_cfa_offset 0
  41 002c 67800000 		jr	ra
GAS LISTING /tmp/ccgKSkzL.s 			page 2


  42              		.cfi_endproc
  43              	.LFE19:
  45              		.align	2
  46              		.globl	_ZN4_sem4openEi
  48              	_ZN4_sem4openEi:
  49              	.LFB18:
   9:src/_sem.cpp  ****     return new _sem(val);
  50              		.loc 1 9 27 is_stmt 1
  51              		.cfi_startproc
  52              	.LVL4:
  53 0030 130101FE 		addi	sp,sp,-32
  54              		.cfi_def_cfa_offset 32
  55 0034 233C1100 		sd	ra,24(sp)
  56 0038 23388100 		sd	s0,16(sp)
  57 003c 23349100 		sd	s1,8(sp)
  58              		.cfi_offset 1, -8
  59              		.cfi_offset 8, -16
  60              		.cfi_offset 9, -24
  61 0040 13040102 		addi	s0,sp,32
  62              		.cfi_def_cfa 8, 0
  63 0044 93040500 		mv	s1,a0
  10:src/_sem.cpp  **** }
  64              		.loc 1 10 5
  10:src/_sem.cpp  **** }
  65              		.loc 1 10 24 is_stmt 0
  66 0048 13050002 		li	a0,32
  67              	.LVL5:
  68 004c 97000000 		call	_ZN4_semnwEm
  68      E7800000 
  69              	.LVL6:
  70              	.LBB32:
  71              	.LBB33:
  72              		.file 2 "src/../h/_sem.hpp"
   1:src/../h/_sem.hpp **** //
   2:src/../h/_sem.hpp **** // Created by os on 8/8/23.
   3:src/../h/_sem.hpp **** //
   4:src/../h/_sem.hpp **** 
   5:src/../h/_sem.hpp **** #ifndef PROJECT_BASE__SEM_HPP
   6:src/../h/_sem.hpp **** #define PROJECT_BASE__SEM_HPP
   7:src/../h/_sem.hpp **** 
   8:src/../h/_sem.hpp **** #include "../h/list.hpp"
   9:src/../h/_sem.hpp **** class TCB;
  10:src/../h/_sem.hpp **** 
  11:src/../h/_sem.hpp **** class _sem{
  12:src/../h/_sem.hpp **** public:
  13:src/../h/_sem.hpp ****     _sem(unsigned init=1): val(init), closed(false){}
  73              		.loc 2 13 51
  74 0054 23209500 		sw	s1,0(a0)
  75              	.LVL7:
  76              	.LBB34:
  77              	.LBB35:
  78              		.file 3 "src/../h/../h/list.hpp"
   1:src/../h/../h/list.hpp **** //
   2:src/../h/../h/list.hpp **** // Created by os on 8/8/23.
   3:src/../h/../h/list.hpp **** //
   4:src/../h/../h/list.hpp **** 
   5:src/../h/../h/list.hpp **** #ifndef PROJECT_BASE_LIST_HPP
GAS LISTING /tmp/ccgKSkzL.s 			page 3


   6:src/../h/../h/list.hpp **** #define PROJECT_BASE_LIST_HPP
   7:src/../h/../h/list.hpp **** 
   8:src/../h/../h/list.hpp **** #include "MemoryAllocator.hpp"
   9:src/../h/../h/list.hpp **** 
  10:src/../h/../h/list.hpp **** //sa vezbi 7
  11:src/../h/../h/list.hpp **** template<typename T>
  12:src/../h/../h/list.hpp **** class List{
  13:src/../h/../h/list.hpp **** private:
  14:src/../h/../h/list.hpp ****     struct Elem{
  15:src/../h/../h/list.hpp ****         T* data;
  16:src/../h/../h/list.hpp ****         Elem* next;
  17:src/../h/../h/list.hpp ****     };
  18:src/../h/../h/list.hpp ****     Elem* head;
  19:src/../h/../h/list.hpp ****     Elem* tail;
  20:src/../h/../h/list.hpp **** public:
  21:src/../h/../h/list.hpp ****     List():head(nullptr),tail(nullptr){}
  79              		.loc 3 21 38
  80 0058 23340500 		sd	zero,8(a0)
  81 005c 23380500 		sd	zero,16(a0)
  82              	.LVL8:
  83              	.LBE35:
  84              	.LBE34:
  85              		.loc 2 13 51
  86 0060 230C0500 		sb	zero,24(a0)
  87              	.LVL9:
  88              	.LBE33:
  89              	.LBE32:
  11:src/_sem.cpp  **** 
  90              		.loc 1 11 1
  91 0064 83308101 		ld	ra,24(sp)
  92              		.cfi_restore 1
  93 0068 03340101 		ld	s0,16(sp)
  94              		.cfi_restore 8
  95              		.cfi_def_cfa 2, 32
  96 006c 83348100 		ld	s1,8(sp)
  97              		.cfi_restore 9
  98 0070 13010102 		addi	sp,sp,32
  99              		.cfi_def_cfa_offset 0
 100 0074 67800000 		jr	ra
 101              		.cfi_endproc
 102              	.LFE18:
 104              		.align	2
 105              		.globl	_ZN4_semdlEPv
 107              	_ZN4_semdlEPv:
 108              	.LFB20:
  17:src/_sem.cpp  **** 
  18:src/_sem.cpp  **** void _sem::operator delete(void *p) {
 109              		.loc 1 18 37 is_stmt 1
 110              		.cfi_startproc
 111              	.LVL10:
 112 0078 130101FF 		addi	sp,sp,-16
 113              		.cfi_def_cfa_offset 16
 114 007c 23341100 		sd	ra,8(sp)
 115 0080 23308100 		sd	s0,0(sp)
 116              		.cfi_offset 1, -8
 117              		.cfi_offset 8, -16
 118 0084 13040101 		addi	s0,sp,16
GAS LISTING /tmp/ccgKSkzL.s 			page 4


 119              		.cfi_def_cfa 8, 0
  19:src/_sem.cpp  ****     MemoryAllocator::free(p);
 120              		.loc 1 19 5
 121              		.loc 1 19 26 is_stmt 0
 122 0088 97000000 		call	_ZN15MemoryAllocator4freeEPv@plt
 122      E7800000 
 123              	.LVL11:
  20:src/_sem.cpp  **** }
 124              		.loc 1 20 1
 125 0090 83308100 		ld	ra,8(sp)
 126              		.cfi_restore 1
 127 0094 03340100 		ld	s0,0(sp)
 128              		.cfi_restore 8
 129              		.cfi_def_cfa 2, 16
 130 0098 13010101 		addi	sp,sp,16
 131              		.cfi_def_cfa_offset 0
 132 009c 67800000 		jr	ra
 133              		.cfi_endproc
 134              	.LFE20:
 136              		.align	2
 137              		.globl	_ZN4_sem5blockEv
 139              	_ZN4_sem5blockEv:
 140              	.LFB22:
  21:src/_sem.cpp  **** 
  22:src/_sem.cpp  **** int _sem::wait() {
  23:src/_sem.cpp  ****     if(this->isClosed())return -1;
  24:src/_sem.cpp  ****     if(--val<0){
  25:src/_sem.cpp  ****         block();
  26:src/_sem.cpp  ****     }
  27:src/_sem.cpp  ****     if(this->isClosed())return -2;
  28:src/_sem.cpp  ****     return 0;
  29:src/_sem.cpp  **** }
  30:src/_sem.cpp  **** 
  31:src/_sem.cpp  **** void _sem::block() {
 141              		.loc 1 31 20 is_stmt 1
 142              		.cfi_startproc
 143              	.LVL12:
 144 00a0 130101FE 		addi	sp,sp,-32
 145              		.cfi_def_cfa_offset 32
 146 00a4 233C1100 		sd	ra,24(sp)
 147 00a8 23388100 		sd	s0,16(sp)
 148 00ac 23349100 		sd	s1,8(sp)
 149 00b0 23302101 		sd	s2,0(sp)
 150              		.cfi_offset 1, -8
 151              		.cfi_offset 8, -16
 152              		.cfi_offset 9, -24
 153              		.cfi_offset 18, -32
 154 00b4 13040102 		addi	s0,sp,32
 155              		.cfi_def_cfa 8, 0
 156 00b8 93040500 		mv	s1,a0
  32:src/_sem.cpp  ****     TCB::running->setBlocked(true);
 157              		.loc 1 32 5
 158              		.loc 1 32 29 is_stmt 0
 159 00bc 97070000 		la	a5,_ZN3TCB7runningE
 159      83B70700 
 160 00c4 03B90700 		ld	s2,0(a5)
 161              	.LVL13:
GAS LISTING /tmp/ccgKSkzL.s 			page 5


 162              	.LBB36:
 163              	.LBB37:
 164              		.file 4 "src/../h/TCB.hpp"
   1:src/../h/TCB.hpp **** //
   2:src/../h/TCB.hpp **** // Created by os on 7/18/23.
   3:src/../h/TCB.hpp **** //
   4:src/../h/TCB.hpp **** 
   5:src/../h/TCB.hpp **** //sa vezbi 7
   6:src/../h/TCB.hpp **** 
   7:src/../h/TCB.hpp **** #ifndef PROJECT_BASE_TCB_HPP
   8:src/../h/TCB.hpp **** #define PROJECT_BASE_TCB_HPP
   9:src/../h/TCB.hpp **** 
  10:src/../h/TCB.hpp **** #include "../lib/hw.h"
  11:src/../h/TCB.hpp **** 
  12:src/../h/TCB.hpp **** class TCB{
  13:src/../h/TCB.hpp **** public:
  14:src/../h/TCB.hpp ****     virtual ~TCB();
  15:src/../h/TCB.hpp **** 
  16:src/../h/TCB.hpp ****     bool isBlocked() const {
  17:src/../h/TCB.hpp ****         return blocked;
  18:src/../h/TCB.hpp ****     }
  19:src/../h/TCB.hpp **** 
  20:src/../h/TCB.hpp ****     void setBlocked(bool blocked) {
  21:src/../h/TCB.hpp ****         TCB::blocked = blocked;
 165              		.loc 4 21 9 is_stmt 1
 166              		.loc 4 21 22 is_stmt 0
 167 00c8 93071000 		li	a5,1
 168 00cc 2300F904 		sb	a5,64(s2)
 169              	.LVL14:
 170              	.LBE37:
 171              	.LBE36:
  33:src/_sem.cpp  ****     blocked.addLast(TCB::running);
 172              		.loc 1 33 5 is_stmt 1
 173              	.LBB38:
 174              	.LBB39:
  22:src/../h/../h/list.hpp ****     List(const List<T> &)=delete;
  23:src/../h/../h/list.hpp ****     List<T> &operator=(const List<T> &)=delete;
  24:src/../h/../h/list.hpp **** 
  25:src/../h/../h/list.hpp ****     void addFirst(T* data){
  26:src/../h/../h/list.hpp ****         Elem* newElem=(Elem*)MemoryAllocator::alloc((sizeof(Elem)+MEM_BLOCK_SIZE-1)/MEM_BLOCK_SIZE)
  27:src/../h/../h/list.hpp ****         newElem->data=data;
  28:src/../h/../h/list.hpp ****         newElem->next=head;
  29:src/../h/../h/list.hpp ****         if(!tail){tail=head;}
  30:src/../h/../h/list.hpp ****     }
  31:src/../h/../h/list.hpp **** 
  32:src/../h/../h/list.hpp ****     void addLast(T* data){
  33:src/../h/../h/list.hpp ****         Elem* newElem=(Elem*)MemoryAllocator::alloc((sizeof(Elem)+MEM_BLOCK_SIZE-1)/MEM_BLOCK_SIZE)
 175              		.loc 3 33 52 is_stmt 0
 176 00d0 13051000 		li	a0,1
 177              	.LVL15:
 178 00d4 97000000 		call	_ZN15MemoryAllocator5allocEm@plt
 178      E7800000 
 179              	.LVL16:
  34:src/../h/../h/list.hpp ****         newElem->data=data;
 180              		.loc 3 34 9
 181 00dc 23302501 		sd	s2,0(a0)
  35:src/../h/../h/list.hpp ****         newElem->next=nullptr;
GAS LISTING /tmp/ccgKSkzL.s 			page 6


 182              		.loc 3 35 9
 183 00e0 23340500 		sd	zero,8(a0)
  36:src/../h/../h/list.hpp ****         if(tail){
 184              		.loc 3 36 12
 185 00e4 83B70401 		ld	a5,16(s1)
 186              		.loc 3 36 9
 187 00e8 638C0702 		beqz	a5,.L8
  37:src/../h/../h/list.hpp ****             tail->next=newElem;
 188              		.loc 3 37 13
 189 00ec 23B4A700 		sd	a0,8(a5)
  38:src/../h/../h/list.hpp ****             tail=newElem;
 190              		.loc 3 38 13
 191 00f0 23B8A400 		sd	a0,16(s1)
 192              	.L9:
 193              	.LVL17:
 194              	.LBE39:
 195              	.LBE38:
  34:src/_sem.cpp  ****     TCB::timeSliceCounter=0;
 196              		.loc 1 34 5 is_stmt 1
 197              		.loc 1 34 26 is_stmt 0
 198 00f4 97070000 		la	a5,_ZN3TCB16timeSliceCounterE
 198      83B70700 
 199 00fc 23B00700 		sd	zero,0(a5)
  35:src/_sem.cpp  ****     TCB::dispatch();
 200              		.loc 1 35 5 is_stmt 1
 201              		.loc 1 35 18 is_stmt 0
 202 0100 97000000 		call	_ZN3TCB8dispatchEv@plt
 202      E7800000 
 203              	.LVL18:
  36:src/_sem.cpp  **** }
 204              		.loc 1 36 1
 205 0108 83308101 		ld	ra,24(sp)
 206              		.cfi_remember_state
 207              		.cfi_restore 1
 208 010c 03340101 		ld	s0,16(sp)
 209              		.cfi_restore 8
 210              		.cfi_def_cfa 2, 32
 211 0110 83348100 		ld	s1,8(sp)
 212              		.cfi_restore 9
 213              	.LVL19:
 214 0114 03390100 		ld	s2,0(sp)
 215              		.cfi_restore 18
 216 0118 13010102 		addi	sp,sp,32
 217              		.cfi_def_cfa_offset 0
 218 011c 67800000 		jr	ra
 219              	.LVL20:
 220              	.L8:
 221              		.cfi_restore_state
 222              	.LBB41:
 223              	.LBB40:
  39:src/../h/../h/list.hpp ****         }
  40:src/../h/../h/list.hpp ****         else{
  41:src/../h/../h/list.hpp ****             head=tail=newElem;
 224              		.loc 3 41 13
 225 0120 23B8A400 		sd	a0,16(s1)
 226 0124 23B4A400 		sd	a0,8(s1)
 227 0128 6FF0DFFC 		j	.L9
GAS LISTING /tmp/ccgKSkzL.s 			page 7


 228              	.LBE40:
 229              	.LBE41:
 230              		.cfi_endproc
 231              	.LFE22:
 233              		.align	2
 234              		.globl	_ZN4_sem4waitEv
 236              	_ZN4_sem4waitEv:
 237              	.LFB21:
  22:src/_sem.cpp  ****     if(this->isClosed())return -1;
 238              		.loc 1 22 18 is_stmt 1
 239              		.cfi_startproc
 240              	.LVL21:
  23:src/_sem.cpp  ****     if(--val<0){
 241              		.loc 1 23 5
 242              	.LBB42:
 243              	.LBB43:
  14:src/../h/_sem.hpp **** 
  15:src/../h/_sem.hpp ****     static _sem* open(int val);
  16:src/../h/_sem.hpp ****     int close();
  17:src/../h/_sem.hpp ****     int wait();
  18:src/../h/_sem.hpp ****     int signal();
  19:src/../h/_sem.hpp **** 
  20:src/../h/_sem.hpp ****     int value()const{return val;}
  21:src/../h/_sem.hpp **** 
  22:src/../h/_sem.hpp ****     void* operator new(uint64 n);
  23:src/../h/_sem.hpp ****     void operator delete(void *p);
  24:src/../h/_sem.hpp **** 
  25:src/../h/_sem.hpp ****     bool isClosed() const {
  26:src/../h/_sem.hpp ****         return closed;
 244              		.loc 2 26 9
 245              		.loc 2 26 16 is_stmt 0
 246 012c 83478501 		lbu	a5,24(a0)
 247              	.LVL22:
 248              	.LBE43:
 249              	.LBE42:
  23:src/_sem.cpp  ****     if(--val<0){
 250              		.loc 1 23 5
 251 0130 639E0704 		bnez	a5,.L14
  22:src/_sem.cpp  ****     if(this->isClosed())return -1;
 252              		.loc 1 22 18
 253 0134 130101FE 		addi	sp,sp,-32
 254              		.cfi_def_cfa_offset 32
 255 0138 233C1100 		sd	ra,24(sp)
 256 013c 23388100 		sd	s0,16(sp)
 257 0140 23349100 		sd	s1,8(sp)
 258              		.cfi_offset 1, -8
 259              		.cfi_offset 8, -16
 260              		.cfi_offset 9, -24
 261 0144 13040102 		addi	s0,sp,32
 262              		.cfi_def_cfa 8, 0
 263 0148 93040500 		mv	s1,a0
  24:src/_sem.cpp  ****         block();
 264              		.loc 1 24 5 is_stmt 1
  24:src/_sem.cpp  ****         block();
 265              		.loc 1 24 10 is_stmt 0
 266 014c 83270500 		lw	a5,0(a0)
  24:src/_sem.cpp  ****         block();
GAS LISTING /tmp/ccgKSkzL.s 			page 8


 267              		.loc 1 24 8
 268 0150 9B87F7FF 		addiw	a5,a5,-1
  24:src/_sem.cpp  ****         block();
 269              		.loc 1 24 13
 270 0154 2320F500 		sw	a5,0(a0)
  24:src/_sem.cpp  ****         block();
 271              		.loc 1 24 5
 272 0158 13970702 		slli	a4,a5,32
 273 015c 63420702 		bltz	a4,.L20
 274              	.LVL23:
 275              	.L13:
  27:src/_sem.cpp  ****     return 0;
 276              		.loc 1 27 5 is_stmt 1
 277              	.LBB44:
 278              	.LBB45:
 279              		.loc 2 26 9
 280              		.loc 2 26 16 is_stmt 0
 281 0160 83C78401 		lbu	a5,24(s1)
 282              	.LVL24:
 283              	.LBE45:
 284              	.LBE44:
  27:src/_sem.cpp  ****     return 0;
 285              		.loc 1 27 5
 286 0164 63980702 		bnez	a5,.L15
  28:src/_sem.cpp  **** }
 287              		.loc 1 28 12
 288 0168 13050000 		li	a0,0
 289              	.L12:
  29:src/_sem.cpp  **** 
 290              		.loc 1 29 1
 291 016c 83308101 		ld	ra,24(sp)
 292              		.cfi_remember_state
 293              		.cfi_restore 1
 294 0170 03340101 		ld	s0,16(sp)
 295              		.cfi_restore 8
 296              		.cfi_def_cfa 2, 32
 297 0174 83348100 		ld	s1,8(sp)
 298              		.cfi_restore 9
 299              	.LVL25:
 300 0178 13010102 		addi	sp,sp,32
 301              		.cfi_def_cfa_offset 0
 302 017c 67800000 		jr	ra
 303              	.LVL26:
 304              	.L20:
 305              		.cfi_restore_state
  25:src/_sem.cpp  ****     }
 306              		.loc 1 25 9 is_stmt 1
  25:src/_sem.cpp  ****     }
 307              		.loc 1 25 14 is_stmt 0
 308 0180 97000000 		call	_ZN4_sem5blockEv
 308      E7800000 
 309              	.LVL27:
 310 0188 6FF09FFD 		j	.L13
 311              	.LVL28:
 312              	.L14:
 313              		.cfi_def_cfa_register 2
 314              		.cfi_restore 1
GAS LISTING /tmp/ccgKSkzL.s 			page 9


 315              		.cfi_restore 8
 316              		.cfi_restore 9
  23:src/_sem.cpp  ****     if(--val<0){
 317              		.loc 1 23 33
 318 018c 1305F0FF 		li	a0,-1
 319              	.LVL29:
  29:src/_sem.cpp  **** 
 320              		.loc 1 29 1
 321 0190 67800000 		ret
 322              	.LVL30:
 323              	.L15:
 324              		.cfi_def_cfa_register 8
 325              		.cfi_offset 1, -8
 326              		.cfi_offset 8, -16
 327              		.cfi_offset 9, -24
  27:src/_sem.cpp  ****     return 0;
 328              		.loc 1 27 33
 329 0194 1305E0FF 		li	a0,-2
 330 0198 6FF05FFD 		j	.L12
 331              		.cfi_endproc
 332              	.LFE21:
 334              		.align	2
 335              		.globl	_ZN4_sem7unblockEv
 337              	_ZN4_sem7unblockEv:
 338              	.LFB24:
  37:src/_sem.cpp  **** 
  38:src/_sem.cpp  **** int _sem::signal() {
  39:src/_sem.cpp  ****     if(this->isClosed())return -1;
  40:src/_sem.cpp  ****     if(++val<=0){
  41:src/_sem.cpp  ****         unblock();
  42:src/_sem.cpp  ****     }
  43:src/_sem.cpp  ****     return 0;
  44:src/_sem.cpp  **** }
  45:src/_sem.cpp  **** 
  46:src/_sem.cpp  **** void _sem::unblock() {
 339              		.loc 1 46 22 is_stmt 1
 340              		.cfi_startproc
 341              	.LVL31:
 342 019c 130101FE 		addi	sp,sp,-32
 343              		.cfi_def_cfa_offset 32
 344 01a0 233C1100 		sd	ra,24(sp)
 345 01a4 23388100 		sd	s0,16(sp)
 346 01a8 23349100 		sd	s1,8(sp)
 347              		.cfi_offset 1, -8
 348              		.cfi_offset 8, -16
 349              		.cfi_offset 9, -24
 350 01ac 13040102 		addi	s0,sp,32
 351              		.cfi_def_cfa 8, 0
 352 01b0 93070500 		mv	a5,a0
  47:src/_sem.cpp  ****     TCB* thr=blocked.removeFirst();
 353              		.loc 1 47 5
 354              	.LVL32:
 355              	.LBB46:
 356              	.LBB47:
  42:src/../h/../h/list.hpp ****         }
  43:src/../h/../h/list.hpp ****     }
  44:src/../h/../h/list.hpp **** 
GAS LISTING /tmp/ccgKSkzL.s 			page 10


  45:src/../h/../h/list.hpp ****     T* removeFirst(){
  46:src/../h/../h/list.hpp ****         if(!head){
 357              		.loc 3 46 13 is_stmt 0
 358 01b4 03358500 		ld	a0,8(a0)
 359              	.LVL33:
 360              		.loc 3 46 9
 361 01b8 63040504 		beqz	a0,.L24
 362              	.LVL34:
  47:src/../h/../h/list.hpp ****             return 0;
  48:src/../h/../h/list.hpp ****         }
  49:src/../h/../h/list.hpp **** 
  50:src/../h/../h/list.hpp ****         Elem* elem=head;
  51:src/../h/../h/list.hpp ****         head=head->next;
 363              		.loc 3 51 20
 364 01bc 03378500 		ld	a4,8(a0)
 365              		.loc 3 51 9
 366 01c0 23B4E700 		sd	a4,8(a5)
  52:src/../h/../h/list.hpp ****         if(!head){tail=nullptr;}
 367              		.loc 3 52 9
 368 01c4 630A0702 		beqz	a4,.L26
 369              	.L23:
  53:src/../h/../h/list.hpp **** 
  54:src/../h/../h/list.hpp ****         T* ret=elem->data;
 370              		.loc 3 54 12
 371 01c8 83340500 		ld	s1,0(a0)
 372              	.LVL35:
  55:src/../h/../h/list.hpp ****         MemoryAllocator::free(elem);
 373              		.loc 3 55 30
 374 01cc 97000000 		call	_ZN15MemoryAllocator4freeEPv@plt
 374      E7800000 
 375              	.LVL36:
 376              	.L22:
 377              	.LBE47:
 378              	.LBE46:
  48:src/_sem.cpp  ****     thr->setBlocked(false);
 379              		.loc 1 48 5 is_stmt 1
 380              	.LBB49:
 381              	.LBB50:
 382              		.loc 4 21 9
 383              		.loc 4 21 22 is_stmt 0
 384 01d4 23800404 		sb	zero,64(s1)
 385              	.LVL37:
 386              	.LBE50:
 387              	.LBE49:
  49:src/_sem.cpp  ****     Scheduler::put(thr);
 388              		.loc 1 49 5 is_stmt 1
 389              		.loc 1 49 19 is_stmt 0
 390 01d8 13850400 		mv	a0,s1
 391 01dc 97000000 		call	_ZN9Scheduler3putEP3TCB@plt
 391      E7800000 
 392              	.LVL38:
  50:src/_sem.cpp  **** }
 393              		.loc 1 50 1
 394 01e4 83308101 		ld	ra,24(sp)
 395              		.cfi_remember_state
 396              		.cfi_restore 1
 397 01e8 03340101 		ld	s0,16(sp)
GAS LISTING /tmp/ccgKSkzL.s 			page 11


 398              		.cfi_restore 8
 399              		.cfi_def_cfa 2, 32
 400 01ec 83348100 		ld	s1,8(sp)
 401              		.cfi_restore 9
 402              	.LVL39:
 403 01f0 13010102 		addi	sp,sp,32
 404              		.cfi_def_cfa_offset 0
 405 01f4 67800000 		jr	ra
 406              	.LVL40:
 407              	.L26:
 408              		.cfi_restore_state
 409              	.LBB51:
 410              	.LBB48:
  52:src/../h/../h/list.hpp **** 
 411              		.loc 3 52 19
 412 01f8 23B80700 		sd	zero,16(a5)
 413 01fc 6FF0DFFC 		j	.L23
 414              	.LVL41:
 415              	.L24:
  47:src/../h/../h/list.hpp ****         }
 416              		.loc 3 47 20
 417 0200 93040500 		mv	s1,a0
 418 0204 6FF01FFD 		j	.L22
 419              	.LBE48:
 420              	.LBE51:
 421              		.cfi_endproc
 422              	.LFE24:
 424              		.align	2
 425              		.globl	_ZN4_sem6signalEv
 427              	_ZN4_sem6signalEv:
 428              	.LFB23:
  38:src/_sem.cpp  ****     if(this->isClosed())return -1;
 429              		.loc 1 38 20 is_stmt 1
 430              		.cfi_startproc
 431              	.LVL42:
  39:src/_sem.cpp  ****     if(++val<=0){
 432              		.loc 1 39 5
 433              	.LBB52:
 434              	.LBB53:
 435              		.loc 2 26 9
 436              		.loc 2 26 16 is_stmt 0
 437 0208 83478501 		lbu	a5,24(a0)
 438              	.LVL43:
 439              	.LBE53:
 440              	.LBE52:
  39:src/_sem.cpp  ****     if(++val<=0){
 441              		.loc 1 39 5
 442 020c 63960704 		bnez	a5,.L29
  40:src/_sem.cpp  ****         unblock();
 443              		.loc 1 40 5 is_stmt 1
  40:src/_sem.cpp  ****         unblock();
 444              		.loc 1 40 10 is_stmt 0
 445 0210 83270500 		lw	a5,0(a0)
  40:src/_sem.cpp  ****         unblock();
 446              		.loc 1 40 8
 447 0214 9B871700 		addiw	a5,a5,1
 448 0218 1B870700 		sext.w	a4,a5
GAS LISTING /tmp/ccgKSkzL.s 			page 12


  40:src/_sem.cpp  ****         unblock();
 449              		.loc 1 40 13
 450 021c 2320F500 		sw	a5,0(a0)
  40:src/_sem.cpp  ****         unblock();
 451              		.loc 1 40 5
 452 0220 6356E000 		blez	a4,.L35
  43:src/_sem.cpp  **** }
 453              		.loc 1 43 12
 454 0224 13050000 		li	a0,0
 455              	.LVL44:
  44:src/_sem.cpp  **** 
 456              		.loc 1 44 1
 457 0228 67800000 		ret
 458              	.LVL45:
 459              	.L35:
  38:src/_sem.cpp  ****     if(this->isClosed())return -1;
 460              		.loc 1 38 20
 461 022c 130101FF 		addi	sp,sp,-16
 462              		.cfi_def_cfa_offset 16
 463 0230 23341100 		sd	ra,8(sp)
 464 0234 23308100 		sd	s0,0(sp)
 465              		.cfi_offset 1, -8
 466              		.cfi_offset 8, -16
 467 0238 13040101 		addi	s0,sp,16
 468              		.cfi_def_cfa 8, 0
  41:src/_sem.cpp  ****     }
 469              		.loc 1 41 9 is_stmt 1
  41:src/_sem.cpp  ****     }
 470              		.loc 1 41 16 is_stmt 0
 471 023c 97000000 		call	_ZN4_sem7unblockEv
 471      E7800000 
 472              	.LVL46:
  43:src/_sem.cpp  **** }
 473              		.loc 1 43 12
 474 0244 13050000 		li	a0,0
  44:src/_sem.cpp  **** 
 475              		.loc 1 44 1
 476 0248 83308100 		ld	ra,8(sp)
 477              		.cfi_restore 1
 478 024c 03340100 		ld	s0,0(sp)
 479              		.cfi_restore 8
 480              		.cfi_def_cfa 2, 16
 481 0250 13010101 		addi	sp,sp,16
 482              		.cfi_def_cfa_offset 0
 483 0254 67800000 		jr	ra
 484              	.LVL47:
 485              	.L29:
  39:src/_sem.cpp  ****     if(++val<=0){
 486              		.loc 1 39 33
 487 0258 1305F0FF 		li	a0,-1
 488              	.LVL48:
 489 025c 67800000 		ret
 490              		.cfi_endproc
 491              	.LFE23:
 493              		.align	2
 494              		.globl	_ZN4_sem5closeEv
 496              	_ZN4_sem5closeEv:
GAS LISTING /tmp/ccgKSkzL.s 			page 13


 497              	.LFB25:
  51:src/_sem.cpp  **** 
  52:src/_sem.cpp  **** int _sem::close() {
 498              		.loc 1 52 19 is_stmt 1
 499              		.cfi_startproc
 500              	.LVL49:
  53:src/_sem.cpp  ****     if(this->isClosed())return -1;
 501              		.loc 1 53 5
 502              	.LBB54:
 503              	.LBB55:
 504              		.loc 2 26 9
 505              		.loc 2 26 16 is_stmt 0
 506 0260 83478501 		lbu	a5,24(a0)
 507              	.LVL50:
 508              	.LBE55:
 509              	.LBE54:
 510              		.loc 1 53 5
 511 0264 63920704 		bnez	a5,.L39
  52:src/_sem.cpp  ****     if(this->isClosed())return -1;
 512              		.loc 1 52 19
 513 0268 130101FE 		addi	sp,sp,-32
 514              		.cfi_def_cfa_offset 32
 515 026c 233C1100 		sd	ra,24(sp)
 516 0270 23388100 		sd	s0,16(sp)
 517 0274 23349100 		sd	s1,8(sp)
 518              		.cfi_offset 1, -8
 519              		.cfi_offset 8, -16
 520              		.cfi_offset 9, -24
 521 0278 13040102 		addi	s0,sp,32
 522              		.cfi_def_cfa 8, 0
 523 027c 93040500 		mv	s1,a0
  54:src/_sem.cpp  ****     this->setClosed(true);
 524              		.loc 1 54 5 is_stmt 1
 525              	.LVL51:
 526              	.LBB56:
 527              	.LBB57:
  27:src/../h/_sem.hpp ****     }
  28:src/../h/_sem.hpp **** 
  29:src/../h/_sem.hpp ****     void setClosed(bool closed) {
  30:src/../h/_sem.hpp ****         _sem::closed = closed;
 528              		.loc 2 30 9
 529              		.loc 2 30 22 is_stmt 0
 530 0280 93071000 		li	a5,1
 531 0284 230CF500 		sb	a5,24(a0)
 532              	.LVL52:
 533              	.L38:
 534              	.LBE57:
 535              	.LBE56:
  55:src/_sem.cpp  ****     while(blocked.peekFirst()){
 536              		.loc 1 55 5 is_stmt 1
 537              		.loc 1 55 29
 538              	.LBB58:
 539              	.LBB59:
  56:src/../h/../h/list.hpp ****         return ret;
  57:src/../h/../h/list.hpp ****     }
  58:src/../h/../h/list.hpp **** 
  59:src/../h/../h/list.hpp ****     T* peekFirst(){
GAS LISTING /tmp/ccgKSkzL.s 			page 14


  60:src/../h/../h/list.hpp ****         if(!head)return nullptr;
 540              		.loc 3 60 13 is_stmt 0
 541 0288 83B78400 		ld	a5,8(s1)
 542              		.loc 3 60 9
 543 028c 63820702 		beqz	a5,.L40
  61:src/../h/../h/list.hpp ****         return head->data;
 544              		.loc 3 61 22
 545 0290 83B70700 		ld	a5,0(a5)
 546              	.LVL53:
 547              	.LBE59:
 548              	.LBE58:
 549              		.loc 1 55 29
 550 0294 638A0702 		beqz	a5,.L41
  56:src/_sem.cpp  ****         unblock();
 551              		.loc 1 56 9 is_stmt 1
 552              		.loc 1 56 16 is_stmt 0
 553 0298 13850400 		mv	a0,s1
 554 029c 97000000 		call	_ZN4_sem7unblockEv
 554      E7800000 
 555              	.LVL54:
  55:src/_sem.cpp  ****         unblock();
 556              		.loc 1 55 5
 557 02a4 6FF05FFE 		j	.L38
 558              	.LVL55:
 559              	.L39:
 560              		.cfi_def_cfa_register 2
 561              		.cfi_restore 1
 562              		.cfi_restore 8
 563              		.cfi_restore 9
  53:src/_sem.cpp  ****     this->setClosed(true);
 564              		.loc 1 53 33
 565 02a8 1305F0FF 		li	a0,-1
 566              	.LVL56:
  57:src/_sem.cpp  ****     }
  58:src/_sem.cpp  ****     return 0;
  59:src/_sem.cpp  **** }
 567              		.loc 1 59 1
 568 02ac 67800000 		ret
 569              	.LVL57:
 570              	.L40:
 571              		.cfi_def_cfa_register 8
 572              		.cfi_offset 1, -8
 573              		.cfi_offset 8, -16
 574              		.cfi_offset 9, -24
  58:src/_sem.cpp  **** }
 575              		.loc 1 58 12
 576 02b0 13050000 		li	a0,0
 577              	.LVL58:
 578              	.L37:
 579              		.loc 1 59 1
 580 02b4 83308101 		ld	ra,24(sp)
 581              		.cfi_remember_state
 582              		.cfi_restore 1
 583 02b8 03340101 		ld	s0,16(sp)
 584              		.cfi_restore 8
 585              		.cfi_def_cfa 2, 32
 586 02bc 83348100 		ld	s1,8(sp)
GAS LISTING /tmp/ccgKSkzL.s 			page 15


 587              		.cfi_restore 9
 588              	.LVL59:
 589 02c0 13010102 		addi	sp,sp,32
 590              		.cfi_def_cfa_offset 0
 591 02c4 67800000 		jr	ra
 592              	.LVL60:
 593              	.L41:
 594              		.cfi_restore_state
  58:src/_sem.cpp  **** }
 595              		.loc 1 58 12
 596 02c8 13050000 		li	a0,0
 597 02cc 6FF09FFE 		j	.L37
 598              		.cfi_endproc
 599              	.LFE25:
 601              	.Letext0:
 602              		.file 5 "src/../h/../h/../lib/hw.h"
 603              		.file 6 "src/../h/../h/MemoryAllocator.hpp"
 604              		.file 7 "src/../h/Scheduler.hpp"
GAS LISTING /tmp/ccgKSkzL.s 			page 16


DEFINED SYMBOLS
                            *ABS*:0000000000000000 _sem.cpp
     /tmp/ccgKSkzL.s:9      .text:0000000000000000 _ZN4_semnwEm
     /tmp/ccgKSkzL.s:13     .text:0000000000000000 .L0 
     /tmp/ccgKSkzL.s:15     .text:0000000000000000 .L0 
     /tmp/ccgKSkzL.s:16     .text:0000000000000004 .L0 
     /tmp/ccgKSkzL.s:19     .text:000000000000000c .L0 
     /tmp/ccgKSkzL.s:20     .text:000000000000000c .L0 
     /tmp/ccgKSkzL.s:22     .text:0000000000000010 .L0 
     /tmp/ccgKSkzL.s:24     .text:0000000000000010 .L0 
     /tmp/ccgKSkzL.s:25     .text:0000000000000010 .L0 
     /tmp/ccgKSkzL.s:28     .text:0000000000000014 .L0 
     /tmp/ccgKSkzL.s:33     .text:0000000000000020 .L0 
     /tmp/ccgKSkzL.s:34     .text:0000000000000020 .L0 
     /tmp/ccgKSkzL.s:35     .text:0000000000000024 .L0 
     /tmp/ccgKSkzL.s:37     .text:0000000000000028 .L0 
     /tmp/ccgKSkzL.s:38     .text:0000000000000028 .L0 
     /tmp/ccgKSkzL.s:40     .text:000000000000002c .L0 
     /tmp/ccgKSkzL.s:42     .text:0000000000000030 .L0 
     /tmp/ccgKSkzL.s:48     .text:0000000000000030 _ZN4_sem4openEi
     /tmp/ccgKSkzL.s:51     .text:0000000000000030 .L0 
     /tmp/ccgKSkzL.s:53     .text:0000000000000030 .L0 
     /tmp/ccgKSkzL.s:54     .text:0000000000000034 .L0 
     /tmp/ccgKSkzL.s:58     .text:0000000000000040 .L0 
     /tmp/ccgKSkzL.s:59     .text:0000000000000040 .L0 
     /tmp/ccgKSkzL.s:60     .text:0000000000000040 .L0 
     /tmp/ccgKSkzL.s:62     .text:0000000000000044 .L0 
     /tmp/ccgKSkzL.s:65     .text:0000000000000048 .L0 
     /tmp/ccgKSkzL.s:66     .text:0000000000000048 .L0 
     /tmp/ccgKSkzL.s:74     .text:0000000000000054 .L0 
     /tmp/ccgKSkzL.s:80     .text:0000000000000058 .L0 
     /tmp/ccgKSkzL.s:86     .text:0000000000000060 .L0 
     /tmp/ccgKSkzL.s:91     .text:0000000000000064 .L0 
     /tmp/ccgKSkzL.s:92     .text:0000000000000068 .L0 
     /tmp/ccgKSkzL.s:94     .text:000000000000006c .L0 
     /tmp/ccgKSkzL.s:95     .text:000000000000006c .L0 
     /tmp/ccgKSkzL.s:97     .text:0000000000000070 .L0 
     /tmp/ccgKSkzL.s:99     .text:0000000000000074 .L0 
     /tmp/ccgKSkzL.s:101    .text:0000000000000078 .L0 
     /tmp/ccgKSkzL.s:107    .text:0000000000000078 _ZN4_semdlEPv
     /tmp/ccgKSkzL.s:110    .text:0000000000000078 .L0 
     /tmp/ccgKSkzL.s:112    .text:0000000000000078 .L0 
     /tmp/ccgKSkzL.s:113    .text:000000000000007c .L0 
     /tmp/ccgKSkzL.s:116    .text:0000000000000084 .L0 
     /tmp/ccgKSkzL.s:117    .text:0000000000000084 .L0 
     /tmp/ccgKSkzL.s:119    .text:0000000000000088 .L0 
     /tmp/ccgKSkzL.s:121    .text:0000000000000088 .L0 
     /tmp/ccgKSkzL.s:122    .text:0000000000000088 .L0 
     /tmp/ccgKSkzL.s:125    .text:0000000000000090 .L0 
     /tmp/ccgKSkzL.s:126    .text:0000000000000094 .L0 
     /tmp/ccgKSkzL.s:128    .text:0000000000000098 .L0 
     /tmp/ccgKSkzL.s:129    .text:0000000000000098 .L0 
     /tmp/ccgKSkzL.s:131    .text:000000000000009c .L0 
     /tmp/ccgKSkzL.s:133    .text:00000000000000a0 .L0 
     /tmp/ccgKSkzL.s:139    .text:00000000000000a0 _ZN4_sem5blockEv
     /tmp/ccgKSkzL.s:142    .text:00000000000000a0 .L0 
     /tmp/ccgKSkzL.s:144    .text:00000000000000a0 .L0 
GAS LISTING /tmp/ccgKSkzL.s 			page 17


     /tmp/ccgKSkzL.s:145    .text:00000000000000a4 .L0 
     /tmp/ccgKSkzL.s:150    .text:00000000000000b4 .L0 
     /tmp/ccgKSkzL.s:151    .text:00000000000000b4 .L0 
     /tmp/ccgKSkzL.s:152    .text:00000000000000b4 .L0 
     /tmp/ccgKSkzL.s:153    .text:00000000000000b4 .L0 
     /tmp/ccgKSkzL.s:155    .text:00000000000000b8 .L0 
     /tmp/ccgKSkzL.s:158    .text:00000000000000bc .L0 
     /tmp/ccgKSkzL.s:159    .text:00000000000000bc .L0 
     /tmp/ccgKSkzL.s:166    .text:00000000000000c8 .L0 
     /tmp/ccgKSkzL.s:167    .text:00000000000000c8 .L0 
     /tmp/ccgKSkzL.s:175    .text:00000000000000d0 .L0 
     /tmp/ccgKSkzL.s:176    .text:00000000000000d0 .L0 
     /tmp/ccgKSkzL.s:181    .text:00000000000000dc .L0 
     /tmp/ccgKSkzL.s:183    .text:00000000000000e0 .L0 
     /tmp/ccgKSkzL.s:185    .text:00000000000000e4 .L0 
     /tmp/ccgKSkzL.s:187    .text:00000000000000e8 .L0 
     /tmp/ccgKSkzL.s:189    .text:00000000000000ec .L0 
     /tmp/ccgKSkzL.s:191    .text:00000000000000f0 .L0 
     /tmp/ccgKSkzL.s:197    .text:00000000000000f4 .L0 
     /tmp/ccgKSkzL.s:198    .text:00000000000000f4 .L0 
     /tmp/ccgKSkzL.s:201    .text:0000000000000100 .L0 
     /tmp/ccgKSkzL.s:202    .text:0000000000000100 .L0 
     /tmp/ccgKSkzL.s:205    .text:0000000000000108 .L0 
     /tmp/ccgKSkzL.s:206    .text:000000000000010c .L0 
     /tmp/ccgKSkzL.s:207    .text:000000000000010c .L0 
     /tmp/ccgKSkzL.s:209    .text:0000000000000110 .L0 
     /tmp/ccgKSkzL.s:210    .text:0000000000000110 .L0 
     /tmp/ccgKSkzL.s:212    .text:0000000000000114 .L0 
     /tmp/ccgKSkzL.s:215    .text:0000000000000118 .L0 
     /tmp/ccgKSkzL.s:217    .text:000000000000011c .L0 
     /tmp/ccgKSkzL.s:221    .text:0000000000000120 .L0 
     /tmp/ccgKSkzL.s:225    .text:0000000000000120 .L0 
     /tmp/ccgKSkzL.s:230    .text:000000000000012c .L0 
     /tmp/ccgKSkzL.s:236    .text:000000000000012c _ZN4_sem4waitEv
     /tmp/ccgKSkzL.s:239    .text:000000000000012c .L0 
     /tmp/ccgKSkzL.s:241    .text:000000000000012c .L0 
     /tmp/ccgKSkzL.s:244    .text:000000000000012c .L0 
     /tmp/ccgKSkzL.s:245    .text:000000000000012c .L0 
     /tmp/ccgKSkzL.s:246    .text:000000000000012c .L0 
     /tmp/ccgKSkzL.s:251    .text:0000000000000130 .L0 
     /tmp/ccgKSkzL.s:253    .text:0000000000000134 .L0 
     /tmp/ccgKSkzL.s:254    .text:0000000000000138 .L0 
     /tmp/ccgKSkzL.s:258    .text:0000000000000144 .L0 
     /tmp/ccgKSkzL.s:259    .text:0000000000000144 .L0 
     /tmp/ccgKSkzL.s:260    .text:0000000000000144 .L0 
     /tmp/ccgKSkzL.s:262    .text:0000000000000148 .L0 
     /tmp/ccgKSkzL.s:265    .text:000000000000014c .L0 
     /tmp/ccgKSkzL.s:266    .text:000000000000014c .L0 
     /tmp/ccgKSkzL.s:268    .text:0000000000000150 .L0 
     /tmp/ccgKSkzL.s:270    .text:0000000000000154 .L0 
     /tmp/ccgKSkzL.s:272    .text:0000000000000158 .L0 
     /tmp/ccgKSkzL.s:279    .text:0000000000000160 .L0 
     /tmp/ccgKSkzL.s:280    .text:0000000000000160 .L0 
     /tmp/ccgKSkzL.s:281    .text:0000000000000160 .L0 
     /tmp/ccgKSkzL.s:286    .text:0000000000000164 .L0 
     /tmp/ccgKSkzL.s:288    .text:0000000000000168 .L0 
     /tmp/ccgKSkzL.s:291    .text:000000000000016c .L0 
GAS LISTING /tmp/ccgKSkzL.s 			page 18


     /tmp/ccgKSkzL.s:292    .text:0000000000000170 .L0 
     /tmp/ccgKSkzL.s:293    .text:0000000000000170 .L0 
     /tmp/ccgKSkzL.s:295    .text:0000000000000174 .L0 
     /tmp/ccgKSkzL.s:296    .text:0000000000000174 .L0 
     /tmp/ccgKSkzL.s:298    .text:0000000000000178 .L0 
     /tmp/ccgKSkzL.s:301    .text:000000000000017c .L0 
     /tmp/ccgKSkzL.s:305    .text:0000000000000180 .L0 
     /tmp/ccgKSkzL.s:307    .text:0000000000000180 .L0 
     /tmp/ccgKSkzL.s:308    .text:0000000000000180 .L0 
     /tmp/ccgKSkzL.s:313    .text:000000000000018c .L0 
     /tmp/ccgKSkzL.s:314    .text:000000000000018c .L0 
     /tmp/ccgKSkzL.s:315    .text:000000000000018c .L0 
     /tmp/ccgKSkzL.s:316    .text:000000000000018c .L0 
     /tmp/ccgKSkzL.s:318    .text:000000000000018c .L0 
     /tmp/ccgKSkzL.s:321    .text:0000000000000190 .L0 
     /tmp/ccgKSkzL.s:324    .text:0000000000000194 .L0 
     /tmp/ccgKSkzL.s:325    .text:0000000000000194 .L0 
     /tmp/ccgKSkzL.s:326    .text:0000000000000194 .L0 
     /tmp/ccgKSkzL.s:327    .text:0000000000000194 .L0 
     /tmp/ccgKSkzL.s:329    .text:0000000000000194 .L0 
     /tmp/ccgKSkzL.s:331    .text:000000000000019c .L0 
     /tmp/ccgKSkzL.s:337    .text:000000000000019c _ZN4_sem7unblockEv
     /tmp/ccgKSkzL.s:340    .text:000000000000019c .L0 
     /tmp/ccgKSkzL.s:342    .text:000000000000019c .L0 
     /tmp/ccgKSkzL.s:343    .text:00000000000001a0 .L0 
     /tmp/ccgKSkzL.s:347    .text:00000000000001ac .L0 
     /tmp/ccgKSkzL.s:348    .text:00000000000001ac .L0 
     /tmp/ccgKSkzL.s:349    .text:00000000000001ac .L0 
     /tmp/ccgKSkzL.s:351    .text:00000000000001b0 .L0 
     /tmp/ccgKSkzL.s:357    .text:00000000000001b4 .L0 
     /tmp/ccgKSkzL.s:358    .text:00000000000001b4 .L0 
     /tmp/ccgKSkzL.s:361    .text:00000000000001b8 .L0 
     /tmp/ccgKSkzL.s:364    .text:00000000000001bc .L0 
     /tmp/ccgKSkzL.s:366    .text:00000000000001c0 .L0 
     /tmp/ccgKSkzL.s:368    .text:00000000000001c4 .L0 
     /tmp/ccgKSkzL.s:371    .text:00000000000001c8 .L0 
     /tmp/ccgKSkzL.s:374    .text:00000000000001cc .L0 
     /tmp/ccgKSkzL.s:382    .text:00000000000001d4 .L0 
     /tmp/ccgKSkzL.s:383    .text:00000000000001d4 .L0 
     /tmp/ccgKSkzL.s:384    .text:00000000000001d4 .L0 
     /tmp/ccgKSkzL.s:389    .text:00000000000001d8 .L0 
     /tmp/ccgKSkzL.s:390    .text:00000000000001d8 .L0 
     /tmp/ccgKSkzL.s:394    .text:00000000000001e4 .L0 
     /tmp/ccgKSkzL.s:395    .text:00000000000001e8 .L0 
     /tmp/ccgKSkzL.s:396    .text:00000000000001e8 .L0 
     /tmp/ccgKSkzL.s:398    .text:00000000000001ec .L0 
     /tmp/ccgKSkzL.s:399    .text:00000000000001ec .L0 
     /tmp/ccgKSkzL.s:401    .text:00000000000001f0 .L0 
     /tmp/ccgKSkzL.s:404    .text:00000000000001f4 .L0 
     /tmp/ccgKSkzL.s:408    .text:00000000000001f8 .L0 
     /tmp/ccgKSkzL.s:412    .text:00000000000001f8 .L0 
     /tmp/ccgKSkzL.s:417    .text:0000000000000200 .L0 
     /tmp/ccgKSkzL.s:421    .text:0000000000000208 .L0 
     /tmp/ccgKSkzL.s:427    .text:0000000000000208 _ZN4_sem6signalEv
     /tmp/ccgKSkzL.s:430    .text:0000000000000208 .L0 
     /tmp/ccgKSkzL.s:432    .text:0000000000000208 .L0 
     /tmp/ccgKSkzL.s:435    .text:0000000000000208 .L0 
GAS LISTING /tmp/ccgKSkzL.s 			page 19


     /tmp/ccgKSkzL.s:436    .text:0000000000000208 .L0 
     /tmp/ccgKSkzL.s:437    .text:0000000000000208 .L0 
     /tmp/ccgKSkzL.s:442    .text:000000000000020c .L0 
     /tmp/ccgKSkzL.s:444    .text:0000000000000210 .L0 
     /tmp/ccgKSkzL.s:445    .text:0000000000000210 .L0 
     /tmp/ccgKSkzL.s:447    .text:0000000000000214 .L0 
     /tmp/ccgKSkzL.s:450    .text:000000000000021c .L0 
     /tmp/ccgKSkzL.s:452    .text:0000000000000220 .L0 
     /tmp/ccgKSkzL.s:454    .text:0000000000000224 .L0 
     /tmp/ccgKSkzL.s:457    .text:0000000000000228 .L0 
     /tmp/ccgKSkzL.s:461    .text:000000000000022c .L0 
     /tmp/ccgKSkzL.s:462    .text:0000000000000230 .L0 
     /tmp/ccgKSkzL.s:465    .text:0000000000000238 .L0 
     /tmp/ccgKSkzL.s:466    .text:0000000000000238 .L0 
     /tmp/ccgKSkzL.s:468    .text:000000000000023c .L0 
     /tmp/ccgKSkzL.s:470    .text:000000000000023c .L0 
     /tmp/ccgKSkzL.s:471    .text:000000000000023c .L0 
     /tmp/ccgKSkzL.s:474    .text:0000000000000244 .L0 
     /tmp/ccgKSkzL.s:476    .text:0000000000000248 .L0 
     /tmp/ccgKSkzL.s:477    .text:000000000000024c .L0 
     /tmp/ccgKSkzL.s:479    .text:0000000000000250 .L0 
     /tmp/ccgKSkzL.s:480    .text:0000000000000250 .L0 
     /tmp/ccgKSkzL.s:482    .text:0000000000000254 .L0 
     /tmp/ccgKSkzL.s:487    .text:0000000000000258 .L0 
     /tmp/ccgKSkzL.s:490    .text:0000000000000260 .L0 
     /tmp/ccgKSkzL.s:496    .text:0000000000000260 _ZN4_sem5closeEv
     /tmp/ccgKSkzL.s:499    .text:0000000000000260 .L0 
     /tmp/ccgKSkzL.s:501    .text:0000000000000260 .L0 
     /tmp/ccgKSkzL.s:504    .text:0000000000000260 .L0 
     /tmp/ccgKSkzL.s:505    .text:0000000000000260 .L0 
     /tmp/ccgKSkzL.s:506    .text:0000000000000260 .L0 
     /tmp/ccgKSkzL.s:511    .text:0000000000000264 .L0 
     /tmp/ccgKSkzL.s:513    .text:0000000000000268 .L0 
     /tmp/ccgKSkzL.s:514    .text:000000000000026c .L0 
     /tmp/ccgKSkzL.s:518    .text:0000000000000278 .L0 
     /tmp/ccgKSkzL.s:519    .text:0000000000000278 .L0 
     /tmp/ccgKSkzL.s:520    .text:0000000000000278 .L0 
     /tmp/ccgKSkzL.s:522    .text:000000000000027c .L0 
     /tmp/ccgKSkzL.s:528    .text:0000000000000280 .L0 
     /tmp/ccgKSkzL.s:529    .text:0000000000000280 .L0 
     /tmp/ccgKSkzL.s:530    .text:0000000000000280 .L0 
     /tmp/ccgKSkzL.s:537    .text:0000000000000288 .L0 
     /tmp/ccgKSkzL.s:540    .text:0000000000000288 .L0 
     /tmp/ccgKSkzL.s:541    .text:0000000000000288 .L0 
     /tmp/ccgKSkzL.s:543    .text:000000000000028c .L0 
     /tmp/ccgKSkzL.s:545    .text:0000000000000290 .L0 
     /tmp/ccgKSkzL.s:550    .text:0000000000000294 .L0 
     /tmp/ccgKSkzL.s:552    .text:0000000000000298 .L0 
     /tmp/ccgKSkzL.s:553    .text:0000000000000298 .L0 
     /tmp/ccgKSkzL.s:557    .text:00000000000002a4 .L0 
     /tmp/ccgKSkzL.s:560    .text:00000000000002a8 .L0 
     /tmp/ccgKSkzL.s:561    .text:00000000000002a8 .L0 
     /tmp/ccgKSkzL.s:562    .text:00000000000002a8 .L0 
     /tmp/ccgKSkzL.s:563    .text:00000000000002a8 .L0 
     /tmp/ccgKSkzL.s:565    .text:00000000000002a8 .L0 
     /tmp/ccgKSkzL.s:568    .text:00000000000002ac .L0 
     /tmp/ccgKSkzL.s:571    .text:00000000000002b0 .L0 
GAS LISTING /tmp/ccgKSkzL.s 			page 20


     /tmp/ccgKSkzL.s:572    .text:00000000000002b0 .L0 
     /tmp/ccgKSkzL.s:573    .text:00000000000002b0 .L0 
     /tmp/ccgKSkzL.s:574    .text:00000000000002b0 .L0 
     /tmp/ccgKSkzL.s:576    .text:00000000000002b0 .L0 
     /tmp/ccgKSkzL.s:580    .text:00000000000002b4 .L0 
     /tmp/ccgKSkzL.s:581    .text:00000000000002b8 .L0 
     /tmp/ccgKSkzL.s:582    .text:00000000000002b8 .L0 
     /tmp/ccgKSkzL.s:584    .text:00000000000002bc .L0 
     /tmp/ccgKSkzL.s:585    .text:00000000000002bc .L0 
     /tmp/ccgKSkzL.s:587    .text:00000000000002c0 .L0 
     /tmp/ccgKSkzL.s:590    .text:00000000000002c4 .L0 
     /tmp/ccgKSkzL.s:594    .text:00000000000002c8 .L0 
     /tmp/ccgKSkzL.s:596    .text:00000000000002c8 .L0 
     /tmp/ccgKSkzL.s:598    .text:00000000000002d0 .L0 
     /tmp/ccgKSkzL.s:605    .text:00000000000002d0 .L0 
     /tmp/ccgKSkzL.s:159    .text:00000000000000bc .L0 
     /tmp/ccgKSkzL.s:198    .text:00000000000000f4 .L0 
     /tmp/ccgKSkzL.s:220    .text:0000000000000120 .L8
     /tmp/ccgKSkzL.s:192    .text:00000000000000f4 .L9
     /tmp/ccgKSkzL.s:312    .text:000000000000018c .L14
     /tmp/ccgKSkzL.s:304    .text:0000000000000180 .L20
     /tmp/ccgKSkzL.s:323    .text:0000000000000194 .L15
     /tmp/ccgKSkzL.s:275    .text:0000000000000160 .L13
     /tmp/ccgKSkzL.s:289    .text:000000000000016c .L12
     /tmp/ccgKSkzL.s:415    .text:0000000000000200 .L24
     /tmp/ccgKSkzL.s:407    .text:00000000000001f8 .L26
     /tmp/ccgKSkzL.s:369    .text:00000000000001c8 .L23
     /tmp/ccgKSkzL.s:376    .text:00000000000001d4 .L22
     /tmp/ccgKSkzL.s:485    .text:0000000000000258 .L29
     /tmp/ccgKSkzL.s:459    .text:000000000000022c .L35
     /tmp/ccgKSkzL.s:559    .text:00000000000002a8 .L39
     /tmp/ccgKSkzL.s:570    .text:00000000000002b0 .L40
     /tmp/ccgKSkzL.s:593    .text:00000000000002c8 .L41
     /tmp/ccgKSkzL.s:533    .text:0000000000000288 .L38
     /tmp/ccgKSkzL.s:578    .text:00000000000002b4 .L37
     /tmp/ccgKSkzL.s:1866   .debug_abbrev:0000000000000000 .Ldebug_abbrev0
     /tmp/ccgKSkzL.s:3340   .debug_str:000000000000042d .LASF83
     /tmp/ccgKSkzL.s:3196   .debug_str:000000000000005d .LASF84
     /tmp/ccgKSkzL.s:3236   .debug_str:0000000000000172 .LASF85
     /tmp/ccgKSkzL.s:5      .text:0000000000000000 .Ltext0
     /tmp/ccgKSkzL.s:601    .text:00000000000002d0 .Letext0
     /tmp/ccgKSkzL.s:3182   .debug_line:0000000000000000 .Ldebug_line0
     /tmp/ccgKSkzL.s:3290   .debug_str:00000000000002f3 .LASF0
     /tmp/ccgKSkzL.s:3300   .debug_str:0000000000000327 .LASF1
     /tmp/ccgKSkzL.s:3276   .debug_str:000000000000029e .LASF2
     /tmp/ccgKSkzL.s:3254   .debug_str:00000000000001fb .LASF4
     /tmp/ccgKSkzL.s:3326   .debug_str:00000000000003e1 .LASF3
     /tmp/ccgKSkzL.s:3198   .debug_str:000000000000006a .LASF5
     /tmp/ccgKSkzL.s:3304   .debug_str:000000000000034b .LASF6
     /tmp/ccgKSkzL.s:3288   .debug_str:00000000000002e0 .LASF7
     /tmp/ccgKSkzL.s:3356   .debug_str:000000000000056a .LASF8
     /tmp/ccgKSkzL.s:3242   .debug_str:00000000000001a6 .LASF9
     /tmp/ccgKSkzL.s:3310   .debug_str:000000000000036f .LASF10
     /tmp/ccgKSkzL.s:3344   .debug_str:00000000000004fd .LASF11
     /tmp/ccgKSkzL.s:3202   .debug_str:000000000000007e .LASF12
     /tmp/ccgKSkzL.s:3190   .debug_str:0000000000000035 .LASF13
     /tmp/ccgKSkzL.s:3210   .debug_str:00000000000000c0 .LASF14
GAS LISTING /tmp/ccgKSkzL.s 			page 21


     /tmp/ccgKSkzL.s:3320   .debug_str:00000000000003bc .LASF15
     /tmp/ccgKSkzL.s:3218   .debug_str:0000000000000102 .LASF16
     /tmp/ccgKSkzL.s:3270   .debug_str:0000000000000276 .LASF23
     /tmp/ccgKSkzL.s:3222   .debug_str:000000000000011e .LASF71
     /tmp/ccgKSkzL.s:3334   .debug_str:0000000000000412 .LASF17
     /tmp/ccgKSkzL.s:3370   .debug_str:00000000000005d3 .LASF18
     /tmp/ccgKSkzL.s:3296   .debug_str:000000000000031c .LASF19
     /tmp/ccgKSkzL.s:3372   .debug_str:00000000000005d8 .LASF21
     /tmp/ccgKSkzL.s:3230   .debug_str:0000000000000163 .LASF20
     /tmp/ccgKSkzL.s:3316   .debug_str:0000000000000388 .LASF22
     /tmp/ccgKSkzL.s:3274   .debug_str:0000000000000293 .LASF86
     /tmp/ccgKSkzL.s:3366   .debug_str:00000000000005aa .LASF87
     /tmp/ccgKSkzL.s:3352   .debug_str:0000000000000549 .LASF30
     /tmp/ccgKSkzL.s:3282   .debug_str:00000000000002b9 .LASF32
     /tmp/ccgKSkzL.s:3260   .debug_str:0000000000000223 .LASF33
     /tmp/ccgKSkzL.s:3272   .debug_str:0000000000000286 .LASF76
     /tmp/ccgKSkzL.s:3264   .debug_str:0000000000000254 .LASF24
     /tmp/ccgKSkzL.s:3266   .debug_str:000000000000025e .LASF72
     /tmp/ccgKSkzL.s:3314   .debug_str:0000000000000383 .LASF25
     /tmp/ccgKSkzL.s:3224   .debug_str:0000000000000125 .LASF26
     /tmp/ccgKSkzL.s:3278   .debug_str:00000000000002ac .LASF27
     /tmp/ccgKSkzL.s:3252   .debug_str:00000000000001f6 .LASF28
     /tmp/ccgKSkzL.s:3294   .debug_str:0000000000000309 .LASF29
     /tmp/ccgKSkzL.s:3318   .debug_str:00000000000003a5 .LASF31
     /tmp/ccgKSkzL.s:3246   .debug_str:00000000000001b9 .LASF34
     /tmp/ccgKSkzL.s:3338   .debug_str:0000000000000424 .LASF35
     /tmp/ccgKSkzL.s:3228   .debug_str:0000000000000146 .LASF36
     /tmp/ccgKSkzL.s:3240   .debug_str:000000000000019e .LASF37
     /tmp/ccgKSkzL.s:3226   .debug_str:000000000000012a .LASF38
     /tmp/ccgKSkzL.s:3342   .debug_str:00000000000004f1 .LASF39
     /tmp/ccgKSkzL.s:3188   .debug_str:0000000000000017 .LASF40
     /tmp/ccgKSkzL.s:3206   .debug_str:000000000000009e .LASF41
     /tmp/ccgKSkzL.s:3258   .debug_str:0000000000000208 .LASF42
     /tmp/ccgKSkzL.s:3194   .debug_str:0000000000000052 .LASF43
     /tmp/ccgKSkzL.s:3350   .debug_str:0000000000000533 .LASF44
     /tmp/ccgKSkzL.s:3268   .debug_str:0000000000000263 .LASF88
     /tmp/ccgKSkzL.s:3292   .debug_str:0000000000000300 .LASF89
     /tmp/ccgKSkzL.s:3364   .debug_str:00000000000005a5 .LASF45
     /tmp/ccgKSkzL.s:3336   .debug_str:0000000000000417 .LASF46
     /tmp/ccgKSkzL.s:3354   .debug_str:0000000000000565 .LASF47
     /tmp/ccgKSkzL.s:3204   .debug_str:000000000000008e .LASF48
     /tmp/ccgKSkzL.s:3184   .debug_str:0000000000000000 .LASF49
     /tmp/ccgKSkzL.s:3302   .debug_str:000000000000033a .LASF50
     /tmp/ccgKSkzL.s:3232   .debug_str:0000000000000168 .LASF51
     /tmp/ccgKSkzL.s:3216   .debug_str:00000000000000f2 .LASF52
     /tmp/ccgKSkzL.s:3306   .debug_str:000000000000035e .LASF53
     /tmp/ccgKSkzL.s:3248   .debug_str:00000000000001d0 .LASF54
     /tmp/ccgKSkzL.s:3220   .debug_str:0000000000000118 .LASF55
     /tmp/ccgKSkzL.s:3348   .debug_str:0000000000000521 .LASF56
     /tmp/ccgKSkzL.s:3362   .debug_str:0000000000000598 .LASF57
     /tmp/ccgKSkzL.s:3200   .debug_str:0000000000000071 .LASF58
     /tmp/ccgKSkzL.s:3330   .debug_str:00000000000003fb .LASF73
     /tmp/ccgKSkzL.s:3238   .debug_str:0000000000000190 .LASF90
     /tmp/ccgKSkzL.s:3358   .debug_str:000000000000057a .LASF59
     /tmp/ccgKSkzL.s:3360   .debug_str:0000000000000583 .LASF60
     /tmp/ccgKSkzL.s:3322   .debug_str:00000000000003d2 .LASF61
     /tmp/ccgKSkzL.s:3262   .debug_str:000000000000023f .LASF62
GAS LISTING /tmp/ccgKSkzL.s 			page 22


     /tmp/ccgKSkzL.s:3256   .debug_str:0000000000000202 .LASF63
     /tmp/ccgKSkzL.s:3186   .debug_str:0000000000000006 .LASF64
     /tmp/ccgKSkzL.s:3280   .debug_str:00000000000002b1 .LASF65
     /tmp/ccgKSkzL.s:3212   .debug_str:00000000000000cc .LASF66
     /tmp/ccgKSkzL.s:3286   .debug_str:00000000000002d8 .LASF67
     /tmp/ccgKSkzL.s:3332   .debug_str:000000000000040b .LASF68
     /tmp/ccgKSkzL.s:3234   .debug_str:000000000000016d .LASF69
     /tmp/ccgKSkzL.s:3308   .debug_str:0000000000000365 .LASF70
     /tmp/ccgKSkzL.s:3208   .debug_str:00000000000000a8 .LASF91
     /tmp/ccgKSkzL.s:3250   .debug_str:00000000000001e2 .LASF92
     /tmp/ccgKSkzL.s:3346   .debug_str:000000000000050c .LASF74
     /tmp/ccgKSkzL.s:3284   .debug_str:00000000000002c3 .LASF75
     /tmp/ccgKSkzL.s:3368   .debug_str:00000000000005cd .LASF77
     /tmp/ccgKSkzL.s:3298   .debug_str:0000000000000322 .LASF78
     /tmp/ccgKSkzL.s:3312   .debug_str:000000000000037e .LASF79
     /tmp/ccgKSkzL.s:3324   .debug_str:00000000000003dc .LASF80
     /tmp/ccgKSkzL.s:3328   .debug_str:00000000000003f3 .LASF81
     /tmp/ccgKSkzL.s:3214   .debug_str:00000000000000df .LASF93
     /tmp/ccgKSkzL.s:497    .text:0000000000000260 .LFB25
     /tmp/ccgKSkzL.s:599    .text:00000000000002d0 .LFE25
     /tmp/ccgKSkzL.s:2744   .debug_loc:0000000000000000 .LLST24
     /tmp/ccgKSkzL.s:502    .text:0000000000000260 .LBB54
     /tmp/ccgKSkzL.s:509    .text:0000000000000264 .LBE54
     /tmp/ccgKSkzL.s:2781   .debug_loc:000000000000009b .LLST25
     /tmp/ccgKSkzL.s:526    .text:0000000000000280 .LBB56
     /tmp/ccgKSkzL.s:535    .text:0000000000000288 .LBE56
     /tmp/ccgKSkzL.s:2788   .debug_loc:00000000000000be .LLST26
     /tmp/ccgKSkzL.s:2796   .debug_loc:00000000000000e2 .LLST27
     /tmp/ccgKSkzL.s:538    .text:0000000000000288 .LBB58
     /tmp/ccgKSkzL.s:548    .text:0000000000000294 .LBE58
     /tmp/ccgKSkzL.s:2803   .debug_loc:0000000000000105 .LLST28
     /tmp/ccgKSkzL.s:555    .text:00000000000002a4 .LVL54
     /tmp/ccgKSkzL.s:338    .text:000000000000019c .LFB24
     /tmp/ccgKSkzL.s:422    .text:0000000000000208 .LFE24
     /tmp/ccgKSkzL.s:2818   .debug_loc:000000000000013f .LLST15
     /tmp/ccgKSkzL.s:2840   .debug_loc:000000000000019e .LLST16
     /tmp/ccgKSkzL.s:355    .text:00000000000001b4 .LBB46
     /tmp/ccgKSkzL.s:3168   .debug_ranges:0000000000000000 .Ldebug_ranges0
     /tmp/ccgKSkzL.s:2847   .debug_loc:00000000000001c1 .LLST17
     /tmp/ccgKSkzL.s:2877   .debug_loc:0000000000000228 .LLST18
     /tmp/ccgKSkzL.s:2888   .debug_loc:000000000000025e .LLST19
     /tmp/ccgKSkzL.s:375    .text:00000000000001d4 .LVL36
     /tmp/ccgKSkzL.s:380    .text:00000000000001d4 .LBB49
     /tmp/ccgKSkzL.s:387    .text:00000000000001d8 .LBE49
     /tmp/ccgKSkzL.s:2895   .debug_loc:0000000000000281 .LLST20
     /tmp/ccgKSkzL.s:2903   .debug_loc:00000000000002a5 .LLST21
     /tmp/ccgKSkzL.s:392    .text:00000000000001e4 .LVL38
     /tmp/ccgKSkzL.s:428    .text:0000000000000208 .LFB23
     /tmp/ccgKSkzL.s:491    .text:0000000000000260 .LFE23
     /tmp/ccgKSkzL.s:2910   .debug_loc:00000000000002c8 .LLST22
     /tmp/ccgKSkzL.s:433    .text:0000000000000208 .LBB52
     /tmp/ccgKSkzL.s:440    .text:000000000000020c .LBE52
     /tmp/ccgKSkzL.s:2946   .debug_loc:0000000000000353 .LLST23
     /tmp/ccgKSkzL.s:472    .text:0000000000000244 .LVL46
     /tmp/ccgKSkzL.s:140    .text:00000000000000a0 .LFB22
     /tmp/ccgKSkzL.s:231    .text:000000000000012c .LFE22
     /tmp/ccgKSkzL.s:2953   .debug_loc:0000000000000376 .LLST6
GAS LISTING /tmp/ccgKSkzL.s 			page 23


     /tmp/ccgKSkzL.s:162    .text:00000000000000c8 .LBB36
     /tmp/ccgKSkzL.s:171    .text:00000000000000d0 .LBE36
     /tmp/ccgKSkzL.s:2975   .debug_loc:00000000000003d5 .LLST7
     /tmp/ccgKSkzL.s:2983   .debug_loc:00000000000003f9 .LLST8
     /tmp/ccgKSkzL.s:173    .text:00000000000000d0 .LBB38
     /tmp/ccgKSkzL.s:2990   .debug_loc:000000000000041c .LLST9
     /tmp/ccgKSkzL.s:3001   .debug_loc:0000000000000452 .LLST10
     /tmp/ccgKSkzL.s:3022   .debug_loc:00000000000004a1 .LLST11
     /tmp/ccgKSkzL.s:179    .text:00000000000000dc .LVL16
     /tmp/ccgKSkzL.s:203    .text:0000000000000108 .LVL18
     /tmp/ccgKSkzL.s:237    .text:000000000000012c .LFB21
     /tmp/ccgKSkzL.s:332    .text:000000000000019c .LFE21
     /tmp/ccgKSkzL.s:3033   .debug_loc:00000000000004d7 .LLST12
     /tmp/ccgKSkzL.s:242    .text:000000000000012c .LBB42
     /tmp/ccgKSkzL.s:249    .text:0000000000000130 .LBE42
     /tmp/ccgKSkzL.s:3070   .debug_loc:0000000000000572 .LLST13
     /tmp/ccgKSkzL.s:277    .text:0000000000000160 .LBB44
     /tmp/ccgKSkzL.s:284    .text:0000000000000164 .LBE44
     /tmp/ccgKSkzL.s:3077   .debug_loc:0000000000000595 .LLST14
     /tmp/ccgKSkzL.s:309    .text:0000000000000188 .LVL27
     /tmp/ccgKSkzL.s:108    .text:0000000000000078 .LFB20
     /tmp/ccgKSkzL.s:134    .text:00000000000000a0 .LFE20
     /tmp/ccgKSkzL.s:3084   .debug_loc:00000000000005b8 .LLST5
     /tmp/ccgKSkzL.s:123    .text:0000000000000090 .LVL11
     /tmp/ccgKSkzL.s:10     .text:0000000000000000 .LFB19
     /tmp/ccgKSkzL.s:43     .text:0000000000000030 .LFE19
     /tmp/ccgKSkzL.s:3098   .debug_loc:00000000000005f1 .LLST0
     /tmp/ccgKSkzL.s:31     .text:0000000000000020 .LVL3
     /tmp/ccgKSkzL.s:49     .text:0000000000000030 .LFB18
     /tmp/ccgKSkzL.s:102    .text:0000000000000078 .LFE18
     /tmp/ccgKSkzL.s:3118   .debug_loc:000000000000063f .LLST1
     /tmp/ccgKSkzL.s:70     .text:0000000000000054 .LBB32
     /tmp/ccgKSkzL.s:89     .text:0000000000000064 .LBE32
     /tmp/ccgKSkzL.s:3132   .debug_loc:0000000000000678 .LLST2
     /tmp/ccgKSkzL.s:3139   .debug_loc:000000000000069b .LLST3
     /tmp/ccgKSkzL.s:76     .text:0000000000000058 .LBB34
     /tmp/ccgKSkzL.s:84     .text:0000000000000060 .LBE34
     /tmp/ccgKSkzL.s:3146   .debug_loc:00000000000006be .LLST4
     /tmp/ccgKSkzL.s:69     .text:0000000000000054 .LVL6
     /tmp/ccgKSkzL.s:3244   .debug_str:00000000000001b4 .LASF82
     /tmp/ccgKSkzL.s:3192   .debug_str:0000000000000045 .LASF94
     /tmp/ccgKSkzL.s:500    .text:0000000000000260 .LVL49
     /tmp/ccgKSkzL.s:532    .text:0000000000000288 .LVL52
     /tmp/ccgKSkzL.s:558    .text:00000000000002a8 .LVL55
     /tmp/ccgKSkzL.s:566    .text:00000000000002ac .LVL56
     /tmp/ccgKSkzL.s:569    .text:00000000000002b0 .LVL57
     /tmp/ccgKSkzL.s:588    .text:00000000000002c0 .LVL59
     /tmp/ccgKSkzL.s:592    .text:00000000000002c8 .LVL60
     /tmp/ccgKSkzL.s:507    .text:0000000000000264 .LVL50
     /tmp/ccgKSkzL.s:525    .text:0000000000000280 .LVL51
     /tmp/ccgKSkzL.s:546    .text:0000000000000294 .LVL53
     /tmp/ccgKSkzL.s:577    .text:00000000000002b4 .LVL58
     /tmp/ccgKSkzL.s:341    .text:000000000000019c .LVL31
     /tmp/ccgKSkzL.s:359    .text:00000000000001b8 .LVL33
     /tmp/ccgKSkzL.s:406    .text:00000000000001f8 .LVL40
     /tmp/ccgKSkzL.s:402    .text:00000000000001f0 .LVL39
     /tmp/ccgKSkzL.s:354    .text:00000000000001b4 .LVL32
GAS LISTING /tmp/ccgKSkzL.s 			page 24


     /tmp/ccgKSkzL.s:362    .text:00000000000001bc .LVL34
     /tmp/ccgKSkzL.s:414    .text:0000000000000200 .LVL41
     /tmp/ccgKSkzL.s:372    .text:00000000000001cc .LVL35
     /tmp/ccgKSkzL.s:385    .text:00000000000001d8 .LVL37
     /tmp/ccgKSkzL.s:431    .text:0000000000000208 .LVL42
     /tmp/ccgKSkzL.s:455    .text:0000000000000228 .LVL44
     /tmp/ccgKSkzL.s:458    .text:000000000000022c .LVL45
     /tmp/ccgKSkzL.s:484    .text:0000000000000258 .LVL47
     /tmp/ccgKSkzL.s:488    .text:000000000000025c .LVL48
     /tmp/ccgKSkzL.s:438    .text:000000000000020c .LVL43
     /tmp/ccgKSkzL.s:143    .text:00000000000000a0 .LVL12
     /tmp/ccgKSkzL.s:177    .text:00000000000000d4 .LVL15
     /tmp/ccgKSkzL.s:213    .text:0000000000000114 .LVL19
     /tmp/ccgKSkzL.s:219    .text:0000000000000120 .LVL20
     /tmp/ccgKSkzL.s:161    .text:00000000000000c8 .LVL13
     /tmp/ccgKSkzL.s:169    .text:00000000000000d0 .LVL14
     /tmp/ccgKSkzL.s:193    .text:00000000000000f4 .LVL17
     /tmp/ccgKSkzL.s:240    .text:000000000000012c .LVL21
     /tmp/ccgKSkzL.s:274    .text:0000000000000160 .LVL23
     /tmp/ccgKSkzL.s:299    .text:0000000000000178 .LVL25
     /tmp/ccgKSkzL.s:303    .text:0000000000000180 .LVL26
     /tmp/ccgKSkzL.s:311    .text:000000000000018c .LVL28
     /tmp/ccgKSkzL.s:319    .text:0000000000000190 .LVL29
     /tmp/ccgKSkzL.s:322    .text:0000000000000194 .LVL30
     /tmp/ccgKSkzL.s:247    .text:0000000000000130 .LVL22
     /tmp/ccgKSkzL.s:282    .text:0000000000000164 .LVL24
     /tmp/ccgKSkzL.s:111    .text:0000000000000078 .LVL10
     /tmp/ccgKSkzL.s:14     .text:0000000000000000 .LVL0
     /tmp/ccgKSkzL.s:26     .text:0000000000000014 .LVL1
     /tmp/ccgKSkzL.s:29     .text:0000000000000018 .LVL2
     /tmp/ccgKSkzL.s:52     .text:0000000000000030 .LVL4
     /tmp/ccgKSkzL.s:67     .text:000000000000004c .LVL5
     /tmp/ccgKSkzL.s:87     .text:0000000000000064 .LVL9
     /tmp/ccgKSkzL.s:75     .text:0000000000000058 .LVL7
     /tmp/ccgKSkzL.s:82     .text:0000000000000060 .LVL8
     /tmp/ccgKSkzL.s:606    .debug_info:0000000000000000 .Ldebug_info0
     /tmp/ccgKSkzL.s:195    .text:00000000000000f4 .LBE38
     /tmp/ccgKSkzL.s:222    .text:0000000000000120 .LBB41
     /tmp/ccgKSkzL.s:229    .text:000000000000012c .LBE41
     /tmp/ccgKSkzL.s:378    .text:00000000000001d4 .LBE46
     /tmp/ccgKSkzL.s:409    .text:00000000000001f8 .LBB51
     /tmp/ccgKSkzL.s:420    .text:0000000000000208 .LBE51

UNDEFINED SYMBOLS
_ZN15MemoryAllocator5allocEm
_ZN15MemoryAllocator4freeEPv
_ZN3TCB7runningE
_ZN3TCB16timeSliceCounterE
_ZN3TCB8dispatchEv
_ZN9Scheduler3putEP3TCB
