GAS LISTING /tmp/ccxkiTJ6.s 			page 1


   1              		.file	"main.cpp"
   2              		.option pic
   3              		.option norelax
   4              		.text
   5              	.Ltext0:
   6              		.align	2
   7              		.globl	_Z10idleThreadPv
   9              	_Z10idleThreadPv:
  10              	.LFB34:
  11              		.file 1 "src/main.cpp"
   1:src/main.cpp  **** //
   2:src/main.cpp  **** // Created by os on 6/29/23.
   3:src/main.cpp  **** //
   4:src/main.cpp  **** 
   5:src/main.cpp  **** #include "../h/MemoryAllocator.hpp"
   6:src/main.cpp  **** #include "../h/syscall_c.hpp"
   7:src/main.cpp  **** #include "../h/riscv.hpp"
   8:src/main.cpp  **** #include "../test/printing.hpp"
   9:src/main.cpp  **** #include "../h/Scheduler.hpp"
  10:src/main.cpp  **** #include "../h/_console.hpp"
  11:src/main.cpp  **** 
  12:src/main.cpp  **** extern void userMain();
  13:src/main.cpp  **** 
  14:src/main.cpp  **** void idleThread(void *p) {
  12              		.loc 1 14 26
  13              		.cfi_startproc
  14              	.LVL0:
  15 0000 130101FF 		addi	sp,sp,-16
  16              		.cfi_def_cfa_offset 16
  17 0004 23341100 		sd	ra,8(sp)
  18 0008 23308100 		sd	s0,0(sp)
  19              		.cfi_offset 1, -8
  20              		.cfi_offset 8, -16
  21 000c 13040101 		addi	s0,sp,16
  22              		.cfi_def_cfa 8, 0
  23              	.LVL1:
  24              	.L2:
  15:src/main.cpp  ****     while(true){ thread_dispatch(); }
  25              		.loc 1 15 5 discriminator 1
  26              		.loc 1 15 18 discriminator 1
  27              		.loc 1 15 33 is_stmt 0 discriminator 1
  28 0010 97000000 		call	_Z15thread_dispatchv@plt
  28      E7800000 
  29              	.LVL2:
  30              		.loc 1 15 5 is_stmt 1 discriminator 1
  31 0018 6FF09FFF 		j	.L2
  32              		.cfi_endproc
  33              	.LFE34:
  35              		.align	2
  36              		.globl	_Z15userMainWrapperPv
  38              	_Z15userMainWrapperPv:
  39              	.LFB35:
  16:src/main.cpp  **** }
  17:src/main.cpp  **** void userMainWrapper(void*){
  40              		.loc 1 17 28
  41              		.cfi_startproc
  42 001c 130101FF 		addi	sp,sp,-16
GAS LISTING /tmp/ccxkiTJ6.s 			page 2


  43              		.cfi_def_cfa_offset 16
  44 0020 23341100 		sd	ra,8(sp)
  45 0024 23308100 		sd	s0,0(sp)
  46              		.cfi_offset 1, -8
  47              		.cfi_offset 8, -16
  48 0028 13040101 		addi	s0,sp,16
  49              		.cfi_def_cfa 8, 0
  18:src/main.cpp  ****     userMain();
  50              		.loc 1 18 5
  51              		.loc 1 18 13 is_stmt 0
  52 002c 97000000 		call	_Z8userMainv@plt
  52      E7800000 
  53              	.LVL3:
  19:src/main.cpp  **** }
  54              		.loc 1 19 1
  55 0034 83308100 		ld	ra,8(sp)
  56              		.cfi_restore 1
  57 0038 03340100 		ld	s0,0(sp)
  58              		.cfi_restore 8
  59              		.cfi_def_cfa 2, 16
  60 003c 13010101 		addi	sp,sp,16
  61              		.cfi_def_cfa_offset 0
  62 0040 67800000 		jr	ra
  63              		.cfi_endproc
  64              	.LFE35:
  66              		.align	2
  67              		.globl	main
  69              	main:
  70              	.LFB36:
  20:src/main.cpp  **** 
  21:src/main.cpp  **** int main(){
  71              		.loc 1 21 11 is_stmt 1
  72              		.cfi_startproc
  73              		.cfi_personality 0x9b,DW.ref.__gxx_personality_v0
  74              		.cfi_lsda 0x1b,.LLSDA36
  75 0044 130101FC 		addi	sp,sp,-64
  76              		.cfi_def_cfa_offset 64
  77 0048 233C1102 		sd	ra,56(sp)
  78 004c 23388102 		sd	s0,48(sp)
  79 0050 23349102 		sd	s1,40(sp)
  80 0054 23302103 		sd	s2,32(sp)
  81              		.cfi_offset 1, -8
  82              		.cfi_offset 8, -16
  83              		.cfi_offset 9, -24
  84              		.cfi_offset 18, -32
  85 0058 13040104 		addi	s0,sp,64
  86              		.cfi_def_cfa 8, 0
  22:src/main.cpp  **** 
  23:src/main.cpp  ****     MemoryAllocator::initialize();
  87              		.loc 1 23 5
  88              	.LEHB0:
  89              		.loc 1 23 32 is_stmt 0
  90 005c 97000000 		call	_ZN15MemoryAllocator10initializeEv@plt
  90      E7800000 
  91              	.LVL4:
  24:src/main.cpp  ****     Riscv::w_stvec((uint64)&Riscv::supervisorTrap+1);
  92              		.loc 1 24 5 is_stmt 1
GAS LISTING /tmp/ccxkiTJ6.s 			page 3


  93              		.loc 1 24 19 is_stmt 0
  94 0064 97070000 		la	a5,_ZN5Riscv14supervisorTrapEv
  94      83B70700 
  95 006c 93871700 		addi	a5,a5,1
  96              	.LVL5:
  97              	.LBB10:
  98              	.LBB11:
  99              		.file 2 "src/../h/riscv.hpp"
   1:src/../h/riscv.hpp **** //
   2:src/../h/riscv.hpp **** // Created by os on 7/24/23.
   3:src/../h/riscv.hpp **** //
   4:src/../h/riscv.hpp **** 
   5:src/../h/riscv.hpp **** #ifndef PROJECT_BASE_RISCV_HPP
   6:src/../h/riscv.hpp **** #define PROJECT_BASE_RISCV_HPP
   7:src/../h/riscv.hpp **** 
   8:src/../h/riscv.hpp **** #include "../lib/hw.h"
   9:src/../h/riscv.hpp **** #include "../h/TCB.hpp"
  10:src/../h/riscv.hpp **** //sa vezbi 7
  11:src/../h/riscv.hpp **** 
  12:src/../h/riscv.hpp **** class Riscv{
  13:src/../h/riscv.hpp **** 
  14:src/../h/riscv.hpp **** public:
  15:src/../h/riscv.hpp **** 
  16:src/../h/riscv.hpp ****     //supervisor previous privileged, previousInterruptEnable
  17:src/../h/riscv.hpp ****     //mora da bude ne inline da se poziva
  18:src/../h/riscv.hpp ****     static void popSppSpie();
  19:src/../h/riscv.hpp **** 
  20:src/../h/riscv.hpp ****     static uint64 r_scause();
  21:src/../h/riscv.hpp ****     static void w_scause(uint64 scause);
  22:src/../h/riscv.hpp ****     static uint64 r_sepc();
  23:src/../h/riscv.hpp ****     static void w_sepc(uint64 sepc);
  24:src/../h/riscv.hpp ****     static uint64 r_stvec();
  25:src/../h/riscv.hpp ****     static void w_stvec(uint64 stvec);
  26:src/../h/riscv.hpp ****     static uint64 r_stval();
  27:src/../h/riscv.hpp ****     static void w_stval(uint64 stval);
  28:src/../h/riscv.hpp **** 
  29:src/../h/riscv.hpp ****     enum BitMaskSStatus{
  30:src/../h/riscv.hpp ****         SSTATUS_SIE=(1<<1),
  31:src/../h/riscv.hpp ****         SSTATUS_SPIE=(1<<5),
  32:src/../h/riscv.hpp ****         SSTATUS_SPP=(1<<8)
  33:src/../h/riscv.hpp ****     };
  34:src/../h/riscv.hpp **** 
  35:src/../h/riscv.hpp ****     static void ms_sstatus(uint64 mask);
  36:src/../h/riscv.hpp ****     static void mc_sstatus(uint64 mask);
  37:src/../h/riscv.hpp ****     static uint64 r_sstatus();
  38:src/../h/riscv.hpp ****     static void w_sstatus(uint64 sstatus);
  39:src/../h/riscv.hpp **** 
  40:src/../h/riscv.hpp **** 
  41:src/../h/riscv.hpp ****     enum BitMaskSip{
  42:src/../h/riscv.hpp ****         SIP_SSIP=(1<<1),//software interrupt pending
  43:src/../h/riscv.hpp ****         SIP_STIP=(1 << 5),
  44:src/../h/riscv.hpp ****         SIP_SEIP=(1 << 9)
  45:src/../h/riscv.hpp ****     };
  46:src/../h/riscv.hpp **** 
  47:src/../h/riscv.hpp ****     static void ms_sip(uint64 mask);
  48:src/../h/riscv.hpp ****     static void mc_sip(uint64 mask);
  49:src/../h/riscv.hpp ****     static uint64 r_sip();
GAS LISTING /tmp/ccxkiTJ6.s 			page 4


  50:src/../h/riscv.hpp ****     static void w_sip(uint64 sip);
  51:src/../h/riscv.hpp **** 
  52:src/../h/riscv.hpp ****     static void supervisorTrap();
  53:src/../h/riscv.hpp **** 
  54:src/../h/riscv.hpp ****     struct SleepingElem{
  55:src/../h/riscv.hpp ****         TCB* thr;
  56:src/../h/riscv.hpp ****         time_t toSleepRel;
  57:src/../h/riscv.hpp ****         SleepingElem* next;
  58:src/../h/riscv.hpp ****     };
  59:src/../h/riscv.hpp **** 
  60:src/../h/riscv.hpp ****     static int putToSleep(time_t);
  61:src/../h/riscv.hpp ****     static void updateSleepingList();
  62:src/../h/riscv.hpp **** 
  63:src/../h/riscv.hpp **** private:
  64:src/../h/riscv.hpp **** 
  65:src/../h/riscv.hpp ****     static void handleEcallException();
  66:src/../h/riscv.hpp ****     static void timerInterrupt();
  67:src/../h/riscv.hpp ****     static void hardwareInterrupt();
  68:src/../h/riscv.hpp **** 
  69:src/../h/riscv.hpp ****     static SleepingElem* headSleeping;
  70:src/../h/riscv.hpp **** 
  71:src/../h/riscv.hpp **** };
  72:src/../h/riscv.hpp **** 
  73:src/../h/riscv.hpp **** inline uint64 Riscv::r_scause() {
  74:src/../h/riscv.hpp ****     uint64 volatile scause;
  75:src/../h/riscv.hpp ****     __asm__ volatile("csrr %[scause], scause":[scause]"=r"(scause));
  76:src/../h/riscv.hpp ****     return scause;
  77:src/../h/riscv.hpp **** }
  78:src/../h/riscv.hpp **** inline void Riscv::w_scause(uint64 scause) {
  79:src/../h/riscv.hpp ****     __asm__ volatile("csrw scause, %[scause]"::[scause]"r"(scause));
  80:src/../h/riscv.hpp **** }
  81:src/../h/riscv.hpp **** 
  82:src/../h/riscv.hpp **** inline uint64 Riscv::r_sepc(){
  83:src/../h/riscv.hpp ****     uint64 volatile sepc;
  84:src/../h/riscv.hpp ****     __asm__ volatile("csrr %[sepc], sepc":[sepc]"=r"(sepc));
  85:src/../h/riscv.hpp ****     return sepc;
  86:src/../h/riscv.hpp **** }
  87:src/../h/riscv.hpp **** inline void Riscv::w_sepc(uint64 sepc) {
  88:src/../h/riscv.hpp ****     __asm__ volatile("csrw sepc, %[sepc]"::[sepc]"r"(sepc));
  89:src/../h/riscv.hpp **** }
  90:src/../h/riscv.hpp **** inline uint64 Riscv::r_stvec(){
  91:src/../h/riscv.hpp ****     uint64 volatile stvec;
  92:src/../h/riscv.hpp ****     __asm__ volatile("csrr %[stvec], stvec":[stvec]"=r"(stvec));
  93:src/../h/riscv.hpp ****     return stvec;
  94:src/../h/riscv.hpp **** }
  95:src/../h/riscv.hpp **** inline void Riscv::w_stvec(uint64 stvec) {
  96:src/../h/riscv.hpp ****     __asm__ volatile("csrw stvec, %[stvec]"::[stvec]"r"(stvec));
 100              		.loc 2 96 5 is_stmt 1
 101              		.loc 2 96 64 is_stmt 0
 102              	#APP
 103              	# 96 "src/../h/riscv.hpp" 1
  97              	}
 104              		csrw stvec, a5
 105              	# 0 "" 2
 106              	.LVL6:
 107              	#NO_APP
 108              	.LBE11:
GAS LISTING /tmp/ccxkiTJ6.s 			page 5


 109              	.LBE10:
  25:src/main.cpp  **** 
  26:src/main.cpp  ****     _console::inputBuff=new BoundedBuffer();
 110              		.loc 1 26 5 is_stmt 1
 111              		.loc 1 26 43 is_stmt 0
 112 0074 13050002 		li	a0,32
 113 0078 97000000 		call	_Znwm@plt
 113      E7800000 
 114              	.LVL7:
 115              	.LEHE0:
 116 0080 93040500 		mv	s1,a0
 117              	.LEHB1:
 118 0084 97000000 		call	_ZN13BoundedBufferC1Ev@plt
 118      E7800000 
 119              	.LVL8:
 120              	.LEHE1:
 121              		.loc 1 26 24
 122 008c 97070000 		la	a5,_ZN8_console9inputBuffE
 122      83B70700 
 123 0094 23B09700 		sd	s1,0(a5)
  27:src/main.cpp  ****     _console::outputBuff=new BoundedBuffer();
 124              		.loc 1 27 5 is_stmt 1
 125              		.loc 1 27 44 is_stmt 0
 126 0098 13050002 		li	a0,32
 127              	.LEHB2:
 128 009c 97000000 		call	_Znwm@plt
 128      E7800000 
 129              	.LVL9:
 130              	.LEHE2:
 131 00a4 93040500 		mv	s1,a0
 132              	.LEHB3:
 133 00a8 97000000 		call	_ZN13BoundedBufferC1Ev@plt
 133      E7800000 
 134              	.LVL10:
 135              	.LEHE3:
 136              		.loc 1 27 25
 137 00b0 97070000 		la	a5,_ZN8_console10outputBuffE
 137      83B70700 
 138 00b8 23B09700 		sd	s1,0(a5)
  28:src/main.cpp  **** 
  29:src/main.cpp  **** 
  30:src/main.cpp  ****     TCB::newThrUserMode=false;
 139              		.loc 1 30 5 is_stmt 1
 140              		.loc 1 30 24 is_stmt 0
 141 00bc 97040000 		la	s1,_ZN3TCB14newThrUserModeE
 141      83B40400 
 142 00c4 23800400 		sb	zero,0(s1)
  31:src/main.cpp  ****     TCB* handleMain;
 143              		.loc 1 31 5 is_stmt 1
  32:src/main.cpp  ****     thread_create(&handleMain, nullptr, nullptr);
 144              		.loc 1 32 5
 145              		.loc 1 32 18 is_stmt 0
 146 00c8 13060000 		li	a2,0
 147 00cc 93050000 		li	a1,0
 148 00d0 130584FD 		addi	a0,s0,-40
 149              	.LEHB4:
 150 00d4 97000000 		call	_Z13thread_createPP3TCBPFvPvES2_@plt
GAS LISTING /tmp/ccxkiTJ6.s 			page 6


 150      E7800000 
 151              	.LVL11:
  33:src/main.cpp  ****     TCB::running=handleMain;
 152              		.loc 1 33 5 is_stmt 1
 153              		.loc 1 33 17 is_stmt 0
 154 00dc 97070000 		la	a5,_ZN3TCB7runningE
 154      83B70700 
 155 00e4 033784FD 		ld	a4,-40(s0)
 156 00e8 23B0E700 		sd	a4,0(a5)
  34:src/main.cpp  **** 
  35:src/main.cpp  ****     TCB* handleIdle;
 157              		.loc 1 35 5 is_stmt 1
  36:src/main.cpp  ****     thread_create(&handleIdle, idleThread, nullptr);
 158              		.loc 1 36 5
 159              		.loc 1 36 18 is_stmt 0
 160 00ec 13060000 		li	a2,0
 161 00f0 97050000 		lla	a1,_Z10idleThreadPv
 161      93850500 
 162 00f8 130504FD 		addi	a0,s0,-48
 163 00fc 97000000 		call	_Z13thread_createPP3TCBPFvPvES2_@plt
 163      E7800000 
 164              	.LVL12:
  37:src/main.cpp  **** 
  38:src/main.cpp  ****     TCB* handleConsumerConsole;
 165              		.loc 1 38 5 is_stmt 1
  39:src/main.cpp  ****     thread_create(&handleConsumerConsole, _console::consumerConsole,nullptr);
 166              		.loc 1 39 5
 167              		.loc 1 39 18 is_stmt 0
 168 0104 13060000 		li	a2,0
 169 0108 97050000 		la	a1,_ZN8_console15consumerConsoleEPv
 169      83B50500 
 170 0110 130584FC 		addi	a0,s0,-56
 171 0114 97000000 		call	_Z13thread_createPP3TCBPFvPvES2_@plt
 171      E7800000 
 172              	.LVL13:
  40:src/main.cpp  **** 
  41:src/main.cpp  ****     thread_dispatch();
 173              		.loc 1 41 5 is_stmt 1
 174              		.loc 1 41 20 is_stmt 0
 175 011c 97000000 		call	_Z15thread_dispatchv@plt
 175      E7800000 
 176              	.LVL14:
  42:src/main.cpp  **** 
  43:src/main.cpp  ****     TCB::newThrUserMode=true;
 177              		.loc 1 43 5 is_stmt 1
 178              		.loc 1 43 24 is_stmt 0
 179 0124 93071000 		li	a5,1
 180 0128 2380F400 		sb	a5,0(s1)
  44:src/main.cpp  ****     TCB* handleUserMain;
 181              		.loc 1 44 5 is_stmt 1
  45:src/main.cpp  ****     thread_create(&handleUserMain, userMainWrapper, nullptr);
 182              		.loc 1 45 5
 183              		.loc 1 45 18 is_stmt 0
 184 012c 13060000 		li	a2,0
 185 0130 97050000 		lla	a1,_Z15userMainWrapperPv
 185      93850500 
 186 0138 130504FC 		addi	a0,s0,-64
GAS LISTING /tmp/ccxkiTJ6.s 			page 7


 187 013c 97000000 		call	_Z13thread_createPP3TCBPFvPvES2_@plt
 187      E7800000 
 188              	.LVL15:
  46:src/main.cpp  **** 
  47:src/main.cpp  ****     Riscv::ms_sstatus(Riscv::SSTATUS_SIE);//dozvoljavanje prekida
 189              		.loc 1 47 5 is_stmt 1
 190              	.LBB12:
 191              	.LBB13:
  98:src/../h/riscv.hpp **** inline uint64 Riscv::r_stval(){
  99:src/../h/riscv.hpp ****     uint64 volatile stval;
 100:src/../h/riscv.hpp ****     __asm__ volatile("csrr %[stval], stval":[stval]"=r"(stval));
 101:src/../h/riscv.hpp ****     return stval;
 102:src/../h/riscv.hpp **** }
 103:src/../h/riscv.hpp **** inline void Riscv::w_stval(uint64 stval) {
 104:src/../h/riscv.hpp ****     __asm__ volatile("csrw stval, %[stval]"::[stval]"r"(stval));
 105:src/../h/riscv.hpp **** }
 106:src/../h/riscv.hpp **** 
 107:src/../h/riscv.hpp **** inline void Riscv::ms_sip(uint64 mask) {
 108:src/../h/riscv.hpp ****     __asm__ volatile("csrs sip, %[mask]"::[mask]"r"(mask));
 109:src/../h/riscv.hpp **** }
 110:src/../h/riscv.hpp **** inline void Riscv::mc_sip(uint64 mask) {
 111:src/../h/riscv.hpp ****     __asm__ volatile("csrc sip, %[mask]"::[mask]"r"(mask));
 112:src/../h/riscv.hpp **** }
 113:src/../h/riscv.hpp **** 
 114:src/../h/riscv.hpp **** 
 115:src/../h/riscv.hpp **** inline uint64 Riscv::r_sip(){
 116:src/../h/riscv.hpp ****     uint64 volatile sip;
 117:src/../h/riscv.hpp ****     __asm__ volatile("csrr %[sip], sip":[sip]"=r"(sip));
 118:src/../h/riscv.hpp ****     return sip;
 119:src/../h/riscv.hpp **** }
 120:src/../h/riscv.hpp **** inline void Riscv::w_sip(uint64 sip) {
 121:src/../h/riscv.hpp ****     __asm__ volatile("csrw sip, %[sip]"::[sip]"r"(sip));
 122:src/../h/riscv.hpp **** }
 123:src/../h/riscv.hpp **** 
 124:src/../h/riscv.hpp **** inline void Riscv::ms_sstatus(uint64 mask) {
 125:src/../h/riscv.hpp ****     __asm__ volatile("csrs sstatus, %[mask]"::[mask]"r"(mask));
 192              		.loc 2 125 5
 193              		.loc 2 125 63 is_stmt 0
 194 0144 93072000 		li	a5,2
 195              	#APP
 196              	# 125 "src/../h/riscv.hpp" 1
 126              	}
 197              		csrs sstatus, a5
 198              	# 0 "" 2
 199              	.LVL16:
 200              	#NO_APP
 201              	.L8:
 202              	.LBE13:
 203              	.LBE12:
  48:src/main.cpp  **** 
  49:src/main.cpp  ****     while (!handleUserMain->isFinished()){
 204              		.loc 1 49 5 is_stmt 1
 205              		.loc 1 49 12
 206              		.loc 1 49 39 is_stmt 0
 207 014c 833704FC 		ld	a5,-64(s0)
 208              	.LVL17:
 209              	.LBB14:
GAS LISTING /tmp/ccxkiTJ6.s 			page 8


 210              	.LBB15:
 211              		.file 3 "src/../h/../h/TCB.hpp"
   1:src/../h/../h/TCB.hpp **** //
   2:src/../h/../h/TCB.hpp **** // Created by os on 7/18/23.
   3:src/../h/../h/TCB.hpp **** //
   4:src/../h/../h/TCB.hpp **** 
   5:src/../h/../h/TCB.hpp **** //sa vezbi 7
   6:src/../h/../h/TCB.hpp **** 
   7:src/../h/../h/TCB.hpp **** #ifndef PROJECT_BASE_TCB_HPP
   8:src/../h/../h/TCB.hpp **** #define PROJECT_BASE_TCB_HPP
   9:src/../h/../h/TCB.hpp **** 
  10:src/../h/../h/TCB.hpp **** #include "../lib/hw.h"
  11:src/../h/../h/TCB.hpp **** 
  12:src/../h/../h/TCB.hpp **** class TCB{
  13:src/../h/../h/TCB.hpp **** public:
  14:src/../h/../h/TCB.hpp ****     virtual ~TCB();
  15:src/../h/../h/TCB.hpp **** 
  16:src/../h/../h/TCB.hpp ****     bool isBlocked() const {
  17:src/../h/../h/TCB.hpp ****         return blocked;
  18:src/../h/../h/TCB.hpp ****     }
  19:src/../h/../h/TCB.hpp **** 
  20:src/../h/../h/TCB.hpp ****     void setBlocked(bool blocked) {
  21:src/../h/../h/TCB.hpp ****         TCB::blocked = blocked;
  22:src/../h/../h/TCB.hpp ****     }
  23:src/../h/../h/TCB.hpp **** 
  24:src/../h/../h/TCB.hpp ****     bool isFinished() const{
  25:src/../h/../h/TCB.hpp ****         return finished;
 212              		.loc 3 25 9 is_stmt 1
 213              		.loc 3 25 16 is_stmt 0
 214 0150 83C70703 		lbu	a5,48(a5)
 215              	.LVL18:
 216              	.LBE15:
 217              	.LBE14:
 218              		.loc 1 49 12
 219 0154 63980700 		bnez	a5,.L7
  50:src/main.cpp  ****         thread_dispatch();
 220              		.loc 1 50 9 is_stmt 1
 221              		.loc 1 50 24 is_stmt 0
 222 0158 97000000 		call	_Z15thread_dispatchv@plt
 222      E7800000 
 223              	.LVL19:
 224 0160 6FF0DFFE 		j	.L8
 225              	.L7:
  51:src/main.cpp  ****     }
  52:src/main.cpp  **** 
  53:src/main.cpp  **** 
  54:src/main.cpp  ****     thread_dispatch();//da nit za ispis na konzolu odradi pre returna
 226              		.loc 1 54 5 is_stmt 1
 227              		.loc 1 54 20 is_stmt 0
 228 0164 97000000 		call	_Z15thread_dispatchv@plt
 228      E7800000 
 229              	.LVL20:
  55:src/main.cpp  **** 
  56:src/main.cpp  ****     delete handleUserMain;
 230              		.loc 1 56 5 is_stmt 1
 231              		.loc 1 56 12 is_stmt 0
 232 016c 033504FC 		ld	a0,-64(s0)
GAS LISTING /tmp/ccxkiTJ6.s 			page 9


 233              		.loc 1 56 26
 234 0170 63080500 		beqz	a0,.L9
 235              		.loc 1 56 12 discriminator 1
 236 0174 83370500 		ld	a5,0(a0)
 237 0178 83B78700 		ld	a5,8(a5)
 238 017c E7800700 		jalr	a5
 239              	.LVL21:
 240              	.L9:
  57:src/main.cpp  ****     delete handleIdle;
 241              		.loc 1 57 5 is_stmt 1
 242              		.loc 1 57 12 is_stmt 0
 243 0180 033504FD 		ld	a0,-48(s0)
 244              		.loc 1 57 22
 245 0184 63080500 		beqz	a0,.L10
 246              		.loc 1 57 12 discriminator 1
 247 0188 83370500 		ld	a5,0(a0)
 248 018c 83B78700 		ld	a5,8(a5)
 249 0190 E7800700 		jalr	a5
 250              	.LVL22:
 251              	.L10:
  58:src/main.cpp  ****     delete handleMain;
 252              		.loc 1 58 5 is_stmt 1
 253              		.loc 1 58 12 is_stmt 0
 254 0194 033584FD 		ld	a0,-40(s0)
 255              		.loc 1 58 22
 256 0198 63080500 		beqz	a0,.L11
 257              		.loc 1 58 12 discriminator 1
 258 019c 83370500 		ld	a5,0(a0)
 259 01a0 83B78700 		ld	a5,8(a5)
 260 01a4 E7800700 		jalr	a5
 261              	.LVL23:
 262              	.L11:
  59:src/main.cpp  ****     delete handleConsumerConsole;
 263              		.loc 1 59 5 is_stmt 1
 264              		.loc 1 59 12 is_stmt 0
 265 01a8 033584FC 		ld	a0,-56(s0)
 266              		.loc 1 59 33
 267 01ac 63080500 		beqz	a0,.L12
 268              		.loc 1 59 12 discriminator 1
 269 01b0 83370500 		ld	a5,0(a0)
 270 01b4 83B78700 		ld	a5,8(a5)
 271 01b8 E7800700 		jalr	a5
 272              	.LVL24:
 273              	.L12:
  60:src/main.cpp  **** 
  61:src/main.cpp  **** 
  62:src/main.cpp  ****     delete _console::inputBuff;
 274              		.loc 1 62 5 is_stmt 1
 275              		.loc 1 62 22 is_stmt 0
 276 01bc 97070000 		la	a5,_ZN8_console9inputBuffE
 276      83B70700 
 277 01c4 83B40700 		ld	s1,0(a5)
 278              		.loc 1 62 31
 279 01c8 638E0400 		beqz	s1,.L13
 280              		.loc 1 62 22 discriminator 1
 281 01cc 13850400 		mv	a0,s1
 282 01d0 97000000 		call	_ZN13BoundedBufferD1Ev@plt
GAS LISTING /tmp/ccxkiTJ6.s 			page 10


 282      E7800000 
 283              	.LVL25:
 284 01d8 13850400 		mv	a0,s1
 285 01dc 97000000 		call	_ZdlPv@plt
 285      E7800000 
 286              	.LVL26:
 287              	.L13:
  63:src/main.cpp  ****     delete _console::outputBuff;
 288              		.loc 1 63 5 is_stmt 1
 289              		.loc 1 63 22 is_stmt 0
 290 01e4 97070000 		la	a5,_ZN8_console10outputBuffE
 290      83B70700 
 291 01ec 83B40700 		ld	s1,0(a5)
 292              		.loc 1 63 32
 293 01f0 638E0400 		beqz	s1,.L14
 294              		.loc 1 63 22 discriminator 1
 295 01f4 13850400 		mv	a0,s1
 296 01f8 97000000 		call	_ZN13BoundedBufferD1Ev@plt
 296      E7800000 
 297              	.LVL27:
 298 0200 13850400 		mv	a0,s1
 299 0204 97000000 		call	_ZdlPv@plt
 299      E7800000 
 300              	.LVL28:
 301              	.L14:
  64:src/main.cpp  **** 
  65:src/main.cpp  **** 
  66:src/main.cpp  ****     /*Scheduler::get();
  67:src/main.cpp  ****     Scheduler::get();*/
  68:src/main.cpp  **** 
  69:src/main.cpp  ****     Riscv::mc_sstatus(Riscv::BitMaskSStatus::SSTATUS_SIE);
 302              		.loc 1 69 5 is_stmt 1
 303              	.LBB16:
 304              	.LBB17:
 127:src/../h/riscv.hpp **** 
 128:src/../h/riscv.hpp **** inline uint64 Riscv::r_sstatus(){
 129:src/../h/riscv.hpp ****     uint64 volatile sstatus;
 130:src/../h/riscv.hpp ****     __asm__ volatile("csrr %[sstatus], sstatus":[sstatus]"=r"(sstatus));
 131:src/../h/riscv.hpp ****     return sstatus;
 132:src/../h/riscv.hpp **** }
 133:src/../h/riscv.hpp **** inline void Riscv::w_sstatus(uint64 sstatus) {
 134:src/../h/riscv.hpp ****     __asm__ volatile("csrw sstatus, %[sstatus]"::[sstatus]"r"(sstatus));
 135:src/../h/riscv.hpp **** }
 136:src/../h/riscv.hpp **** 
 137:src/../h/riscv.hpp **** inline void Riscv::mc_sstatus(uint64 mask) {
 138:src/../h/riscv.hpp ****     __asm__ volatile("csrc sstatus, %[mask]"::[mask]"r"(mask));
 305              		.loc 2 138 5
 306              		.loc 2 138 63 is_stmt 0
 307 020c 93072000 		li	a5,2
 308              	#APP
 309              	# 138 "src/../h/riscv.hpp" 1
 139              	}
 310              		csrc sstatus, a5
 311              	# 0 "" 2
 312              	.LVL29:
 313              	#NO_APP
 314              	.LBE17:
GAS LISTING /tmp/ccxkiTJ6.s 			page 11


 315              	.LBE16:
  70:src/main.cpp  ****     return 0;
 316              		.loc 1 70 5 is_stmt 1
  71:src/main.cpp  **** }...
 317              		.loc 1 71 1 is_stmt 0
 318 0214 13050000 		li	a0,0
 319 0218 83308103 		ld	ra,56(sp)
 320              		.cfi_remember_state
 321              		.cfi_restore 1
 322 021c 03340103 		ld	s0,48(sp)
 323              		.cfi_restore 8
 324              		.cfi_def_cfa 2, 64
 325 0220 83348102 		ld	s1,40(sp)
 326              		.cfi_restore 9
 327 0224 03390102 		ld	s2,32(sp)
 328              		.cfi_restore 18
 329 0228 13010104 		addi	sp,sp,64
 330              		.cfi_def_cfa_offset 0
 331 022c 67800000 		jr	ra
 332              	.L17:
 333              		.cfi_restore_state
 334 0230 13090500 		mv	s2,a0
  26:src/main.cpp  ****     _console::inputBuff=new BoundedBuffer();
 335              		.loc 1 26 43
 336 0234 13850400 		mv	a0,s1
 337 0238 97000000 		call	_ZdlPv@plt
 337      E7800000 
 338              	.LVL30:
 339 0240 13050900 		mv	a0,s2
 340 0244 97000000 		call	_Unwind_Resume@plt
 340      E7800000 
 341              	.LVL31:
 342              	.L18:
 343 024c 13090500 		mv	s2,a0
  27:src/main.cpp  ****     _console::outputBuff=new BoundedBuffer();
 344              		.loc 1 27 44
 345 0250 13850400 		mv	a0,s1
 346 0254 97000000 		call	_ZdlPv@plt
 346      E7800000 
 347              	.LVL32:
 348 025c 13050900 		mv	a0,s2
 349 0260 97000000 		call	_Unwind_Resume@plt
 349      E7800000 
 350              	.LVL33:
 351              	.LEHE4:
 352              		.cfi_endproc
 353              	.LFE36:
 354              		.globl	__gxx_personality_v0
 355              		.section	.gcc_except_table,"a",@progbits
 356              	.LLSDA36:
 357 0000 FF       		.byte	0xff
 358 0001 FF       		.byte	0xff
 359 0002 03       		.byte	0x3
 360 0003 41       		.byte	0x41
 361 0004 00000000 		.4byte	.LEHB0-.LFB36
 362 0008 00000000 		.4byte	.LEHE0-.LEHB0
 363 000c 00000000 		.4byte	0
GAS LISTING /tmp/ccxkiTJ6.s 			page 12


 364 0010 00       		.byte	0
 365 0011 00000000 		.4byte	.LEHB1-.LFB36
 366 0015 00000000 		.4byte	.LEHE1-.LEHB1
 367 0019 00000000 		.4byte	.L17-.LFB36
 368 001d 00       		.byte	0
 369 001e 00000000 		.4byte	.LEHB2-.LFB36
 370 0022 00000000 		.4byte	.LEHE2-.LEHB2
 371 0026 00000000 		.4byte	0
 372 002a 00       		.byte	0
 373 002b 00000000 		.4byte	.LEHB3-.LFB36
 374 002f 00000000 		.4byte	.LEHE3-.LEHB3
 375 0033 00000000 		.4byte	.L18-.LFB36
 376 0037 00       		.byte	0
 377 0038 00000000 		.4byte	.LEHB4-.LFB36
 378 003c 00000000 		.4byte	.LEHE4-.LEHB4
 379 0040 00000000 		.4byte	0
 380 0044 00       		.byte	0
 381              		.text
 383              	.Letext0:
 384              		.file 4 "src/../h/../lib/hw.h"
 385              		.file 5 "src/../h/MemoryAllocator.hpp"
 386              		.file 6 "src/../h/_console.hpp"
 387              		.file 7 "src/../h/syscall_c.hpp"
 2465              		.align	3
 2468              	DW.ref.__gxx_personality_v0:
 2469 0000 00000000 		.dword	__gxx_personality_v0
 2469      00000000 
 2470              		.ident	"GCC: (Ubuntu 9.4.0-1ubuntu1~20.04) 9.4.0"
 2471              		.section	.note.GNU-stack,"",@progbits
GAS LISTING /tmp/ccxkiTJ6.s 			page 13


DEFINED SYMBOLS
                            *ABS*:0000000000000000 main.cpp
     /tmp/ccxkiTJ6.s:9      .text:0000000000000000 _Z10idleThreadPv
     /tmp/ccxkiTJ6.s:13     .text:0000000000000000 .L0 
     /tmp/ccxkiTJ6.s:15     .text:0000000000000000 .L0 
     /tmp/ccxkiTJ6.s:16     .text:0000000000000004 .L0 
     /tmp/ccxkiTJ6.s:19     .text:000000000000000c .L0 
     /tmp/ccxkiTJ6.s:20     .text:000000000000000c .L0 
     /tmp/ccxkiTJ6.s:22     .text:0000000000000010 .L0 
     /tmp/ccxkiTJ6.s:26     .text:0000000000000010 .L0 
     /tmp/ccxkiTJ6.s:27     .text:0000000000000010 .L0 
     /tmp/ccxkiTJ6.s:28     .text:0000000000000010 .L0 
     /tmp/ccxkiTJ6.s:31     .text:0000000000000018 .L0 
     /tmp/ccxkiTJ6.s:32     .text:000000000000001c .L0 
     /tmp/ccxkiTJ6.s:38     .text:000000000000001c _Z15userMainWrapperPv
     /tmp/ccxkiTJ6.s:41     .text:000000000000001c .L0 
     /tmp/ccxkiTJ6.s:42     .text:000000000000001c .L0 
     /tmp/ccxkiTJ6.s:43     .text:0000000000000020 .L0 
     /tmp/ccxkiTJ6.s:46     .text:0000000000000028 .L0 
     /tmp/ccxkiTJ6.s:47     .text:0000000000000028 .L0 
     /tmp/ccxkiTJ6.s:49     .text:000000000000002c .L0 
     /tmp/ccxkiTJ6.s:51     .text:000000000000002c .L0 
     /tmp/ccxkiTJ6.s:52     .text:000000000000002c .L0 
     /tmp/ccxkiTJ6.s:55     .text:0000000000000034 .L0 
     /tmp/ccxkiTJ6.s:56     .text:0000000000000038 .L0 
     /tmp/ccxkiTJ6.s:58     .text:000000000000003c .L0 
     /tmp/ccxkiTJ6.s:59     .text:000000000000003c .L0 
     /tmp/ccxkiTJ6.s:61     .text:0000000000000040 .L0 
     /tmp/ccxkiTJ6.s:63     .text:0000000000000044 .L0 
     /tmp/ccxkiTJ6.s:69     .text:0000000000000044 main
     /tmp/ccxkiTJ6.s:72     .text:0000000000000044 .L0 
     /tmp/ccxkiTJ6.s:2468   .data.rel.local.DW.ref.__gxx_personality_v0:0000000000000000 DW.ref.__gxx_personality_v0
     /tmp/ccxkiTJ6.s:75     .text:0000000000000044 .L0 
     /tmp/ccxkiTJ6.s:76     .text:0000000000000048 .L0 
     /tmp/ccxkiTJ6.s:81     .text:0000000000000058 .L0 
     /tmp/ccxkiTJ6.s:82     .text:0000000000000058 .L0 
     /tmp/ccxkiTJ6.s:83     .text:0000000000000058 .L0 
     /tmp/ccxkiTJ6.s:84     .text:0000000000000058 .L0 
     /tmp/ccxkiTJ6.s:86     .text:000000000000005c .L0 
     /tmp/ccxkiTJ6.s:89     .text:000000000000005c .L0 
     /tmp/ccxkiTJ6.s:90     .text:000000000000005c .L0 
     /tmp/ccxkiTJ6.s:93     .text:0000000000000064 .L0 
     /tmp/ccxkiTJ6.s:94     .text:0000000000000064 .L0 
     /tmp/ccxkiTJ6.s:101    .text:0000000000000070 .L0 
  src/../h/riscv.hpp:96     .text:0000000000000070 .L0 
     /tmp/ccxkiTJ6.s:111    .text:0000000000000074 .L0 
     /tmp/ccxkiTJ6.s:112    .text:0000000000000074 .L0 
     /tmp/ccxkiTJ6.s:122    .text:000000000000008c .L0 
     /tmp/ccxkiTJ6.s:125    .text:0000000000000098 .L0 
     /tmp/ccxkiTJ6.s:126    .text:0000000000000098 .L0 
     /tmp/ccxkiTJ6.s:137    .text:00000000000000b0 .L0 
     /tmp/ccxkiTJ6.s:140    .text:00000000000000bc .L0 
     /tmp/ccxkiTJ6.s:141    .text:00000000000000bc .L0 
     /tmp/ccxkiTJ6.s:144    .text:00000000000000c8 .L0 
     /tmp/ccxkiTJ6.s:145    .text:00000000000000c8 .L0 
     /tmp/ccxkiTJ6.s:146    .text:00000000000000c8 .L0 
     /tmp/ccxkiTJ6.s:153    .text:00000000000000dc .L0 
GAS LISTING /tmp/ccxkiTJ6.s 			page 14


     /tmp/ccxkiTJ6.s:154    .text:00000000000000dc .L0 
     /tmp/ccxkiTJ6.s:158    .text:00000000000000ec .L0 
     /tmp/ccxkiTJ6.s:159    .text:00000000000000ec .L0 
     /tmp/ccxkiTJ6.s:160    .text:00000000000000ec .L0 
     /tmp/ccxkiTJ6.s:166    .text:0000000000000104 .L0 
     /tmp/ccxkiTJ6.s:167    .text:0000000000000104 .L0 
     /tmp/ccxkiTJ6.s:168    .text:0000000000000104 .L0 
     /tmp/ccxkiTJ6.s:174    .text:000000000000011c .L0 
     /tmp/ccxkiTJ6.s:175    .text:000000000000011c .L0 
     /tmp/ccxkiTJ6.s:178    .text:0000000000000124 .L0 
     /tmp/ccxkiTJ6.s:179    .text:0000000000000124 .L0 
     /tmp/ccxkiTJ6.s:182    .text:000000000000012c .L0 
     /tmp/ccxkiTJ6.s:183    .text:000000000000012c .L0 
     /tmp/ccxkiTJ6.s:184    .text:000000000000012c .L0 
     /tmp/ccxkiTJ6.s:192    .text:0000000000000144 .L0 
     /tmp/ccxkiTJ6.s:193    .text:0000000000000144 .L0 
     /tmp/ccxkiTJ6.s:194    .text:0000000000000144 .L0 
     /tmp/ccxkiTJ6.s:205    .text:000000000000014c .L0 
     /tmp/ccxkiTJ6.s:206    .text:000000000000014c .L0 
     /tmp/ccxkiTJ6.s:207    .text:000000000000014c .L0 
     /tmp/ccxkiTJ6.s:213    .text:0000000000000150 .L0 
     /tmp/ccxkiTJ6.s:214    .text:0000000000000150 .L0 
     /tmp/ccxkiTJ6.s:219    .text:0000000000000154 .L0 
     /tmp/ccxkiTJ6.s:221    .text:0000000000000158 .L0 
     /tmp/ccxkiTJ6.s:222    .text:0000000000000158 .L0 
     /tmp/ccxkiTJ6.s:227    .text:0000000000000164 .L0 
     /tmp/ccxkiTJ6.s:228    .text:0000000000000164 .L0 
     /tmp/ccxkiTJ6.s:231    .text:000000000000016c .L0 
     /tmp/ccxkiTJ6.s:232    .text:000000000000016c .L0 
     /tmp/ccxkiTJ6.s:234    .text:0000000000000170 .L0 
     /tmp/ccxkiTJ6.s:236    .text:0000000000000174 .L0 
     /tmp/ccxkiTJ6.s:242    .text:0000000000000180 .L0 
     /tmp/ccxkiTJ6.s:243    .text:0000000000000180 .L0 
     /tmp/ccxkiTJ6.s:245    .text:0000000000000184 .L0 
     /tmp/ccxkiTJ6.s:247    .text:0000000000000188 .L0 
     /tmp/ccxkiTJ6.s:253    .text:0000000000000194 .L0 
     /tmp/ccxkiTJ6.s:254    .text:0000000000000194 .L0 
     /tmp/ccxkiTJ6.s:256    .text:0000000000000198 .L0 
     /tmp/ccxkiTJ6.s:258    .text:000000000000019c .L0 
     /tmp/ccxkiTJ6.s:264    .text:00000000000001a8 .L0 
     /tmp/ccxkiTJ6.s:265    .text:00000000000001a8 .L0 
     /tmp/ccxkiTJ6.s:267    .text:00000000000001ac .L0 
     /tmp/ccxkiTJ6.s:269    .text:00000000000001b0 .L0 
     /tmp/ccxkiTJ6.s:275    .text:00000000000001bc .L0 
     /tmp/ccxkiTJ6.s:276    .text:00000000000001bc .L0 
     /tmp/ccxkiTJ6.s:279    .text:00000000000001c8 .L0 
     /tmp/ccxkiTJ6.s:281    .text:00000000000001cc .L0 
     /tmp/ccxkiTJ6.s:289    .text:00000000000001e4 .L0 
     /tmp/ccxkiTJ6.s:290    .text:00000000000001e4 .L0 
     /tmp/ccxkiTJ6.s:293    .text:00000000000001f0 .L0 
     /tmp/ccxkiTJ6.s:295    .text:00000000000001f4 .L0 
     /tmp/ccxkiTJ6.s:305    .text:000000000000020c .L0 
     /tmp/ccxkiTJ6.s:306    .text:000000000000020c .L0 
     /tmp/ccxkiTJ6.s:307    .text:000000000000020c .L0 
     /tmp/ccxkiTJ6.s:317    .text:0000000000000214 .L0 
     /tmp/ccxkiTJ6.s:318    .text:0000000000000214 .L0 
     /tmp/ccxkiTJ6.s:320    .text:000000000000021c .L0 
GAS LISTING /tmp/ccxkiTJ6.s 			page 15


     /tmp/ccxkiTJ6.s:321    .text:000000000000021c .L0 
     /tmp/ccxkiTJ6.s:323    .text:0000000000000220 .L0 
     /tmp/ccxkiTJ6.s:324    .text:0000000000000220 .L0 
     /tmp/ccxkiTJ6.s:326    .text:0000000000000224 .L0 
     /tmp/ccxkiTJ6.s:328    .text:0000000000000228 .L0 
     /tmp/ccxkiTJ6.s:330    .text:000000000000022c .L0 
     /tmp/ccxkiTJ6.s:333    .text:0000000000000230 .L0 
     /tmp/ccxkiTJ6.s:336    .text:0000000000000234 .L0 
     /tmp/ccxkiTJ6.s:345    .text:0000000000000250 .L0 
     /tmp/ccxkiTJ6.s:352    .text:0000000000000268 .L0 
     /tmp/ccxkiTJ6.s:388    .text:0000000000000268 .L0 
     /tmp/ccxkiTJ6.s:94     .text:0000000000000064 .L0 
     /tmp/ccxkiTJ6.s:122    .text:000000000000008c .L0 
     /tmp/ccxkiTJ6.s:137    .text:00000000000000b0 .L0 
     /tmp/ccxkiTJ6.s:141    .text:00000000000000bc .L0 
     /tmp/ccxkiTJ6.s:154    .text:00000000000000dc .L0 
     /tmp/ccxkiTJ6.s:161    .text:00000000000000f0 .L0 
     /tmp/ccxkiTJ6.s:169    .text:0000000000000108 .L0 
     /tmp/ccxkiTJ6.s:185    .text:0000000000000130 .L0 
     /tmp/ccxkiTJ6.s:276    .text:00000000000001bc .L0 
     /tmp/ccxkiTJ6.s:290    .text:00000000000001e4 .L0 
     /tmp/ccxkiTJ6.s:24     .text:0000000000000010 .L2
     /tmp/ccxkiTJ6.s:225    .text:0000000000000164 .L7
     /tmp/ccxkiTJ6.s:201    .text:000000000000014c .L8
     /tmp/ccxkiTJ6.s:240    .text:0000000000000180 .L9
     /tmp/ccxkiTJ6.s:251    .text:0000000000000194 .L10
     /tmp/ccxkiTJ6.s:262    .text:00000000000001a8 .L11
     /tmp/ccxkiTJ6.s:273    .text:00000000000001bc .L12
     /tmp/ccxkiTJ6.s:287    .text:00000000000001e4 .L13
     /tmp/ccxkiTJ6.s:301    .text:000000000000020c .L14
     /tmp/ccxkiTJ6.s:88     .text:000000000000005c .LEHB0
     /tmp/ccxkiTJ6.s:70     .text:0000000000000044 .LFB36
     /tmp/ccxkiTJ6.s:115    .text:0000000000000080 .LEHE0
     /tmp/ccxkiTJ6.s:117    .text:0000000000000084 .LEHB1
     /tmp/ccxkiTJ6.s:120    .text:000000000000008c .LEHE1
     /tmp/ccxkiTJ6.s:332    .text:0000000000000230 .L17
     /tmp/ccxkiTJ6.s:127    .text:000000000000009c .LEHB2
     /tmp/ccxkiTJ6.s:130    .text:00000000000000a4 .LEHE2
     /tmp/ccxkiTJ6.s:132    .text:00000000000000a8 .LEHB3
     /tmp/ccxkiTJ6.s:135    .text:00000000000000b0 .LEHE3
     /tmp/ccxkiTJ6.s:342    .text:000000000000024c .L18
     /tmp/ccxkiTJ6.s:149    .text:00000000000000d4 .LEHB4
     /tmp/ccxkiTJ6.s:351    .text:0000000000000268 .LEHE4
     /tmp/ccxkiTJ6.s:1393   .debug_abbrev:0000000000000000 .Ldebug_abbrev0
     /tmp/ccxkiTJ6.s:2410   .debug_str:000000000000059d .LASF111
     /tmp/ccxkiTJ6.s:2274   .debug_str:0000000000000157 .LASF112
     /tmp/ccxkiTJ6.s:2282   .debug_str:0000000000000186 .LASF113
     /tmp/ccxkiTJ6.s:5      .text:0000000000000000 .Ltext0
     /tmp/ccxkiTJ6.s:383    .text:0000000000000268 .Letext0
     /tmp/ccxkiTJ6.s:2224   .debug_line:0000000000000000 .Ldebug_line0
     /tmp/ccxkiTJ6.s:2298   .debug_str:000000000000021f .LASF0
     /tmp/ccxkiTJ6.s:2314   .debug_str:00000000000002a0 .LASF1
     /tmp/ccxkiTJ6.s:2372   .debug_str:0000000000000489 .LASF2
     /tmp/ccxkiTJ6.s:2378   .debug_str:00000000000004b9 .LASF4
     /tmp/ccxkiTJ6.s:2304   .debug_str:0000000000000246 .LASF3
     /tmp/ccxkiTJ6.s:2228   .debug_str:0000000000000010 .LASF5
     /tmp/ccxkiTJ6.s:2356   .debug_str:0000000000000404 .LASF6
GAS LISTING /tmp/ccxkiTJ6.s 			page 16


     /tmp/ccxkiTJ6.s:2352   .debug_str:00000000000003e8 .LASF7
     /tmp/ccxkiTJ6.s:2308   .debug_str:0000000000000275 .LASF8
     /tmp/ccxkiTJ6.s:2280   .debug_str:0000000000000176 .LASF9
     /tmp/ccxkiTJ6.s:2286   .debug_str:00000000000001c0 .LASF10
     /tmp/ccxkiTJ6.s:2244   .debug_str:0000000000000087 .LASF11
     /tmp/ccxkiTJ6.s:2272   .debug_str:0000000000000148 .LASF12
     /tmp/ccxkiTJ6.s:2250   .debug_str:00000000000000ae .LASF13
     /tmp/ccxkiTJ6.s:2242   .debug_str:0000000000000077 .LASF14
     /tmp/ccxkiTJ6.s:2398   .debug_str:0000000000000559 .LASF15
     /tmp/ccxkiTJ6.s:2264   .debug_str:0000000000000108 .LASF16
     /tmp/ccxkiTJ6.s:2390   .debug_str:000000000000050b .LASF17
     /tmp/ccxkiTJ6.s:2348   .debug_str:00000000000003cb .LASF26
     /tmp/ccxkiTJ6.s:2386   .debug_str:00000000000004e5 .LASF31
     /tmp/ccxkiTJ6.s:2312   .debug_str:000000000000029b .LASF18
     /tmp/ccxkiTJ6.s:2246   .debug_str:0000000000000096 .LASF19
     /tmp/ccxkiTJ6.s:2416   .debug_str:0000000000000680 .LASF20
     /tmp/ccxkiTJ6.s:2360   .debug_str:0000000000000412 .LASF22
     /tmp/ccxkiTJ6.s:2420   .debug_str:000000000000069c .LASF21
     /tmp/ccxkiTJ6.s:2306   .debug_str:0000000000000258 .LASF23
     /tmp/ccxkiTJ6.s:2384   .debug_str:00000000000004da .LASF34
     /tmp/ccxkiTJ6.s:2392   .debug_str:0000000000000521 .LASF36
     /tmp/ccxkiTJ6.s:2364   .debug_str:0000000000000443 .LASF93
     /tmp/ccxkiTJ6.s:2374   .debug_str:0000000000000497 .LASF114
     /tmp/ccxkiTJ6.s:2424   .debug_str:00000000000006aa .LASF115
     /tmp/ccxkiTJ6.s:2332   .debug_str:000000000000032e .LASF82
     /tmp/ccxkiTJ6.s:2402   .debug_str:0000000000000575 .LASF24
     /tmp/ccxkiTJ6.s:2336   .debug_str:000000000000035b .LASF25
     /tmp/ccxkiTJ6.s:2434   .debug_str:00000000000006e7 .LASF27
     /tmp/ccxkiTJ6.s:2448   .debug_str:0000000000000751 .LASF116
     /tmp/ccxkiTJ6.s:2266   .debug_str:000000000000011e .LASF28
     /tmp/ccxkiTJ6.s:2408   .debug_str:0000000000000590 .LASF29
     /tmp/ccxkiTJ6.s:2256   .debug_str:00000000000000cc .LASF30
     /tmp/ccxkiTJ6.s:2350   .debug_str:00000000000003db .LASF32
     /tmp/ccxkiTJ6.s:2440   .debug_str:0000000000000719 .LASF33
     /tmp/ccxkiTJ6.s:2290   .debug_str:00000000000001dd .LASF35
     /tmp/ccxkiTJ6.s:2294   .debug_str:00000000000001fa .LASF37
     /tmp/ccxkiTJ6.s:2422   .debug_str:00000000000006a1 .LASF38
     /tmp/ccxkiTJ6.s:2322   .debug_str:00000000000002dd .LASF40
     /tmp/ccxkiTJ6.s:2368   .debug_str:0000000000000475 .LASF42
     /tmp/ccxkiTJ6.s:2344   .debug_str:0000000000000395 .LASF44
     /tmp/ccxkiTJ6.s:2358   .debug_str:000000000000040b .LASF39
     /tmp/ccxkiTJ6.s:2238   .debug_str:0000000000000051 .LASF41
     /tmp/ccxkiTJ6.s:2340   .debug_str:000000000000037a .LASF43
     /tmp/ccxkiTJ6.s:2310   .debug_str:0000000000000288 .LASF45
     /tmp/ccxkiTJ6.s:2444   .debug_str:0000000000000733 .LASF46
     /tmp/ccxkiTJ6.s:2412   .debug_str:0000000000000661 .LASF47
     /tmp/ccxkiTJ6.s:2338   .debug_str:0000000000000372 .LASF48
     /tmp/ccxkiTJ6.s:2342   .debug_str:0000000000000381 .LASF49
     /tmp/ccxkiTJ6.s:2316   .debug_str:00000000000002b3 .LASF50
     /tmp/ccxkiTJ6.s:2362   .debug_str:000000000000042f .LASF51
     /tmp/ccxkiTJ6.s:2460   .debug_str:00000000000007bb .LASF52
     /tmp/ccxkiTJ6.s:2302   .debug_str:0000000000000232 .LASF53
     /tmp/ccxkiTJ6.s:2230   .debug_str:0000000000000017 .LASF54
     /tmp/ccxkiTJ6.s:2376   .debug_str:00000000000004a1 .LASF55
     /tmp/ccxkiTJ6.s:2370   .debug_str:000000000000047e .LASF56
     /tmp/ccxkiTJ6.s:2454   .debug_str:0000000000000781 .LASF57
     /tmp/ccxkiTJ6.s:2438   .debug_str:000000000000070f .LASF58
GAS LISTING /tmp/ccxkiTJ6.s 			page 17


     /tmp/ccxkiTJ6.s:2446   .debug_str:000000000000073b .LASF59
     /tmp/ccxkiTJ6.s:2432   .debug_str:00000000000006dd .LASF60
     /tmp/ccxkiTJ6.s:2330   .debug_str:0000000000000318 .LASF61
     /tmp/ccxkiTJ6.s:2394   .debug_str:0000000000000544 .LASF62
     /tmp/ccxkiTJ6.s:2380   .debug_str:00000000000004c0 .LASF63
     /tmp/ccxkiTJ6.s:2382   .debug_str:00000000000004d3 .LASF64
     /tmp/ccxkiTJ6.s:2248   .debug_str:000000000000009b .LASF65
     /tmp/ccxkiTJ6.s:2262   .debug_str:0000000000000102 .LASF66
     /tmp/ccxkiTJ6.s:2292   .debug_str:00000000000001e8 .LASF67
     /tmp/ccxkiTJ6.s:2300   .debug_str:000000000000022c .LASF68
     /tmp/ccxkiTJ6.s:2260   .debug_str:00000000000000f0 .LASF69
     /tmp/ccxkiTJ6.s:2442   .debug_str:0000000000000724 .LASF70
     /tmp/ccxkiTJ6.s:2284   .debug_str:00000000000001a4 .LASF71
     /tmp/ccxkiTJ6.s:2430   .debug_str:00000000000006d2 .LASF72
     /tmp/ccxkiTJ6.s:2268   .debug_str:000000000000012a .LASF73
     /tmp/ccxkiTJ6.s:2240   .debug_str:0000000000000064 .LASF74
     /tmp/ccxkiTJ6.s:2334   .debug_str:000000000000033b .LASF75
     /tmp/ccxkiTJ6.s:2458   .debug_str:00000000000007a6 .LASF76
     /tmp/ccxkiTJ6.s:2436   .debug_str:00000000000006ed .LASF78
     /tmp/ccxkiTJ6.s:2236   .debug_str:0000000000000042 .LASF77
     /tmp/ccxkiTJ6.s:2320   .debug_str:00000000000002c1 .LASF79
     /tmp/ccxkiTJ6.s:2450   .debug_str:0000000000000760 .LASF80
     /tmp/ccxkiTJ6.s:2388   .debug_str:00000000000004ec .LASF81
     /tmp/ccxkiTJ6.s:2276   .debug_str:0000000000000164 .LASF83
     /tmp/ccxkiTJ6.s:2324   .debug_str:00000000000002f2 .LASF84
     /tmp/ccxkiTJ6.s:2252   .debug_str:00000000000000be .LASF85
     /tmp/ccxkiTJ6.s:2404   .debug_str:0000000000000580 .LASF86
     /tmp/ccxkiTJ6.s:2278   .debug_str:0000000000000171 .LASF87
     /tmp/ccxkiTJ6.s:353    .text:0000000000000268 .LFE36
     /tmp/ccxkiTJ6.s:2406   .debug_str:0000000000000585 .LASF88
     /tmp/ccxkiTJ6.s:2414   .debug_str:0000000000000675 .LASF89
     /tmp/ccxkiTJ6.s:2366   .debug_str:000000000000045f .LASF90
     /tmp/ccxkiTJ6.s:2288   .debug_str:00000000000001ce .LASF91
     /tmp/ccxkiTJ6.s:97     .text:0000000000000070 .LBB10
     /tmp/ccxkiTJ6.s:109    .text:0000000000000074 .LBE10
     /tmp/ccxkiTJ6.s:2167   .debug_loc:0000000000000000 .LLST1
     /tmp/ccxkiTJ6.s:190    .text:0000000000000144 .LBB12
     /tmp/ccxkiTJ6.s:203    .text:000000000000014c .LBE12
     /tmp/ccxkiTJ6.s:2174   .debug_loc:0000000000000023 .LLST2
     /tmp/ccxkiTJ6.s:209    .text:0000000000000150 .LBB14
     /tmp/ccxkiTJ6.s:217    .text:0000000000000154 .LBE14
     /tmp/ccxkiTJ6.s:2182   .debug_loc:0000000000000047 .LLST3
     /tmp/ccxkiTJ6.s:303    .text:000000000000020c .LBB16
     /tmp/ccxkiTJ6.s:315    .text:0000000000000214 .LBE16
     /tmp/ccxkiTJ6.s:2189   .debug_loc:000000000000006a .LLST4
     /tmp/ccxkiTJ6.s:91     .text:0000000000000064 .LVL4
     /tmp/ccxkiTJ6.s:114    .text:0000000000000080 .LVL7
     /tmp/ccxkiTJ6.s:119    .text:000000000000008c .LVL8
     /tmp/ccxkiTJ6.s:129    .text:00000000000000a4 .LVL9
     /tmp/ccxkiTJ6.s:134    .text:00000000000000b0 .LVL10
     /tmp/ccxkiTJ6.s:151    .text:00000000000000dc .LVL11
     /tmp/ccxkiTJ6.s:164    .text:0000000000000104 .LVL12
     /tmp/ccxkiTJ6.s:172    .text:000000000000011c .LVL13
     /tmp/ccxkiTJ6.s:176    .text:0000000000000124 .LVL14
     /tmp/ccxkiTJ6.s:188    .text:0000000000000144 .LVL15
     /tmp/ccxkiTJ6.s:223    .text:0000000000000160 .LVL19
     /tmp/ccxkiTJ6.s:229    .text:000000000000016c .LVL20
GAS LISTING /tmp/ccxkiTJ6.s 			page 18


     /tmp/ccxkiTJ6.s:283    .text:00000000000001d8 .LVL25
     /tmp/ccxkiTJ6.s:286    .text:00000000000001e4 .LVL26
     /tmp/ccxkiTJ6.s:297    .text:0000000000000200 .LVL27
     /tmp/ccxkiTJ6.s:300    .text:000000000000020c .LVL28
     /tmp/ccxkiTJ6.s:338    .text:0000000000000240 .LVL30
     /tmp/ccxkiTJ6.s:341    .text:000000000000024c .LVL31
     /tmp/ccxkiTJ6.s:347    .text:000000000000025c .LVL32
     /tmp/ccxkiTJ6.s:350    .text:0000000000000268 .LVL33
     /tmp/ccxkiTJ6.s:2328   .debug_str:0000000000000308 .LASF92
     /tmp/ccxkiTJ6.s:2418   .debug_str:0000000000000686 .LASF94
     /tmp/ccxkiTJ6.s:39     .text:000000000000001c .LFB35
     /tmp/ccxkiTJ6.s:64     .text:0000000000000044 .LFE35
     /tmp/ccxkiTJ6.s:53     .text:0000000000000034 .LVL3
     /tmp/ccxkiTJ6.s:2234   .debug_str:0000000000000037 .LASF95
     /tmp/ccxkiTJ6.s:2326   .debug_str:00000000000002f7 .LASF96
     /tmp/ccxkiTJ6.s:10     .text:0000000000000000 .LFB34
     /tmp/ccxkiTJ6.s:33     .text:000000000000001c .LFE34
     /tmp/ccxkiTJ6.s:2197   .debug_loc:000000000000008e .LLST0
     /tmp/ccxkiTJ6.s:29     .text:0000000000000018 .LVL2
     /tmp/ccxkiTJ6.s:2426   .debug_str:00000000000006c6 .LASF97
     /tmp/ccxkiTJ6.s:2318   .debug_str:00000000000002bb .LASF98
     /tmp/ccxkiTJ6.s:2254   .debug_str:00000000000000c7 .LASF117
     /tmp/ccxkiTJ6.s:2270   .debug_str:0000000000000142 .LASF103
     /tmp/ccxkiTJ6.s:2456   .debug_str:0000000000000799 .LASF105
     /tmp/ccxkiTJ6.s:2346   .debug_str:00000000000003aa .LASF99
     /tmp/ccxkiTJ6.s:2396   .debug_str:000000000000054b .LASF101
     /tmp/ccxkiTJ6.s:2232   .debug_str:0000000000000022 .LASF100
     /tmp/ccxkiTJ6.s:2400   .debug_str:0000000000000565 .LASF102
     /tmp/ccxkiTJ6.s:2428   .debug_str:00000000000006cb .LASF104
     /tmp/ccxkiTJ6.s:2226   .debug_str:0000000000000000 .LASF106
     /tmp/ccxkiTJ6.s:2452   .debug_str:0000000000000772 .LASF107
     /tmp/ccxkiTJ6.s:2258   .debug_str:00000000000000d8 .LASF108
     /tmp/ccxkiTJ6.s:2296   .debug_str:0000000000000212 .LASF109
     /tmp/ccxkiTJ6.s:2354   .debug_str:00000000000003fb .LASF110
     /tmp/ccxkiTJ6.s:96     .text:0000000000000070 .LVL5
     /tmp/ccxkiTJ6.s:106    .text:0000000000000074 .LVL6
     /tmp/ccxkiTJ6.s:199    .text:000000000000014c .LVL16
     /tmp/ccxkiTJ6.s:208    .text:0000000000000150 .LVL17
     /tmp/ccxkiTJ6.s:215    .text:0000000000000154 .LVL18
     /tmp/ccxkiTJ6.s:312    .text:0000000000000214 .LVL29
     /tmp/ccxkiTJ6.s:14     .text:0000000000000000 .LVL0
     /tmp/ccxkiTJ6.s:23     .text:0000000000000010 .LVL1
     /tmp/ccxkiTJ6.s:389    .debug_info:0000000000000000 .Ldebug_info0
     /tmp/ccxkiTJ6.s:356    .gcc_except_table:0000000000000000 .LLSDA36

UNDEFINED SYMBOLS
_Z15thread_dispatchv
_Z8userMainv
_ZN15MemoryAllocator10initializeEv
_ZN5Riscv14supervisorTrapEv
_Znwm
_ZN13BoundedBufferC1Ev
_ZN8_console9inputBuffE
_ZN8_console10outputBuffE
_ZN3TCB14newThrUserModeE
_Z13thread_createPP3TCBPFvPvES2_
_ZN3TCB7runningE
GAS LISTING /tmp/ccxkiTJ6.s 			page 19


_ZN8_console15consumerConsoleEPv
_ZN13BoundedBufferD1Ev
_ZdlPv
_Unwind_Resume
__gxx_personality_v0
