GAS LISTING /tmp/cc8T7v4o.s 			page 1


   1              		.file	"main.cpp"
   2              		.option pic
   3              		.option norelax
   4              		.text
   5              	.Ltext0:
   6              		.align	2
   7              		.globl	_Z10idleThreadPv
   9              	_Z10idleThreadPv:
  10              	.LFB23:
  11              		.file 1 "src/main.cpp"
   1:src/main.cpp  **** //
   2:src/main.cpp  **** // Created by os on 6/29/23.
   3:src/main.cpp  **** //
   4:src/main.cpp  **** 
   5:src/main.cpp  **** #include "../h/MemoryAllocator.hpp"
   6:src/main.cpp  **** #include "../h/syscall_c.hpp"
   7:src/main.cpp  **** #include "../h/riscv.hpp"
   8:src/main.cpp  **** #include "../test/printing.hpp"
   9:src/main.cpp  **** #include "../h/Scheduler.hpp"
  10:src/main.cpp  **** 
  11:src/main.cpp  **** extern void userMain();
  12:src/main.cpp  **** 
  13:src/main.cpp  **** void idleThread(void *p) {
  12              		.loc 1 13 26
  13              		.cfi_startproc
  14              	.LVL0:
  15 0000 130101FF 		addi	sp,sp,-16
  16              		.cfi_def_cfa_offset 16
  17 0004 23341100 		sd	ra,8(sp)
  18 0008 23308100 		sd	s0,0(sp)
  19              		.cfi_offset 1, -8
  20              		.cfi_offset 8, -16
  21 000c 13040101 		addi	s0,sp,16
  22              		.cfi_def_cfa 8, 0
  23              	.LVL1:
  24              	.L2:
  14:src/main.cpp  ****     while(true){ thread_dispatch(); }
  25              		.loc 1 14 5 discriminator 1
  26              		.loc 1 14 18 discriminator 1
  27              		.loc 1 14 33 is_stmt 0 discriminator 1
  28 0010 97000000 		call	_Z15thread_dispatchv@plt
  28      E7800000 
  29              	.LVL2:
  30              		.loc 1 14 5 is_stmt 1 discriminator 1
  31 0018 6FF09FFF 		j	.L2
  32              		.cfi_endproc
  33              	.LFE23:
  35              		.align	2
  36              		.globl	_Z15userMainWrapperPv
  38              	_Z15userMainWrapperPv:
  39              	.LFB24:
  15:src/main.cpp  **** }
  16:src/main.cpp  **** void userMainWrapper(void*){
  40              		.loc 1 16 28
  41              		.cfi_startproc
  42 001c 130101FF 		addi	sp,sp,-16
  43              		.cfi_def_cfa_offset 16
GAS LISTING /tmp/cc8T7v4o.s 			page 2


  44 0020 23341100 		sd	ra,8(sp)
  45 0024 23308100 		sd	s0,0(sp)
  46              		.cfi_offset 1, -8
  47              		.cfi_offset 8, -16
  48 0028 13040101 		addi	s0,sp,16
  49              		.cfi_def_cfa 8, 0
  17:src/main.cpp  ****     userMain();
  50              		.loc 1 17 5
  51              		.loc 1 17 13 is_stmt 0
  52 002c 97000000 		call	_Z8userMainv@plt
  52      E7800000 
  53              	.LVL3:
  18:src/main.cpp  **** }
  54              		.loc 1 18 1
  55 0034 83308100 		ld	ra,8(sp)
  56              		.cfi_restore 1
  57 0038 03340100 		ld	s0,0(sp)
  58              		.cfi_restore 8
  59              		.cfi_def_cfa 2, 16
  60 003c 13010101 		addi	sp,sp,16
  61              		.cfi_def_cfa_offset 0
  62 0040 67800000 		jr	ra
  63              		.cfi_endproc
  64              	.LFE24:
  66              		.align	2
  67              		.globl	main
  69              	main:
  70              	.LFB25:
  19:src/main.cpp  **** 
  20:src/main.cpp  **** int main(){
  71              		.loc 1 20 11 is_stmt 1
  72              		.cfi_startproc
  73 0044 130101FC 		addi	sp,sp,-64
  74              		.cfi_def_cfa_offset 64
  75 0048 233C1102 		sd	ra,56(sp)
  76 004c 23388102 		sd	s0,48(sp)
  77 0050 23349102 		sd	s1,40(sp)
  78              		.cfi_offset 1, -8
  79              		.cfi_offset 8, -16
  80              		.cfi_offset 9, -24
  81 0054 13040104 		addi	s0,sp,64
  82              		.cfi_def_cfa 8, 0
  21:src/main.cpp  **** 
  22:src/main.cpp  ****     MemoryAllocator::initialize();
  83              		.loc 1 22 5
  84              		.loc 1 22 32 is_stmt 0
  85 0058 97000000 		call	_ZN15MemoryAllocator10initializeEv@plt
  85      E7800000 
  86              	.LVL4:
  23:src/main.cpp  ****     Riscv::w_stvec((uint64)&Riscv::supervisorTrap+1);
  87              		.loc 1 23 5 is_stmt 1
  88              		.loc 1 23 19 is_stmt 0
  89 0060 97070000 		la	a5,_ZN5Riscv14supervisorTrapEv
  89      83B70700 
  90 0068 93871700 		addi	a5,a5,1
  91              	.LVL5:
  92              	.LBB8:
GAS LISTING /tmp/cc8T7v4o.s 			page 3


  93              	.LBB9:
  94              		.file 2 "src/../h/riscv.hpp"
   1:src/../h/riscv.hpp **** //
   2:src/../h/riscv.hpp **** // Created by os on 7/24/23.
   3:src/../h/riscv.hpp **** //
   4:src/../h/riscv.hpp **** 
   5:src/../h/riscv.hpp **** #ifndef PROJECT_BASE_RISCV_HPP
   6:src/../h/riscv.hpp **** #define PROJECT_BASE_RISCV_HPP
   7:src/../h/riscv.hpp **** 
   8:src/../h/riscv.hpp **** #include "../lib/hw.h"
   9:src/../h/riscv.hpp **** #include "../h/TCB.hpp"
  10:src/../h/riscv.hpp **** //sa vezbi 7
  11:src/../h/riscv.hpp **** 
  12:src/../h/riscv.hpp **** class Riscv{
  13:src/../h/riscv.hpp **** 
  14:src/../h/riscv.hpp **** public:
  15:src/../h/riscv.hpp **** 
  16:src/../h/riscv.hpp ****     //supervisor previous privileged, previousInterruptEnable
  17:src/../h/riscv.hpp ****     //mora da bude ne inline da se poziva
  18:src/../h/riscv.hpp ****     static void popSppSpie();
  19:src/../h/riscv.hpp **** 
  20:src/../h/riscv.hpp ****     static uint64 r_scause();
  21:src/../h/riscv.hpp ****     static void w_scause(uint64 scause);
  22:src/../h/riscv.hpp ****     static uint64 r_sepc();
  23:src/../h/riscv.hpp ****     static void w_sepc(uint64 sepc);
  24:src/../h/riscv.hpp ****     static uint64 r_stvec();
  25:src/../h/riscv.hpp ****     static void w_stvec(uint64 stvec);
  26:src/../h/riscv.hpp ****     static uint64 r_stval();
  27:src/../h/riscv.hpp ****     static void w_stval(uint64 stval);
  28:src/../h/riscv.hpp **** 
  29:src/../h/riscv.hpp ****     enum BitMaskSStatus{
  30:src/../h/riscv.hpp ****         SSTATUS_SIE=(1<<1),
  31:src/../h/riscv.hpp ****         SSTATUS_SPIE=(1<<5),
  32:src/../h/riscv.hpp ****         SSTATUS_SPP=(1<<8)
  33:src/../h/riscv.hpp ****     };
  34:src/../h/riscv.hpp **** 
  35:src/../h/riscv.hpp ****     static void ms_sstatus(uint64 mask);
  36:src/../h/riscv.hpp ****     static void mc_sstatus(uint64 mask);
  37:src/../h/riscv.hpp ****     static uint64 r_sstatus();
  38:src/../h/riscv.hpp ****     static void w_sstatus(uint64 sstatus);
  39:src/../h/riscv.hpp **** 
  40:src/../h/riscv.hpp **** 
  41:src/../h/riscv.hpp ****     enum BitMaskSip{
  42:src/../h/riscv.hpp ****         SIP_SSIP=(1<<1),//software interrupt pending
  43:src/../h/riscv.hpp ****         SIP_STIP=(1 << 5),
  44:src/../h/riscv.hpp ****         SIP_SEIP=(1 << 9)
  45:src/../h/riscv.hpp ****     };
  46:src/../h/riscv.hpp **** 
  47:src/../h/riscv.hpp ****     static void ms_sip(uint64 mask);
  48:src/../h/riscv.hpp ****     static void mc_sip(uint64 mask);
  49:src/../h/riscv.hpp ****     static uint64 r_sip();
  50:src/../h/riscv.hpp ****     static void w_sip(uint64 sip);
  51:src/../h/riscv.hpp **** 
  52:src/../h/riscv.hpp ****     static void supervisorTrap();
  53:src/../h/riscv.hpp **** 
  54:src/../h/riscv.hpp ****     struct SleepingElem{
  55:src/../h/riscv.hpp ****         TCB* thr;
GAS LISTING /tmp/cc8T7v4o.s 			page 4


  56:src/../h/riscv.hpp ****         time_t toSleepRel;
  57:src/../h/riscv.hpp ****         SleepingElem* next;
  58:src/../h/riscv.hpp ****     };
  59:src/../h/riscv.hpp **** 
  60:src/../h/riscv.hpp ****     static int putToSleep(time_t);
  61:src/../h/riscv.hpp ****     static void updateSleepingList();
  62:src/../h/riscv.hpp **** 
  63:src/../h/riscv.hpp **** private:
  64:src/../h/riscv.hpp **** 
  65:src/../h/riscv.hpp ****     static void handleEcallException();
  66:src/../h/riscv.hpp ****     static void timerInterrupt();
  67:src/../h/riscv.hpp ****     static void hardwareInterrupt();
  68:src/../h/riscv.hpp **** 
  69:src/../h/riscv.hpp ****     static SleepingElem* headSleeping;
  70:src/../h/riscv.hpp **** 
  71:src/../h/riscv.hpp **** };
  72:src/../h/riscv.hpp **** 
  73:src/../h/riscv.hpp **** inline uint64 Riscv::r_scause() {
  74:src/../h/riscv.hpp ****     uint64 volatile scause;
  75:src/../h/riscv.hpp ****     __asm__ volatile("csrr %[scause], scause":[scause]"=r"(scause));
  76:src/../h/riscv.hpp ****     return scause;
  77:src/../h/riscv.hpp **** }
  78:src/../h/riscv.hpp **** inline void Riscv::w_scause(uint64 scause) {
  79:src/../h/riscv.hpp ****     __asm__ volatile("csrw scause, %[scause]"::[scause]"r"(scause));
  80:src/../h/riscv.hpp **** }
  81:src/../h/riscv.hpp **** 
  82:src/../h/riscv.hpp **** inline uint64 Riscv::r_sepc(){
  83:src/../h/riscv.hpp ****     uint64 volatile sepc;
  84:src/../h/riscv.hpp ****     __asm__ volatile("csrr %[sepc], sepc":[sepc]"=r"(sepc));
  85:src/../h/riscv.hpp ****     return sepc;
  86:src/../h/riscv.hpp **** }
  87:src/../h/riscv.hpp **** inline void Riscv::w_sepc(uint64 sepc) {
  88:src/../h/riscv.hpp ****     __asm__ volatile("csrw sepc, %[sepc]"::[sepc]"r"(sepc));
  89:src/../h/riscv.hpp **** }
  90:src/../h/riscv.hpp **** inline uint64 Riscv::r_stvec(){
  91:src/../h/riscv.hpp ****     uint64 volatile stvec;
  92:src/../h/riscv.hpp ****     __asm__ volatile("csrr %[stvec], stvec":[stvec]"=r"(stvec));
  93:src/../h/riscv.hpp ****     return stvec;
  94:src/../h/riscv.hpp **** }
  95:src/../h/riscv.hpp **** inline void Riscv::w_stvec(uint64 stvec) {
  96:src/../h/riscv.hpp ****     __asm__ volatile("csrw stvec, %[stvec]"::[stvec]"r"(stvec));
  95              		.loc 2 96 5 is_stmt 1
  96              		.loc 2 96 64 is_stmt 0
  97              	#APP
  98              	# 96 "src/../h/riscv.hpp" 1
  97              	}
  99              		csrw stvec, a5
 100              	# 0 "" 2
 101              	.LVL6:
 102              	#NO_APP
 103              	.LBE9:
 104              	.LBE8:
  24:src/main.cpp  **** 
  25:src/main.cpp  **** 
  26:src/main.cpp  ****     TCB::newThrUserMode=false;
 105              		.loc 1 26 5 is_stmt 1
 106              		.loc 1 26 24 is_stmt 0
GAS LISTING /tmp/cc8T7v4o.s 			page 5


 107 0070 97040000 		la	s1,_ZN3TCB14newThrUserModeE
 107      83B40400 
 108 0078 23800400 		sb	zero,0(s1)
  27:src/main.cpp  ****     TCB* handleMain;
 109              		.loc 1 27 5 is_stmt 1
  28:src/main.cpp  ****     thread_create(&handleMain, nullptr, nullptr);
 110              		.loc 1 28 5
 111              		.loc 1 28 18 is_stmt 0
 112 007c 13060000 		li	a2,0
 113 0080 93050000 		li	a1,0
 114 0084 130584FD 		addi	a0,s0,-40
 115 0088 97000000 		call	_Z13thread_createPP3TCBPFvPvES2_@plt
 115      E7800000 
 116              	.LVL7:
  29:src/main.cpp  ****     TCB::running=handleMain;
 117              		.loc 1 29 5 is_stmt 1
 118              		.loc 1 29 17 is_stmt 0
 119 0090 97070000 		la	a5,_ZN3TCB7runningE
 119      83B70700 
 120 0098 033784FD 		ld	a4,-40(s0)
 121 009c 23B0E700 		sd	a4,0(a5)
  30:src/main.cpp  **** 
  31:src/main.cpp  ****     TCB* handleIdle;
 122              		.loc 1 31 5 is_stmt 1
  32:src/main.cpp  ****     thread_create(&handleIdle, idleThread, nullptr);
 123              		.loc 1 32 5
 124              		.loc 1 32 18 is_stmt 0
 125 00a0 13060000 		li	a2,0
 126 00a4 97050000 		lla	a1,_Z10idleThreadPv
 126      93850500 
 127 00ac 130504FD 		addi	a0,s0,-48
 128 00b0 97000000 		call	_Z13thread_createPP3TCBPFvPvES2_@plt
 128      E7800000 
 129              	.LVL8:
  33:src/main.cpp  **** 
  34:src/main.cpp  ****     //thread_dispatch();
  35:src/main.cpp  **** 
  36:src/main.cpp  ****     TCB::newThrUserMode=true;
 130              		.loc 1 36 5 is_stmt 1
 131              		.loc 1 36 24 is_stmt 0
 132 00b8 93071000 		li	a5,1
 133 00bc 2380F400 		sb	a5,0(s1)
  37:src/main.cpp  ****     TCB* handleUserMain;
 134              		.loc 1 37 5 is_stmt 1
  38:src/main.cpp  ****     thread_create(&handleUserMain, userMainWrapper, nullptr);
 135              		.loc 1 38 5
 136              		.loc 1 38 18 is_stmt 0
 137 00c0 13060000 		li	a2,0
 138 00c4 97050000 		lla	a1,_Z15userMainWrapperPv
 138      93850500 
 139 00cc 130584FC 		addi	a0,s0,-56
 140 00d0 97000000 		call	_Z13thread_createPP3TCBPFvPvES2_@plt
 140      E7800000 
 141              	.LVL9:
  39:src/main.cpp  **** 
  40:src/main.cpp  ****     Riscv::ms_sstatus(Riscv::SSTATUS_SIE);//dozvoljavanje prekida
 142              		.loc 1 40 5 is_stmt 1
GAS LISTING /tmp/cc8T7v4o.s 			page 6


 143              	.LBB10:
 144              	.LBB11:
  98:src/../h/riscv.hpp **** inline uint64 Riscv::r_stval(){
  99:src/../h/riscv.hpp ****     uint64 volatile stval;
 100:src/../h/riscv.hpp ****     __asm__ volatile("csrr %[stval], stval":[stval]"=r"(stval));
 101:src/../h/riscv.hpp ****     return stval;
 102:src/../h/riscv.hpp **** }
 103:src/../h/riscv.hpp **** inline void Riscv::w_stval(uint64 stval) {
 104:src/../h/riscv.hpp ****     __asm__ volatile("csrw stval, %[stval]"::[stval]"r"(stval));
 105:src/../h/riscv.hpp **** }
 106:src/../h/riscv.hpp **** 
 107:src/../h/riscv.hpp **** inline void Riscv::ms_sip(uint64 mask) {
 108:src/../h/riscv.hpp ****     __asm__ volatile("csrs sip, %[mask]"::[mask]"r"(mask));
 109:src/../h/riscv.hpp **** }
 110:src/../h/riscv.hpp **** inline void Riscv::mc_sip(uint64 mask) {
 111:src/../h/riscv.hpp ****     __asm__ volatile("csrc sip, %[mask]"::[mask]"r"(mask));
 112:src/../h/riscv.hpp **** }
 113:src/../h/riscv.hpp **** 
 114:src/../h/riscv.hpp **** 
 115:src/../h/riscv.hpp **** inline uint64 Riscv::r_sip(){
 116:src/../h/riscv.hpp ****     uint64 volatile sip;
 117:src/../h/riscv.hpp ****     __asm__ volatile("csrr %[sip], sip":[sip]"=r"(sip));
 118:src/../h/riscv.hpp ****     return sip;
 119:src/../h/riscv.hpp **** }
 120:src/../h/riscv.hpp **** inline void Riscv::w_sip(uint64 sip) {
 121:src/../h/riscv.hpp ****     __asm__ volatile("csrw sip, %[sip]"::[sip]"r"(sip));
 122:src/../h/riscv.hpp **** }
 123:src/../h/riscv.hpp **** 
 124:src/../h/riscv.hpp **** inline void Riscv::ms_sstatus(uint64 mask) {
 125:src/../h/riscv.hpp ****     __asm__ volatile("csrs sstatus, %[mask]"::[mask]"r"(mask));
 145              		.loc 2 125 5
 146              		.loc 2 125 63 is_stmt 0
 147 00d8 93072000 		li	a5,2
 148              	#APP
 149              	# 125 "src/../h/riscv.hpp" 1
 126              	}
 150              		csrs sstatus, a5
 151              	# 0 "" 2
 152              	.LVL10:
 153              	#NO_APP
 154              	.L8:
 155              	.LBE11:
 156              	.LBE10:
  41:src/main.cpp  **** 
  42:src/main.cpp  ****     while (!handleUserMain->isFinished()){
 157              		.loc 1 42 5 is_stmt 1
 158              		.loc 1 42 12
 159              		.loc 1 42 39 is_stmt 0
 160 00e0 033584FC 		ld	a0,-56(s0)
 161              	.LVL11:
 162              	.LBB12:
 163              	.LBB13:
 164              		.file 3 "src/../h/../h/TCB.hpp"
   1:src/../h/../h/TCB.hpp **** //
   2:src/../h/../h/TCB.hpp **** // Created by os on 7/18/23.
   3:src/../h/../h/TCB.hpp **** //
   4:src/../h/../h/TCB.hpp **** 
GAS LISTING /tmp/cc8T7v4o.s 			page 7


   5:src/../h/../h/TCB.hpp **** //sa vezbi 7
   6:src/../h/../h/TCB.hpp **** 
   7:src/../h/../h/TCB.hpp **** #ifndef PROJECT_BASE_TCB_HPP
   8:src/../h/../h/TCB.hpp **** #define PROJECT_BASE_TCB_HPP
   9:src/../h/../h/TCB.hpp **** 
  10:src/../h/../h/TCB.hpp **** #include "../lib/hw.h"
  11:src/../h/../h/TCB.hpp **** 
  12:src/../h/../h/TCB.hpp **** class TCB{
  13:src/../h/../h/TCB.hpp **** public:
  14:src/../h/../h/TCB.hpp ****     virtual ~TCB();
  15:src/../h/../h/TCB.hpp **** 
  16:src/../h/../h/TCB.hpp ****     bool isBlocked() const {
  17:src/../h/../h/TCB.hpp ****         return blocked;
  18:src/../h/../h/TCB.hpp ****     }
  19:src/../h/../h/TCB.hpp **** 
  20:src/../h/../h/TCB.hpp ****     void setBlocked(bool blocked) {
  21:src/../h/../h/TCB.hpp ****         TCB::blocked = blocked;
  22:src/../h/../h/TCB.hpp ****     }
  23:src/../h/../h/TCB.hpp **** 
  24:src/../h/../h/TCB.hpp ****     bool isFinished() const{
  25:src/../h/../h/TCB.hpp ****         return finished;
 165              		.loc 3 25 9 is_stmt 1
 166              		.loc 3 25 16 is_stmt 0
 167 00e4 83470503 		lbu	a5,48(a0)
 168              	.LVL12:
 169              	.LBE13:
 170              	.LBE12:
 171              		.loc 1 42 12
 172 00e8 63980700 		bnez	a5,.L7
  43:src/main.cpp  ****         thread_dispatch();
 173              		.loc 1 43 9 is_stmt 1
 174              		.loc 1 43 24 is_stmt 0
 175 00ec 97000000 		call	_Z15thread_dispatchv@plt
 175      E7800000 
 176              	.LVL13:
 177 00f4 6FF0DFFE 		j	.L8
 178              	.L7:
  44:src/main.cpp  ****     }
  45:src/main.cpp  **** 
  46:src/main.cpp  ****     delete handleUserMain;
 179              		.loc 1 46 5 is_stmt 1
 180              		.loc 1 46 26 is_stmt 0
 181 00f8 63080500 		beqz	a0,.L9
 182              		.loc 1 46 12 discriminator 1
 183 00fc 83370500 		ld	a5,0(a0)
 184 0100 83B78700 		ld	a5,8(a5)
 185 0104 E7800700 		jalr	a5
 186              	.LVL14:
 187              	.L9:
  47:src/main.cpp  ****     delete handleIdle;
 188              		.loc 1 47 5 is_stmt 1
 189              		.loc 1 47 12 is_stmt 0
 190 0108 033504FD 		ld	a0,-48(s0)
 191              		.loc 1 47 22
 192 010c 63080500 		beqz	a0,.L10
 193              		.loc 1 47 12 discriminator 1
 194 0110 83370500 		ld	a5,0(a0)
GAS LISTING /tmp/cc8T7v4o.s 			page 8


 195 0114 83B78700 		ld	a5,8(a5)
 196 0118 E7800700 		jalr	a5
 197              	.LVL15:
 198              	.L10:
  48:src/main.cpp  ****     delete handleMain;
 199              		.loc 1 48 5 is_stmt 1
 200              		.loc 1 48 12 is_stmt 0
 201 011c 033584FD 		ld	a0,-40(s0)
 202              		.loc 1 48 22
 203 0120 63080500 		beqz	a0,.L11
 204              		.loc 1 48 12 discriminator 1
 205 0124 83370500 		ld	a5,0(a0)
 206 0128 83B78700 		ld	a5,8(a5)
 207 012c E7800700 		jalr	a5
 208              	.LVL16:
 209              	.L11:
  49:src/main.cpp  **** 
  50:src/main.cpp  ****     /*Scheduler::get();
  51:src/main.cpp  ****     Scheduler::get();*/
  52:src/main.cpp  **** 
  53:src/main.cpp  **** 
  54:src/main.cpp  ****     return 0;
 210              		.loc 1 54 5 is_stmt 1
  55:src/main.cpp  **** }...
 211              		.loc 1 55 1 is_stmt 0
 212 0130 13050000 		li	a0,0
 213 0134 83308103 		ld	ra,56(sp)
 214              		.cfi_restore 1
 215 0138 03340103 		ld	s0,48(sp)
 216              		.cfi_restore 8
 217              		.cfi_def_cfa 2, 64
 218 013c 83348102 		ld	s1,40(sp)
 219              		.cfi_restore 9
 220 0140 13010104 		addi	sp,sp,64
 221              		.cfi_def_cfa_offset 0
 222 0144 67800000 		jr	ra
 223              		.cfi_endproc
 224              	.LFE25:
 226              	.Letext0:
 227              		.file 4 "src/../h/../lib/hw.h"
 228              		.file 5 "src/../h/MemoryAllocator.hpp"
 229              		.file 6 "src/../h/syscall_c.hpp"
GAS LISTING /tmp/cc8T7v4o.s 			page 9


DEFINED SYMBOLS
                            *ABS*:0000000000000000 main.cpp
     /tmp/cc8T7v4o.s:9      .text:0000000000000000 _Z10idleThreadPv
     /tmp/cc8T7v4o.s:13     .text:0000000000000000 .L0 
     /tmp/cc8T7v4o.s:15     .text:0000000000000000 .L0 
     /tmp/cc8T7v4o.s:16     .text:0000000000000004 .L0 
     /tmp/cc8T7v4o.s:19     .text:000000000000000c .L0 
     /tmp/cc8T7v4o.s:20     .text:000000000000000c .L0 
     /tmp/cc8T7v4o.s:22     .text:0000000000000010 .L0 
     /tmp/cc8T7v4o.s:26     .text:0000000000000010 .L0 
     /tmp/cc8T7v4o.s:27     .text:0000000000000010 .L0 
     /tmp/cc8T7v4o.s:28     .text:0000000000000010 .L0 
     /tmp/cc8T7v4o.s:31     .text:0000000000000018 .L0 
     /tmp/cc8T7v4o.s:32     .text:000000000000001c .L0 
     /tmp/cc8T7v4o.s:38     .text:000000000000001c _Z15userMainWrapperPv
     /tmp/cc8T7v4o.s:41     .text:000000000000001c .L0 
     /tmp/cc8T7v4o.s:42     .text:000000000000001c .L0 
     /tmp/cc8T7v4o.s:43     .text:0000000000000020 .L0 
     /tmp/cc8T7v4o.s:46     .text:0000000000000028 .L0 
     /tmp/cc8T7v4o.s:47     .text:0000000000000028 .L0 
     /tmp/cc8T7v4o.s:49     .text:000000000000002c .L0 
     /tmp/cc8T7v4o.s:51     .text:000000000000002c .L0 
     /tmp/cc8T7v4o.s:52     .text:000000000000002c .L0 
     /tmp/cc8T7v4o.s:55     .text:0000000000000034 .L0 
     /tmp/cc8T7v4o.s:56     .text:0000000000000038 .L0 
     /tmp/cc8T7v4o.s:58     .text:000000000000003c .L0 
     /tmp/cc8T7v4o.s:59     .text:000000000000003c .L0 
     /tmp/cc8T7v4o.s:61     .text:0000000000000040 .L0 
     /tmp/cc8T7v4o.s:63     .text:0000000000000044 .L0 
     /tmp/cc8T7v4o.s:69     .text:0000000000000044 main
     /tmp/cc8T7v4o.s:72     .text:0000000000000044 .L0 
     /tmp/cc8T7v4o.s:73     .text:0000000000000044 .L0 
     /tmp/cc8T7v4o.s:74     .text:0000000000000048 .L0 
     /tmp/cc8T7v4o.s:78     .text:0000000000000054 .L0 
     /tmp/cc8T7v4o.s:79     .text:0000000000000054 .L0 
     /tmp/cc8T7v4o.s:80     .text:0000000000000054 .L0 
     /tmp/cc8T7v4o.s:82     .text:0000000000000058 .L0 
     /tmp/cc8T7v4o.s:84     .text:0000000000000058 .L0 
     /tmp/cc8T7v4o.s:85     .text:0000000000000058 .L0 
     /tmp/cc8T7v4o.s:88     .text:0000000000000060 .L0 
     /tmp/cc8T7v4o.s:89     .text:0000000000000060 .L0 
     /tmp/cc8T7v4o.s:96     .text:000000000000006c .L0 
  src/../h/riscv.hpp:96     .text:000000000000006c .L0 
     /tmp/cc8T7v4o.s:106    .text:0000000000000070 .L0 
     /tmp/cc8T7v4o.s:107    .text:0000000000000070 .L0 
     /tmp/cc8T7v4o.s:110    .text:000000000000007c .L0 
     /tmp/cc8T7v4o.s:111    .text:000000000000007c .L0 
     /tmp/cc8T7v4o.s:112    .text:000000000000007c .L0 
     /tmp/cc8T7v4o.s:118    .text:0000000000000090 .L0 
     /tmp/cc8T7v4o.s:119    .text:0000000000000090 .L0 
     /tmp/cc8T7v4o.s:123    .text:00000000000000a0 .L0 
     /tmp/cc8T7v4o.s:124    .text:00000000000000a0 .L0 
     /tmp/cc8T7v4o.s:125    .text:00000000000000a0 .L0 
     /tmp/cc8T7v4o.s:131    .text:00000000000000b8 .L0 
     /tmp/cc8T7v4o.s:132    .text:00000000000000b8 .L0 
     /tmp/cc8T7v4o.s:135    .text:00000000000000c0 .L0 
     /tmp/cc8T7v4o.s:136    .text:00000000000000c0 .L0 
GAS LISTING /tmp/cc8T7v4o.s 			page 10


     /tmp/cc8T7v4o.s:137    .text:00000000000000c0 .L0 
     /tmp/cc8T7v4o.s:145    .text:00000000000000d8 .L0 
     /tmp/cc8T7v4o.s:146    .text:00000000000000d8 .L0 
     /tmp/cc8T7v4o.s:147    .text:00000000000000d8 .L0 
     /tmp/cc8T7v4o.s:158    .text:00000000000000e0 .L0 
     /tmp/cc8T7v4o.s:159    .text:00000000000000e0 .L0 
     /tmp/cc8T7v4o.s:160    .text:00000000000000e0 .L0 
     /tmp/cc8T7v4o.s:166    .text:00000000000000e4 .L0 
     /tmp/cc8T7v4o.s:167    .text:00000000000000e4 .L0 
     /tmp/cc8T7v4o.s:172    .text:00000000000000e8 .L0 
     /tmp/cc8T7v4o.s:174    .text:00000000000000ec .L0 
     /tmp/cc8T7v4o.s:175    .text:00000000000000ec .L0 
     /tmp/cc8T7v4o.s:180    .text:00000000000000f8 .L0 
     /tmp/cc8T7v4o.s:181    .text:00000000000000f8 .L0 
     /tmp/cc8T7v4o.s:183    .text:00000000000000fc .L0 
     /tmp/cc8T7v4o.s:189    .text:0000000000000108 .L0 
     /tmp/cc8T7v4o.s:190    .text:0000000000000108 .L0 
     /tmp/cc8T7v4o.s:192    .text:000000000000010c .L0 
     /tmp/cc8T7v4o.s:194    .text:0000000000000110 .L0 
     /tmp/cc8T7v4o.s:200    .text:000000000000011c .L0 
     /tmp/cc8T7v4o.s:201    .text:000000000000011c .L0 
     /tmp/cc8T7v4o.s:203    .text:0000000000000120 .L0 
     /tmp/cc8T7v4o.s:205    .text:0000000000000124 .L0 
     /tmp/cc8T7v4o.s:211    .text:0000000000000130 .L0 
     /tmp/cc8T7v4o.s:212    .text:0000000000000130 .L0 
     /tmp/cc8T7v4o.s:214    .text:0000000000000138 .L0 
     /tmp/cc8T7v4o.s:216    .text:000000000000013c .L0 
     /tmp/cc8T7v4o.s:217    .text:000000000000013c .L0 
     /tmp/cc8T7v4o.s:219    .text:0000000000000140 .L0 
     /tmp/cc8T7v4o.s:221    .text:0000000000000144 .L0 
     /tmp/cc8T7v4o.s:223    .text:0000000000000148 .L0 
     /tmp/cc8T7v4o.s:230    .text:0000000000000148 .L0 
     /tmp/cc8T7v4o.s:89     .text:0000000000000060 .L0 
     /tmp/cc8T7v4o.s:107    .text:0000000000000070 .L0 
     /tmp/cc8T7v4o.s:119    .text:0000000000000090 .L0 
     /tmp/cc8T7v4o.s:126    .text:00000000000000a4 .L0 
     /tmp/cc8T7v4o.s:138    .text:00000000000000c4 .L0 
     /tmp/cc8T7v4o.s:24     .text:0000000000000010 .L2
     /tmp/cc8T7v4o.s:178    .text:00000000000000f8 .L7
     /tmp/cc8T7v4o.s:154    .text:00000000000000e0 .L8
     /tmp/cc8T7v4o.s:187    .text:0000000000000108 .L9
     /tmp/cc8T7v4o.s:198    .text:000000000000011c .L10
     /tmp/cc8T7v4o.s:209    .text:0000000000000130 .L11
     /tmp/cc8T7v4o.s:1032   .debug_abbrev:0000000000000000 .Ldebug_abbrev0
     /tmp/cc8T7v4o.s:2004   .debug_str:000000000000053c .LASF102
     /tmp/cc8T7v4o.s:1926   .debug_str:00000000000002e5 .LASF103
     /tmp/cc8T7v4o.s:1896   .debug_str:00000000000001eb .LASF104
     /tmp/cc8T7v4o.s:5      .text:0000000000000000 .Ltext0
     /tmp/cc8T7v4o.s:226    .text:0000000000000148 .Letext0
     /tmp/cc8T7v4o.s:1824   .debug_line:0000000000000000 .Ldebug_line0
     /tmp/cc8T7v4o.s:1946   .debug_str:0000000000000378 .LASF0
     /tmp/cc8T7v4o.s:1958   .debug_str:00000000000003bf .LASF1
     /tmp/cc8T7v4o.s:1938   .debug_str:0000000000000343 .LASF2
     /tmp/cc8T7v4o.s:1922   .debug_str:00000000000002d3 .LASF4
     /tmp/cc8T7v4o.s:1988   .debug_str:00000000000004c9 .LASF3
     /tmp/cc8T7v4o.s:1846   .debug_str:00000000000000a4 .LASF5
     /tmp/cc8T7v4o.s:1880   .debug_str:0000000000000197 .LASF6
GAS LISTING /tmp/cc8T7v4o.s 			page 11


     /tmp/cc8T7v4o.s:1962   .debug_str:00000000000003f3 .LASF7
     /tmp/cc8T7v4o.s:1944   .debug_str:0000000000000365 .LASF8
     /tmp/cc8T7v4o.s:2014   .debug_str:000000000000065d .LASF9
     /tmp/cc8T7v4o.s:1910   .debug_str:0000000000000261 .LASF10
     /tmp/cc8T7v4o.s:1972   .debug_str:000000000000042d .LASF11
     /tmp/cc8T7v4o.s:2006   .debug_str:0000000000000600 .LASF12
     /tmp/cc8T7v4o.s:1850   .debug_str:00000000000000b7 .LASF13
     /tmp/cc8T7v4o.s:1832   .debug_str:0000000000000035 .LASF14
     /tmp/cc8T7v4o.s:1862   .debug_str:0000000000000113 .LASF15
     /tmp/cc8T7v4o.s:1984   .debug_str:000000000000049b .LASF16
     /tmp/cc8T7v4o.s:1872   .debug_str:0000000000000158 .LASF17
     /tmp/cc8T7v4o.s:1932   .debug_str:000000000000031b .LASF26
     /tmp/cc8T7v4o.s:1878   .debug_str:0000000000000190 .LASF31
     /tmp/cc8T7v4o.s:1998   .debug_str:000000000000051e .LASF18
     /tmp/cc8T7v4o.s:2036   .debug_str:0000000000000715 .LASF19
     /tmp/cc8T7v4o.s:1954   .debug_str:00000000000003b3 .LASF20
     /tmp/cc8T7v4o.s:2040   .debug_str:000000000000071f .LASF22
     /tmp/cc8T7v4o.s:1892   .debug_str:00000000000001e1 .LASF21
     /tmp/cc8T7v4o.s:1980   .debug_str:0000000000000473 .LASF23
     /tmp/cc8T7v4o.s:1936   .debug_str:0000000000000338 .LASF34
     /tmp/cc8T7v4o.s:2026   .debug_str:00000000000006b1 .LASF36
     /tmp/cc8T7v4o.s:2012   .debug_str:0000000000000641 .LASF89
     /tmp/cc8T7v4o.s:1942   .debug_str:000000000000035b .LASF105
     /tmp/cc8T7v4o.s:1928   .debug_str:00000000000002f2 .LASF106
     /tmp/cc8T7v4o.s:1934   .debug_str:000000000000032b .LASF82
     /tmp/cc8T7v4o.s:1964   .debug_str:0000000000000406 .LASF24
     /tmp/cc8T7v4o.s:1908   .debug_str:000000000000024a .LASF25
     /tmp/cc8T7v4o.s:1956   .debug_str:00000000000003b9 .LASF27
     /tmp/cc8T7v4o.s:1950   .debug_str:000000000000038c .LASF107
     /tmp/cc8T7v4o.s:1868   .debug_str:0000000000000138 .LASF28
     /tmp/cc8T7v4o.s:1930   .debug_str:000000000000030e .LASF29
     /tmp/cc8T7v4o.s:1848   .debug_str:00000000000000ab .LASF30
     /tmp/cc8T7v4o.s:1828   .debug_str:0000000000000020 .LASF32
     /tmp/cc8T7v4o.s:1844   .debug_str:0000000000000099 .LASF33
     /tmp/cc8T7v4o.s:1982   .debug_str:0000000000000490 .LASF35
     /tmp/cc8T7v4o.s:2028   .debug_str:00000000000006d4 .LASF37
     /tmp/cc8T7v4o.s:1834   .debug_str:0000000000000045 .LASF38
     /tmp/cc8T7v4o.s:1994   .debug_str:00000000000004f1 .LASF40
     /tmp/cc8T7v4o.s:1866   .debug_str:000000000000012f .LASF42
     /tmp/cc8T7v4o.s:1886   .debug_str:00000000000001bb .LASF44
     /tmp/cc8T7v4o.s:1990   .debug_str:00000000000004db .LASF39
     /tmp/cc8T7v4o.s:1976   .debug_str:000000000000044b .LASF41
     /tmp/cc8T7v4o.s:2002   .debug_str:0000000000000535 .LASF43
     /tmp/cc8T7v4o.s:2010   .debug_str:000000000000062e .LASF45
     /tmp/cc8T7v4o.s:1902   .debug_str:0000000000000231 .LASF46
     /tmp/cc8T7v4o.s:1874   .debug_str:000000000000016e .LASF47
     /tmp/cc8T7v4o.s:1830   .debug_str:000000000000002d .LASF48
     /tmp/cc8T7v4o.s:1916   .debug_str:00000000000002a1 .LASF49
     /tmp/cc8T7v4o.s:1890   .debug_str:00000000000001d9 .LASF50
     /tmp/cc8T7v4o.s:1854   .debug_str:00000000000000d4 .LASF51
     /tmp/cc8T7v4o.s:1918   .debug_str:00000000000002b5 .LASF52
     /tmp/cc8T7v4o.s:1870   .debug_str:0000000000000144 .LASF53
     /tmp/cc8T7v4o.s:2034   .debug_str:000000000000070a .LASF54
     /tmp/cc8T7v4o.s:1986   .debug_str:00000000000004b1 .LASF55
     /tmp/cc8T7v4o.s:1924   .debug_str:00000000000002da .LASF56
     /tmp/cc8T7v4o.s:1996   .debug_str:0000000000000506 .LASF57
     /tmp/cc8T7v4o.s:1860   .debug_str:0000000000000109 .LASF58
GAS LISTING /tmp/cc8T7v4o.s 			page 12


     /tmp/cc8T7v4o.s:1920   .debug_str:00000000000002bd .LASF59
     /tmp/cc8T7v4o.s:1940   .debug_str:0000000000000351 .LASF60
     /tmp/cc8T7v4o.s:1912   .debug_str:000000000000026f .LASF61
     /tmp/cc8T7v4o.s:1948   .debug_str:0000000000000385 .LASF62
     /tmp/cc8T7v4o.s:2022   .debug_str:0000000000000699 .LASF63
     /tmp/cc8T7v4o.s:1970   .debug_str:0000000000000426 .LASF64
     /tmp/cc8T7v4o.s:1900   .debug_str:000000000000021e .LASF65
     /tmp/cc8T7v4o.s:1906   .debug_str:0000000000000244 .LASF66
     /tmp/cc8T7v4o.s:2000   .debug_str:0000000000000523 .LASF67
     /tmp/cc8T7v4o.s:1840   .debug_str:0000000000000081 .LASF68
     /tmp/cc8T7v4o.s:2042   .debug_str:000000000000073c .LASF69
     /tmp/cc8T7v4o.s:1992   .debug_str:00000000000004e2 .LASF70
     /tmp/cc8T7v4o.s:1856   .debug_str:00000000000000e8 .LASF71
     /tmp/cc8T7v4o.s:2018   .debug_str:0000000000000683 .LASF72
     /tmp/cc8T7v4o.s:1952   .debug_str:000000000000039b .LASF73
     /tmp/cc8T7v4o.s:2032   .debug_str:00000000000006f7 .LASF74
     /tmp/cc8T7v4o.s:1826   .debug_str:0000000000000000 .LASF75
     /tmp/cc8T7v4o.s:1978   .debug_str:000000000000045e .LASF76
     /tmp/cc8T7v4o.s:1838   .debug_str:000000000000005f .LASF78
     /tmp/cc8T7v4o.s:1968   .debug_str:0000000000000417 .LASF77
     /tmp/cc8T7v4o.s:1914   .debug_str:0000000000000285 .LASF79
     /tmp/cc8T7v4o.s:1842   .debug_str:0000000000000087 .LASF80
     /tmp/cc8T7v4o.s:2008   .debug_str:000000000000060f .LASF81
     /tmp/cc8T7v4o.s:1852   .debug_str:00000000000000c7 .LASF83
     /tmp/cc8T7v4o.s:1858   .debug_str:0000000000000104 .LASF84
     /tmp/cc8T7v4o.s:70     .text:0000000000000044 .LFB25
     /tmp/cc8T7v4o.s:224    .text:0000000000000148 .LFE25
     /tmp/cc8T7v4o.s:2020   .debug_str:000000000000068e .LASF85
     /tmp/cc8T7v4o.s:1904   .debug_str:0000000000000239 .LASF86
     /tmp/cc8T7v4o.s:1974   .debug_str:000000000000043c .LASF87
     /tmp/cc8T7v4o.s:92     .text:000000000000006c .LBB8
     /tmp/cc8T7v4o.s:104    .text:0000000000000070 .LBE8
     /tmp/cc8T7v4o.s:1775   .debug_loc:0000000000000000 .LLST1
     /tmp/cc8T7v4o.s:143    .text:00000000000000d8 .LBB10
     /tmp/cc8T7v4o.s:156    .text:00000000000000e0 .LBE10
     /tmp/cc8T7v4o.s:1782   .debug_loc:0000000000000023 .LLST2
     /tmp/cc8T7v4o.s:162    .text:00000000000000e4 .LBB12
     /tmp/cc8T7v4o.s:170    .text:00000000000000e8 .LBE12
     /tmp/cc8T7v4o.s:1790   .debug_loc:0000000000000047 .LLST3
     /tmp/cc8T7v4o.s:86     .text:0000000000000060 .LVL4
     /tmp/cc8T7v4o.s:116    .text:0000000000000090 .LVL7
     /tmp/cc8T7v4o.s:129    .text:00000000000000b8 .LVL8
     /tmp/cc8T7v4o.s:141    .text:00000000000000d8 .LVL9
     /tmp/cc8T7v4o.s:176    .text:00000000000000f4 .LVL13
     /tmp/cc8T7v4o.s:1884   .debug_str:00000000000001ab .LASF88
     /tmp/cc8T7v4o.s:2016   .debug_str:000000000000066d .LASF90
     /tmp/cc8T7v4o.s:39     .text:000000000000001c .LFB24
     /tmp/cc8T7v4o.s:64     .text:0000000000000044 .LFE24
     /tmp/cc8T7v4o.s:53     .text:0000000000000034 .LVL3
     /tmp/cc8T7v4o.s:2030   .debug_str:00000000000006ec .LASF91
     /tmp/cc8T7v4o.s:1836   .debug_str:000000000000004e .LASF92
     /tmp/cc8T7v4o.s:10     .text:0000000000000000 .LFB23
     /tmp/cc8T7v4o.s:33     .text:000000000000001c .LFE23
     /tmp/cc8T7v4o.s:1797   .debug_loc:000000000000006a .LLST0
     /tmp/cc8T7v4o.s:29     .text:0000000000000018 .LVL2
     /tmp/cc8T7v4o.s:2038   .debug_str:000000000000071a .LASF93
     /tmp/cc8T7v4o.s:1966   .debug_str:0000000000000411 .LASF94
GAS LISTING /tmp/cc8T7v4o.s 			page 13


     /tmp/cc8T7v4o.s:1894   .debug_str:00000000000001e6 .LASF95
     /tmp/cc8T7v4o.s:2024   .debug_str:00000000000006ac .LASF108
     /tmp/cc8T7v4o.s:1960   .debug_str:00000000000003d2 .LASF96
     /tmp/cc8T7v4o.s:1876   .debug_str:0000000000000182 .LASF98
     /tmp/cc8T7v4o.s:1898   .debug_str:0000000000000209 .LASF97
     /tmp/cc8T7v4o.s:1864   .debug_str:000000000000011f .LASF99
     /tmp/cc8T7v4o.s:1882   .debug_str:000000000000019e .LASF100
     /tmp/cc8T7v4o.s:1888   .debug_str:00000000000001d0 .LASF101
     /tmp/cc8T7v4o.s:91     .text:000000000000006c .LVL5
     /tmp/cc8T7v4o.s:101    .text:0000000000000070 .LVL6
     /tmp/cc8T7v4o.s:152    .text:00000000000000e0 .LVL10
     /tmp/cc8T7v4o.s:161    .text:00000000000000e4 .LVL11
     /tmp/cc8T7v4o.s:168    .text:00000000000000e8 .LVL12
     /tmp/cc8T7v4o.s:14     .text:0000000000000000 .LVL0
     /tmp/cc8T7v4o.s:23     .text:0000000000000010 .LVL1
     /tmp/cc8T7v4o.s:231    .debug_info:0000000000000000 .Ldebug_info0

UNDEFINED SYMBOLS
_Z15thread_dispatchv
_Z8userMainv
_ZN15MemoryAllocator10initializeEv
_ZN5Riscv14supervisorTrapEv
_ZN3TCB14newThrUserModeE
_Z13thread_createPP3TCBPFvPvES2_
_ZN3TCB7runningE
