GAS LISTING /tmp/cc7BSyQQ.s 			page 1


   1              		.file	"main.cpp"
   2              		.option pic
   3              		.option norelax
   4              		.text
   5              	.Ltext0:
   6              		.align	2
   7              		.globl	_Z10idleThreadPv
   9              	_Z10idleThreadPv:
  10              	.LFB19:
  11              		.file 1 "src/main.cpp"
   1:src/main.cpp  **** //
   2:src/main.cpp  **** // Created by os on 6/29/23.
   3:src/main.cpp  **** //
   4:src/main.cpp  **** 
   5:src/main.cpp  **** #include "../h/MemoryAllocator.hpp"
   6:src/main.cpp  **** #include "../lib/console.h"
   7:src/main.cpp  **** #include "../h/trap.hpp"
   8:src/main.cpp  **** #include "../h/syscall_c.hpp"
   9:src/main.cpp  **** #include "../h/TCB.hpp"
  10:src/main.cpp  **** #include "../h/Scheduler.hpp"
  11:src/main.cpp  **** #include "../h/print.hpp"
  12:src/main.cpp  **** #include "../h/workers.hpp"
  13:src/main.cpp  **** #include "../h/riscv.hpp"
  14:src/main.cpp  **** #include "../test/printing.hpp"
  15:src/main.cpp  **** 
  16:src/main.cpp  **** extern void userMain();
  17:src/main.cpp  **** 
  18:src/main.cpp  **** void idleThread(void *p) {
  12              		.loc 1 18 26
  13              		.cfi_startproc
  14              	.LVL0:
  15 0000 130101FF 		addi	sp,sp,-16
  16              		.cfi_def_cfa_offset 16
  17 0004 23341100 		sd	ra,8(sp)
  18 0008 23308100 		sd	s0,0(sp)
  19              		.cfi_offset 1, -8
  20              		.cfi_offset 8, -16
  21 000c 13040101 		addi	s0,sp,16
  22              		.cfi_def_cfa 8, 0
  23              	.LVL1:
  24              	.L2:
  19:src/main.cpp  ****     while(true){ thread_dispatch(); }
  25              		.loc 1 19 5 discriminator 1
  26              		.loc 1 19 18 discriminator 1
  27              		.loc 1 19 33 is_stmt 0 discriminator 1
  28 0010 97000000 		call	_Z15thread_dispatchv@plt
  28      E7800000 
  29              	.LVL2:
  30              		.loc 1 19 5 is_stmt 1 discriminator 1
  31 0018 6FF09FFF 		j	.L2
  32              		.cfi_endproc
  33              	.LFE19:
  35              		.section	.rodata.str1.8,"aMS",@progbits,1
  36              		.align	3
  37              	.LC0:
  38 0000 46696E69 		.string	"Finished\n"
  38      73686564 
GAS LISTING /tmp/cc7BSyQQ.s 			page 2


  38      0A00
  39              		.text
  40              		.align	2
  41              		.globl	main
  43              	main:
  44              	.LFB20:
  20:src/main.cpp  **** }
  21:src/main.cpp  **** 
  22:src/main.cpp  **** int main(){
  45              		.loc 1 22 11
  46              		.cfi_startproc
  47 001c 130101FB 		addi	sp,sp,-80
  48              		.cfi_def_cfa_offset 80
  49 0020 23341104 		sd	ra,72(sp)
  50 0024 23308104 		sd	s0,64(sp)
  51 0028 233C9102 		sd	s1,56(sp)
  52              		.cfi_offset 1, -8
  53              		.cfi_offset 8, -16
  54              		.cfi_offset 9, -24
  55 002c 13040105 		addi	s0,sp,80
  56              		.cfi_def_cfa 8, 0
  23:src/main.cpp  **** 
  24:src/main.cpp  ****     //__asm__ volatile ("csrw stvec, %[vector]" : : [vector] "r" (&supervisorTrap));
  25:src/main.cpp  ****     //dozvoljavanje prekida
  26:src/main.cpp  ****     //__asm__ volatile ("csrs sstatus, 0x02");
  27:src/main.cpp  **** 
  28:src/main.cpp  ****     MemoryAllocator::initialize();
  57              		.loc 1 28 5
  58              		.loc 1 28 32 is_stmt 0
  59 0030 97000000 		call	_ZN15MemoryAllocator10initializeEv@plt
  59      E7800000 
  60              	.LVL3:
  29:src/main.cpp  ****     Riscv::w_stvec((uint64)&Riscv::supervisorTrap+1);
  61              		.loc 1 29 5 is_stmt 1
  62              		.loc 1 29 19 is_stmt 0
  63 0038 97070000 		la	a5,_ZN5Riscv14supervisorTrapEv
  63      83B70700 
  64 0040 93871700 		addi	a5,a5,1
  65              	.LVL4:
  66              	.LBB15:
  67              	.LBB16:
  68              		.file 2 "src/../h/riscv.hpp"
   1:src/../h/riscv.hpp **** //
   2:src/../h/riscv.hpp **** // Created by os on 7/24/23.
   3:src/../h/riscv.hpp **** //
   4:src/../h/riscv.hpp **** 
   5:src/../h/riscv.hpp **** #ifndef PROJECT_BASE_RISCV_HPP
   6:src/../h/riscv.hpp **** #define PROJECT_BASE_RISCV_HPP
   7:src/../h/riscv.hpp **** 
   8:src/../h/riscv.hpp **** #include "../lib/hw.h"
   9:src/../h/riscv.hpp **** //sa vezbi 7
  10:src/../h/riscv.hpp **** 
  11:src/../h/riscv.hpp **** class Riscv{
  12:src/../h/riscv.hpp **** 
  13:src/../h/riscv.hpp **** public:
  14:src/../h/riscv.hpp **** 
  15:src/../h/riscv.hpp ****     //supervisor previous privileged, previousInterruptEnable
GAS LISTING /tmp/cc7BSyQQ.s 			page 3


  16:src/../h/riscv.hpp ****     //mora da bude ne inline da se poziva
  17:src/../h/riscv.hpp ****     static void popSppSpie();
  18:src/../h/riscv.hpp **** 
  19:src/../h/riscv.hpp ****     static void pushRegs();
  20:src/../h/riscv.hpp ****     static void popRegs();
  21:src/../h/riscv.hpp **** 
  22:src/../h/riscv.hpp ****     static uint64 r_scause();
  23:src/../h/riscv.hpp ****     static void w_scause(uint64 scause);
  24:src/../h/riscv.hpp ****     static uint64 r_sepc();
  25:src/../h/riscv.hpp ****     static void w_sepc(uint64 sepc);
  26:src/../h/riscv.hpp ****     static uint64 r_stvec();
  27:src/../h/riscv.hpp ****     static void w_stvec(uint64 stvec);
  28:src/../h/riscv.hpp ****     static uint64 r_stval();
  29:src/../h/riscv.hpp ****     static void w_stval(uint64 stval);
  30:src/../h/riscv.hpp **** 
  31:src/../h/riscv.hpp ****     enum BitMaskSStatus{
  32:src/../h/riscv.hpp ****         SSTATUS_SIE=(1<<1),
  33:src/../h/riscv.hpp ****         SSTATUS_SPIE=(1<<5),
  34:src/../h/riscv.hpp ****         SSTATUS_SPP=(1<<8)
  35:src/../h/riscv.hpp ****     };
  36:src/../h/riscv.hpp **** 
  37:src/../h/riscv.hpp ****     static void ms_sstatus(uint64 mask);
  38:src/../h/riscv.hpp ****     static void mc_sstatus(uint64 mask);
  39:src/../h/riscv.hpp ****     static uint64 r_sstatus();
  40:src/../h/riscv.hpp ****     static void w_sstatus(uint64 sstatus);
  41:src/../h/riscv.hpp **** 
  42:src/../h/riscv.hpp **** 
  43:src/../h/riscv.hpp ****     enum BitMasSip{
  44:src/../h/riscv.hpp ****         SIP_SSIP=(1<<1),//software interrupt pending
  45:src/../h/riscv.hpp ****         SIP_STIP=(1 << 5),
  46:src/../h/riscv.hpp ****         SIP_SEIP=(1 << 9)
  47:src/../h/riscv.hpp ****     };
  48:src/../h/riscv.hpp **** 
  49:src/../h/riscv.hpp ****     static void ms_sip(uint64 mask);
  50:src/../h/riscv.hpp ****     static void mc_sip(uint64 mask);
  51:src/../h/riscv.hpp ****     static uint64 r_sip();
  52:src/../h/riscv.hpp ****     static void w_sip(uint64 sip);
  53:src/../h/riscv.hpp **** 
  54:src/../h/riscv.hpp ****     static void supervisorTrap();
  55:src/../h/riscv.hpp **** 
  56:src/../h/riscv.hpp **** 
  57:src/../h/riscv.hpp **** 
  58:src/../h/riscv.hpp **** private:
  59:src/../h/riscv.hpp **** 
  60:src/../h/riscv.hpp ****     static void handleSupervisorTrap();
  61:src/../h/riscv.hpp ****     static void timerInterrupt();
  62:src/../h/riscv.hpp ****     static void hardwareInterrupt();
  63:src/../h/riscv.hpp **** 
  64:src/../h/riscv.hpp **** };
  65:src/../h/riscv.hpp **** 
  66:src/../h/riscv.hpp **** inline uint64 Riscv::r_scause() {
  67:src/../h/riscv.hpp ****     uint64 volatile scause;
  68:src/../h/riscv.hpp ****     __asm__ volatile("csrr %[scause], scause":[scause]"=r"(scause));
  69:src/../h/riscv.hpp ****     return scause;
  70:src/../h/riscv.hpp **** }
  71:src/../h/riscv.hpp **** inline void Riscv::w_scause(uint64 scause) {
  72:src/../h/riscv.hpp ****     __asm__ volatile("csrw scause, %[scause]"::[scause]"r"(scause));
GAS LISTING /tmp/cc7BSyQQ.s 			page 4


  73:src/../h/riscv.hpp **** }
  74:src/../h/riscv.hpp **** 
  75:src/../h/riscv.hpp **** inline uint64 Riscv::r_sepc(){
  76:src/../h/riscv.hpp ****     uint64 volatile sepc;
  77:src/../h/riscv.hpp ****     __asm__ volatile("csrr %[sepc], sepc":[sepc]"=r"(sepc));
  78:src/../h/riscv.hpp ****     return sepc;
  79:src/../h/riscv.hpp **** }
  80:src/../h/riscv.hpp **** inline void Riscv::w_sepc(uint64 sepc) {
  81:src/../h/riscv.hpp ****     __asm__ volatile("csrw sepc, %[sepc]"::[sepc]"r"(sepc));
  82:src/../h/riscv.hpp **** }
  83:src/../h/riscv.hpp **** inline uint64 Riscv::r_stvec(){
  84:src/../h/riscv.hpp ****     uint64 volatile stvec;
  85:src/../h/riscv.hpp ****     __asm__ volatile("csrr %[stvec], stvec":[stvec]"=r"(stvec));
  86:src/../h/riscv.hpp ****     return stvec;
  87:src/../h/riscv.hpp **** }
  88:src/../h/riscv.hpp **** inline void Riscv::w_stvec(uint64 stvec) {
  89:src/../h/riscv.hpp ****     __asm__ volatile("csrw stvec, %[stvec]"::[stvec]"r"(stvec));
  69              		.loc 2 89 5 is_stmt 1
  70              		.loc 2 89 64 is_stmt 0
  71              	#APP
  72              	# 89 "src/../h/riscv.hpp" 1
  90              	}
  73              		csrw stvec, a5
  74              	# 0 "" 2
  75              	.LVL5:
  76              	#NO_APP
  77              	.LBE16:
  78              	.LBE15:
  30:src/main.cpp  **** 
  31:src/main.cpp  ****     //Riscv::ms_sstatus(Riscv::SSTATUS_SIE);//dozvoljavanje prekida
  32:src/main.cpp  **** 
  33:src/main.cpp  **** 
  34:src/main.cpp  **** 
  35:src/main.cpp  **** 
  36:src/main.cpp  ****     /*uint64 *stack1=(uint64*) mem_alloc(DEFAULT_STACK_SIZE*8);
  37:src/main.cpp  ****     uint64 *stack2=(uint64*) mem_alloc(DEFAULT_STACK_SIZE*8);
  38:src/main.cpp  ****     uint64 *stack3=(uint64*) mem_alloc(DEFAULT_STACK_SIZE*8);
  39:src/main.cpp  ****     uint64 *stack4=(uint64*) mem_alloc(DEFAULT_STACK_SIZE*8);
  40:src/main.cpp  **** 
  41:src/main.cpp  **** 
  42:src/main.cpp  **** 
  43:src/main.cpp  **** 
  44:src/main.cpp  ****     TCB *threads[5];
  45:src/main.cpp  **** 
  46:src/main.cpp  ****     threads[0]= TCB::createThread(nullptr, nullptr, nullptr);
  47:src/main.cpp  ****     TCB::running=threads[0];//main nit
  48:src/main.cpp  **** 
  49:src/main.cpp  **** 
  50:src/main.cpp  **** 
  51:src/main.cpp  ****     threads[1]= TCB::createThread(workerBodyA, stack1, nullptr);
  52:src/main.cpp  ****     threads[2]= TCB::createThread(workerBodyB, stack2, nullptr);
  53:src/main.cpp  ****     threads[3]= TCB::createThread(workerBodyC, stack3, nullptr);
  54:src/main.cpp  ****     threads[4]= TCB::createThread(workerBodyD, stack4, nullptr);
  55:src/main.cpp  **** 
  56:src/main.cpp  **** 
  57:src/main.cpp  ****     Riscv::ms_sstatus(Riscv::SSTATUS_SIE);//dozvoljavanje prekida
  58:src/main.cpp  **** 
GAS LISTING /tmp/cc7BSyQQ.s 			page 5


  59:src/main.cpp  ****     while(!(threads[1]->isFinished() && threads[2]->isFinished() && threads[3]->isFinished() && thr
  60:src/main.cpp  ****         TCB::yield();
  61:src/main.cpp  **** 
  62:src/main.cpp  ****     for(auto &thread :threads)
  63:src/main.cpp  ****         delete thread;
  64:src/main.cpp  ****     printString("Finished\n");*/
  65:src/main.cpp  **** 
  66:src/main.cpp  **** 
  67:src/main.cpp  **** 
  68:src/main.cpp  **** 
  69:src/main.cpp  **** 
  70:src/main.cpp  **** 
  71:src/main.cpp  **** 
  72:src/main.cpp  **** 
  73:src/main.cpp  **** 
  74:src/main.cpp  **** 
  75:src/main.cpp  **** 
  76:src/main.cpp  ****     //TCB::newThrUserMode=true;
  77:src/main.cpp  **** 
  78:src/main.cpp  ****     TCB *threads[5];
  79              		.loc 1 78 5 is_stmt 1
  79:src/main.cpp  ****     /*thread_t* handle1=(thread_t*) mem_alloc(sizeof (thread_t));
  80:src/main.cpp  ****     thread_t* handle2=(thread_t*) mem_alloc(sizeof (thread_t));
  81:src/main.cpp  ****     thread_t* handle3=(thread_t*) mem_alloc(sizeof (thread_t));
  82:src/main.cpp  ****     thread_t* handle4=(thread_t*) mem_alloc(sizeof (thread_t));*/
  83:src/main.cpp  **** 
  84:src/main.cpp  ****     thread_create(&threads[0], nullptr, nullptr);
  80              		.loc 1 84 5
  81              		.loc 1 84 18 is_stmt 0
  82 0048 13060000 		li	a2,0
  83 004c 93050000 		li	a1,0
  84 0050 130584FB 		addi	a0,s0,-72
  85 0054 97000000 		call	_Z13thread_createPP3TCBPFvPvES2_@plt
  85      E7800000 
  86              	.LVL6:
  85:src/main.cpp  ****     TCB::running=threads[0];
  87              		.loc 1 85 5 is_stmt 1
  88              		.loc 1 85 17 is_stmt 0
  89 005c 033784FB 		ld	a4,-72(s0)
  90 0060 97070000 		la	a5,_ZN3TCB7runningE
  90      83B70700 
  91 0068 23B0E700 		sd	a4,0(a5)
  86:src/main.cpp  **** 
  87:src/main.cpp  ****     /*thread_create( handle1, workerBodyA,nullptr);
  88:src/main.cpp  ****     thread_create(handle2, workerBodyB,nullptr);
  89:src/main.cpp  ****     thread_create(handle3, workerBodyC,nullptr);
  90:src/main.cpp  ****     thread_create(handle4, workerBodyD,nullptr);*/
  91:src/main.cpp  **** 
  92:src/main.cpp  ****     thread_create( &threads[1], workerBodyA,nullptr);
  92              		.loc 1 92 5 is_stmt 1
  93              		.loc 1 92 18 is_stmt 0
  94 006c 13060000 		li	a2,0
  95 0070 97050000 		la	a1,_Z11workerBodyAPv
  95      83B50500 
  96 0078 130504FC 		addi	a0,s0,-64
  97 007c 97000000 		call	_Z13thread_createPP3TCBPFvPvES2_@plt
  97      E7800000 
GAS LISTING /tmp/cc7BSyQQ.s 			page 6


  98              	.LVL7:
  93:src/main.cpp  ****     thread_create(&threads[2], workerBodyB,nullptr);
  99              		.loc 1 93 5 is_stmt 1
 100              		.loc 1 93 18 is_stmt 0
 101 0084 13060000 		li	a2,0
 102 0088 97050000 		la	a1,_Z11workerBodyBPv
 102      83B50500 
 103 0090 130584FC 		addi	a0,s0,-56
 104 0094 97000000 		call	_Z13thread_createPP3TCBPFvPvES2_@plt
 104      E7800000 
 105              	.LVL8:
  94:src/main.cpp  ****     thread_create(&threads[3], workerBodyC,nullptr);
 106              		.loc 1 94 5 is_stmt 1
 107              		.loc 1 94 18 is_stmt 0
 108 009c 13060000 		li	a2,0
 109 00a0 97050000 		la	a1,_Z11workerBodyCPv
 109      83B50500 
 110 00a8 130504FD 		addi	a0,s0,-48
 111 00ac 97000000 		call	_Z13thread_createPP3TCBPFvPvES2_@plt
 111      E7800000 
 112              	.LVL9:
  95:src/main.cpp  ****     thread_create(&threads[4], workerBodyD,nullptr);
 113              		.loc 1 95 5 is_stmt 1
 114              		.loc 1 95 18 is_stmt 0
 115 00b4 13060000 		li	a2,0
 116 00b8 97050000 		la	a1,_Z11workerBodyDPv
 116      83B50500 
 117 00c0 130584FD 		addi	a0,s0,-40
 118 00c4 97000000 		call	_Z13thread_createPP3TCBPFvPvES2_@plt
 118      E7800000 
 119              	.LVL10:
  96:src/main.cpp  **** 
  97:src/main.cpp  ****     Riscv::ms_sstatus(Riscv::SSTATUS_SIE);//dozvoljavanje prekida
 120              		.loc 1 97 5 is_stmt 1
 121              	.LBB17:
 122              	.LBB18:
  91:src/../h/riscv.hpp **** inline uint64 Riscv::r_stval(){
  92:src/../h/riscv.hpp ****     uint64 volatile stval;
  93:src/../h/riscv.hpp ****     __asm__ volatile("csrr %[stval], stval":[stval]"=r"(stval));
  94:src/../h/riscv.hpp ****     return stval;
  95:src/../h/riscv.hpp **** }
  96:src/../h/riscv.hpp **** inline void Riscv::w_stval(uint64 stval) {
  97:src/../h/riscv.hpp ****     __asm__ volatile("csrw stval, %[stval]"::[stval]"r"(stval));
  98:src/../h/riscv.hpp **** }
  99:src/../h/riscv.hpp **** 
 100:src/../h/riscv.hpp **** inline void Riscv::ms_sip(uint64 mask) {
 101:src/../h/riscv.hpp ****     __asm__ volatile("csrs sip, %[mask]"::[mask]"r"(mask));
 102:src/../h/riscv.hpp **** }
 103:src/../h/riscv.hpp **** inline void Riscv::mc_sip(uint64 mask) {
 104:src/../h/riscv.hpp ****     __asm__ volatile("csrc sip, %[mask]"::[mask]"r"(mask));
 105:src/../h/riscv.hpp **** }
 106:src/../h/riscv.hpp **** 
 107:src/../h/riscv.hpp **** 
 108:src/../h/riscv.hpp **** inline uint64 Riscv::r_sip(){
 109:src/../h/riscv.hpp ****     uint64 volatile sip;
 110:src/../h/riscv.hpp ****     __asm__ volatile("csrr %[sip], sip":[sip]"=r"(sip));
 111:src/../h/riscv.hpp ****     return sip;
GAS LISTING /tmp/cc7BSyQQ.s 			page 7


 112:src/../h/riscv.hpp **** }
 113:src/../h/riscv.hpp **** inline void Riscv::w_sip(uint64 sip) {
 114:src/../h/riscv.hpp ****     __asm__ volatile("csrw sip, %[sip]"::[sip]"r"(sip));
 115:src/../h/riscv.hpp **** }
 116:src/../h/riscv.hpp **** 
 117:src/../h/riscv.hpp **** inline void Riscv::ms_sstatus(uint64 mask) {
 118:src/../h/riscv.hpp ****     __asm__ volatile("csrs sstatus, %[mask]"::[mask]"r"(mask));
 123              		.loc 2 118 5
 124              		.loc 2 118 63 is_stmt 0
 125 00cc 93072000 		li	a5,2
 126              	#APP
 127              	# 118 "src/../h/riscv.hpp" 1
 119              	}
 128              		csrs sstatus, a5
 129              	# 0 "" 2
 130              		.loc 2 119 1
 131              	#NO_APP
 132 00d4 6F00C000 		j	.L7
 133              	.LVL11:
 134              	.L5:
 135              	.LBE18:
 136              	.LBE17:
  98:src/main.cpp  **** 
  99:src/main.cpp  **** 
 100:src/main.cpp  ****     //while(!((*(TCB**)handle1)->isFinished() && (*(TCB**)handle2)->isFinished()&& (*(TCB**)handle3
 101:src/main.cpp  ****         //thread_dispatch();
 102:src/main.cpp  **** 
 103:src/main.cpp  ****     while(!(threads[1]->isFinished() && threads[2]->isFinished() && threads[3]->isFinished() && thr
 104:src/main.cpp  ****         thread_dispatch();
 137              		.loc 1 104 9 is_stmt 1 discriminator 7
 138              		.loc 1 104 24 is_stmt 0 discriminator 7
 139 00d8 97000000 		call	_Z15thread_dispatchv@plt
 139      E7800000 
 140              	.LVL12:
 141              	.L7:
 103:src/main.cpp  ****         thread_dispatch();
 142              		.loc 1 103 5 is_stmt 1
 103:src/main.cpp  ****         thread_dispatch();
 143              		.loc 1 103 11
 103:src/main.cpp  ****         thread_dispatch();
 144              		.loc 1 103 22 is_stmt 0
 145 00e0 833704FC 		ld	a5,-64(s0)
 146              	.LVL13:
 147              	.LBB19:
 148              	.LBB20:
 149              		.file 3 "src/../h/../h/TCB.hpp"
   1:src/../h/../h/TCB.hpp **** //
   2:src/../h/../h/TCB.hpp **** // Created by os on 7/18/23.
   3:src/../h/../h/TCB.hpp **** //
   4:src/../h/../h/TCB.hpp **** 
   5:src/../h/../h/TCB.hpp **** //sa vezbi 7
   6:src/../h/../h/TCB.hpp **** 
   7:src/../h/../h/TCB.hpp **** #ifndef PROJECT_BASE_TCB_HPP
   8:src/../h/../h/TCB.hpp **** #define PROJECT_BASE_TCB_HPP
   9:src/../h/../h/TCB.hpp **** 
  10:src/../h/../h/TCB.hpp **** #include "../lib/hw.h"
  11:src/../h/../h/TCB.hpp **** 
GAS LISTING /tmp/cc7BSyQQ.s 			page 8


  12:src/../h/../h/TCB.hpp **** class TCB{
  13:src/../h/../h/TCB.hpp **** public:
  14:src/../h/../h/TCB.hpp ****     virtual ~TCB();
  15:src/../h/../h/TCB.hpp ****     bool isFinished() const{
  16:src/../h/../h/TCB.hpp ****         return finished;
 150              		.loc 3 16 9 is_stmt 1
 151              		.loc 3 16 16 is_stmt 0
 152 00e4 83C70703 		lbu	a5,48(a5)
 153              	.LVL14:
 154              	.LBE20:
 155              	.LBE19:
 103:src/main.cpp  ****         thread_dispatch();
 156              		.loc 1 103 11
 157 00e8 E38807FE 		beqz	a5,.L5
 103:src/main.cpp  ****         thread_dispatch();
 158              		.loc 1 103 50 discriminator 2
 159 00ec 833784FC 		ld	a5,-56(s0)
 160              	.LVL15:
 161              	.LBB21:
 162              	.LBB22:
 163              		.loc 3 16 9 is_stmt 1 discriminator 2
 164              		.loc 3 16 16 is_stmt 0 discriminator 2
 165 00f0 83C70703 		lbu	a5,48(a5)
 166              	.LVL16:
 167              	.LBE22:
 168              	.LBE21:
 103:src/main.cpp  ****         thread_dispatch();
 169              		.loc 1 103 38 discriminator 2
 170 00f4 E38207FE 		beqz	a5,.L5
 103:src/main.cpp  ****         thread_dispatch();
 171              		.loc 1 103 78 discriminator 4
 172 00f8 833704FD 		ld	a5,-48(s0)
 173              	.LVL17:
 174              	.LBB23:
 175              	.LBB24:
 176              		.loc 3 16 9 is_stmt 1 discriminator 4
 177              		.loc 3 16 16 is_stmt 0 discriminator 4
 178 00fc 83C70703 		lbu	a5,48(a5)
 179              	.LVL18:
 180              	.LBE24:
 181              	.LBE23:
 103:src/main.cpp  ****         thread_dispatch();
 182              		.loc 1 103 66 discriminator 4
 183 0100 E38C07FC 		beqz	a5,.L5
 103:src/main.cpp  ****         thread_dispatch();
 184              		.loc 1 103 106 discriminator 6
 185 0104 833784FD 		ld	a5,-40(s0)
 186              	.LVL19:
 187              	.LBB25:
 188              	.LBB26:
 189              		.loc 3 16 9 is_stmt 1 discriminator 6
 190              		.loc 3 16 16 is_stmt 0 discriminator 6
 191 0108 83C70703 		lbu	a5,48(a5)
 192              	.LVL20:
 193              	.LBE26:
 194              	.LBE25:
 103:src/main.cpp  ****         thread_dispatch();
GAS LISTING /tmp/cc7BSyQQ.s 			page 9


 195              		.loc 1 103 11 discriminator 6
 196 010c E38607FC 		beqz	a5,.L5
 197 0110 930484FB 		addi	s1,s0,-72
 198 0114 6F008000 		j	.L6
 199              	.LVL21:
 200              	.L9:
 201              	.LBB27:
 105:src/main.cpp  **** 
 106:src/main.cpp  ****     for(auto &thread :threads)
 202              		.loc 1 106 5 is_stmt 1 discriminator 3
 203 0118 93848400 		addi	s1,s1,8
 204              	.LVL22:
 205              	.L6:
 206              		.loc 1 106 23 discriminator 1
 207 011c 930704FE 		addi	a5,s0,-32
 208 0120 638EF400 		beq	s1,a5,.L8
 209              	.LVL23:
 107:src/main.cpp  ****         delete thread;
 210              		.loc 1 107 9 discriminator 2
 211              		.loc 1 107 16 is_stmt 0 discriminator 2
 212 0124 03B50400 		ld	a0,0(s1)
 213              		.loc 1 107 22 discriminator 2
 214 0128 E30805FE 		beqz	a0,.L9
 215              		.loc 1 107 16 discriminator 1
 216 012c 83370500 		ld	a5,0(a0)
 217 0130 83B78700 		ld	a5,8(a5)
 218 0134 E7800700 		jalr	a5
 219              	.LVL24:
 220 0138 6FF01FFE 		j	.L9
 221              	.LVL25:
 222              	.L8:
 223              	.LBE27:
 108:src/main.cpp  **** 
 109:src/main.cpp  ****     printString("Finished\n");
 224              		.loc 1 109 5 is_stmt 1
 225              		.loc 1 109 16 is_stmt 0
 226 013c 17050000 		lla	a0,.LC0
 226      13050500 
 227 0144 97000000 		call	_Z11printStringPKc@plt
 227      E7800000 
 228              	.LVL26:
 110:src/main.cpp  **** 
 111:src/main.cpp  ****     /*delete *handle1;
 112:src/main.cpp  ****     delete *handle2;
 113:src/main.cpp  ****     delete *handle3;
 114:src/main.cpp  ****     delete *handle4;
 115:src/main.cpp  ****     delete handle1;
 116:src/main.cpp  ****     delete handle2;
 117:src/main.cpp  ****     delete handle3;
 118:src/main.cpp  ****     delete handle4;*/
 119:src/main.cpp  **** 
 120:src/main.cpp  **** 
 121:src/main.cpp  **** 
 122:src/main.cpp  **** 
 123:src/main.cpp  **** 
 124:src/main.cpp  **** 
 125:src/main.cpp  **** 
GAS LISTING /tmp/cc7BSyQQ.s 			page 10


 126:src/main.cpp  **** 
 127:src/main.cpp  **** 
 128:src/main.cpp  **** 
 129:src/main.cpp  **** 
 130:src/main.cpp  **** 
 131:src/main.cpp  **** 
 132:src/main.cpp  **** 
 133:src/main.cpp  **** 
 134:src/main.cpp  **** 
 135:src/main.cpp  ****     /*TCB::newThrUserMode=false;
 136:src/main.cpp  ****     TCB* handleMain;
 137:src/main.cpp  ****     thread_create(&handleMain, nullptr, nullptr);
 138:src/main.cpp  ****     TCB::running=handleMain;
 139:src/main.cpp  **** 
 140:src/main.cpp  ****     TCB* handleIdle;
 141:src/main.cpp  ****     thread_create(&handleIdle, idleThread, nullptr);
 142:src/main.cpp  **** 
 143:src/main.cpp  ****     //Riscv::ms_sstatus(Riscv::SSTATUS_SIE);//dozvoljavanje prekida
 144:src/main.cpp  **** 
 145:src/main.cpp  ****     TCB::newThrUserMode=true;
 146:src/main.cpp  ****     Riscv::popSppSpie();
 147:src/main.cpp  ****     userMain();*/
 148:src/main.cpp  **** 
 149:src/main.cpp  ****     return 0;
 229              		.loc 1 149 5 is_stmt 1
 150:src/main.cpp  **** }...
 230              		.loc 1 150 1 is_stmt 0
 231 014c 13050000 		li	a0,0
 232 0150 83308104 		ld	ra,72(sp)
 233              		.cfi_restore 1
 234 0154 03340104 		ld	s0,64(sp)
 235              		.cfi_restore 8
 236              		.cfi_def_cfa 2, 80
 237 0158 83348103 		ld	s1,56(sp)
 238              		.cfi_restore 9
 239              	.LVL27:
 240 015c 13010105 		addi	sp,sp,80
 241              		.cfi_def_cfa_offset 0
 242 0160 67800000 		jr	ra
 243              		.cfi_endproc
 244              	.LFE20:
 246              	.Letext0:
 247              		.file 4 "src/../h/../lib/hw.h"
 248              		.file 5 "src/../h/MemoryAllocator.hpp"
 249              		.file 6 "src/../h/syscall_c.hpp"
 250              		.file 7 "src/../test/printing.hpp"
GAS LISTING /tmp/cc7BSyQQ.s 			page 11

