GAS LISTING /tmp/cc9TbC67.s 			page 1


   1              		.file	"main.cpp"
   2              		.option pic
   3              		.option norelax
   4              		.text
   5              	.Ltext0:
   6              		.section	.rodata.str1.8,"aMS",@progbits,1
   7              		.align	3
   8              	.LC0:
   9 0000 46696E69 		.string	"Finished\n"
   9      73686564 
   9      0A00
  10              		.text
  11              		.align	2
  12              		.globl	main
  14              	main:
  15              	.LFB19:
  16              		.file 1 "src/main.cpp"
   1:src/main.cpp  **** //
   2:src/main.cpp  **** // Created by os on 6/29/23.
   3:src/main.cpp  **** //
   4:src/main.cpp  **** 
   5:src/main.cpp  **** #include "../h/MemoryAllocator.hpp"
   6:src/main.cpp  **** #include "../lib/console.h"
   7:src/main.cpp  **** #include "../h/trap.hpp"
   8:src/main.cpp  **** #include "../h/syscall_c.hpp"
   9:src/main.cpp  **** #include "../h/TCB.hpp"
  10:src/main.cpp  **** #include "../h/Scheduler.hpp"
  11:src/main.cpp  **** #include "../h/print.hpp"
  12:src/main.cpp  **** #include "../h/workers.hpp"
  13:src/main.cpp  **** #include "../h/riscv.hpp"
  14:src/main.cpp  **** 
  15:src/main.cpp  **** int main(){
  17              		.loc 1 15 11
  18              		.cfi_startproc
  19 0000 130101FA 		addi	sp,sp,-96
  20              		.cfi_def_cfa_offset 96
  21 0004 233C1104 		sd	ra,88(sp)
  22 0008 23388104 		sd	s0,80(sp)
  23 000c 23349104 		sd	s1,72(sp)
  24 0010 23302105 		sd	s2,64(sp)
  25 0014 233C3103 		sd	s3,56(sp)
  26 0018 23384103 		sd	s4,48(sp)
  27              		.cfi_offset 1, -8
  28              		.cfi_offset 8, -16
  29              		.cfi_offset 9, -24
  30              		.cfi_offset 18, -32
  31              		.cfi_offset 19, -40
  32              		.cfi_offset 20, -48
  33 001c 13040106 		addi	s0,sp,96
  34              		.cfi_def_cfa 8, 0
  16:src/main.cpp  **** 
  17:src/main.cpp  ****     //__asm__ volatile ("csrw stvec, %[vector]" : : [vector] "r" (&supervisorTrap));
  18:src/main.cpp  ****     //dozvoljavanje prekida
  19:src/main.cpp  ****     //__asm__ volatile ("csrs sstatus, 0x02");
  20:src/main.cpp  **** 
  21:src/main.cpp  ****     MemoryAllocator::initialize();
  35              		.loc 1 21 5
GAS LISTING /tmp/cc9TbC67.s 			page 2


  36              		.loc 1 21 32 is_stmt 0
  37 0020 97000000 		call	_ZN15MemoryAllocator10initializeEv@plt
  37      E7800000 
  38              	.LVL0:
  22:src/main.cpp  ****     Riscv::w_stvec((uint64)&Riscv::supervisorTrap+1);
  39              		.loc 1 22 5 is_stmt 1
  40              		.loc 1 22 19 is_stmt 0
  41 0028 97070000 		la	a5,_ZN5Riscv14supervisorTrapEv
  41      83B70700 
  42 0030 93871700 		addi	a5,a5,1
  43              	.LVL1:
  44              	.LBB13:
  45              	.LBB14:
  46              		.file 2 "src/../h/riscv.hpp"
   1:src/../h/riscv.hpp **** //
   2:src/../h/riscv.hpp **** // Created by os on 7/24/23.
   3:src/../h/riscv.hpp **** //
   4:src/../h/riscv.hpp **** 
   5:src/../h/riscv.hpp **** #ifndef PROJECT_BASE_RISCV_HPP
   6:src/../h/riscv.hpp **** #define PROJECT_BASE_RISCV_HPP
   7:src/../h/riscv.hpp **** 
   8:src/../h/riscv.hpp **** #include "../lib/hw.h"
   9:src/../h/riscv.hpp **** //sa vezbi 7
  10:src/../h/riscv.hpp **** 
  11:src/../h/riscv.hpp **** class Riscv{
  12:src/../h/riscv.hpp **** 
  13:src/../h/riscv.hpp **** public:
  14:src/../h/riscv.hpp **** 
  15:src/../h/riscv.hpp ****     //supervisor previous privileged, previousInterruptEnable
  16:src/../h/riscv.hpp ****     //mora da bude ne inline da se poziva
  17:src/../h/riscv.hpp ****     static void popSppSpie();
  18:src/../h/riscv.hpp **** 
  19:src/../h/riscv.hpp ****     static void pushRegs();
  20:src/../h/riscv.hpp ****     static void popRegs();
  21:src/../h/riscv.hpp **** 
  22:src/../h/riscv.hpp ****     static uint64 r_scause();
  23:src/../h/riscv.hpp ****     static void w_scause(uint64 scause);
  24:src/../h/riscv.hpp ****     static uint64 r_sepc();
  25:src/../h/riscv.hpp ****     static void w_sepc(uint64 sepc);
  26:src/../h/riscv.hpp ****     static uint64 r_stvec();
  27:src/../h/riscv.hpp ****     static void w_stvec(uint64 stvec);
  28:src/../h/riscv.hpp ****     static uint64 r_stval();
  29:src/../h/riscv.hpp ****     static void w_stval(uint64 stval);
  30:src/../h/riscv.hpp **** 
  31:src/../h/riscv.hpp ****     enum BitMaskSStatus{
  32:src/../h/riscv.hpp ****         SSTATUS_SIE=(1<<1),
  33:src/../h/riscv.hpp ****         SSTATUS_SPIE=(1<<5),
  34:src/../h/riscv.hpp ****         SSTATUS_SPP=(1<<8)
  35:src/../h/riscv.hpp ****     };
  36:src/../h/riscv.hpp **** 
  37:src/../h/riscv.hpp ****     static void ms_sstatus(uint64 mask);
  38:src/../h/riscv.hpp ****     static void mc_sstatus(uint64 mask);
  39:src/../h/riscv.hpp ****     static uint64 r_sstatus();
  40:src/../h/riscv.hpp ****     static void w_sstatus(uint64 sstatus);
  41:src/../h/riscv.hpp **** 
  42:src/../h/riscv.hpp **** 
  43:src/../h/riscv.hpp ****     enum BitMasSip{
GAS LISTING /tmp/cc9TbC67.s 			page 3


  44:src/../h/riscv.hpp ****         SIP_SSIP=(1<<1),//software interrupt pending
  45:src/../h/riscv.hpp ****         SIP_STIP=(1 << 5),
  46:src/../h/riscv.hpp ****         SIP_SEIP=(1 << 9)
  47:src/../h/riscv.hpp ****     };
  48:src/../h/riscv.hpp **** 
  49:src/../h/riscv.hpp ****     static void ms_sip(uint64 mask);
  50:src/../h/riscv.hpp ****     static void mc_sip(uint64 mask);
  51:src/../h/riscv.hpp ****     static uint64 r_sip();
  52:src/../h/riscv.hpp ****     static void w_sip(uint64 sip);
  53:src/../h/riscv.hpp **** 
  54:src/../h/riscv.hpp ****     static void supervisorTrap();
  55:src/../h/riscv.hpp **** 
  56:src/../h/riscv.hpp **** 
  57:src/../h/riscv.hpp **** 
  58:src/../h/riscv.hpp **** private:
  59:src/../h/riscv.hpp **** 
  60:src/../h/riscv.hpp ****     static void handleSupervisorTrap();
  61:src/../h/riscv.hpp ****     static void timerInterrupt();
  62:src/../h/riscv.hpp ****     static void hardwareInterrupt();
  63:src/../h/riscv.hpp **** 
  64:src/../h/riscv.hpp **** };
  65:src/../h/riscv.hpp **** 
  66:src/../h/riscv.hpp **** inline uint64 Riscv::r_scause() {
  67:src/../h/riscv.hpp ****     uint64 volatile scause;
  68:src/../h/riscv.hpp ****     __asm__ volatile("csrr %[scause], scause":[scause]"=r"(scause));
  69:src/../h/riscv.hpp ****     return scause;
  70:src/../h/riscv.hpp **** }
  71:src/../h/riscv.hpp **** inline void Riscv::w_scause(uint64 scause) {
  72:src/../h/riscv.hpp ****     __asm__ volatile("csrw scause, %[scause]"::[scause]"r"(scause));
  73:src/../h/riscv.hpp **** }
  74:src/../h/riscv.hpp **** 
  75:src/../h/riscv.hpp **** inline uint64 Riscv::r_sepc(){
  76:src/../h/riscv.hpp ****     uint64 volatile sepc;
  77:src/../h/riscv.hpp ****     __asm__ volatile("csrr %[sepc], sepc":[sepc]"=r"(sepc));
  78:src/../h/riscv.hpp ****     return sepc;
  79:src/../h/riscv.hpp **** }
  80:src/../h/riscv.hpp **** inline void Riscv::w_sepc(uint64 sepc) {
  81:src/../h/riscv.hpp ****     __asm__ volatile("csrw sepc, %[sepc]"::[sepc]"r"(sepc));
  82:src/../h/riscv.hpp **** }
  83:src/../h/riscv.hpp **** inline uint64 Riscv::r_stvec(){
  84:src/../h/riscv.hpp ****     uint64 volatile stvec;
  85:src/../h/riscv.hpp ****     __asm__ volatile("csrr %[stvec], stvec":[stvec]"=r"(stvec));
  86:src/../h/riscv.hpp ****     return stvec;
  87:src/../h/riscv.hpp **** }
  88:src/../h/riscv.hpp **** inline void Riscv::w_stvec(uint64 stvec) {
  89:src/../h/riscv.hpp ****     __asm__ volatile("csrw stvec, %[stvec]"::[stvec]"r"(stvec));
  47              		.loc 2 89 5 is_stmt 1
  48              		.loc 2 89 64 is_stmt 0
  49              	#APP
  50              	# 89 "src/../h/riscv.hpp" 1
  90              	}
  51              		csrw stvec, a5
  52              	# 0 "" 2
  53              	.LVL2:
  54              	#NO_APP
  55              	.LBE14:
  56              	.LBE13:
GAS LISTING /tmp/cc9TbC67.s 			page 4


  23:src/main.cpp  **** 
  24:src/main.cpp  ****     //Riscv::ms_sstatus(Riscv::SSTATUS_SIE);//dozvoljavanje prekida
  25:src/main.cpp  **** 
  26:src/main.cpp  **** 
  27:src/main.cpp  **** 
  28:src/main.cpp  **** 
  29:src/main.cpp  ****     uint64 *stack1=(uint64*) mem_alloc(DEFAULT_STACK_SIZE);
  57              		.loc 1 29 5 is_stmt 1
  58              		.loc 1 29 39 is_stmt 0
  59 0038 37150000 		li	a0,4096
  60 003c 97000000 		call	_Z9mem_allocm@plt
  60      E7800000 
  61              	.LVL3:
  62 0044 130A0500 		mv	s4,a0
  63              	.LVL4:
  30:src/main.cpp  ****     uint64 *stack2=(uint64*) mem_alloc(DEFAULT_STACK_SIZE);
  64              		.loc 1 30 5 is_stmt 1
  65              		.loc 1 30 39 is_stmt 0
  66 0048 37150000 		li	a0,4096
  67              	.LVL5:
  68 004c 97000000 		call	_Z9mem_allocm@plt
  68      E7800000 
  69              	.LVL6:
  70 0054 93090500 		mv	s3,a0
  71              	.LVL7:
  31:src/main.cpp  ****     uint64 *stack3=(uint64*) mem_alloc(DEFAULT_STACK_SIZE);
  72              		.loc 1 31 5 is_stmt 1
  73              		.loc 1 31 39 is_stmt 0
  74 0058 37150000 		li	a0,4096
  75              	.LVL8:
  76 005c 97000000 		call	_Z9mem_allocm@plt
  76      E7800000 
  77              	.LVL9:
  78 0064 13090500 		mv	s2,a0
  79              	.LVL10:
  32:src/main.cpp  ****     uint64 *stack4=(uint64*) mem_alloc(DEFAULT_STACK_SIZE);
  80              		.loc 1 32 5 is_stmt 1
  81              		.loc 1 32 39 is_stmt 0
  82 0068 37150000 		li	a0,4096
  83              	.LVL11:
  84 006c 97000000 		call	_Z9mem_allocm@plt
  84      E7800000 
  85              	.LVL12:
  86 0074 93040500 		mv	s1,a0
  87              	.LVL13:
  33:src/main.cpp  **** 
  34:src/main.cpp  **** 
  35:src/main.cpp  **** 
  36:src/main.cpp  **** 
  37:src/main.cpp  ****     TCB *threads[5];
  88              		.loc 1 37 5 is_stmt 1
  38:src/main.cpp  **** 
  39:src/main.cpp  ****     threads[0]= TCB::createThread(nullptr, nullptr, nullptr);
  89              		.loc 1 39 5
  90              		.loc 1 39 34 is_stmt 0
  91 0078 13060000 		li	a2,0
  92 007c 93050000 		li	a1,0
GAS LISTING /tmp/cc9TbC67.s 			page 5


  93 0080 13050000 		li	a0,0
  94 0084 97000000 		call	_ZN3TCB12createThreadEPFvPvEPmS0_@plt
  94      E7800000 
  95              	.LVL14:
  96              		.loc 1 39 15
  97 008c 2334A4FA 		sd	a0,-88(s0)
  40:src/main.cpp  ****     TCB::running=threads[0];//main nit
  98              		.loc 1 40 5 is_stmt 1
  99              		.loc 1 40 17 is_stmt 0
 100 0090 17070000 		la	a4,_ZN3TCB7runningE
 100      03370700 
 101 0098 2330A700 		sd	a0,0(a4)
  41:src/main.cpp  **** 
  42:src/main.cpp  **** 
  43:src/main.cpp  **** 
  44:src/main.cpp  ****     threads[1]= TCB::createThread(workerBodyA, stack1, nullptr);
 102              		.loc 1 44 5 is_stmt 1
 103              		.loc 1 44 34 is_stmt 0
 104 009c 13060000 		li	a2,0
 105 00a0 93050A00 		mv	a1,s4
 106 00a4 17050000 		la	a0,_Z11workerBodyAPv
 106      03350500 
 107 00ac 97000000 		call	_ZN3TCB12createThreadEPFvPvEPmS0_@plt
 107      E7800000 
 108              	.LVL15:
 109              		.loc 1 44 15
 110 00b4 2338A4FA 		sd	a0,-80(s0)
  45:src/main.cpp  ****     threads[2]= TCB::createThread(workerBodyB, stack2, nullptr);
 111              		.loc 1 45 5 is_stmt 1
 112              		.loc 1 45 34 is_stmt 0
 113 00b8 13060000 		li	a2,0
 114 00bc 93850900 		mv	a1,s3
 115 00c0 17050000 		la	a0,_Z11workerBodyBPv
 115      03350500 
 116 00c8 97000000 		call	_ZN3TCB12createThreadEPFvPvEPmS0_@plt
 116      E7800000 
 117              	.LVL16:
 118              		.loc 1 45 15
 119 00d0 233CA4FA 		sd	a0,-72(s0)
  46:src/main.cpp  ****     threads[3]= TCB::createThread(workerBodyC, stack3, nullptr);
 120              		.loc 1 46 5 is_stmt 1
 121              		.loc 1 46 34 is_stmt 0
 122 00d4 13060000 		li	a2,0
 123 00d8 93050900 		mv	a1,s2
 124 00dc 17050000 		la	a0,_Z11workerBodyCPv
 124      03350500 
 125 00e4 97000000 		call	_ZN3TCB12createThreadEPFvPvEPmS0_@plt
 125      E7800000 
 126              	.LVL17:
 127              		.loc 1 46 15
 128 00ec 2330A4FC 		sd	a0,-64(s0)
  47:src/main.cpp  ****     threads[4]= TCB::createThread(workerBodyD, stack4, nullptr);
 129              		.loc 1 47 5 is_stmt 1
 130              		.loc 1 47 34 is_stmt 0
 131 00f0 13060000 		li	a2,0
 132 00f4 93850400 		mv	a1,s1
 133 00f8 17050000 		la	a0,_Z11workerBodyDPv
GAS LISTING /tmp/cc9TbC67.s 			page 6


 133      03350500 
 134 0100 97000000 		call	_ZN3TCB12createThreadEPFvPvEPmS0_@plt
 134      E7800000 
 135              	.LVL18:
 136              		.loc 1 47 15
 137 0108 2334A4FC 		sd	a0,-56(s0)
 138 010c 6F00C000 		j	.L4
 139              	.L2:
  48:src/main.cpp  **** 
  49:src/main.cpp  **** 
  50:src/main.cpp  ****     //Riscv::ms_sstatus(Riscv::SSTATUS_SIE);//dozvoljavanje prekida
  51:src/main.cpp  **** 
  52:src/main.cpp  ****     while(!(threads[1]->isFinished() && threads[2]->isFinished() && threads[3]->isFinished() && thr
  53:src/main.cpp  ****         TCB::yield();
 140              		.loc 1 53 9 is_stmt 1 discriminator 7
 141              		.loc 1 53 19 is_stmt 0 discriminator 7
 142 0110 97000000 		call	_ZN3TCB5yieldEv@plt
 142      E7800000 
 143              	.LVL19:
 144              	.L4:
  52:src/main.cpp  ****         TCB::yield();
 145              		.loc 1 52 5 is_stmt 1
  52:src/main.cpp  ****         TCB::yield();
 146              		.loc 1 52 11
  52:src/main.cpp  ****         TCB::yield();
 147              		.loc 1 52 22 is_stmt 0
 148 0118 833704FB 		ld	a5,-80(s0)
 149              	.LVL20:
 150              	.LBB15:
 151              	.LBB16:
 152              		.file 3 "src/../h/TCB.hpp"
   1:src/../h/TCB.hpp **** //
   2:src/../h/TCB.hpp **** // Created by os on 7/18/23.
   3:src/../h/TCB.hpp **** //
   4:src/../h/TCB.hpp **** 
   5:src/../h/TCB.hpp **** //sa vezbi 7
   6:src/../h/TCB.hpp **** 
   7:src/../h/TCB.hpp **** #ifndef PROJECT_BASE_TCB_HPP
   8:src/../h/TCB.hpp **** #define PROJECT_BASE_TCB_HPP
   9:src/../h/TCB.hpp **** 
  10:src/../h/TCB.hpp **** #include "../lib/hw.h"
  11:src/../h/TCB.hpp **** 
  12:src/../h/TCB.hpp **** class TCB{
  13:src/../h/TCB.hpp **** public:
  14:src/../h/TCB.hpp ****     virtual ~TCB();
  15:src/../h/TCB.hpp ****     bool isFinished() const{
  16:src/../h/TCB.hpp ****         return finished;
 153              		.loc 3 16 9 is_stmt 1
 154              		.loc 3 16 16 is_stmt 0
 155 011c 83C70703 		lbu	a5,48(a5)
 156              	.LVL21:
 157              	.LBE16:
 158              	.LBE15:
  52:src/main.cpp  ****         TCB::yield();
 159              		.loc 1 52 11
 160 0120 E38807FE 		beqz	a5,.L2
  52:src/main.cpp  ****         TCB::yield();
GAS LISTING /tmp/cc9TbC67.s 			page 7


 161              		.loc 1 52 50 discriminator 2
 162 0124 833784FB 		ld	a5,-72(s0)
 163              	.LVL22:
 164              	.LBB17:
 165              	.LBB18:
 166              		.loc 3 16 9 is_stmt 1 discriminator 2
 167              		.loc 3 16 16 is_stmt 0 discriminator 2
 168 0128 83C70703 		lbu	a5,48(a5)
 169              	.LVL23:
 170              	.LBE18:
 171              	.LBE17:
  52:src/main.cpp  ****         TCB::yield();
 172              		.loc 1 52 38 discriminator 2
 173 012c E38207FE 		beqz	a5,.L2
  52:src/main.cpp  ****         TCB::yield();
 174              		.loc 1 52 78 discriminator 4
 175 0130 833704FC 		ld	a5,-64(s0)
 176              	.LVL24:
 177              	.LBB19:
 178              	.LBB20:
 179              		.loc 3 16 9 is_stmt 1 discriminator 4
 180              		.loc 3 16 16 is_stmt 0 discriminator 4
 181 0134 83C70703 		lbu	a5,48(a5)
 182              	.LVL25:
 183              	.LBE20:
 184              	.LBE19:
  52:src/main.cpp  ****         TCB::yield();
 185              		.loc 1 52 66 discriminator 4
 186 0138 E38C07FC 		beqz	a5,.L2
  52:src/main.cpp  ****         TCB::yield();
 187              		.loc 1 52 106 discriminator 6
 188 013c 833784FC 		ld	a5,-56(s0)
 189              	.LVL26:
 190              	.LBB21:
 191              	.LBB22:
 192              		.loc 3 16 9 is_stmt 1 discriminator 6
 193              		.loc 3 16 16 is_stmt 0 discriminator 6
 194 0140 83C70703 		lbu	a5,48(a5)
 195              	.LVL27:
 196              	.LBE22:
 197              	.LBE21:
  52:src/main.cpp  ****         TCB::yield();
 198              		.loc 1 52 11 discriminator 6
 199 0144 E38607FC 		beqz	a5,.L2
 200 0148 930484FA 		addi	s1,s0,-88
 201              	.LVL28:
 202 014c 6F008000 		j	.L3
 203              	.LVL29:
 204              	.L6:
 205              	.LBB23:
  54:src/main.cpp  **** 
  55:src/main.cpp  ****     for(auto &thread :threads)
 206              		.loc 1 55 5 is_stmt 1 discriminator 3
 207 0150 93848400 		addi	s1,s1,8
 208              	.LVL30:
 209              	.L3:
 210              		.loc 1 55 23 discriminator 1
GAS LISTING /tmp/cc9TbC67.s 			page 8


 211 0154 930704FD 		addi	a5,s0,-48
 212 0158 638EF400 		beq	s1,a5,.L5
 213              	.LVL31:
  56:src/main.cpp  ****         delete thread;
 214              		.loc 1 56 9 discriminator 2
 215              		.loc 1 56 16 is_stmt 0 discriminator 2
 216 015c 03B50400 		ld	a0,0(s1)
 217              		.loc 1 56 22 discriminator 2
 218 0160 E30805FE 		beqz	a0,.L6
 219              		.loc 1 56 16 discriminator 1
 220 0164 83370500 		ld	a5,0(a0)
 221 0168 83B78700 		ld	a5,8(a5)
 222 016c E7800700 		jalr	a5
 223              	.LVL32:
 224 0170 6FF01FFE 		j	.L6
 225              	.LVL33:
 226              	.L5:
 227              	.LBE23:
  57:src/main.cpp  ****     printString("Finished\n");
 228              		.loc 1 57 5 is_stmt 1
 229              		.loc 1 57 16 is_stmt 0
 230 0174 17050000 		lla	a0,.LC0
 230      13050500 
 231 017c 97000000 		call	_Z11printStringPKc@plt
 231      E7800000 
 232              	.LVL34:
  58:src/main.cpp  **** 
  59:src/main.cpp  **** 
  60:src/main.cpp  ****     /*thread_t handle1;
  61:src/main.cpp  ****     thread_t handle2;
  62:src/main.cpp  ****     thread_create(&handle1, workerBodyA,nullptr);
  63:src/main.cpp  ****     thread_create(&handle2, workerBodyB,nullptr);
  64:src/main.cpp  ****     thread_dispatch();*/
  65:src/main.cpp  **** 
  66:src/main.cpp  **** 
  67:src/main.cpp  **** 
  68:src/main.cpp  ****     return 0;
 233              		.loc 1 68 5 is_stmt 1
  69:src/main.cpp  **** }...
 234              		.loc 1 69 1 is_stmt 0
 235 0184 13050000 		li	a0,0
 236 0188 83308105 		ld	ra,88(sp)
 237              		.cfi_restore 1
 238 018c 03340105 		ld	s0,80(sp)
 239              		.cfi_restore 8
 240              		.cfi_def_cfa 2, 96
 241 0190 83348104 		ld	s1,72(sp)
 242              		.cfi_restore 9
 243              	.LVL35:
 244 0194 03390104 		ld	s2,64(sp)
 245              		.cfi_restore 18
 246              	.LVL36:
 247 0198 83398103 		ld	s3,56(sp)
 248              		.cfi_restore 19
 249              	.LVL37:
 250 019c 033A0103 		ld	s4,48(sp)
 251              		.cfi_restore 20
GAS LISTING /tmp/cc9TbC67.s 			page 9


 252              	.LVL38:
 253 01a0 13010106 		addi	sp,sp,96
 254              		.cfi_def_cfa_offset 0
 255 01a4 67800000 		jr	ra
 256              		.cfi_endproc
 257              	.LFE19:
 259              	.Letext0:
 260              		.file 4 "src/../h/../lib/hw.h"
 261              		.file 5 "src/../h/MemoryAllocator.hpp"
 262              		.file 6 "src/../h/syscall_c.hpp"
 263              		.file 7 "src/../h/print.hpp"
GAS LISTING /tmp/cc9TbC67.s 			page 10


DEFINED SYMBOLS
                            *ABS*:0000000000000000 main.cpp
     /tmp/cc9TbC67.s:14     .text:0000000000000000 main
     /tmp/cc9TbC67.s:18     .text:0000000000000000 .L0 
     /tmp/cc9TbC67.s:19     .text:0000000000000000 .L0 
     /tmp/cc9TbC67.s:20     .text:0000000000000004 .L0 
     /tmp/cc9TbC67.s:27     .text:000000000000001c .L0 
     /tmp/cc9TbC67.s:28     .text:000000000000001c .L0 
     /tmp/cc9TbC67.s:29     .text:000000000000001c .L0 
     /tmp/cc9TbC67.s:30     .text:000000000000001c .L0 
     /tmp/cc9TbC67.s:31     .text:000000000000001c .L0 
     /tmp/cc9TbC67.s:32     .text:000000000000001c .L0 
     /tmp/cc9TbC67.s:34     .text:0000000000000020 .L0 
     /tmp/cc9TbC67.s:36     .text:0000000000000020 .L0 
     /tmp/cc9TbC67.s:37     .text:0000000000000020 .L0 
     /tmp/cc9TbC67.s:40     .text:0000000000000028 .L0 
     /tmp/cc9TbC67.s:41     .text:0000000000000028 .L0 
     /tmp/cc9TbC67.s:48     .text:0000000000000034 .L0 
  src/../h/riscv.hpp:89     .text:0000000000000034 .L0 
     /tmp/cc9TbC67.s:58     .text:0000000000000038 .L0 
     /tmp/cc9TbC67.s:59     .text:0000000000000038 .L0 
     /tmp/cc9TbC67.s:65     .text:0000000000000048 .L0 
     /tmp/cc9TbC67.s:66     .text:0000000000000048 .L0 
     /tmp/cc9TbC67.s:73     .text:0000000000000058 .L0 
     /tmp/cc9TbC67.s:74     .text:0000000000000058 .L0 
     /tmp/cc9TbC67.s:81     .text:0000000000000068 .L0 
     /tmp/cc9TbC67.s:82     .text:0000000000000068 .L0 
     /tmp/cc9TbC67.s:89     .text:0000000000000078 .L0 
     /tmp/cc9TbC67.s:90     .text:0000000000000078 .L0 
     /tmp/cc9TbC67.s:91     .text:0000000000000078 .L0 
     /tmp/cc9TbC67.s:97     .text:000000000000008c .L0 
     /tmp/cc9TbC67.s:99     .text:0000000000000090 .L0 
     /tmp/cc9TbC67.s:100    .text:0000000000000090 .L0 
     /tmp/cc9TbC67.s:103    .text:000000000000009c .L0 
     /tmp/cc9TbC67.s:104    .text:000000000000009c .L0 
     /tmp/cc9TbC67.s:110    .text:00000000000000b4 .L0 
     /tmp/cc9TbC67.s:112    .text:00000000000000b8 .L0 
     /tmp/cc9TbC67.s:113    .text:00000000000000b8 .L0 
     /tmp/cc9TbC67.s:119    .text:00000000000000d0 .L0 
     /tmp/cc9TbC67.s:121    .text:00000000000000d4 .L0 
     /tmp/cc9TbC67.s:122    .text:00000000000000d4 .L0 
     /tmp/cc9TbC67.s:128    .text:00000000000000ec .L0 
     /tmp/cc9TbC67.s:130    .text:00000000000000f0 .L0 
     /tmp/cc9TbC67.s:131    .text:00000000000000f0 .L0 
     /tmp/cc9TbC67.s:137    .text:0000000000000108 .L0 
     /tmp/cc9TbC67.s:141    .text:0000000000000110 .L0 
     /tmp/cc9TbC67.s:142    .text:0000000000000110 .L0 
     /tmp/cc9TbC67.s:146    .text:0000000000000118 .L0 
     /tmp/cc9TbC67.s:147    .text:0000000000000118 .L0 
     /tmp/cc9TbC67.s:148    .text:0000000000000118 .L0 
     /tmp/cc9TbC67.s:154    .text:000000000000011c .L0 
     /tmp/cc9TbC67.s:155    .text:000000000000011c .L0 
     /tmp/cc9TbC67.s:160    .text:0000000000000120 .L0 
     /tmp/cc9TbC67.s:162    .text:0000000000000124 .L0 
     /tmp/cc9TbC67.s:167    .text:0000000000000128 .L0 
     /tmp/cc9TbC67.s:168    .text:0000000000000128 .L0 
     /tmp/cc9TbC67.s:173    .text:000000000000012c .L0 
GAS LISTING /tmp/cc9TbC67.s 			page 11


     /tmp/cc9TbC67.s:175    .text:0000000000000130 .L0 
     /tmp/cc9TbC67.s:180    .text:0000000000000134 .L0 
     /tmp/cc9TbC67.s:181    .text:0000000000000134 .L0 
     /tmp/cc9TbC67.s:186    .text:0000000000000138 .L0 
     /tmp/cc9TbC67.s:188    .text:000000000000013c .L0 
     /tmp/cc9TbC67.s:193    .text:0000000000000140 .L0 
     /tmp/cc9TbC67.s:194    .text:0000000000000140 .L0 
     /tmp/cc9TbC67.s:199    .text:0000000000000144 .L0 
     /tmp/cc9TbC67.s:207    .text:0000000000000150 .L0 
     /tmp/cc9TbC67.s:211    .text:0000000000000154 .L0 
     /tmp/cc9TbC67.s:215    .text:000000000000015c .L0 
     /tmp/cc9TbC67.s:216    .text:000000000000015c .L0 
     /tmp/cc9TbC67.s:218    .text:0000000000000160 .L0 
     /tmp/cc9TbC67.s:220    .text:0000000000000164 .L0 
     /tmp/cc9TbC67.s:229    .text:0000000000000174 .L0 
     /tmp/cc9TbC67.s:230    .text:0000000000000174 .L0 
     /tmp/cc9TbC67.s:234    .text:0000000000000184 .L0 
     /tmp/cc9TbC67.s:235    .text:0000000000000184 .L0 
     /tmp/cc9TbC67.s:237    .text:000000000000018c .L0 
     /tmp/cc9TbC67.s:239    .text:0000000000000190 .L0 
     /tmp/cc9TbC67.s:240    .text:0000000000000190 .L0 
     /tmp/cc9TbC67.s:242    .text:0000000000000194 .L0 
     /tmp/cc9TbC67.s:245    .text:0000000000000198 .L0 
     /tmp/cc9TbC67.s:248    .text:000000000000019c .L0 
     /tmp/cc9TbC67.s:251    .text:00000000000001a0 .L0 
     /tmp/cc9TbC67.s:254    .text:00000000000001a4 .L0 
     /tmp/cc9TbC67.s:256    .text:00000000000001a8 .L0 
     /tmp/cc9TbC67.s:264    .text:00000000000001a8 .L0 
     /tmp/cc9TbC67.s:41     .text:0000000000000028 .L0 
     /tmp/cc9TbC67.s:100    .text:0000000000000090 .L0 
     /tmp/cc9TbC67.s:106    .text:00000000000000a4 .L0 
     /tmp/cc9TbC67.s:115    .text:00000000000000c0 .L0 
     /tmp/cc9TbC67.s:124    .text:00000000000000dc .L0 
     /tmp/cc9TbC67.s:133    .text:00000000000000f8 .L0 
     /tmp/cc9TbC67.s:8      .rodata.str1.8:0000000000000000 .LC0
     /tmp/cc9TbC67.s:230    .text:0000000000000174 .L0 
     /tmp/cc9TbC67.s:144    .text:0000000000000118 .L4
     /tmp/cc9TbC67.s:139    .text:0000000000000110 .L2
     /tmp/cc9TbC67.s:209    .text:0000000000000154 .L3
     /tmp/cc9TbC67.s:226    .text:0000000000000174 .L5
     /tmp/cc9TbC67.s:204    .text:0000000000000150 .L6
     /tmp/cc9TbC67.s:1097   .debug_abbrev:0000000000000000 .Ldebug_abbrev0
     /tmp/cc9TbC67.s:2092   .debug_str:00000000000004d9 .LASF94
     /tmp/cc9TbC67.s:2002   .debug_str:0000000000000271 .LASF95
     /tmp/cc9TbC67.s:1972   .debug_str:000000000000018b .LASF96
     /tmp/cc9TbC67.s:5      .text:0000000000000000 .Ltext0
     /tmp/cc9TbC67.s:259    .text:00000000000001a8 .Letext0
     /tmp/cc9TbC67.s:1916   .debug_line:0000000000000000 .Ldebug_line0
     /tmp/cc9TbC67.s:2028   .debug_str:000000000000033d .LASF0
     /tmp/cc9TbC67.s:2038   .debug_str:000000000000036a .LASF1
     /tmp/cc9TbC67.s:2016   .debug_str:00000000000002f2 .LASF2
     /tmp/cc9TbC67.s:1994   .debug_str:0000000000000231 .LASF4
     /tmp/cc9TbC67.s:2074   .debug_str:000000000000045f .LASF3
     /tmp/cc9TbC67.s:1934   .debug_str:000000000000006c .LASF5
     /tmp/cc9TbC67.s:2040   .debug_str:000000000000037d .LASF6
     /tmp/cc9TbC67.s:2026   .debug_str:000000000000032a .LASF7
     /tmp/cc9TbC67.s:2102   .debug_str:00000000000005fa .LASF8
GAS LISTING /tmp/cc9TbC67.s 			page 12


     /tmp/cc9TbC67.s:1982   .debug_str:00000000000001d2 .LASF9
     /tmp/cc9TbC67.s:2058   .debug_str:00000000000003d1 .LASF10
     /tmp/cc9TbC67.s:2094   .debug_str:000000000000059d .LASF11
     /tmp/cc9TbC67.s:1936   .debug_str:0000000000000073 .LASF12
     /tmp/cc9TbC67.s:1922   .debug_str:0000000000000012 .LASF13
     /tmp/cc9TbC67.s:1944   .debug_str:00000000000000bd .LASF14
     /tmp/cc9TbC67.s:2068   .debug_str:0000000000000425 .LASF15
     /tmp/cc9TbC67.s:1952   .debug_str:0000000000000102 .LASF16
     /tmp/cc9TbC67.s:2010   .debug_str:00000000000002ca .LASF23
     /tmp/cc9TbC67.s:1956   .debug_str:000000000000012c .LASF97
     /tmp/cc9TbC67.s:2086   .debug_str:00000000000004bb .LASF17
     /tmp/cc9TbC67.s:2120   .debug_str:0000000000000691 .LASF18
     /tmp/cc9TbC67.s:2032   .debug_str:0000000000000351 .LASF19
     /tmp/cc9TbC67.s:2122   .debug_str:0000000000000696 .LASF21
     /tmp/cc9TbC67.s:1968   .debug_str:0000000000000181 .LASF20
     /tmp/cc9TbC67.s:2064   .debug_str:00000000000003fd .LASF22
     /tmp/cc9TbC67.s:2014   .debug_str:00000000000002e7 .LASF32
     /tmp/cc9TbC67.s:2114   .debug_str:000000000000064b .LASF34
     /tmp/cc9TbC67.s:2100   .debug_str:00000000000005de .LASF25
     /tmp/cc9TbC67.s:2024   .debug_str:0000000000000320 .LASF98
     /tmp/cc9TbC67.s:2004   .debug_str:000000000000027e .LASF99
     /tmp/cc9TbC67.s:2012   .debug_str:00000000000002da .LASF100
     /tmp/cc9TbC67.s:2042   .debug_str:0000000000000390 .LASF24
     /tmp/cc9TbC67.s:1946   .debug_str:00000000000000c9 .LASF26
     /tmp/cc9TbC67.s:1932   .debug_str:000000000000004a .LASF27
     /tmp/cc9TbC67.s:2036   .debug_str:000000000000035d .LASF29
     /tmp/cc9TbC67.s:2022   .debug_str:0000000000000310 .LASF28
     /tmp/cc9TbC67.s:2018   .debug_str:0000000000000300 .LASF30
     /tmp/cc9TbC67.s:2034   .debug_str:0000000000000357 .LASF31
     /tmp/cc9TbC67.s:2066   .debug_str:000000000000041a .LASF33
     /tmp/cc9TbC67.s:2116   .debug_str:000000000000066e .LASF35
     /tmp/cc9TbC67.s:1986   .debug_str:00000000000001f6 .LASF36
     /tmp/cc9TbC67.s:1960   .debug_str:0000000000000146 .LASF37
     /tmp/cc9TbC67.s:1978   .debug_str:00000000000001c4 .LASF38
     /tmp/cc9TbC67.s:2006   .debug_str:000000000000029a .LASF39
     /tmp/cc9TbC67.s:1924   .debug_str:0000000000000022 .LASF40
     /tmp/cc9TbC67.s:2082   .debug_str:000000000000048e .LASF42
     /tmp/cc9TbC67.s:1964   .debug_str:0000000000000170 .LASF44
     /tmp/cc9TbC67.s:1962   .debug_str:000000000000015b .LASF46
     /tmp/cc9TbC67.s:2076   .debug_str:0000000000000471 .LASF41
     /tmp/cc9TbC67.s:2060   .debug_str:00000000000003e0 .LASF43
     /tmp/cc9TbC67.s:2090   .debug_str:00000000000004d2 .LASF45
     /tmp/cc9TbC67.s:2098   .debug_str:00000000000005cb .LASF47
     /tmp/cc9TbC67.s:1976   .debug_str:00000000000001bc .LASF48
     /tmp/cc9TbC67.s:1954   .debug_str:0000000000000118 .LASF49
     /tmp/cc9TbC67.s:1920   .debug_str:000000000000000a .LASF50
     /tmp/cc9TbC67.s:1988   .debug_str:00000000000001ff .LASF51
     /tmp/cc9TbC67.s:1966   .debug_str:0000000000000179 .LASF52
     /tmp/cc9TbC67.s:1938   .debug_str:0000000000000083 .LASF53
     /tmp/cc9TbC67.s:1990   .debug_str:0000000000000213 .LASF54
     /tmp/cc9TbC67.s:1950   .debug_str:00000000000000ee .LASF55
     /tmp/cc9TbC67.s:2118   .debug_str:0000000000000686 .LASF56
     /tmp/cc9TbC67.s:2072   .debug_str:0000000000000447 .LASF57
     /tmp/cc9TbC67.s:1996   .debug_str:0000000000000238 .LASF58
     /tmp/cc9TbC67.s:2084   .debug_str:00000000000004a3 .LASF59
     /tmp/cc9TbC67.s:1942   .debug_str:00000000000000b3 .LASF60
     /tmp/cc9TbC67.s:1992   .debug_str:000000000000021b .LASF61
GAS LISTING /tmp/cc9TbC67.s 			page 13


     /tmp/cc9TbC67.s:2020   .debug_str:0000000000000306 .LASF62
     /tmp/cc9TbC67.s:1984   .debug_str:00000000000001e0 .LASF63
     /tmp/cc9TbC67.s:2030   .debug_str:000000000000034a .LASF64
     /tmp/cc9TbC67.s:2110   .debug_str:0000000000000633 .LASF65
     /tmp/cc9TbC67.s:1930   .debug_str:0000000000000043 .LASF66
     /tmp/cc9TbC67.s:1974   .debug_str:00000000000001a9 .LASF67
     /tmp/cc9TbC67.s:1980   .debug_str:00000000000001cc .LASF68
     /tmp/cc9TbC67.s:2088   .debug_str:00000000000004c0 .LASF69
     /tmp/cc9TbC67.s:1926   .debug_str:000000000000002b .LASF70
     /tmp/cc9TbC67.s:2124   .debug_str:00000000000006b3 .LASF71
     /tmp/cc9TbC67.s:2080   .debug_str:000000000000047f .LASF72
     /tmp/cc9TbC67.s:1940   .debug_str:0000000000000097 .LASF73
     /tmp/cc9TbC67.s:2106   .debug_str:0000000000000612 .LASF74
     /tmp/cc9TbC67.s:2000   .debug_str:000000000000024f .LASF76
     /tmp/cc9TbC67.s:2048   .debug_str:00000000000003a8 .LASF75
     /tmp/cc9TbC67.s:2008   .debug_str:00000000000002ae .LASF77
     /tmp/cc9TbC67.s:1928   .debug_str:0000000000000031 .LASF78
     /tmp/cc9TbC67.s:2096   .debug_str:00000000000005ac .LASF79
     /tmp/cc9TbC67.s:2050   .debug_str:00000000000003b7 .LASF80
     /tmp/cc9TbC67.s:15     .text:0000000000000000 .LFB19
     /tmp/cc9TbC67.s:257    .text:00000000000001a8 .LFE19
     /tmp/cc9TbC67.s:2078   .debug_str:0000000000000478 .LASF81
     /tmp/cc9TbC67.s:1810   .debug_loc:0000000000000000 .LLST0
     /tmp/cc9TbC67.s:2052   .debug_str:00000000000003bc .LASF82
     /tmp/cc9TbC67.s:1821   .debug_loc:0000000000000036 .LLST1
     /tmp/cc9TbC67.s:2054   .debug_str:00000000000003c3 .LASF83
     /tmp/cc9TbC67.s:1832   .debug_loc:000000000000006c .LLST2
     /tmp/cc9TbC67.s:2056   .debug_str:00000000000003ca .LASF84
     /tmp/cc9TbC67.s:1843   .debug_loc:00000000000000a2 .LLST3
     /tmp/cc9TbC67.s:2104   .debug_str:000000000000060a .LASF85
     /tmp/cc9TbC67.s:205    .text:0000000000000150 .LBB23
     /tmp/cc9TbC67.s:227    .text:0000000000000174 .LBE23
     /tmp/cc9TbC67.s:2044   .debug_str:000000000000039b .LASF86
     /tmp/cc9TbC67.s:1850   .debug_loc:00000000000000c5 .LLST9
     /tmp/cc9TbC67.s:2108   .debug_str:0000000000000627 .LASF87
     /tmp/cc9TbC67.s:2070   .debug_str:000000000000043b .LASF101
     /tmp/cc9TbC67.s:1861   .debug_loc:00000000000000fb .LLST10
     /tmp/cc9TbC67.s:2062   .debug_str:00000000000003f3 .LASF88
     /tmp/cc9TbC67.s:44     .text:0000000000000034 .LBB13
     /tmp/cc9TbC67.s:56     .text:0000000000000038 .LBE13
     /tmp/cc9TbC67.s:1868   .debug_loc:000000000000011e .LLST4
     /tmp/cc9TbC67.s:150    .text:000000000000011c .LBB15
     /tmp/cc9TbC67.s:158    .text:0000000000000120 .LBE15
     /tmp/cc9TbC67.s:1875   .debug_loc:0000000000000141 .LLST5
     /tmp/cc9TbC67.s:164    .text:0000000000000128 .LBB17
     /tmp/cc9TbC67.s:171    .text:000000000000012c .LBE17
     /tmp/cc9TbC67.s:1882   .debug_loc:0000000000000164 .LLST6
     /tmp/cc9TbC67.s:177    .text:0000000000000134 .LBB19
     /tmp/cc9TbC67.s:184    .text:0000000000000138 .LBE19
     /tmp/cc9TbC67.s:1889   .debug_loc:0000000000000187 .LLST7
     /tmp/cc9TbC67.s:190    .text:0000000000000140 .LBB21
     /tmp/cc9TbC67.s:197    .text:0000000000000144 .LBE21
     /tmp/cc9TbC67.s:1896   .debug_loc:00000000000001aa .LLST8
     /tmp/cc9TbC67.s:38     .text:0000000000000028 .LVL0
     /tmp/cc9TbC67.s:61     .text:0000000000000044 .LVL3
     /tmp/cc9TbC67.s:69     .text:0000000000000054 .LVL6
     /tmp/cc9TbC67.s:77     .text:0000000000000064 .LVL9
GAS LISTING /tmp/cc9TbC67.s 			page 14


     /tmp/cc9TbC67.s:85     .text:0000000000000074 .LVL12
     /tmp/cc9TbC67.s:95     .text:000000000000008c .LVL14
     /tmp/cc9TbC67.s:108    .text:00000000000000b4 .LVL15
     /tmp/cc9TbC67.s:117    .text:00000000000000d0 .LVL16
     /tmp/cc9TbC67.s:126    .text:00000000000000ec .LVL17
     /tmp/cc9TbC67.s:135    .text:0000000000000108 .LVL18
     /tmp/cc9TbC67.s:143    .text:0000000000000118 .LVL19
     /tmp/cc9TbC67.s:232    .text:0000000000000184 .LVL34
     /tmp/cc9TbC67.s:2046   .debug_str:00000000000003a2 .LASF102
     /tmp/cc9TbC67.s:1970   .debug_str:0000000000000186 .LASF89
     /tmp/cc9TbC67.s:2112   .debug_str:0000000000000646 .LASF103
     /tmp/cc9TbC67.s:1948   .debug_str:00000000000000e0 .LASF90
     /tmp/cc9TbC67.s:1918   .debug_str:0000000000000000 .LASF91
     /tmp/cc9TbC67.s:1958   .debug_str:0000000000000133 .LASF92
     /tmp/cc9TbC67.s:1998   .debug_str:0000000000000243 .LASF93
     /tmp/cc9TbC67.s:63     .text:0000000000000048 .LVL4
     /tmp/cc9TbC67.s:67     .text:000000000000004c .LVL5
     /tmp/cc9TbC67.s:252    .text:00000000000001a0 .LVL38
     /tmp/cc9TbC67.s:71     .text:0000000000000058 .LVL7
     /tmp/cc9TbC67.s:75     .text:000000000000005c .LVL8
     /tmp/cc9TbC67.s:249    .text:000000000000019c .LVL37
     /tmp/cc9TbC67.s:79     .text:0000000000000068 .LVL10
     /tmp/cc9TbC67.s:83     .text:000000000000006c .LVL11
     /tmp/cc9TbC67.s:246    .text:0000000000000198 .LVL36
     /tmp/cc9TbC67.s:87     .text:0000000000000078 .LVL13
     /tmp/cc9TbC67.s:201    .text:000000000000014c .LVL28
     /tmp/cc9TbC67.s:203    .text:0000000000000150 .LVL29
     /tmp/cc9TbC67.s:208    .text:0000000000000154 .LVL30
     /tmp/cc9TbC67.s:213    .text:000000000000015c .LVL31
     /tmp/cc9TbC67.s:225    .text:0000000000000174 .LVL33
     /tmp/cc9TbC67.s:243    .text:0000000000000194 .LVL35
     /tmp/cc9TbC67.s:43     .text:0000000000000034 .LVL1
     /tmp/cc9TbC67.s:53     .text:0000000000000038 .LVL2
     /tmp/cc9TbC67.s:149    .text:000000000000011c .LVL20
     /tmp/cc9TbC67.s:156    .text:0000000000000120 .LVL21
     /tmp/cc9TbC67.s:163    .text:0000000000000128 .LVL22
     /tmp/cc9TbC67.s:169    .text:000000000000012c .LVL23
     /tmp/cc9TbC67.s:176    .text:0000000000000134 .LVL24
     /tmp/cc9TbC67.s:182    .text:0000000000000138 .LVL25
     /tmp/cc9TbC67.s:189    .text:0000000000000140 .LVL26
     /tmp/cc9TbC67.s:195    .text:0000000000000144 .LVL27
     /tmp/cc9TbC67.s:265    .debug_info:0000000000000000 .Ldebug_info0

UNDEFINED SYMBOLS
_ZN15MemoryAllocator10initializeEv
_ZN5Riscv14supervisorTrapEv
_Z9mem_allocm
_ZN3TCB12createThreadEPFvPvEPmS0_
_ZN3TCB7runningE
_Z11workerBodyAPv
_Z11workerBodyBPv
_Z11workerBodyCPv
_Z11workerBodyDPv
_ZN3TCB5yieldEv
_Z11printStringPKc
