GAS LISTING /tmp/ccXU9hbo.s 			page 1


   1              		.file	"main.cpp"
   2              		.option pic
   3              		.option norelax
   4              		.text
   5              	.Ltext0:
   6              		.align	2
   7              		.globl	_Z10idleThreadPv
   9              	_Z10idleThreadPv:
  10              	.LFB19:
  11              		.file 1 "src/main.cpp"
   1:src/main.cpp  **** //
   2:src/main.cpp  **** // Created by os on 6/29/23.
   3:src/main.cpp  **** //
   4:src/main.cpp  **** 
   5:src/main.cpp  **** #include "../h/MemoryAllocator.hpp"
   6:src/main.cpp  **** #include "../lib/console.h"
   7:src/main.cpp  **** #include "../h/trap.hpp"
   8:src/main.cpp  **** #include "../h/syscall_c.hpp"
   9:src/main.cpp  **** #include "../h/TCB.hpp"
  10:src/main.cpp  **** #include "../h/Scheduler.hpp"
  11:src/main.cpp  **** #include "../h/print.hpp"
  12:src/main.cpp  **** #include "../h/workers.hpp"
  13:src/main.cpp  **** #include "../h/riscv.hpp"
  14:src/main.cpp  **** #include "../test/printing.hpp"
  15:src/main.cpp  **** 
  16:src/main.cpp  **** extern void userMain();
  17:src/main.cpp  **** 
  18:src/main.cpp  **** void idleThread(void *p) {
  12              		.loc 1 18 26
  13              		.cfi_startproc
  14              	.LVL0:
  15 0000 130101FF 		addi	sp,sp,-16
  16              		.cfi_def_cfa_offset 16
  17 0004 23341100 		sd	ra,8(sp)
  18 0008 23308100 		sd	s0,0(sp)
  19              		.cfi_offset 1, -8
  20              		.cfi_offset 8, -16
  21 000c 13040101 		addi	s0,sp,16
  22              		.cfi_def_cfa 8, 0
  23              	.LVL1:
  24              	.L2:
  19:src/main.cpp  ****     while(true){ thread_dispatch(); }
  25              		.loc 1 19 5 discriminator 1
  26              		.loc 1 19 18 discriminator 1
  27              		.loc 1 19 33 is_stmt 0 discriminator 1
  28 0010 97000000 		call	_Z15thread_dispatchv@plt
  28      E7800000 
  29              	.LVL2:
  30              		.loc 1 19 5 is_stmt 1 discriminator 1
  31 0018 6FF09FFF 		j	.L2
  32              		.cfi_endproc
  33              	.LFE19:
  35              		.align	2
  36              		.globl	_Z15userMainWrapperPv
  38              	_Z15userMainWrapperPv:
  39              	.LFB20:
  20:src/main.cpp  **** }
GAS LISTING /tmp/ccXU9hbo.s 			page 2


  21:src/main.cpp  **** void userMainWrapper(void*){
  40              		.loc 1 21 28
  41              		.cfi_startproc
  42 001c 130101FF 		addi	sp,sp,-16
  43              		.cfi_def_cfa_offset 16
  44 0020 23341100 		sd	ra,8(sp)
  45 0024 23308100 		sd	s0,0(sp)
  46              		.cfi_offset 1, -8
  47              		.cfi_offset 8, -16
  48 0028 13040101 		addi	s0,sp,16
  49              		.cfi_def_cfa 8, 0
  22:src/main.cpp  ****     userMain();
  50              		.loc 1 22 5
  51              		.loc 1 22 13 is_stmt 0
  52 002c 97000000 		call	_Z8userMainv@plt
  52      E7800000 
  53              	.LVL3:
  23:src/main.cpp  **** }
  54              		.loc 1 23 1
  55 0034 83308100 		ld	ra,8(sp)
  56              		.cfi_restore 1
  57 0038 03340100 		ld	s0,0(sp)
  58              		.cfi_restore 8
  59              		.cfi_def_cfa 2, 16
  60 003c 13010101 		addi	sp,sp,16
  61              		.cfi_def_cfa_offset 0
  62 0040 67800000 		jr	ra
  63              		.cfi_endproc
  64              	.LFE20:
  66              		.align	2
  67              		.globl	main
  69              	main:
  70              	.LFB21:
  24:src/main.cpp  **** 
  25:src/main.cpp  **** int main(){
  71              		.loc 1 25 11 is_stmt 1
  72              		.cfi_startproc
  73 0044 130101FC 		addi	sp,sp,-64
  74              		.cfi_def_cfa_offset 64
  75 0048 233C1102 		sd	ra,56(sp)
  76 004c 23388102 		sd	s0,48(sp)
  77 0050 23349102 		sd	s1,40(sp)
  78              		.cfi_offset 1, -8
  79              		.cfi_offset 8, -16
  80              		.cfi_offset 9, -24
  81 0054 13040104 		addi	s0,sp,64
  82              		.cfi_def_cfa 8, 0
  26:src/main.cpp  **** 
  27:src/main.cpp  ****     //__asm__ volatile ("csrw stvec, %[vector]" : : [vector] "r" (&supervisorTrap));
  28:src/main.cpp  ****     //dozvoljavanje prekida
  29:src/main.cpp  ****     //__asm__ volatile ("csrs sstatus, 0x02");
  30:src/main.cpp  **** 
  31:src/main.cpp  ****     MemoryAllocator::initialize();
  83              		.loc 1 31 5
  84              		.loc 1 31 32 is_stmt 0
  85 0058 97000000 		call	_ZN15MemoryAllocator10initializeEv@plt
  85      E7800000 
GAS LISTING /tmp/ccXU9hbo.s 			page 3


  86              	.LVL4:
  32:src/main.cpp  ****     Riscv::w_stvec((uint64)&Riscv::supervisorTrap+1);
  87              		.loc 1 32 5 is_stmt 1
  88              		.loc 1 32 19 is_stmt 0
  89 0060 97070000 		la	a5,_ZN5Riscv14supervisorTrapEv
  89      83B70700 
  90 0068 93871700 		addi	a5,a5,1
  91              	.LVL5:
  92              	.LBB8:
  93              	.LBB9:
  94              		.file 2 "src/../h/riscv.hpp"
   1:src/../h/riscv.hpp **** //
   2:src/../h/riscv.hpp **** // Created by os on 7/24/23.
   3:src/../h/riscv.hpp **** //
   4:src/../h/riscv.hpp **** 
   5:src/../h/riscv.hpp **** #ifndef PROJECT_BASE_RISCV_HPP
   6:src/../h/riscv.hpp **** #define PROJECT_BASE_RISCV_HPP
   7:src/../h/riscv.hpp **** 
   8:src/../h/riscv.hpp **** #include "../lib/hw.h"
   9:src/../h/riscv.hpp **** //sa vezbi 7
  10:src/../h/riscv.hpp **** 
  11:src/../h/riscv.hpp **** class Riscv{
  12:src/../h/riscv.hpp **** 
  13:src/../h/riscv.hpp **** public:
  14:src/../h/riscv.hpp **** 
  15:src/../h/riscv.hpp ****     //supervisor previous privileged, previousInterruptEnable
  16:src/../h/riscv.hpp ****     //mora da bude ne inline da se poziva
  17:src/../h/riscv.hpp ****     static void popSppSpie();
  18:src/../h/riscv.hpp **** 
  19:src/../h/riscv.hpp ****     static void pushRegs();
  20:src/../h/riscv.hpp ****     static void popRegs();
  21:src/../h/riscv.hpp **** 
  22:src/../h/riscv.hpp ****     static uint64 r_scause();
  23:src/../h/riscv.hpp ****     static void w_scause(uint64 scause);
  24:src/../h/riscv.hpp ****     static uint64 r_sepc();
  25:src/../h/riscv.hpp ****     static void w_sepc(uint64 sepc);
  26:src/../h/riscv.hpp ****     static uint64 r_stvec();
  27:src/../h/riscv.hpp ****     static void w_stvec(uint64 stvec);
  28:src/../h/riscv.hpp ****     static uint64 r_stval();
  29:src/../h/riscv.hpp ****     static void w_stval(uint64 stval);
  30:src/../h/riscv.hpp **** 
  31:src/../h/riscv.hpp ****     enum BitMaskSStatus{
  32:src/../h/riscv.hpp ****         SSTATUS_SIE=(1<<1),
  33:src/../h/riscv.hpp ****         SSTATUS_SPIE=(1<<5),
  34:src/../h/riscv.hpp ****         SSTATUS_SPP=(1<<8)
  35:src/../h/riscv.hpp ****     };
  36:src/../h/riscv.hpp **** 
  37:src/../h/riscv.hpp ****     static void ms_sstatus(uint64 mask);
  38:src/../h/riscv.hpp ****     static void mc_sstatus(uint64 mask);
  39:src/../h/riscv.hpp ****     static uint64 r_sstatus();
  40:src/../h/riscv.hpp ****     static void w_sstatus(uint64 sstatus);
  41:src/../h/riscv.hpp **** 
  42:src/../h/riscv.hpp **** 
  43:src/../h/riscv.hpp ****     enum BitMasSip{
  44:src/../h/riscv.hpp ****         SIP_SSIP=(1<<1),//software interrupt pending
  45:src/../h/riscv.hpp ****         SIP_STIP=(1 << 5),
  46:src/../h/riscv.hpp ****         SIP_SEIP=(1 << 9)
GAS LISTING /tmp/ccXU9hbo.s 			page 4


  47:src/../h/riscv.hpp ****     };
  48:src/../h/riscv.hpp **** 
  49:src/../h/riscv.hpp ****     static void ms_sip(uint64 mask);
  50:src/../h/riscv.hpp ****     static void mc_sip(uint64 mask);
  51:src/../h/riscv.hpp ****     static uint64 r_sip();
  52:src/../h/riscv.hpp ****     static void w_sip(uint64 sip);
  53:src/../h/riscv.hpp **** 
  54:src/../h/riscv.hpp ****     static void supervisorTrap();
  55:src/../h/riscv.hpp **** 
  56:src/../h/riscv.hpp **** 
  57:src/../h/riscv.hpp **** 
  58:src/../h/riscv.hpp **** private:
  59:src/../h/riscv.hpp **** 
  60:src/../h/riscv.hpp ****     static void handleSupervisorTrap();
  61:src/../h/riscv.hpp ****     static void timerInterrupt();
  62:src/../h/riscv.hpp ****     static void hardwareInterrupt();
  63:src/../h/riscv.hpp **** 
  64:src/../h/riscv.hpp **** };
  65:src/../h/riscv.hpp **** 
  66:src/../h/riscv.hpp **** inline uint64 Riscv::r_scause() {
  67:src/../h/riscv.hpp ****     uint64 volatile scause;
  68:src/../h/riscv.hpp ****     __asm__ volatile("csrr %[scause], scause":[scause]"=r"(scause));
  69:src/../h/riscv.hpp ****     return scause;
  70:src/../h/riscv.hpp **** }
  71:src/../h/riscv.hpp **** inline void Riscv::w_scause(uint64 scause) {
  72:src/../h/riscv.hpp ****     __asm__ volatile("csrw scause, %[scause]"::[scause]"r"(scause));
  73:src/../h/riscv.hpp **** }
  74:src/../h/riscv.hpp **** 
  75:src/../h/riscv.hpp **** inline uint64 Riscv::r_sepc(){
  76:src/../h/riscv.hpp ****     uint64 volatile sepc;
  77:src/../h/riscv.hpp ****     __asm__ volatile("csrr %[sepc], sepc":[sepc]"=r"(sepc));
  78:src/../h/riscv.hpp ****     return sepc;
  79:src/../h/riscv.hpp **** }
  80:src/../h/riscv.hpp **** inline void Riscv::w_sepc(uint64 sepc) {
  81:src/../h/riscv.hpp ****     __asm__ volatile("csrw sepc, %[sepc]"::[sepc]"r"(sepc));
  82:src/../h/riscv.hpp **** }
  83:src/../h/riscv.hpp **** inline uint64 Riscv::r_stvec(){
  84:src/../h/riscv.hpp ****     uint64 volatile stvec;
  85:src/../h/riscv.hpp ****     __asm__ volatile("csrr %[stvec], stvec":[stvec]"=r"(stvec));
  86:src/../h/riscv.hpp ****     return stvec;
  87:src/../h/riscv.hpp **** }
  88:src/../h/riscv.hpp **** inline void Riscv::w_stvec(uint64 stvec) {
  89:src/../h/riscv.hpp ****     __asm__ volatile("csrw stvec, %[stvec]"::[stvec]"r"(stvec));
  95              		.loc 2 89 5 is_stmt 1
  96              		.loc 2 89 64 is_stmt 0
  97              	#APP
  98              	# 89 "src/../h/riscv.hpp" 1
  90              	}
  99              		csrw stvec, a5
 100              	# 0 "" 2
 101              	.LVL6:
 102              	#NO_APP
 103              	.LBE9:
 104              	.LBE8:
  33:src/main.cpp  **** 
  34:src/main.cpp  ****     //Riscv::ms_sstatus(Riscv::SSTATUS_SIE);//dozvoljavanje prekida
  35:src/main.cpp  **** 
GAS LISTING /tmp/ccXU9hbo.s 			page 5


  36:src/main.cpp  **** 
  37:src/main.cpp  **** 
  38:src/main.cpp  ****     /*TCB *threads[5];
  39:src/main.cpp  **** 
  40:src/main.cpp  ****     thread_create(&threads[0], nullptr, nullptr);
  41:src/main.cpp  ****     TCB::running=threads[0];
  42:src/main.cpp  **** 
  43:src/main.cpp  ****     //TCB::newThrUserMode=true;
  44:src/main.cpp  ****     thread_create( &threads[1], workerBodyA,nullptr);
  45:src/main.cpp  ****     thread_create(&threads[2], workerBodyB,nullptr);
  46:src/main.cpp  ****     thread_create(&threads[3], workerBodyC,nullptr);
  47:src/main.cpp  ****     thread_create(&threads[4], workerBodyD,nullptr);
  48:src/main.cpp  **** 
  49:src/main.cpp  **** 
  50:src/main.cpp  ****     TCB::newThrUserMode=true;
  51:src/main.cpp  ****     Riscv::ms_sstatus(Riscv::SSTATUS_SIE);//dozvoljavanje prekida
  52:src/main.cpp  **** 
  53:src/main.cpp  ****     while(!(threads[1]->isFinished() && threads[2]->isFinished() && threads[3]->isFinished() && thr
  54:src/main.cpp  ****         thread_dispatch();
  55:src/main.cpp  **** 
  56:src/main.cpp  ****     for(auto &thread :threads)
  57:src/main.cpp  ****         delete thread;
  58:src/main.cpp  **** 
  59:src/main.cpp  ****     printString("Finished\n");*/
  60:src/main.cpp  **** 
  61:src/main.cpp  **** 
  62:src/main.cpp  **** 
  63:src/main.cpp  **** 
  64:src/main.cpp  ****     TCB::newThrUserMode=false;
 105              		.loc 1 64 5 is_stmt 1
 106              		.loc 1 64 24 is_stmt 0
 107 0070 97040000 		la	s1,_ZN3TCB14newThrUserModeE
 107      83B40400 
 108 0078 23800400 		sb	zero,0(s1)
  65:src/main.cpp  ****     TCB* handleMain;
 109              		.loc 1 65 5 is_stmt 1
  66:src/main.cpp  ****     thread_create(&handleMain, nullptr, nullptr);
 110              		.loc 1 66 5
 111              		.loc 1 66 18 is_stmt 0
 112 007c 13060000 		li	a2,0
 113 0080 93050000 		li	a1,0
 114 0084 130584FD 		addi	a0,s0,-40
 115 0088 97000000 		call	_Z13thread_createPP3TCBPFvPvES2_@plt
 115      E7800000 
 116              	.LVL7:
  67:src/main.cpp  ****     TCB::running=handleMain;
 117              		.loc 1 67 5 is_stmt 1
 118              		.loc 1 67 17 is_stmt 0
 119 0090 97070000 		la	a5,_ZN3TCB7runningE
 119      83B70700 
 120 0098 033784FD 		ld	a4,-40(s0)
 121 009c 23B0E700 		sd	a4,0(a5)
  68:src/main.cpp  **** 
  69:src/main.cpp  ****     TCB* handleIdle;
 122              		.loc 1 69 5 is_stmt 1
  70:src/main.cpp  ****     thread_create(&handleIdle, idleThread, nullptr);
 123              		.loc 1 70 5
GAS LISTING /tmp/ccXU9hbo.s 			page 6


 124              		.loc 1 70 18 is_stmt 0
 125 00a0 13060000 		li	a2,0
 126 00a4 97050000 		lla	a1,_Z10idleThreadPv
 126      93850500 
 127 00ac 130504FD 		addi	a0,s0,-48
 128 00b0 97000000 		call	_Z13thread_createPP3TCBPFvPvES2_@plt
 128      E7800000 
 129              	.LVL8:
  71:src/main.cpp  **** 
  72:src/main.cpp  **** 
  73:src/main.cpp  ****     TCB::newThrUserMode=true;
 130              		.loc 1 73 5 is_stmt 1
 131              		.loc 1 73 24 is_stmt 0
 132 00b8 93071000 		li	a5,1
 133 00bc 2380F400 		sb	a5,0(s1)
  74:src/main.cpp  ****     TCB* handleUserMain;
 134              		.loc 1 74 5 is_stmt 1
  75:src/main.cpp  ****     thread_create(&handleUserMain, userMainWrapper, nullptr);
 135              		.loc 1 75 5
 136              		.loc 1 75 18 is_stmt 0
 137 00c0 13060000 		li	a2,0
 138 00c4 97050000 		lla	a1,_Z15userMainWrapperPv
 138      93850500 
 139 00cc 130584FC 		addi	a0,s0,-56
 140 00d0 97000000 		call	_Z13thread_createPP3TCBPFvPvES2_@plt
 140      E7800000 
 141              	.LVL9:
  76:src/main.cpp  **** 
  77:src/main.cpp  ****     Riscv::ms_sstatus(Riscv::SSTATUS_SIE);//dozvoljavanje prekida
 142              		.loc 1 77 5 is_stmt 1
 143              	.LBB10:
 144              	.LBB11:
  91:src/../h/riscv.hpp **** inline uint64 Riscv::r_stval(){
  92:src/../h/riscv.hpp ****     uint64 volatile stval;
  93:src/../h/riscv.hpp ****     __asm__ volatile("csrr %[stval], stval":[stval]"=r"(stval));
  94:src/../h/riscv.hpp ****     return stval;
  95:src/../h/riscv.hpp **** }
  96:src/../h/riscv.hpp **** inline void Riscv::w_stval(uint64 stval) {
  97:src/../h/riscv.hpp ****     __asm__ volatile("csrw stval, %[stval]"::[stval]"r"(stval));
  98:src/../h/riscv.hpp **** }
  99:src/../h/riscv.hpp **** 
 100:src/../h/riscv.hpp **** inline void Riscv::ms_sip(uint64 mask) {
 101:src/../h/riscv.hpp ****     __asm__ volatile("csrs sip, %[mask]"::[mask]"r"(mask));
 102:src/../h/riscv.hpp **** }
 103:src/../h/riscv.hpp **** inline void Riscv::mc_sip(uint64 mask) {
 104:src/../h/riscv.hpp ****     __asm__ volatile("csrc sip, %[mask]"::[mask]"r"(mask));
 105:src/../h/riscv.hpp **** }
 106:src/../h/riscv.hpp **** 
 107:src/../h/riscv.hpp **** 
 108:src/../h/riscv.hpp **** inline uint64 Riscv::r_sip(){
 109:src/../h/riscv.hpp ****     uint64 volatile sip;
 110:src/../h/riscv.hpp ****     __asm__ volatile("csrr %[sip], sip":[sip]"=r"(sip));
 111:src/../h/riscv.hpp ****     return sip;
 112:src/../h/riscv.hpp **** }
 113:src/../h/riscv.hpp **** inline void Riscv::w_sip(uint64 sip) {
 114:src/../h/riscv.hpp ****     __asm__ volatile("csrw sip, %[sip]"::[sip]"r"(sip));
 115:src/../h/riscv.hpp **** }
GAS LISTING /tmp/ccXU9hbo.s 			page 7


 116:src/../h/riscv.hpp **** 
 117:src/../h/riscv.hpp **** inline void Riscv::ms_sstatus(uint64 mask) {
 118:src/../h/riscv.hpp ****     __asm__ volatile("csrs sstatus, %[mask]"::[mask]"r"(mask));
 145              		.loc 2 118 5
 146              		.loc 2 118 63 is_stmt 0
 147 00d8 93072000 		li	a5,2
 148              	#APP
 149              	# 118 "src/../h/riscv.hpp" 1
 119              	}
 150              		csrs sstatus, a5
 151              	# 0 "" 2
 152              	.LVL10:
 153              	#NO_APP
 154              	.L8:
 155              	.LBE11:
 156              	.LBE10:
  78:src/main.cpp  **** 
  79:src/main.cpp  ****     while (!handleUserMain->isFinished()){
 157              		.loc 1 79 5 is_stmt 1
 158              		.loc 1 79 12
 159              		.loc 1 79 39 is_stmt 0
 160 00e0 033584FC 		ld	a0,-56(s0)
 161              	.LVL11:
 162              	.LBB12:
 163              	.LBB13:
 164              		.file 3 "src/../h/../h/TCB.hpp"
   1:src/../h/../h/TCB.hpp **** //
   2:src/../h/../h/TCB.hpp **** // Created by os on 7/18/23.
   3:src/../h/../h/TCB.hpp **** //
   4:src/../h/../h/TCB.hpp **** 
   5:src/../h/../h/TCB.hpp **** //sa vezbi 7
   6:src/../h/../h/TCB.hpp **** 
   7:src/../h/../h/TCB.hpp **** #ifndef PROJECT_BASE_TCB_HPP
   8:src/../h/../h/TCB.hpp **** #define PROJECT_BASE_TCB_HPP
   9:src/../h/../h/TCB.hpp **** 
  10:src/../h/../h/TCB.hpp **** #include "../lib/hw.h"
  11:src/../h/../h/TCB.hpp **** 
  12:src/../h/../h/TCB.hpp **** class TCB{
  13:src/../h/../h/TCB.hpp **** public:
  14:src/../h/../h/TCB.hpp ****     virtual ~TCB();
  15:src/../h/../h/TCB.hpp ****     bool isFinished() const{
  16:src/../h/../h/TCB.hpp ****         return finished;
 165              		.loc 3 16 9 is_stmt 1
 166              		.loc 3 16 16 is_stmt 0
 167 00e4 83470503 		lbu	a5,48(a0)
 168              	.LVL12:
 169              	.LBE13:
 170              	.LBE12:
 171              		.loc 1 79 12
 172 00e8 63980700 		bnez	a5,.L7
  80:src/main.cpp  ****         thread_dispatch();
 173              		.loc 1 80 9 is_stmt 1
 174              		.loc 1 80 24 is_stmt 0
 175 00ec 97000000 		call	_Z15thread_dispatchv@plt
 175      E7800000 
 176              	.LVL13:
 177 00f4 6FF0DFFE 		j	.L8
GAS LISTING /tmp/ccXU9hbo.s 			page 8


 178              	.L7:
  81:src/main.cpp  ****     }
  82:src/main.cpp  **** 
  83:src/main.cpp  ****     delete handleUserMain;
 179              		.loc 1 83 5 is_stmt 1
 180              		.loc 1 83 26 is_stmt 0
 181 00f8 63080500 		beqz	a0,.L9
 182              		.loc 1 83 12 discriminator 1
 183 00fc 83370500 		ld	a5,0(a0)
 184 0100 83B78700 		ld	a5,8(a5)
 185 0104 E7800700 		jalr	a5
 186              	.LVL14:
 187              	.L9:
  84:src/main.cpp  ****     delete handleIdle;
 188              		.loc 1 84 5 is_stmt 1
 189              		.loc 1 84 12 is_stmt 0
 190 0108 033504FD 		ld	a0,-48(s0)
 191              		.loc 1 84 22
 192 010c 63080500 		beqz	a0,.L10
 193              		.loc 1 84 12 discriminator 1
 194 0110 83370500 		ld	a5,0(a0)
 195 0114 83B78700 		ld	a5,8(a5)
 196 0118 E7800700 		jalr	a5
 197              	.LVL15:
 198              	.L10:
  85:src/main.cpp  ****     delete handleMain;
 199              		.loc 1 85 5 is_stmt 1
 200              		.loc 1 85 12 is_stmt 0
 201 011c 033584FD 		ld	a0,-40(s0)
 202              		.loc 1 85 22
 203 0120 63080500 		beqz	a0,.L11
 204              		.loc 1 85 12 discriminator 1
 205 0124 83370500 		ld	a5,0(a0)
 206 0128 83B78700 		ld	a5,8(a5)
 207 012c E7800700 		jalr	a5
 208              	.LVL16:
 209              	.L11:
  86:src/main.cpp  **** 
  87:src/main.cpp  ****     return 0;
 210              		.loc 1 87 5 is_stmt 1
  88:src/main.cpp  **** }...
 211              		.loc 1 88 1 is_stmt 0
 212 0130 13050000 		li	a0,0
 213 0134 83308103 		ld	ra,56(sp)
 214              		.cfi_restore 1
 215 0138 03340103 		ld	s0,48(sp)
 216              		.cfi_restore 8
 217              		.cfi_def_cfa 2, 64
 218 013c 83348102 		ld	s1,40(sp)
 219              		.cfi_restore 9
 220 0140 13010104 		addi	sp,sp,64
 221              		.cfi_def_cfa_offset 0
 222 0144 67800000 		jr	ra
 223              		.cfi_endproc
 224              	.LFE21:
 226              	.Letext0:
 227              		.file 4 "src/../h/../lib/hw.h"
GAS LISTING /tmp/ccXU9hbo.s 			page 9


 228              		.file 5 "src/../h/MemoryAllocator.hpp"
 229              		.file 6 "src/../h/syscall_c.hpp"
GAS LISTING /tmp/ccXU9hbo.s 			page 10


DEFINED SYMBOLS
                            *ABS*:0000000000000000 main.cpp
     /tmp/ccXU9hbo.s:9      .text:0000000000000000 _Z10idleThreadPv
     /tmp/ccXU9hbo.s:13     .text:0000000000000000 .L0 
     /tmp/ccXU9hbo.s:15     .text:0000000000000000 .L0 
     /tmp/ccXU9hbo.s:16     .text:0000000000000004 .L0 
     /tmp/ccXU9hbo.s:19     .text:000000000000000c .L0 
     /tmp/ccXU9hbo.s:20     .text:000000000000000c .L0 
     /tmp/ccXU9hbo.s:22     .text:0000000000000010 .L0 
     /tmp/ccXU9hbo.s:26     .text:0000000000000010 .L0 
     /tmp/ccXU9hbo.s:27     .text:0000000000000010 .L0 
     /tmp/ccXU9hbo.s:28     .text:0000000000000010 .L0 
     /tmp/ccXU9hbo.s:31     .text:0000000000000018 .L0 
     /tmp/ccXU9hbo.s:32     .text:000000000000001c .L0 
     /tmp/ccXU9hbo.s:38     .text:000000000000001c _Z15userMainWrapperPv
     /tmp/ccXU9hbo.s:41     .text:000000000000001c .L0 
     /tmp/ccXU9hbo.s:42     .text:000000000000001c .L0 
     /tmp/ccXU9hbo.s:43     .text:0000000000000020 .L0 
     /tmp/ccXU9hbo.s:46     .text:0000000000000028 .L0 
     /tmp/ccXU9hbo.s:47     .text:0000000000000028 .L0 
     /tmp/ccXU9hbo.s:49     .text:000000000000002c .L0 
     /tmp/ccXU9hbo.s:51     .text:000000000000002c .L0 
     /tmp/ccXU9hbo.s:52     .text:000000000000002c .L0 
     /tmp/ccXU9hbo.s:55     .text:0000000000000034 .L0 
     /tmp/ccXU9hbo.s:56     .text:0000000000000038 .L0 
     /tmp/ccXU9hbo.s:58     .text:000000000000003c .L0 
     /tmp/ccXU9hbo.s:59     .text:000000000000003c .L0 
     /tmp/ccXU9hbo.s:61     .text:0000000000000040 .L0 
     /tmp/ccXU9hbo.s:63     .text:0000000000000044 .L0 
     /tmp/ccXU9hbo.s:69     .text:0000000000000044 main
     /tmp/ccXU9hbo.s:72     .text:0000000000000044 .L0 
     /tmp/ccXU9hbo.s:73     .text:0000000000000044 .L0 
     /tmp/ccXU9hbo.s:74     .text:0000000000000048 .L0 
     /tmp/ccXU9hbo.s:78     .text:0000000000000054 .L0 
     /tmp/ccXU9hbo.s:79     .text:0000000000000054 .L0 
     /tmp/ccXU9hbo.s:80     .text:0000000000000054 .L0 
     /tmp/ccXU9hbo.s:82     .text:0000000000000058 .L0 
     /tmp/ccXU9hbo.s:84     .text:0000000000000058 .L0 
     /tmp/ccXU9hbo.s:85     .text:0000000000000058 .L0 
     /tmp/ccXU9hbo.s:88     .text:0000000000000060 .L0 
     /tmp/ccXU9hbo.s:89     .text:0000000000000060 .L0 
     /tmp/ccXU9hbo.s:96     .text:000000000000006c .L0 
  src/../h/riscv.hpp:89     .text:000000000000006c .L0 
     /tmp/ccXU9hbo.s:106    .text:0000000000000070 .L0 
     /tmp/ccXU9hbo.s:107    .text:0000000000000070 .L0 
     /tmp/ccXU9hbo.s:110    .text:000000000000007c .L0 
     /tmp/ccXU9hbo.s:111    .text:000000000000007c .L0 
     /tmp/ccXU9hbo.s:112    .text:000000000000007c .L0 
     /tmp/ccXU9hbo.s:118    .text:0000000000000090 .L0 
     /tmp/ccXU9hbo.s:119    .text:0000000000000090 .L0 
     /tmp/ccXU9hbo.s:123    .text:00000000000000a0 .L0 
     /tmp/ccXU9hbo.s:124    .text:00000000000000a0 .L0 
     /tmp/ccXU9hbo.s:125    .text:00000000000000a0 .L0 
     /tmp/ccXU9hbo.s:131    .text:00000000000000b8 .L0 
     /tmp/ccXU9hbo.s:132    .text:00000000000000b8 .L0 
     /tmp/ccXU9hbo.s:135    .text:00000000000000c0 .L0 
     /tmp/ccXU9hbo.s:136    .text:00000000000000c0 .L0 
GAS LISTING /tmp/ccXU9hbo.s 			page 11


     /tmp/ccXU9hbo.s:137    .text:00000000000000c0 .L0 
     /tmp/ccXU9hbo.s:145    .text:00000000000000d8 .L0 
     /tmp/ccXU9hbo.s:146    .text:00000000000000d8 .L0 
     /tmp/ccXU9hbo.s:147    .text:00000000000000d8 .L0 
     /tmp/ccXU9hbo.s:158    .text:00000000000000e0 .L0 
     /tmp/ccXU9hbo.s:159    .text:00000000000000e0 .L0 
     /tmp/ccXU9hbo.s:160    .text:00000000000000e0 .L0 
     /tmp/ccXU9hbo.s:166    .text:00000000000000e4 .L0 
     /tmp/ccXU9hbo.s:167    .text:00000000000000e4 .L0 
     /tmp/ccXU9hbo.s:172    .text:00000000000000e8 .L0 
     /tmp/ccXU9hbo.s:174    .text:00000000000000ec .L0 
     /tmp/ccXU9hbo.s:175    .text:00000000000000ec .L0 
     /tmp/ccXU9hbo.s:180    .text:00000000000000f8 .L0 
     /tmp/ccXU9hbo.s:181    .text:00000000000000f8 .L0 
     /tmp/ccXU9hbo.s:183    .text:00000000000000fc .L0 
     /tmp/ccXU9hbo.s:189    .text:0000000000000108 .L0 
     /tmp/ccXU9hbo.s:190    .text:0000000000000108 .L0 
     /tmp/ccXU9hbo.s:192    .text:000000000000010c .L0 
     /tmp/ccXU9hbo.s:194    .text:0000000000000110 .L0 
     /tmp/ccXU9hbo.s:200    .text:000000000000011c .L0 
     /tmp/ccXU9hbo.s:201    .text:000000000000011c .L0 
     /tmp/ccXU9hbo.s:203    .text:0000000000000120 .L0 
     /tmp/ccXU9hbo.s:205    .text:0000000000000124 .L0 
     /tmp/ccXU9hbo.s:211    .text:0000000000000130 .L0 
     /tmp/ccXU9hbo.s:212    .text:0000000000000130 .L0 
     /tmp/ccXU9hbo.s:214    .text:0000000000000138 .L0 
     /tmp/ccXU9hbo.s:216    .text:000000000000013c .L0 
     /tmp/ccXU9hbo.s:217    .text:000000000000013c .L0 
     /tmp/ccXU9hbo.s:219    .text:0000000000000140 .L0 
     /tmp/ccXU9hbo.s:221    .text:0000000000000144 .L0 
     /tmp/ccXU9hbo.s:223    .text:0000000000000148 .L0 
     /tmp/ccXU9hbo.s:230    .text:0000000000000148 .L0 
     /tmp/ccXU9hbo.s:89     .text:0000000000000060 .L0 
     /tmp/ccXU9hbo.s:107    .text:0000000000000070 .L0 
     /tmp/ccXU9hbo.s:119    .text:0000000000000090 .L0 
     /tmp/ccXU9hbo.s:126    .text:00000000000000a4 .L0 
     /tmp/ccXU9hbo.s:138    .text:00000000000000c4 .L0 
     /tmp/ccXU9hbo.s:24     .text:0000000000000010 .L2
     /tmp/ccXU9hbo.s:178    .text:00000000000000f8 .L7
     /tmp/ccXU9hbo.s:154    .text:00000000000000e0 .L8
     /tmp/ccXU9hbo.s:187    .text:0000000000000108 .L9
     /tmp/ccXU9hbo.s:198    .text:000000000000011c .L10
     /tmp/ccXU9hbo.s:209    .text:0000000000000130 .L11
     /tmp/ccXU9hbo.s:982    .debug_abbrev:0000000000000000 .Ldebug_abbrev0
     /tmp/ccXU9hbo.s:1931   .debug_str:00000000000004fd .LASF96
     /tmp/ccXU9hbo.s:1853   .debug_str:00000000000002a5 .LASF97
     /tmp/ccXU9hbo.s:1819   .debug_str:0000000000000194 .LASF98
     /tmp/ccXU9hbo.s:5      .text:0000000000000000 .Ltext0
     /tmp/ccXU9hbo.s:226    .text:0000000000000148 .Letext0
     /tmp/ccXU9hbo.s:1757   .debug_line:0000000000000000 .Ldebug_line0
     /tmp/ccXU9hbo.s:1877   .debug_str:0000000000000368 .LASF0
     /tmp/ccXU9hbo.s:1887   .debug_str:0000000000000397 .LASF1
     /tmp/ccXU9hbo.s:1869   .debug_str:0000000000000333 .LASF2
     /tmp/ccXU9hbo.s:1847   .debug_str:0000000000000271 .LASF4
     /tmp/ccXU9hbo.s:1915   .debug_str:000000000000048a .LASF3
     /tmp/ccXU9hbo.s:1773   .debug_str:0000000000000051 .LASF5
     /tmp/ccXU9hbo.s:1891   .debug_str:00000000000003cb .LASF6
GAS LISTING /tmp/ccXU9hbo.s 			page 12


     /tmp/ccXU9hbo.s:1875   .debug_str:0000000000000355 .LASF7
     /tmp/ccXU9hbo.s:1941   .debug_str:000000000000061e .LASF8
     /tmp/ccXU9hbo.s:1835   .debug_str:0000000000000212 .LASF9
     /tmp/ccXU9hbo.s:1901   .debug_str:0000000000000403 .LASF10
     /tmp/ccXU9hbo.s:1933   .debug_str:00000000000005c1 .LASF11
     /tmp/ccXU9hbo.s:1777   .debug_str:0000000000000064 .LASF12
     /tmp/ccXU9hbo.s:1761   .debug_str:0000000000000008 .LASF13
     /tmp/ccXU9hbo.s:1785   .debug_str:00000000000000ae .LASF14
     /tmp/ccXU9hbo.s:1911   .debug_str:000000000000045c .LASF15
     /tmp/ccXU9hbo.s:1793   .debug_str:00000000000000ea .LASF16
     /tmp/ccXU9hbo.s:1863   .debug_str:000000000000030b .LASF25
     /tmp/ccXU9hbo.s:1799   .debug_str:0000000000000122 .LASF99
     /tmp/ccXU9hbo.s:1925   .debug_str:00000000000004df .LASF17
     /tmp/ccXU9hbo.s:1961   .debug_str:00000000000006cd .LASF18
     /tmp/ccXU9hbo.s:1883   .debug_str:000000000000038b .LASF19
     /tmp/ccXU9hbo.s:1965   .debug_str:00000000000006d7 .LASF21
     /tmp/ccXU9hbo.s:1815   .debug_str:000000000000018a .LASF20
     /tmp/ccXU9hbo.s:1907   .debug_str:0000000000000434 .LASF22
     /tmp/ccXU9hbo.s:1867   .debug_str:0000000000000328 .LASF30
     /tmp/ccXU9hbo.s:1953   .debug_str:000000000000067c .LASF32
     /tmp/ccXU9hbo.s:1939   .debug_str:0000000000000602 .LASF83
     /tmp/ccXU9hbo.s:1873   .debug_str:000000000000034b .LASF100
     /tmp/ccXU9hbo.s:1855   .debug_str:00000000000002b2 .LASF101
     /tmp/ccXU9hbo.s:1865   .debug_str:000000000000031b .LASF102
     /tmp/ccXU9hbo.s:1893   .debug_str:00000000000003de .LASF23
     /tmp/ccXU9hbo.s:1833   .debug_str:00000000000001fb .LASF24
     /tmp/ccXU9hbo.s:1885   .debug_str:0000000000000391 .LASF26
     /tmp/ccXU9hbo.s:1881   .debug_str:000000000000037c .LASF103
     /tmp/ccXU9hbo.s:1789   .debug_str:00000000000000ca .LASF27
     /tmp/ccXU9hbo.s:1857   .debug_str:00000000000002ce .LASF28
     /tmp/ccXU9hbo.s:1775   .debug_str:0000000000000058 .LASF29
     /tmp/ccXU9hbo.s:1909   .debug_str:0000000000000451 .LASF31
     /tmp/ccXU9hbo.s:1955   .debug_str:000000000000069f .LASF33
     /tmp/ccXU9hbo.s:1839   .debug_str:0000000000000236 .LASF34
     /tmp/ccXU9hbo.s:1805   .debug_str:0000000000000146 .LASF35
     /tmp/ccXU9hbo.s:1829   .debug_str:00000000000001ed .LASF36
     /tmp/ccXU9hbo.s:1859   .debug_str:00000000000002db .LASF37
     /tmp/ccXU9hbo.s:1763   .debug_str:0000000000000018 .LASF38
     /tmp/ccXU9hbo.s:1921   .debug_str:00000000000004b2 .LASF40
     /tmp/ccXU9hbo.s:1809   .debug_str:0000000000000170 .LASF42
     /tmp/ccXU9hbo.s:1807   .debug_str:000000000000015b .LASF44
     /tmp/ccXU9hbo.s:1917   .debug_str:000000000000049c .LASF39
     /tmp/ccXU9hbo.s:1905   .debug_str:0000000000000421 .LASF41
     /tmp/ccXU9hbo.s:1929   .debug_str:00000000000004f6 .LASF43
     /tmp/ccXU9hbo.s:1937   .debug_str:00000000000005ef .LASF45
     /tmp/ccXU9hbo.s:1825   .debug_str:00000000000001da .LASF46
     /tmp/ccXU9hbo.s:1795   .debug_str:0000000000000100 .LASF47
     /tmp/ccXU9hbo.s:1759   .debug_str:0000000000000000 .LASF48
     /tmp/ccXU9hbo.s:1841   .debug_str:000000000000023f .LASF49
     /tmp/ccXU9hbo.s:1813   .debug_str:0000000000000182 .LASF50
     /tmp/ccXU9hbo.s:1779   .debug_str:0000000000000074 .LASF51
     /tmp/ccXU9hbo.s:1843   .debug_str:0000000000000253 .LASF52
     /tmp/ccXU9hbo.s:1791   .debug_str:00000000000000d6 .LASF53
     /tmp/ccXU9hbo.s:1959   .debug_str:00000000000006c2 .LASF54
     /tmp/ccXU9hbo.s:1913   .debug_str:0000000000000472 .LASF55
     /tmp/ccXU9hbo.s:1849   .debug_str:0000000000000278 .LASF56
     /tmp/ccXU9hbo.s:1923   .debug_str:00000000000004c7 .LASF57
GAS LISTING /tmp/ccXU9hbo.s 			page 13


     /tmp/ccXU9hbo.s:1783   .debug_str:00000000000000a4 .LASF58
     /tmp/ccXU9hbo.s:1845   .debug_str:000000000000025b .LASF59
     /tmp/ccXU9hbo.s:1871   .debug_str:0000000000000341 .LASF60
     /tmp/ccXU9hbo.s:1837   .debug_str:0000000000000220 .LASF61
     /tmp/ccXU9hbo.s:1879   .debug_str:0000000000000375 .LASF62
     /tmp/ccXU9hbo.s:1949   .debug_str:0000000000000664 .LASF63
     /tmp/ccXU9hbo.s:1771   .debug_str:000000000000004a .LASF64
     /tmp/ccXU9hbo.s:1823   .debug_str:00000000000001c7 .LASF65
     /tmp/ccXU9hbo.s:1831   .debug_str:00000000000001f5 .LASF66
     /tmp/ccXU9hbo.s:1927   .debug_str:00000000000004e4 .LASF67
     /tmp/ccXU9hbo.s:1767   .debug_str:0000000000000032 .LASF68
     /tmp/ccXU9hbo.s:1967   .debug_str:00000000000006f4 .LASF69
     /tmp/ccXU9hbo.s:1919   .debug_str:00000000000004a3 .LASF70
     /tmp/ccXU9hbo.s:1781   .debug_str:0000000000000088 .LASF71
     /tmp/ccXU9hbo.s:1943   .debug_str:000000000000062e .LASF72
     /tmp/ccXU9hbo.s:1851   .debug_str:0000000000000283 .LASF74
     /tmp/ccXU9hbo.s:1897   .debug_str:00000000000003ef .LASF73
     /tmp/ccXU9hbo.s:1861   .debug_str:00000000000002ef .LASF75
     /tmp/ccXU9hbo.s:1769   .debug_str:0000000000000038 .LASF76
     /tmp/ccXU9hbo.s:1935   .debug_str:00000000000005d0 .LASF77
     /tmp/ccXU9hbo.s:1899   .debug_str:00000000000003fe .LASF78
     /tmp/ccXU9hbo.s:70     .text:0000000000000044 .LFB21
     /tmp/ccXU9hbo.s:224    .text:0000000000000148 .LFE21
     /tmp/ccXU9hbo.s:1947   .debug_str:0000000000000659 .LASF79
     /tmp/ccXU9hbo.s:1827   .debug_str:00000000000001e2 .LASF80
     /tmp/ccXU9hbo.s:1903   .debug_str:0000000000000412 .LASF81
     /tmp/ccXU9hbo.s:92     .text:000000000000006c .LBB8
     /tmp/ccXU9hbo.s:104    .text:0000000000000070 .LBE8
     /tmp/ccXU9hbo.s:1708   .debug_loc:0000000000000000 .LLST1
     /tmp/ccXU9hbo.s:143    .text:00000000000000d8 .LBB10
     /tmp/ccXU9hbo.s:156    .text:00000000000000e0 .LBE10
     /tmp/ccXU9hbo.s:1715   .debug_loc:0000000000000023 .LLST2
     /tmp/ccXU9hbo.s:162    .text:00000000000000e4 .LBB12
     /tmp/ccXU9hbo.s:170    .text:00000000000000e8 .LBE12
     /tmp/ccXU9hbo.s:1723   .debug_loc:0000000000000047 .LLST3
     /tmp/ccXU9hbo.s:86     .text:0000000000000060 .LVL4
     /tmp/ccXU9hbo.s:116    .text:0000000000000090 .LVL7
     /tmp/ccXU9hbo.s:129    .text:00000000000000b8 .LVL8
     /tmp/ccXU9hbo.s:141    .text:00000000000000d8 .LVL9
     /tmp/ccXU9hbo.s:176    .text:00000000000000f4 .LVL13
     /tmp/ccXU9hbo.s:1803   .debug_str:0000000000000136 .LASF82
     /tmp/ccXU9hbo.s:1945   .debug_str:0000000000000643 .LASF84
     /tmp/ccXU9hbo.s:39     .text:000000000000001c .LFB20
     /tmp/ccXU9hbo.s:64     .text:0000000000000044 .LFE20
     /tmp/ccXU9hbo.s:53     .text:0000000000000034 .LVL3
     /tmp/ccXU9hbo.s:1957   .debug_str:00000000000006b7 .LASF85
     /tmp/ccXU9hbo.s:1765   .debug_str:0000000000000021 .LASF86
     /tmp/ccXU9hbo.s:10     .text:0000000000000000 .LFB19
     /tmp/ccXU9hbo.s:33     .text:000000000000001c .LFE19
     /tmp/ccXU9hbo.s:1730   .debug_loc:000000000000006a .LLST0
     /tmp/ccXU9hbo.s:29     .text:0000000000000018 .LVL2
     /tmp/ccXU9hbo.s:1963   .debug_str:00000000000006d2 .LASF87
     /tmp/ccXU9hbo.s:1895   .debug_str:00000000000003e9 .LASF88
     /tmp/ccXU9hbo.s:1817   .debug_str:000000000000018f .LASF89
     /tmp/ccXU9hbo.s:1951   .debug_str:0000000000000677 .LASF104
     /tmp/ccXU9hbo.s:1889   .debug_str:00000000000003aa .LASF90
     /tmp/ccXU9hbo.s:1797   .debug_str:0000000000000114 .LASF92
GAS LISTING /tmp/ccXU9hbo.s 			page 14


     /tmp/ccXU9hbo.s:1821   .debug_str:00000000000001b2 .LASF91
     /tmp/ccXU9hbo.s:1787   .debug_str:00000000000000ba .LASF93
     /tmp/ccXU9hbo.s:1801   .debug_str:0000000000000129 .LASF94
     /tmp/ccXU9hbo.s:1811   .debug_str:0000000000000179 .LASF95
     /tmp/ccXU9hbo.s:91     .text:000000000000006c .LVL5
     /tmp/ccXU9hbo.s:101    .text:0000000000000070 .LVL6
     /tmp/ccXU9hbo.s:152    .text:00000000000000e0 .LVL10
     /tmp/ccXU9hbo.s:161    .text:00000000000000e4 .LVL11
     /tmp/ccXU9hbo.s:168    .text:00000000000000e8 .LVL12
     /tmp/ccXU9hbo.s:14     .text:0000000000000000 .LVL0
     /tmp/ccXU9hbo.s:23     .text:0000000000000010 .LVL1
     /tmp/ccXU9hbo.s:231    .debug_info:0000000000000000 .Ldebug_info0

UNDEFINED SYMBOLS
_Z15thread_dispatchv
_Z8userMainv
_ZN15MemoryAllocator10initializeEv
_ZN5Riscv14supervisorTrapEv
_ZN3TCB14newThrUserModeE
_Z13thread_createPP3TCBPFvPvES2_
_ZN3TCB7runningE
