GAS LISTING /tmp/ccJDYvBr.s 			page 1


   1              		.file	"main.cpp"
   2              		.option pic
   3              		.option norelax
   4              		.text
   5              	.Ltext0:
   6              		.align	2
   7              		.globl	main
   9              	main:
  10              	.LFB4:
  11              		.file 1 "src/main.cpp"
   1:src/main.cpp  **** //
   2:src/main.cpp  **** // Created by os on 6/29/23.
   3:src/main.cpp  **** //
   4:src/main.cpp  **** 
   5:src/main.cpp  **** #include "../h/MemoryAllocator.hpp"
   6:src/main.cpp  **** #include "../lib/console.h"
   7:src/main.cpp  **** #include "../h/trap.hpp"
   8:src/main.cpp  **** #include "../h/syscall_c.hpp"
   9:src/main.cpp  **** #include "../h/Thread.hpp"
  10:src/main.cpp  **** 
  11:src/main.cpp  **** int main(){
  12              		.loc 1 11 11
  13              		.cfi_startproc
  14 0000 130101FD 		addi	sp,sp,-48
  15              		.cfi_def_cfa_offset 48
  16 0004 23341102 		sd	ra,40(sp)
  17 0008 23308102 		sd	s0,32(sp)
  18 000c 233C9100 		sd	s1,24(sp)
  19 0010 23382101 		sd	s2,16(sp)
  20 0014 23343101 		sd	s3,8(sp)
  21 0018 23304101 		sd	s4,0(sp)
  22              		.cfi_offset 1, -8
  23              		.cfi_offset 8, -16
  24              		.cfi_offset 9, -24
  25              		.cfi_offset 18, -32
  26              		.cfi_offset 19, -40
  27              		.cfi_offset 20, -48
  28 001c 13040103 		addi	s0,sp,48
  29              		.cfi_def_cfa 8, 0
  12:src/main.cpp  **** 
  13:src/main.cpp  ****     __asm__ volatile ("csrw stvec, %[vector]" : : [vector] "r" (&supervisorTrap));
  30              		.loc 1 13 5
  31              		.loc 1 13 82 is_stmt 0
  32 0020 97070000 		la	a5,supervisorTrap
  32      83B70700 
  33              	#APP
  34              	# 13 "src/main.cpp" 1
  14              	    //dozvoljavanje prekida
  15:src/main.cpp  ****     //__asm__ volatile ("csrs sstatus, 0x02");
  16:src/main.cpp  **** 
  17:src/main.cpp  ****     MemoryAllocator::initialize();
  35              		csrw stvec, a5
  36              	# 0 "" 2
  37              		.loc 1 17 5 is_stmt 1
  38              		.loc 1 17 32 is_stmt 0
  39              	#NO_APP
  40 002c 97000000 		call	_ZN15MemoryAllocator10initializeEv@plt
GAS LISTING /tmp/ccJDYvBr.s 			page 2


  40      E7800000 
  41              	.LVL0:
  18:src/main.cpp  **** 
  19:src/main.cpp  ****     Thread* t1=(Thread*)MemoryAllocator::alloc((sizeof (Thread)+MEM_BLOCK_SIZE-1)/MEM_BLOCK_SIZE);
  42              		.loc 1 19 5 is_stmt 1
  43              		.loc 1 19 47 is_stmt 0
  44 0034 13051000 		li	a0,1
  45 0038 97000000 		call	_ZN15MemoryAllocator5allocEm@plt
  45      E7800000 
  46              	.LVL1:
  47 0040 130A0500 		mv	s4,a0
  48              	.LVL2:
  20:src/main.cpp  ****     Thread* t2=(Thread*)MemoryAllocator::alloc((sizeof (Thread)+MEM_BLOCK_SIZE-1)/MEM_BLOCK_SIZE);
  49              		.loc 1 20 5 is_stmt 1
  50              		.loc 1 20 47 is_stmt 0
  51 0044 13051000 		li	a0,1
  52              	.LVL3:
  53 0048 97000000 		call	_ZN15MemoryAllocator5allocEm@plt
  53      E7800000 
  54              	.LVL4:
  55 0050 93040500 		mv	s1,a0
  56              	.LVL5:
  21:src/main.cpp  ****     Thread* t3=(Thread*)MemoryAllocator::alloc((sizeof (Thread)+MEM_BLOCK_SIZE-1)/MEM_BLOCK_SIZE);
  57              		.loc 1 21 5 is_stmt 1
  58              		.loc 1 21 47 is_stmt 0
  59 0054 13051000 		li	a0,1
  60 0058 97000000 		call	_ZN15MemoryAllocator5allocEm@plt
  60      E7800000 
  61              	.LVL6:
  62 0060 13090500 		mv	s2,a0
  63              	.LVL7:
  22:src/main.cpp  ****     Thread* t4=(Thread*)MemoryAllocator::alloc((sizeof (Thread)+MEM_BLOCK_SIZE-1)/MEM_BLOCK_SIZE);
  64              		.loc 1 22 5 is_stmt 1
  65              		.loc 1 22 47 is_stmt 0
  66 0064 13051000 		li	a0,1
  67              	.LVL8:
  68 0068 97000000 		call	_ZN15MemoryAllocator5allocEm@plt
  68      E7800000 
  69              	.LVL9:
  70 0070 93090500 		mv	s3,a0
  71              	.LVL10:
  23:src/main.cpp  **** 
  24:src/main.cpp  ****     Scheduler::put(t1);
  72              		.loc 1 24 5 is_stmt 1
  73              		.loc 1 24 19 is_stmt 0
  74 0074 13050A00 		mv	a0,s4
  75              	.LVL11:
  76 0078 97000000 		call	_ZN9Scheduler3putEP6Thread@plt
  76      E7800000 
  77              	.LVL12:
  25:src/main.cpp  ****     Scheduler::put(t2);
  78              		.loc 1 25 5 is_stmt 1
  79              		.loc 1 25 19 is_stmt 0
  80 0080 13850400 		mv	a0,s1
  81 0084 97000000 		call	_ZN9Scheduler3putEP6Thread@plt
  81      E7800000 
  82              	.LVL13:
GAS LISTING /tmp/ccJDYvBr.s 			page 3


  26:src/main.cpp  ****     Scheduler::put(t3);
  83              		.loc 1 26 5 is_stmt 1
  84              		.loc 1 26 19 is_stmt 0
  85 008c 13050900 		mv	a0,s2
  86 0090 97000000 		call	_ZN9Scheduler3putEP6Thread@plt
  86      E7800000 
  87              	.LVL14:
  27:src/main.cpp  ****     Scheduler::put(t4);
  88              		.loc 1 27 5 is_stmt 1
  89              		.loc 1 27 19 is_stmt 0
  90 0098 13850900 		mv	a0,s3
  91 009c 97000000 		call	_ZN9Scheduler3putEP6Thread@plt
  91      E7800000 
  92              	.LVL15:
  28:src/main.cpp  **** 
  29:src/main.cpp  ****     t1=Scheduler::get();
  93              		.loc 1 29 5 is_stmt 1
  94              		.loc 1 29 22 is_stmt 0
  95 00a4 97000000 		call	_ZN9Scheduler3getEv@plt
  95      E7800000 
  96              	.LVL16:
  97 00ac 130A0500 		mv	s4,a0
  98              	.LVL17:
  30:src/main.cpp  ****     Scheduler::get();
  99              		.loc 1 30 5 is_stmt 1
 100              		.loc 1 30 19 is_stmt 0
 101 00b0 97000000 		call	_ZN9Scheduler3getEv@plt
 101      E7800000 
 102              	.LVL18:
  31:src/main.cpp  ****     Scheduler::get();
 103              		.loc 1 31 5 is_stmt 1
 104              		.loc 1 31 19 is_stmt 0
 105 00b8 97000000 		call	_ZN9Scheduler3getEv@plt
 105      E7800000 
 106              	.LVL19:
  32:src/main.cpp  ****     Scheduler::get();
 107              		.loc 1 32 5 is_stmt 1
 108              		.loc 1 32 19 is_stmt 0
 109 00c0 97000000 		call	_ZN9Scheduler3getEv@plt
 109      E7800000 
 110              	.LVL20:
  33:src/main.cpp  **** 
  34:src/main.cpp  ****     MemoryAllocator::free(t4);
 111              		.loc 1 34 5 is_stmt 1
 112              		.loc 1 34 26 is_stmt 0
 113 00c8 13850900 		mv	a0,s3
 114 00cc 97000000 		call	_ZN15MemoryAllocator4freeEPv@plt
 114      E7800000 
 115              	.LVL21:
  35:src/main.cpp  ****     MemoryAllocator::free(t3);
 116              		.loc 1 35 5 is_stmt 1
 117              		.loc 1 35 26 is_stmt 0
 118 00d4 13050900 		mv	a0,s2
 119 00d8 97000000 		call	_ZN15MemoryAllocator4freeEPv@plt
 119      E7800000 
 120              	.LVL22:
  36:src/main.cpp  ****     MemoryAllocator::free(t2);
GAS LISTING /tmp/ccJDYvBr.s 			page 4


 121              		.loc 1 36 5 is_stmt 1
 122              		.loc 1 36 26 is_stmt 0
 123 00e0 13850400 		mv	a0,s1
 124 00e4 97000000 		call	_ZN15MemoryAllocator4freeEPv@plt
 124      E7800000 
 125              	.LVL23:
  37:src/main.cpp  ****     MemoryAllocator::free(t1);
 126              		.loc 1 37 5 is_stmt 1
 127              		.loc 1 37 26 is_stmt 0
 128 00ec 13050A00 		mv	a0,s4
 129 00f0 97000000 		call	_ZN15MemoryAllocator4freeEPv@plt
 129      E7800000 
 130              	.LVL24:
  38:src/main.cpp  **** 
  39:src/main.cpp  ****     void* ptr=mem_alloc(129);
 131              		.loc 1 39 5 is_stmt 1
 132              		.loc 1 39 24 is_stmt 0
 133 00f8 13051008 		li	a0,129
 134 00fc 97000000 		call	_Z9mem_allocm@plt
 134      E7800000 
 135              	.LVL25:
 136 0104 13090500 		mv	s2,a0
 137              	.LVL26:
  40:src/main.cpp  ****     void* ptr2= mem_alloc(68);
 138              		.loc 1 40 5 is_stmt 1
 139              		.loc 1 40 26 is_stmt 0
 140 0108 13054004 		li	a0,68
 141              	.LVL27:
 142 010c 97000000 		call	_Z9mem_allocm@plt
 142      E7800000 
 143              	.LVL28:
 144 0114 93040500 		mv	s1,a0
 145              	.LVL29:
  41:src/main.cpp  ****     int stat=mem_free(ptr);
 146              		.loc 1 41 5 is_stmt 1
 147              		.loc 1 41 22 is_stmt 0
 148 0118 13050900 		mv	a0,s2
 149 011c 97000000 		call	_Z8mem_freePv@plt
 149      E7800000 
 150              	.LVL30:
  42:src/main.cpp  ****     stat= mem_free(ptr2);
 151              		.loc 1 42 5 is_stmt 1
 152              		.loc 1 42 19 is_stmt 0
 153 0124 13850400 		mv	a0,s1
 154 0128 97000000 		call	_Z8mem_freePv@plt
 154      E7800000 
 155              	.LVL31:
  43:src/main.cpp  ****     if(stat<0){
 156              		.loc 1 43 5 is_stmt 1
 157 0130 63440502 		bltz	a0,.L4
 158              	.LVL32:
 159              	.L2:
  44:src/main.cpp  ****         __putc('c');
  45:src/main.cpp  ****     }
  46:src/main.cpp  ****     if(ptr);
 160              		.loc 1 46 5
  47:src/main.cpp  **** 
GAS LISTING /tmp/ccJDYvBr.s 			page 5


  48:src/main.cpp  **** 
  49:src/main.cpp  **** 
  50:src/main.cpp  ****     return 0;
 161              		.loc 1 50 5
  51:src/main.cpp  **** }...
 162              		.loc 1 51 1 is_stmt 0
 163 0134 13050000 		li	a0,0
 164 0138 83308102 		ld	ra,40(sp)
 165              		.cfi_remember_state
 166              		.cfi_restore 1
 167 013c 03340102 		ld	s0,32(sp)
 168              		.cfi_restore 8
 169              		.cfi_def_cfa 2, 48
 170 0140 83348101 		ld	s1,24(sp)
 171              		.cfi_restore 9
 172              	.LVL33:
 173 0144 03390101 		ld	s2,16(sp)
 174              		.cfi_restore 18
 175              	.LVL34:
 176 0148 83398100 		ld	s3,8(sp)
 177              		.cfi_restore 19
 178              	.LVL35:
 179 014c 033A0100 		ld	s4,0(sp)
 180              		.cfi_restore 20
 181              	.LVL36:
 182 0150 13010103 		addi	sp,sp,48
 183              		.cfi_def_cfa_offset 0
 184 0154 67800000 		jr	ra
 185              	.LVL37:
 186              	.L4:
 187              		.cfi_restore_state
  44:src/main.cpp  ****         __putc('c');
 188              		.loc 1 44 9 is_stmt 1
  44:src/main.cpp  ****         __putc('c');
 189              		.loc 1 44 15 is_stmt 0
 190 0158 13053006 		li	a0,99
 191              	.LVL38:
 192 015c 97000000 		call	__putc@plt
 192      E7800000 
 193              	.LVL39:
 194 0164 6FF01FFD 		j	.L2
 195              		.cfi_endproc
 196              	.LFE4:
 198              	.Letext0:
 199              		.file 2 "src/../h/../lib/hw.h"
 200              		.file 3 "src/../h/MemoryAllocator.hpp"
 201              		.file 4 "src/../h/../h/Scheduler.hpp"
 202              		.file 5 "src/../h/Thread.hpp"
 203              		.file 6 "src/../h/syscall_c.hpp"
 204              		.file 7 "src/../lib/console.h"
GAS LISTING /tmp/ccJDYvBr.s 			page 6


DEFINED SYMBOLS
                            *ABS*:0000000000000000 main.cpp
     /tmp/ccJDYvBr.s:9      .text:0000000000000000 main
     /tmp/ccJDYvBr.s:13     .text:0000000000000000 .L0 
     /tmp/ccJDYvBr.s:14     .text:0000000000000000 .L0 
     /tmp/ccJDYvBr.s:15     .text:0000000000000004 .L0 
     /tmp/ccJDYvBr.s:22     .text:000000000000001c .L0 
     /tmp/ccJDYvBr.s:23     .text:000000000000001c .L0 
     /tmp/ccJDYvBr.s:24     .text:000000000000001c .L0 
     /tmp/ccJDYvBr.s:25     .text:000000000000001c .L0 
     /tmp/ccJDYvBr.s:26     .text:000000000000001c .L0 
     /tmp/ccJDYvBr.s:27     .text:000000000000001c .L0 
     /tmp/ccJDYvBr.s:29     .text:0000000000000020 .L0 
     /tmp/ccJDYvBr.s:31     .text:0000000000000020 .L0 
     /tmp/ccJDYvBr.s:32     .text:0000000000000020 .L0 
     /tmp/ccJDYvBr.s:38     .text:000000000000002c .L0 
     /tmp/ccJDYvBr.s:40     .text:000000000000002c .L0 
     /tmp/ccJDYvBr.s:43     .text:0000000000000034 .L0 
     /tmp/ccJDYvBr.s:44     .text:0000000000000034 .L0 
     /tmp/ccJDYvBr.s:50     .text:0000000000000044 .L0 
     /tmp/ccJDYvBr.s:51     .text:0000000000000044 .L0 
     /tmp/ccJDYvBr.s:58     .text:0000000000000054 .L0 
     /tmp/ccJDYvBr.s:59     .text:0000000000000054 .L0 
     /tmp/ccJDYvBr.s:65     .text:0000000000000064 .L0 
     /tmp/ccJDYvBr.s:66     .text:0000000000000064 .L0 
     /tmp/ccJDYvBr.s:73     .text:0000000000000074 .L0 
     /tmp/ccJDYvBr.s:74     .text:0000000000000074 .L0 
     /tmp/ccJDYvBr.s:79     .text:0000000000000080 .L0 
     /tmp/ccJDYvBr.s:80     .text:0000000000000080 .L0 
     /tmp/ccJDYvBr.s:84     .text:000000000000008c .L0 
     /tmp/ccJDYvBr.s:85     .text:000000000000008c .L0 
     /tmp/ccJDYvBr.s:89     .text:0000000000000098 .L0 
     /tmp/ccJDYvBr.s:90     .text:0000000000000098 .L0 
     /tmp/ccJDYvBr.s:94     .text:00000000000000a4 .L0 
     /tmp/ccJDYvBr.s:95     .text:00000000000000a4 .L0 
     /tmp/ccJDYvBr.s:100    .text:00000000000000b0 .L0 
     /tmp/ccJDYvBr.s:101    .text:00000000000000b0 .L0 
     /tmp/ccJDYvBr.s:104    .text:00000000000000b8 .L0 
     /tmp/ccJDYvBr.s:105    .text:00000000000000b8 .L0 
     /tmp/ccJDYvBr.s:108    .text:00000000000000c0 .L0 
     /tmp/ccJDYvBr.s:109    .text:00000000000000c0 .L0 
     /tmp/ccJDYvBr.s:112    .text:00000000000000c8 .L0 
     /tmp/ccJDYvBr.s:113    .text:00000000000000c8 .L0 
     /tmp/ccJDYvBr.s:117    .text:00000000000000d4 .L0 
     /tmp/ccJDYvBr.s:118    .text:00000000000000d4 .L0 
     /tmp/ccJDYvBr.s:122    .text:00000000000000e0 .L0 
     /tmp/ccJDYvBr.s:123    .text:00000000000000e0 .L0 
     /tmp/ccJDYvBr.s:127    .text:00000000000000ec .L0 
     /tmp/ccJDYvBr.s:128    .text:00000000000000ec .L0 
     /tmp/ccJDYvBr.s:132    .text:00000000000000f8 .L0 
     /tmp/ccJDYvBr.s:133    .text:00000000000000f8 .L0 
     /tmp/ccJDYvBr.s:139    .text:0000000000000108 .L0 
     /tmp/ccJDYvBr.s:140    .text:0000000000000108 .L0 
     /tmp/ccJDYvBr.s:147    .text:0000000000000118 .L0 
     /tmp/ccJDYvBr.s:148    .text:0000000000000118 .L0 
     /tmp/ccJDYvBr.s:152    .text:0000000000000124 .L0 
     /tmp/ccJDYvBr.s:153    .text:0000000000000124 .L0 
GAS LISTING /tmp/ccJDYvBr.s 			page 7


     /tmp/ccJDYvBr.s:157    .text:0000000000000130 .L0 
     /tmp/ccJDYvBr.s:161    .text:0000000000000134 .L0 
     /tmp/ccJDYvBr.s:162    .text:0000000000000134 .L0 
     /tmp/ccJDYvBr.s:163    .text:0000000000000134 .L0 
     /tmp/ccJDYvBr.s:165    .text:000000000000013c .L0 
     /tmp/ccJDYvBr.s:166    .text:000000000000013c .L0 
     /tmp/ccJDYvBr.s:168    .text:0000000000000140 .L0 
     /tmp/ccJDYvBr.s:169    .text:0000000000000140 .L0 
     /tmp/ccJDYvBr.s:171    .text:0000000000000144 .L0 
     /tmp/ccJDYvBr.s:174    .text:0000000000000148 .L0 
     /tmp/ccJDYvBr.s:177    .text:000000000000014c .L0 
     /tmp/ccJDYvBr.s:180    .text:0000000000000150 .L0 
     /tmp/ccJDYvBr.s:183    .text:0000000000000154 .L0 
     /tmp/ccJDYvBr.s:187    .text:0000000000000158 .L0 
     /tmp/ccJDYvBr.s:189    .text:0000000000000158 .L0 
     /tmp/ccJDYvBr.s:190    .text:0000000000000158 .L0 
     /tmp/ccJDYvBr.s:195    .text:0000000000000168 .L0 
     /tmp/ccJDYvBr.s:205    .text:0000000000000168 .L0 
     /tmp/ccJDYvBr.s:32     .text:0000000000000020 .L0 
     /tmp/ccJDYvBr.s:186    .text:0000000000000158 .L4
     /tmp/ccJDYvBr.s:159    .text:0000000000000134 .L2
     /tmp/ccJDYvBr.s:920    .debug_abbrev:0000000000000000 .Ldebug_abbrev0
     /tmp/ccJDYvBr.s:1739   .debug_str:000000000000024a .LASF48
     /tmp/ccJDYvBr.s:1745   .debug_str:000000000000032a .LASF49
     /tmp/ccJDYvBr.s:1765   .debug_str:000000000000039a .LASF50
     /tmp/ccJDYvBr.s:5      .text:0000000000000000 .Ltext0
     /tmp/ccJDYvBr.s:198    .text:0000000000000168 .Letext0
     /tmp/ccJDYvBr.s:1667   .debug_line:0000000000000000 .Ldebug_line0
     /tmp/ccJDYvBr.s:1747   .debug_str:0000000000000337 .LASF0
     /tmp/ccJDYvBr.s:1731   .debug_str:0000000000000210 .LASF1
     /tmp/ccJDYvBr.s:1719   .debug_str:0000000000000194 .LASF2
     /tmp/ccJDYvBr.s:1687   .debug_str:000000000000009e .LASF4
     /tmp/ccJDYvBr.s:1727   .debug_str:00000000000001e9 .LASF3
     /tmp/ccJDYvBr.s:1677   .debug_str:000000000000004d .LASF5
     /tmp/ccJDYvBr.s:1671   .debug_str:000000000000000d .LASF6
     /tmp/ccJDYvBr.s:1711   .debug_str:000000000000015d .LASF7
     /tmp/ccJDYvBr.s:1757   .debug_str:0000000000000366 .LASF8
     /tmp/ccJDYvBr.s:1685   .debug_str:0000000000000090 .LASF9
     /tmp/ccJDYvBr.s:1783   .debug_str:00000000000003f7 .LASF10
     /tmp/ccJDYvBr.s:1715   .debug_str:000000000000017e .LASF11
     /tmp/ccJDYvBr.s:1773   .debug_str:00000000000003c9 .LASF12
     /tmp/ccJDYvBr.s:1753   .debug_str:000000000000034f .LASF13
     /tmp/ccJDYvBr.s:1733   .debug_str:0000000000000223 .LASF14
     /tmp/ccJDYvBr.s:1701   .debug_str:000000000000010c .LASF15
     /tmp/ccJDYvBr.s:1759   .debug_str:0000000000000376 .LASF16
     /tmp/ccJDYvBr.s:1675   .debug_str:000000000000003d .LASF23
     /tmp/ccJDYvBr.s:1695   .debug_str:00000000000000d3 .LASF25
     /tmp/ccJDYvBr.s:1779   .debug_str:00000000000003ed .LASF17
     /tmp/ccJDYvBr.s:1679   .debug_str:0000000000000054 .LASF18
     /tmp/ccJDYvBr.s:1771   .debug_str:00000000000003c3 .LASF19
     /tmp/ccJDYvBr.s:1673   .debug_str:0000000000000020 .LASF21
     /tmp/ccJDYvBr.s:1767   .debug_str:00000000000003b8 .LASF20
     /tmp/ccJDYvBr.s:1699   .debug_str:00000000000000ef .LASF22
     /tmp/ccJDYvBr.s:1693   .debug_str:00000000000000c8 .LASF51
     /tmp/ccJDYvBr.s:1681   .debug_str:0000000000000059 .LASF52
     /tmp/ccJDYvBr.s:1723   .debug_str:00000000000001be .LASF27
     /tmp/ccJDYvBr.s:1775   .debug_str:00000000000003d9 .LASF29
GAS LISTING /tmp/ccJDYvBr.s 			page 8


     /tmp/ccJDYvBr.s:1721   .debug_str:00000000000001a2 .LASF30
     /tmp/ccJDYvBr.s:1737   .debug_str:000000000000023d .LASF32
     /tmp/ccJDYvBr.s:1709   .debug_str:0000000000000153 .LASF24
     /tmp/ccJDYvBr.s:1761   .debug_str:000000000000038c .LASF26
     /tmp/ccJDYvBr.s:1703   .debug_str:0000000000000122 .LASF53
     /tmp/ccJDYvBr.s:1683   .debug_str:000000000000007c .LASF54
     /tmp/ccJDYvBr.s:1729   .debug_str:00000000000001fb .LASF28
     /tmp/ccJDYvBr.s:1697   .debug_str:00000000000000da .LASF31
     /tmp/ccJDYvBr.s:1769   .debug_str:00000000000003bd .LASF33
     /tmp/ccJDYvBr.s:1751   .debug_str:000000000000034a .LASF34
     /tmp/ccJDYvBr.s:1717   .debug_str:000000000000018d .LASF35
     /tmp/ccJDYvBr.s:1669   .debug_str:0000000000000000 .LASF55
     /tmp/ccJDYvBr.s:1743   .debug_str:0000000000000313 .LASF36
     /tmp/ccJDYvBr.s:1725   .debug_str:00000000000001da .LASF37
     /tmp/ccJDYvBr.s:1749   .debug_str:0000000000000344 .LASF38
     /tmp/ccJDYvBr.s:1691   .debug_str:00000000000000b5 .LASF39
     /tmp/ccJDYvBr.s:1707   .debug_str:0000000000000142 .LASF56
     /tmp/ccJDYvBr.s:1689   .debug_str:00000000000000a5 .LASF57
     /tmp/ccJDYvBr.s:1741   .debug_str:000000000000030e .LASF40
     /tmp/ccJDYvBr.s:10     .text:0000000000000000 .LFB4
     /tmp/ccJDYvBr.s:196    .text:0000000000000168 .LFE4
     /tmp/ccJDYvBr.s:1561   .debug_loc:0000000000000000 .LLST0
     /tmp/ccJDYvBr.s:1584   .debug_loc:000000000000006f .LLST1
     /tmp/ccJDYvBr.s:1591   .debug_loc:0000000000000092 .LLST2
     /tmp/ccJDYvBr.s:1602   .debug_loc:00000000000000c8 .LLST3
     /tmp/ccJDYvBr.s:1617   .debug_loc:0000000000000111 .LLST4
     /tmp/ccJDYvBr.s:1781   .debug_str:00000000000003f2 .LASF41
     /tmp/ccJDYvBr.s:1632   .debug_loc:000000000000015a .LLST5
     /tmp/ccJDYvBr.s:1705   .debug_str:000000000000013d .LASF42
     /tmp/ccJDYvBr.s:1643   .debug_loc:0000000000000190 .LLST6
     /tmp/ccJDYvBr.s:41     .text:0000000000000034 .LVL0
     /tmp/ccJDYvBr.s:46     .text:0000000000000040 .LVL1
     /tmp/ccJDYvBr.s:54     .text:0000000000000050 .LVL4
     /tmp/ccJDYvBr.s:61     .text:0000000000000060 .LVL6
     /tmp/ccJDYvBr.s:69     .text:0000000000000070 .LVL9
     /tmp/ccJDYvBr.s:77     .text:0000000000000080 .LVL12
     /tmp/ccJDYvBr.s:82     .text:000000000000008c .LVL13
     /tmp/ccJDYvBr.s:87     .text:0000000000000098 .LVL14
     /tmp/ccJDYvBr.s:92     .text:00000000000000a4 .LVL15
     /tmp/ccJDYvBr.s:96     .text:00000000000000ac .LVL16
     /tmp/ccJDYvBr.s:102    .text:00000000000000b8 .LVL18
     /tmp/ccJDYvBr.s:106    .text:00000000000000c0 .LVL19
     /tmp/ccJDYvBr.s:110    .text:00000000000000c8 .LVL20
     /tmp/ccJDYvBr.s:115    .text:00000000000000d4 .LVL21
     /tmp/ccJDYvBr.s:120    .text:00000000000000e0 .LVL22
     /tmp/ccJDYvBr.s:125    .text:00000000000000ec .LVL23
     /tmp/ccJDYvBr.s:130    .text:00000000000000f8 .LVL24
     /tmp/ccJDYvBr.s:135    .text:0000000000000104 .LVL25
     /tmp/ccJDYvBr.s:143    .text:0000000000000114 .LVL28
     /tmp/ccJDYvBr.s:150    .text:0000000000000124 .LVL30
     /tmp/ccJDYvBr.s:155    .text:0000000000000130 .LVL31
     /tmp/ccJDYvBr.s:193    .text:0000000000000164 .LVL39
     /tmp/ccJDYvBr.s:1735   .debug_str:000000000000022f .LASF43
     /tmp/ccJDYvBr.s:1777   .debug_str:00000000000003e3 .LASF45
     /tmp/ccJDYvBr.s:1713   .debug_str:0000000000000170 .LASF44
     /tmp/ccJDYvBr.s:1763   .debug_str:0000000000000391 .LASF46
     /tmp/ccJDYvBr.s:1755   .debug_str:000000000000035f .LASF47
GAS LISTING /tmp/ccJDYvBr.s 			page 9


     /tmp/ccJDYvBr.s:48     .text:0000000000000044 .LVL2
     /tmp/ccJDYvBr.s:52     .text:0000000000000048 .LVL3
     /tmp/ccJDYvBr.s:98     .text:00000000000000b0 .LVL17
     /tmp/ccJDYvBr.s:181    .text:0000000000000150 .LVL36
     /tmp/ccJDYvBr.s:185    .text:0000000000000158 .LVL37
     /tmp/ccJDYvBr.s:56     .text:0000000000000054 .LVL5
     /tmp/ccJDYvBr.s:145    .text:0000000000000118 .LVL29
     /tmp/ccJDYvBr.s:63     .text:0000000000000064 .LVL7
     /tmp/ccJDYvBr.s:67     .text:0000000000000068 .LVL8
     /tmp/ccJDYvBr.s:137    .text:0000000000000108 .LVL26
     /tmp/ccJDYvBr.s:71     .text:0000000000000074 .LVL10
     /tmp/ccJDYvBr.s:75     .text:0000000000000078 .LVL11
     /tmp/ccJDYvBr.s:178    .text:000000000000014c .LVL35
     /tmp/ccJDYvBr.s:141    .text:000000000000010c .LVL27
     /tmp/ccJDYvBr.s:175    .text:0000000000000148 .LVL34
     /tmp/ccJDYvBr.s:172    .text:0000000000000144 .LVL33
     /tmp/ccJDYvBr.s:158    .text:0000000000000134 .LVL32
     /tmp/ccJDYvBr.s:191    .text:000000000000015c .LVL38
     /tmp/ccJDYvBr.s:206    .debug_info:0000000000000000 .Ldebug_info0

UNDEFINED SYMBOLS
supervisorTrap
_ZN15MemoryAllocator10initializeEv
_ZN15MemoryAllocator5allocEm
_ZN9Scheduler3putEP6Thread
_ZN9Scheduler3getEv
_ZN15MemoryAllocator4freeEPv
_Z9mem_allocm
_Z8mem_freePv
__putc
