GAS LISTING /tmp/cce446Yi.s 			page 1


   1              		.file	"main.cpp"
   2              		.option pic
   3              		.option norelax
   4              		.text
   5              	.Ltext0:
   6              		.align	2
   7              		.globl	_Z10idleThreadPv
   9              	_Z10idleThreadPv:
  10              	.LFB34:
  11              		.file 1 "src/main.cpp"
   1:src/main.cpp  **** //
   2:src/main.cpp  **** // Created by os on 6/29/23.
   3:src/main.cpp  **** //
   4:src/main.cpp  **** 
   5:src/main.cpp  **** #include "../h/MemoryAllocator.hpp"
   6:src/main.cpp  **** #include "../h/syscall_c.hpp"
   7:src/main.cpp  **** #include "../h/riscv.hpp"
   8:src/main.cpp  **** #include "../test/printing.hpp"
   9:src/main.cpp  **** #include "../h/Scheduler.hpp"
  10:src/main.cpp  **** #include "../h/_console.hpp"
  11:src/main.cpp  **** 
  12:src/main.cpp  **** extern void userMain();
  13:src/main.cpp  **** 
  14:src/main.cpp  **** void idleThread(void *p) {
  12              		.loc 1 14 26
  13              		.cfi_startproc
  14              	.LVL0:
  15 0000 130101FF 		addi	sp,sp,-16
  16              		.cfi_def_cfa_offset 16
  17 0004 23341100 		sd	ra,8(sp)
  18 0008 23308100 		sd	s0,0(sp)
  19              		.cfi_offset 1, -8
  20              		.cfi_offset 8, -16
  21 000c 13040101 		addi	s0,sp,16
  22              		.cfi_def_cfa 8, 0
  23              	.LVL1:
  24              	.L2:
  15:src/main.cpp  ****     while(true){ thread_dispatch(); }
  25              		.loc 1 15 5 discriminator 1
  26              		.loc 1 15 18 discriminator 1
  27              		.loc 1 15 33 is_stmt 0 discriminator 1
  28 0010 97000000 		call	_Z15thread_dispatchv@plt
  28      E7800000 
  29              	.LVL2:
  30              		.loc 1 15 5 is_stmt 1 discriminator 1
  31 0018 6FF09FFF 		j	.L2
  32              		.cfi_endproc
  33              	.LFE34:
  35              		.align	2
  36              		.globl	_Z15userMainWrapperPv
  38              	_Z15userMainWrapperPv:
  39              	.LFB35:
  16:src/main.cpp  **** }
  17:src/main.cpp  **** void userMainWrapper(void*){
  40              		.loc 1 17 28
  41              		.cfi_startproc
  42 001c 130101FF 		addi	sp,sp,-16
GAS LISTING /tmp/cce446Yi.s 			page 2


  43              		.cfi_def_cfa_offset 16
  44 0020 23341100 		sd	ra,8(sp)
  45 0024 23308100 		sd	s0,0(sp)
  46              		.cfi_offset 1, -8
  47              		.cfi_offset 8, -16
  48 0028 13040101 		addi	s0,sp,16
  49              		.cfi_def_cfa 8, 0
  18:src/main.cpp  ****     userMain();
  50              		.loc 1 18 5
  51              		.loc 1 18 13 is_stmt 0
  52 002c 97000000 		call	_Z8userMainv@plt
  52      E7800000 
  53              	.LVL3:
  19:src/main.cpp  **** }
  54              		.loc 1 19 1
  55 0034 83308100 		ld	ra,8(sp)
  56              		.cfi_restore 1
  57 0038 03340100 		ld	s0,0(sp)
  58              		.cfi_restore 8
  59              		.cfi_def_cfa 2, 16
  60 003c 13010101 		addi	sp,sp,16
  61              		.cfi_def_cfa_offset 0
  62 0040 67800000 		jr	ra
  63              		.cfi_endproc
  64              	.LFE35:
  66              		.align	2
  67              		.globl	main
  69              	main:
  70              	.LFB36:
  20:src/main.cpp  **** 
  21:src/main.cpp  **** int main(){
  71              		.loc 1 21 11 is_stmt 1
  72              		.cfi_startproc
  73              		.cfi_personality 0x9b,DW.ref.__gxx_personality_v0
  74              		.cfi_lsda 0x1b,.LLSDA36
  75 0044 130101FC 		addi	sp,sp,-64
  76              		.cfi_def_cfa_offset 64
  77 0048 233C1102 		sd	ra,56(sp)
  78 004c 23388102 		sd	s0,48(sp)
  79 0050 23349102 		sd	s1,40(sp)
  80 0054 23302103 		sd	s2,32(sp)
  81              		.cfi_offset 1, -8
  82              		.cfi_offset 8, -16
  83              		.cfi_offset 9, -24
  84              		.cfi_offset 18, -32
  85 0058 13040104 		addi	s0,sp,64
  86              		.cfi_def_cfa 8, 0
  22:src/main.cpp  **** 
  23:src/main.cpp  ****     MemoryAllocator::initialize();
  87              		.loc 1 23 5
  88              	.LEHB0:
  89              		.loc 1 23 32 is_stmt 0
  90 005c 97000000 		call	_ZN15MemoryAllocator10initializeEv@plt
  90      E7800000 
  91              	.LVL4:
  24:src/main.cpp  ****     Riscv::w_stvec((uint64)&Riscv::supervisorTrap+1);
  92              		.loc 1 24 5 is_stmt 1
GAS LISTING /tmp/cce446Yi.s 			page 3


  93              		.loc 1 24 19 is_stmt 0
  94 0064 97070000 		la	a5,_ZN5Riscv14supervisorTrapEv
  94      83B70700 
  95 006c 93871700 		addi	a5,a5,1
  96              	.LVL5:
  97              	.LBB8:
  98              	.LBB9:
  99              		.file 2 "src/../h/riscv.hpp"
   1:src/../h/riscv.hpp **** //
   2:src/../h/riscv.hpp **** // Created by os on 7/24/23.
   3:src/../h/riscv.hpp **** //
   4:src/../h/riscv.hpp **** 
   5:src/../h/riscv.hpp **** #ifndef PROJECT_BASE_RISCV_HPP
   6:src/../h/riscv.hpp **** #define PROJECT_BASE_RISCV_HPP
   7:src/../h/riscv.hpp **** 
   8:src/../h/riscv.hpp **** #include "../lib/hw.h"
   9:src/../h/riscv.hpp **** #include "../h/TCB.hpp"
  10:src/../h/riscv.hpp **** //sa vezbi 7
  11:src/../h/riscv.hpp **** 
  12:src/../h/riscv.hpp **** class Riscv{
  13:src/../h/riscv.hpp **** 
  14:src/../h/riscv.hpp **** public:
  15:src/../h/riscv.hpp **** 
  16:src/../h/riscv.hpp ****     //supervisor previous privileged, previousInterruptEnable
  17:src/../h/riscv.hpp ****     //mora da bude ne inline da se poziva
  18:src/../h/riscv.hpp ****     static void popSppSpie();
  19:src/../h/riscv.hpp **** 
  20:src/../h/riscv.hpp ****     static uint64 r_scause();
  21:src/../h/riscv.hpp ****     static void w_scause(uint64 scause);
  22:src/../h/riscv.hpp ****     static uint64 r_sepc();
  23:src/../h/riscv.hpp ****     static void w_sepc(uint64 sepc);
  24:src/../h/riscv.hpp ****     static uint64 r_stvec();
  25:src/../h/riscv.hpp ****     static void w_stvec(uint64 stvec);
  26:src/../h/riscv.hpp ****     static uint64 r_stval();
  27:src/../h/riscv.hpp ****     static void w_stval(uint64 stval);
  28:src/../h/riscv.hpp **** 
  29:src/../h/riscv.hpp ****     enum BitMaskSStatus{
  30:src/../h/riscv.hpp ****         SSTATUS_SIE=(1<<1),
  31:src/../h/riscv.hpp ****         SSTATUS_SPIE=(1<<5),
  32:src/../h/riscv.hpp ****         SSTATUS_SPP=(1<<8)
  33:src/../h/riscv.hpp ****     };
  34:src/../h/riscv.hpp **** 
  35:src/../h/riscv.hpp ****     static void ms_sstatus(uint64 mask);
  36:src/../h/riscv.hpp ****     static void mc_sstatus(uint64 mask);
  37:src/../h/riscv.hpp ****     static uint64 r_sstatus();
  38:src/../h/riscv.hpp ****     static void w_sstatus(uint64 sstatus);
  39:src/../h/riscv.hpp **** 
  40:src/../h/riscv.hpp **** 
  41:src/../h/riscv.hpp ****     enum BitMaskSip{
  42:src/../h/riscv.hpp ****         SIP_SSIP=(1<<1),//software interrupt pending
  43:src/../h/riscv.hpp ****         SIP_STIP=(1 << 5),
  44:src/../h/riscv.hpp ****         SIP_SEIP=(1 << 9)
  45:src/../h/riscv.hpp ****     };
  46:src/../h/riscv.hpp **** 
  47:src/../h/riscv.hpp ****     static void ms_sip(uint64 mask);
  48:src/../h/riscv.hpp ****     static void mc_sip(uint64 mask);
  49:src/../h/riscv.hpp ****     static uint64 r_sip();
GAS LISTING /tmp/cce446Yi.s 			page 4


  50:src/../h/riscv.hpp ****     static void w_sip(uint64 sip);
  51:src/../h/riscv.hpp **** 
  52:src/../h/riscv.hpp ****     static void supervisorTrap();
  53:src/../h/riscv.hpp **** 
  54:src/../h/riscv.hpp ****     struct SleepingElem{
  55:src/../h/riscv.hpp ****         TCB* thr;
  56:src/../h/riscv.hpp ****         time_t toSleepRel;
  57:src/../h/riscv.hpp ****         SleepingElem* next;
  58:src/../h/riscv.hpp ****     };
  59:src/../h/riscv.hpp **** 
  60:src/../h/riscv.hpp ****     static int putToSleep(time_t);
  61:src/../h/riscv.hpp ****     static void updateSleepingList();
  62:src/../h/riscv.hpp **** 
  63:src/../h/riscv.hpp **** private:
  64:src/../h/riscv.hpp **** 
  65:src/../h/riscv.hpp ****     static void handleEcallException();
  66:src/../h/riscv.hpp ****     static void timerInterrupt();
  67:src/../h/riscv.hpp ****     static void hardwareInterrupt();
  68:src/../h/riscv.hpp **** 
  69:src/../h/riscv.hpp ****     static SleepingElem* headSleeping;
  70:src/../h/riscv.hpp **** 
  71:src/../h/riscv.hpp **** };
  72:src/../h/riscv.hpp **** 
  73:src/../h/riscv.hpp **** inline uint64 Riscv::r_scause() {
  74:src/../h/riscv.hpp ****     uint64 volatile scause;
  75:src/../h/riscv.hpp ****     __asm__ volatile("csrr %[scause], scause":[scause]"=r"(scause));
  76:src/../h/riscv.hpp ****     return scause;
  77:src/../h/riscv.hpp **** }
  78:src/../h/riscv.hpp **** inline void Riscv::w_scause(uint64 scause) {
  79:src/../h/riscv.hpp ****     __asm__ volatile("csrw scause, %[scause]"::[scause]"r"(scause));
  80:src/../h/riscv.hpp **** }
  81:src/../h/riscv.hpp **** 
  82:src/../h/riscv.hpp **** inline uint64 Riscv::r_sepc(){
  83:src/../h/riscv.hpp ****     uint64 volatile sepc;
  84:src/../h/riscv.hpp ****     __asm__ volatile("csrr %[sepc], sepc":[sepc]"=r"(sepc));
  85:src/../h/riscv.hpp ****     return sepc;
  86:src/../h/riscv.hpp **** }
  87:src/../h/riscv.hpp **** inline void Riscv::w_sepc(uint64 sepc) {
  88:src/../h/riscv.hpp ****     __asm__ volatile("csrw sepc, %[sepc]"::[sepc]"r"(sepc));
  89:src/../h/riscv.hpp **** }
  90:src/../h/riscv.hpp **** inline uint64 Riscv::r_stvec(){
  91:src/../h/riscv.hpp ****     uint64 volatile stvec;
  92:src/../h/riscv.hpp ****     __asm__ volatile("csrr %[stvec], stvec":[stvec]"=r"(stvec));
  93:src/../h/riscv.hpp ****     return stvec;
  94:src/../h/riscv.hpp **** }
  95:src/../h/riscv.hpp **** inline void Riscv::w_stvec(uint64 stvec) {
  96:src/../h/riscv.hpp ****     __asm__ volatile("csrw stvec, %[stvec]"::[stvec]"r"(stvec));
 100              		.loc 2 96 5 is_stmt 1
 101              		.loc 2 96 64 is_stmt 0
 102              	#APP
 103              	# 96 "src/../h/riscv.hpp" 1
  97              	}
 104              		csrw stvec, a5
 105              	# 0 "" 2
 106              	.LVL6:
 107              	#NO_APP
 108              	.LBE9:
GAS LISTING /tmp/cce446Yi.s 			page 5


 109              	.LBE8:
  25:src/main.cpp  **** 
  26:src/main.cpp  ****     _console::inputBuff=new BoundedBuffer();
 110              		.loc 1 26 5 is_stmt 1
 111              		.loc 1 26 43 is_stmt 0
 112 0074 13050002 		li	a0,32
 113 0078 97000000 		call	_Znwm@plt
 113      E7800000 
 114              	.LVL7:
 115              	.LEHE0:
 116 0080 93040500 		mv	s1,a0
 117              	.LEHB1:
 118 0084 97000000 		call	_ZN13BoundedBufferC1Ev@plt
 118      E7800000 
 119              	.LVL8:
 120              	.LEHE1:
 121              		.loc 1 26 24
 122 008c 97070000 		la	a5,_ZN8_console9inputBuffE
 122      83B70700 
 123 0094 23B09700 		sd	s1,0(a5)
  27:src/main.cpp  ****     _console::outputBuff=new BoundedBuffer();
 124              		.loc 1 27 5 is_stmt 1
 125              		.loc 1 27 44 is_stmt 0
 126 0098 13050002 		li	a0,32
 127              	.LEHB2:
 128 009c 97000000 		call	_Znwm@plt
 128      E7800000 
 129              	.LVL9:
 130              	.LEHE2:
 131 00a4 93040500 		mv	s1,a0
 132              	.LEHB3:
 133 00a8 97000000 		call	_ZN13BoundedBufferC1Ev@plt
 133      E7800000 
 134              	.LVL10:
 135              	.LEHE3:
 136              		.loc 1 27 25
 137 00b0 97070000 		la	a5,_ZN8_console10outputBuffE
 137      83B70700 
 138 00b8 23B09700 		sd	s1,0(a5)
  28:src/main.cpp  **** 
  29:src/main.cpp  **** 
  30:src/main.cpp  ****     TCB::newThrUserMode=false;
 139              		.loc 1 30 5 is_stmt 1
 140              		.loc 1 30 24 is_stmt 0
 141 00bc 97040000 		la	s1,_ZN3TCB14newThrUserModeE
 141      83B40400 
 142 00c4 23800400 		sb	zero,0(s1)
  31:src/main.cpp  ****     TCB* handleMain;
 143              		.loc 1 31 5 is_stmt 1
  32:src/main.cpp  ****     thread_create(&handleMain, nullptr, nullptr);
 144              		.loc 1 32 5
 145              		.loc 1 32 18 is_stmt 0
 146 00c8 13060000 		li	a2,0
 147 00cc 93050000 		li	a1,0
 148 00d0 130584FD 		addi	a0,s0,-40
 149              	.LEHB4:
 150 00d4 97000000 		call	_Z13thread_createPP3TCBPFvPvES2_@plt
GAS LISTING /tmp/cce446Yi.s 			page 6


 150      E7800000 
 151              	.LVL11:
  33:src/main.cpp  ****     TCB::running=handleMain;
 152              		.loc 1 33 5 is_stmt 1
 153              		.loc 1 33 17 is_stmt 0
 154 00dc 97070000 		la	a5,_ZN3TCB7runningE
 154      83B70700 
 155 00e4 033784FD 		ld	a4,-40(s0)
 156 00e8 23B0E700 		sd	a4,0(a5)
  34:src/main.cpp  **** 
  35:src/main.cpp  ****     TCB* handleIdle;
 157              		.loc 1 35 5 is_stmt 1
  36:src/main.cpp  ****     thread_create(&handleIdle, idleThread, nullptr);
 158              		.loc 1 36 5
 159              		.loc 1 36 18 is_stmt 0
 160 00ec 13060000 		li	a2,0
 161 00f0 97050000 		lla	a1,_Z10idleThreadPv
 161      93850500 
 162 00f8 130504FD 		addi	a0,s0,-48
 163 00fc 97000000 		call	_Z13thread_createPP3TCBPFvPvES2_@plt
 163      E7800000 
 164              	.LVL12:
  37:src/main.cpp  **** 
  38:src/main.cpp  ****     TCB* handleConsumerConsole;
 165              		.loc 1 38 5 is_stmt 1
  39:src/main.cpp  ****     thread_create(&handleConsumerConsole, _console::consumerConsole,nullptr);
 166              		.loc 1 39 5
 167              		.loc 1 39 18 is_stmt 0
 168 0104 13060000 		li	a2,0
 169 0108 97050000 		la	a1,_ZN8_console15consumerConsoleEPv
 169      83B50500 
 170 0110 130584FC 		addi	a0,s0,-56
 171 0114 97000000 		call	_Z13thread_createPP3TCBPFvPvES2_@plt
 171      E7800000 
 172              	.LVL13:
  40:src/main.cpp  **** 
  41:src/main.cpp  ****     //thread_dispatch();
  42:src/main.cpp  **** 
  43:src/main.cpp  ****     TCB::newThrUserMode=true;
 173              		.loc 1 43 5 is_stmt 1
 174              		.loc 1 43 24 is_stmt 0
 175 011c 93071000 		li	a5,1
 176 0120 2380F400 		sb	a5,0(s1)
  44:src/main.cpp  ****     TCB* handleUserMain;
 177              		.loc 1 44 5 is_stmt 1
  45:src/main.cpp  ****     thread_create(&handleUserMain, userMainWrapper, nullptr);
 178              		.loc 1 45 5
 179              		.loc 1 45 18 is_stmt 0
 180 0124 13060000 		li	a2,0
 181 0128 97050000 		lla	a1,_Z15userMainWrapperPv
 181      93850500 
 182 0130 130504FC 		addi	a0,s0,-64
 183 0134 97000000 		call	_Z13thread_createPP3TCBPFvPvES2_@plt
 183      E7800000 
 184              	.LVL14:
  46:src/main.cpp  **** 
  47:src/main.cpp  ****     Riscv::ms_sstatus(Riscv::SSTATUS_SIE);//dozvoljavanje prekida
GAS LISTING /tmp/cce446Yi.s 			page 7


 185              		.loc 1 47 5 is_stmt 1
 186              	.LBB10:
 187              	.LBB11:
  98:src/../h/riscv.hpp **** inline uint64 Riscv::r_stval(){
  99:src/../h/riscv.hpp ****     uint64 volatile stval;
 100:src/../h/riscv.hpp ****     __asm__ volatile("csrr %[stval], stval":[stval]"=r"(stval));
 101:src/../h/riscv.hpp ****     return stval;
 102:src/../h/riscv.hpp **** }
 103:src/../h/riscv.hpp **** inline void Riscv::w_stval(uint64 stval) {
 104:src/../h/riscv.hpp ****     __asm__ volatile("csrw stval, %[stval]"::[stval]"r"(stval));
 105:src/../h/riscv.hpp **** }
 106:src/../h/riscv.hpp **** 
 107:src/../h/riscv.hpp **** inline void Riscv::ms_sip(uint64 mask) {
 108:src/../h/riscv.hpp ****     __asm__ volatile("csrs sip, %[mask]"::[mask]"r"(mask));
 109:src/../h/riscv.hpp **** }
 110:src/../h/riscv.hpp **** inline void Riscv::mc_sip(uint64 mask) {
 111:src/../h/riscv.hpp ****     __asm__ volatile("csrc sip, %[mask]"::[mask]"r"(mask));
 112:src/../h/riscv.hpp **** }
 113:src/../h/riscv.hpp **** 
 114:src/../h/riscv.hpp **** 
 115:src/../h/riscv.hpp **** inline uint64 Riscv::r_sip(){
 116:src/../h/riscv.hpp ****     uint64 volatile sip;
 117:src/../h/riscv.hpp ****     __asm__ volatile("csrr %[sip], sip":[sip]"=r"(sip));
 118:src/../h/riscv.hpp ****     return sip;
 119:src/../h/riscv.hpp **** }
 120:src/../h/riscv.hpp **** inline void Riscv::w_sip(uint64 sip) {
 121:src/../h/riscv.hpp ****     __asm__ volatile("csrw sip, %[sip]"::[sip]"r"(sip));
 122:src/../h/riscv.hpp **** }
 123:src/../h/riscv.hpp **** 
 124:src/../h/riscv.hpp **** inline void Riscv::ms_sstatus(uint64 mask) {
 125:src/../h/riscv.hpp ****     __asm__ volatile("csrs sstatus, %[mask]"::[mask]"r"(mask));
 188              		.loc 2 125 5
 189              		.loc 2 125 63 is_stmt 0
 190 013c 93072000 		li	a5,2
 191              	#APP
 192              	# 125 "src/../h/riscv.hpp" 1
 126              	}
 193              		csrs sstatus, a5
 194              	# 0 "" 2
 195              	.LVL15:
 196              	#NO_APP
 197              	.L8:
 198              	.LBE11:
 199              	.LBE10:
  48:src/main.cpp  **** 
  49:src/main.cpp  ****     while (!handleUserMain->isFinished()){
 200              		.loc 1 49 5 is_stmt 1
 201              		.loc 1 49 12
 202              		.loc 1 49 39 is_stmt 0
 203 0144 833704FC 		ld	a5,-64(s0)
 204              	.LVL16:
 205              	.LBB12:
 206              	.LBB13:
 207              		.file 3 "src/../h/../h/TCB.hpp"
   1:src/../h/../h/TCB.hpp **** //
   2:src/../h/../h/TCB.hpp **** // Created by os on 7/18/23.
   3:src/../h/../h/TCB.hpp **** //
GAS LISTING /tmp/cce446Yi.s 			page 8


   4:src/../h/../h/TCB.hpp **** 
   5:src/../h/../h/TCB.hpp **** //sa vezbi 7
   6:src/../h/../h/TCB.hpp **** 
   7:src/../h/../h/TCB.hpp **** #ifndef PROJECT_BASE_TCB_HPP
   8:src/../h/../h/TCB.hpp **** #define PROJECT_BASE_TCB_HPP
   9:src/../h/../h/TCB.hpp **** 
  10:src/../h/../h/TCB.hpp **** #include "../lib/hw.h"
  11:src/../h/../h/TCB.hpp **** 
  12:src/../h/../h/TCB.hpp **** class TCB{
  13:src/../h/../h/TCB.hpp **** public:
  14:src/../h/../h/TCB.hpp ****     virtual ~TCB();
  15:src/../h/../h/TCB.hpp **** 
  16:src/../h/../h/TCB.hpp ****     bool isBlocked() const {
  17:src/../h/../h/TCB.hpp ****         return blocked;
  18:src/../h/../h/TCB.hpp ****     }
  19:src/../h/../h/TCB.hpp **** 
  20:src/../h/../h/TCB.hpp ****     void setBlocked(bool blocked) {
  21:src/../h/../h/TCB.hpp ****         TCB::blocked = blocked;
  22:src/../h/../h/TCB.hpp ****     }
  23:src/../h/../h/TCB.hpp **** 
  24:src/../h/../h/TCB.hpp ****     bool isFinished() const{
  25:src/../h/../h/TCB.hpp ****         return finished;
 208              		.loc 3 25 9 is_stmt 1
 209              		.loc 3 25 16 is_stmt 0
 210 0148 83C70703 		lbu	a5,48(a5)
 211              	.LVL17:
 212              	.LBE13:
 213              	.LBE12:
 214              		.loc 1 49 12
 215 014c 63980700 		bnez	a5,.L7
  50:src/main.cpp  ****         thread_dispatch();
 216              		.loc 1 50 9 is_stmt 1
 217              		.loc 1 50 24 is_stmt 0
 218 0150 97000000 		call	_Z15thread_dispatchv@plt
 218      E7800000 
 219              	.LVL18:
 220 0158 6FF0DFFE 		j	.L8
 221              	.L7:
  51:src/main.cpp  ****     }
  52:src/main.cpp  **** 
  53:src/main.cpp  **** 
  54:src/main.cpp  ****     thread_dispatch();//da nit za ispis na konzolu odradi pre returna
 222              		.loc 1 54 5 is_stmt 1
 223              		.loc 1 54 20 is_stmt 0
 224 015c 97000000 		call	_Z15thread_dispatchv@plt
 224      E7800000 
 225              	.LVL19:
  55:src/main.cpp  **** 
  56:src/main.cpp  ****     delete handleUserMain;
 226              		.loc 1 56 5 is_stmt 1
 227              		.loc 1 56 12 is_stmt 0
 228 0164 033504FC 		ld	a0,-64(s0)
 229              		.loc 1 56 26
 230 0168 63080500 		beqz	a0,.L9
 231              		.loc 1 56 12 discriminator 1
 232 016c 83370500 		ld	a5,0(a0)
 233 0170 83B78700 		ld	a5,8(a5)
GAS LISTING /tmp/cce446Yi.s 			page 9


 234 0174 E7800700 		jalr	a5
 235              	.LVL20:
 236              	.L9:
  57:src/main.cpp  ****     delete handleIdle;
 237              		.loc 1 57 5 is_stmt 1
 238              		.loc 1 57 12 is_stmt 0
 239 0178 033504FD 		ld	a0,-48(s0)
 240              		.loc 1 57 22
 241 017c 63080500 		beqz	a0,.L10
 242              		.loc 1 57 12 discriminator 1
 243 0180 83370500 		ld	a5,0(a0)
 244 0184 83B78700 		ld	a5,8(a5)
 245 0188 E7800700 		jalr	a5
 246              	.LVL21:
 247              	.L10:
  58:src/main.cpp  ****     delete handleMain;
 248              		.loc 1 58 5 is_stmt 1
 249              		.loc 1 58 12 is_stmt 0
 250 018c 033584FD 		ld	a0,-40(s0)
 251              		.loc 1 58 22
 252 0190 63080500 		beqz	a0,.L11
 253              		.loc 1 58 12 discriminator 1
 254 0194 83370500 		ld	a5,0(a0)
 255 0198 83B78700 		ld	a5,8(a5)
 256 019c E7800700 		jalr	a5
 257              	.LVL22:
 258              	.L11:
  59:src/main.cpp  ****     delete handleConsumerConsole;
 259              		.loc 1 59 5 is_stmt 1
 260              		.loc 1 59 12 is_stmt 0
 261 01a0 033584FC 		ld	a0,-56(s0)
 262              		.loc 1 59 33
 263 01a4 63080500 		beqz	a0,.L17
 264              		.loc 1 59 12 discriminator 1
 265 01a8 83370500 		ld	a5,0(a0)
 266 01ac 83B78700 		ld	a5,8(a5)
 267 01b0 E7800700 		jalr	a5
 268              	.LVL23:
  60:src/main.cpp  **** 
  61:src/main.cpp  **** 
  62:src/main.cpp  ****     /*delete _console::inputBuff;
  63:src/main.cpp  ****     delete _console::outputBuff;*/
  64:src/main.cpp  **** 
  65:src/main.cpp  **** 
  66:src/main.cpp  ****     //Scheduler::get();
  67:src/main.cpp  ****     //Scheduler::get();
  68:src/main.cpp  **** 
  69:src/main.cpp  ****     return 0;
 269              		.loc 1 69 5 is_stmt 1 discriminator 1
 270              	.L17:
  70:src/main.cpp  **** }...
 271              		.loc 1 70 1 is_stmt 0
 272 01b4 13050000 		li	a0,0
 273 01b8 83308103 		ld	ra,56(sp)
 274              		.cfi_remember_state
 275              		.cfi_restore 1
 276 01bc 03340103 		ld	s0,48(sp)
GAS LISTING /tmp/cce446Yi.s 			page 10


 277              		.cfi_restore 8
 278              		.cfi_def_cfa 2, 64
 279 01c0 83348102 		ld	s1,40(sp)
 280              		.cfi_restore 9
 281 01c4 03390102 		ld	s2,32(sp)
 282              		.cfi_restore 18
 283 01c8 13010104 		addi	sp,sp,64
 284              		.cfi_def_cfa_offset 0
 285 01cc 67800000 		jr	ra
 286              	.L15:
 287              		.cfi_restore_state
 288 01d0 13090500 		mv	s2,a0
  26:src/main.cpp  ****     _console::inputBuff=new BoundedBuffer();
 289              		.loc 1 26 43
 290 01d4 13850400 		mv	a0,s1
 291 01d8 97000000 		call	_ZdlPv@plt
 291      E7800000 
 292              	.LVL24:
 293 01e0 13050900 		mv	a0,s2
 294 01e4 97000000 		call	_Unwind_Resume@plt
 294      E7800000 
 295              	.LVL25:
 296              	.L16:
 297 01ec 13090500 		mv	s2,a0
  27:src/main.cpp  ****     _console::outputBuff=new BoundedBuffer();
 298              		.loc 1 27 44
 299 01f0 13850400 		mv	a0,s1
 300 01f4 97000000 		call	_ZdlPv@plt
 300      E7800000 
 301              	.LVL26:
 302 01fc 13050900 		mv	a0,s2
 303 0200 97000000 		call	_Unwind_Resume@plt
 303      E7800000 
 304              	.LVL27:
 305              	.LEHE4:
 306              		.cfi_endproc
 307              	.LFE36:
 308              		.globl	__gxx_personality_v0
 309              		.section	.gcc_except_table,"a",@progbits
 310              	.LLSDA36:
 311 0000 FF       		.byte	0xff
 312 0001 FF       		.byte	0xff
 313 0002 03       		.byte	0x3
 314 0003 41       		.byte	0x41
 315 0004 00000000 		.4byte	.LEHB0-.LFB36
 316 0008 00000000 		.4byte	.LEHE0-.LEHB0
 317 000c 00000000 		.4byte	0
 318 0010 00       		.byte	0
 319 0011 00000000 		.4byte	.LEHB1-.LFB36
 320 0015 00000000 		.4byte	.LEHE1-.LEHB1
 321 0019 00000000 		.4byte	.L15-.LFB36
 322 001d 00       		.byte	0
 323 001e 00000000 		.4byte	.LEHB2-.LFB36
 324 0022 00000000 		.4byte	.LEHE2-.LEHB2
 325 0026 00000000 		.4byte	0
 326 002a 00       		.byte	0
 327 002b 00000000 		.4byte	.LEHB3-.LFB36
GAS LISTING /tmp/cce446Yi.s 			page 11


 328 002f 00000000 		.4byte	.LEHE3-.LEHB3
 329 0033 00000000 		.4byte	.L16-.LFB36
 330 0037 00       		.byte	0
 331 0038 00000000 		.4byte	.LEHB4-.LFB36
 332 003c 00000000 		.4byte	.LEHE4-.LEHB4
 333 0040 00000000 		.4byte	0
 334 0044 00       		.byte	0
 335              		.text
 337              	.Letext0:
 338              		.file 4 "src/../h/../lib/hw.h"
 339              		.file 5 "src/../h/MemoryAllocator.hpp"
 340              		.file 6 "src/../h/_console.hpp"
 341              		.file 7 "src/../h/syscall_c.hpp"
 2341              		.align	3
 2344              	DW.ref.__gxx_personality_v0:
 2345 0000 00000000 		.dword	__gxx_personality_v0
 2345      00000000 
 2346              		.ident	"GCC: (Ubuntu 9.4.0-1ubuntu1~20.04) 9.4.0"
 2347              		.section	.note.GNU-stack,"",@progbits
GAS LISTING /tmp/cce446Yi.s 			page 12


DEFINED SYMBOLS
                            *ABS*:0000000000000000 main.cpp
     /tmp/cce446Yi.s:9      .text:0000000000000000 _Z10idleThreadPv
     /tmp/cce446Yi.s:13     .text:0000000000000000 .L0 
     /tmp/cce446Yi.s:15     .text:0000000000000000 .L0 
     /tmp/cce446Yi.s:16     .text:0000000000000004 .L0 
     /tmp/cce446Yi.s:19     .text:000000000000000c .L0 
     /tmp/cce446Yi.s:20     .text:000000000000000c .L0 
     /tmp/cce446Yi.s:22     .text:0000000000000010 .L0 
     /tmp/cce446Yi.s:26     .text:0000000000000010 .L0 
     /tmp/cce446Yi.s:27     .text:0000000000000010 .L0 
     /tmp/cce446Yi.s:28     .text:0000000000000010 .L0 
     /tmp/cce446Yi.s:31     .text:0000000000000018 .L0 
     /tmp/cce446Yi.s:32     .text:000000000000001c .L0 
     /tmp/cce446Yi.s:38     .text:000000000000001c _Z15userMainWrapperPv
     /tmp/cce446Yi.s:41     .text:000000000000001c .L0 
     /tmp/cce446Yi.s:42     .text:000000000000001c .L0 
     /tmp/cce446Yi.s:43     .text:0000000000000020 .L0 
     /tmp/cce446Yi.s:46     .text:0000000000000028 .L0 
     /tmp/cce446Yi.s:47     .text:0000000000000028 .L0 
     /tmp/cce446Yi.s:49     .text:000000000000002c .L0 
     /tmp/cce446Yi.s:51     .text:000000000000002c .L0 
     /tmp/cce446Yi.s:52     .text:000000000000002c .L0 
     /tmp/cce446Yi.s:55     .text:0000000000000034 .L0 
     /tmp/cce446Yi.s:56     .text:0000000000000038 .L0 
     /tmp/cce446Yi.s:58     .text:000000000000003c .L0 
     /tmp/cce446Yi.s:59     .text:000000000000003c .L0 
     /tmp/cce446Yi.s:61     .text:0000000000000040 .L0 
     /tmp/cce446Yi.s:63     .text:0000000000000044 .L0 
     /tmp/cce446Yi.s:69     .text:0000000000000044 main
     /tmp/cce446Yi.s:72     .text:0000000000000044 .L0 
     /tmp/cce446Yi.s:2344   .data.rel.local.DW.ref.__gxx_personality_v0:0000000000000000 DW.ref.__gxx_personality_v0
     /tmp/cce446Yi.s:75     .text:0000000000000044 .L0 
     /tmp/cce446Yi.s:76     .text:0000000000000048 .L0 
     /tmp/cce446Yi.s:81     .text:0000000000000058 .L0 
     /tmp/cce446Yi.s:82     .text:0000000000000058 .L0 
     /tmp/cce446Yi.s:83     .text:0000000000000058 .L0 
     /tmp/cce446Yi.s:84     .text:0000000000000058 .L0 
     /tmp/cce446Yi.s:86     .text:000000000000005c .L0 
     /tmp/cce446Yi.s:89     .text:000000000000005c .L0 
     /tmp/cce446Yi.s:90     .text:000000000000005c .L0 
     /tmp/cce446Yi.s:93     .text:0000000000000064 .L0 
     /tmp/cce446Yi.s:94     .text:0000000000000064 .L0 
     /tmp/cce446Yi.s:101    .text:0000000000000070 .L0 
  src/../h/riscv.hpp:96     .text:0000000000000070 .L0 
     /tmp/cce446Yi.s:111    .text:0000000000000074 .L0 
     /tmp/cce446Yi.s:112    .text:0000000000000074 .L0 
     /tmp/cce446Yi.s:122    .text:000000000000008c .L0 
     /tmp/cce446Yi.s:125    .text:0000000000000098 .L0 
     /tmp/cce446Yi.s:126    .text:0000000000000098 .L0 
     /tmp/cce446Yi.s:137    .text:00000000000000b0 .L0 
     /tmp/cce446Yi.s:140    .text:00000000000000bc .L0 
     /tmp/cce446Yi.s:141    .text:00000000000000bc .L0 
     /tmp/cce446Yi.s:144    .text:00000000000000c8 .L0 
     /tmp/cce446Yi.s:145    .text:00000000000000c8 .L0 
     /tmp/cce446Yi.s:146    .text:00000000000000c8 .L0 
     /tmp/cce446Yi.s:153    .text:00000000000000dc .L0 
GAS LISTING /tmp/cce446Yi.s 			page 13


     /tmp/cce446Yi.s:154    .text:00000000000000dc .L0 
     /tmp/cce446Yi.s:158    .text:00000000000000ec .L0 
     /tmp/cce446Yi.s:159    .text:00000000000000ec .L0 
     /tmp/cce446Yi.s:160    .text:00000000000000ec .L0 
     /tmp/cce446Yi.s:166    .text:0000000000000104 .L0 
     /tmp/cce446Yi.s:167    .text:0000000000000104 .L0 
     /tmp/cce446Yi.s:168    .text:0000000000000104 .L0 
     /tmp/cce446Yi.s:174    .text:000000000000011c .L0 
     /tmp/cce446Yi.s:175    .text:000000000000011c .L0 
     /tmp/cce446Yi.s:178    .text:0000000000000124 .L0 
     /tmp/cce446Yi.s:179    .text:0000000000000124 .L0 
     /tmp/cce446Yi.s:180    .text:0000000000000124 .L0 
     /tmp/cce446Yi.s:188    .text:000000000000013c .L0 
     /tmp/cce446Yi.s:189    .text:000000000000013c .L0 
     /tmp/cce446Yi.s:190    .text:000000000000013c .L0 
     /tmp/cce446Yi.s:201    .text:0000000000000144 .L0 
     /tmp/cce446Yi.s:202    .text:0000000000000144 .L0 
     /tmp/cce446Yi.s:203    .text:0000000000000144 .L0 
     /tmp/cce446Yi.s:209    .text:0000000000000148 .L0 
     /tmp/cce446Yi.s:210    .text:0000000000000148 .L0 
     /tmp/cce446Yi.s:215    .text:000000000000014c .L0 
     /tmp/cce446Yi.s:217    .text:0000000000000150 .L0 
     /tmp/cce446Yi.s:218    .text:0000000000000150 .L0 
     /tmp/cce446Yi.s:223    .text:000000000000015c .L0 
     /tmp/cce446Yi.s:224    .text:000000000000015c .L0 
     /tmp/cce446Yi.s:227    .text:0000000000000164 .L0 
     /tmp/cce446Yi.s:228    .text:0000000000000164 .L0 
     /tmp/cce446Yi.s:230    .text:0000000000000168 .L0 
     /tmp/cce446Yi.s:232    .text:000000000000016c .L0 
     /tmp/cce446Yi.s:238    .text:0000000000000178 .L0 
     /tmp/cce446Yi.s:239    .text:0000000000000178 .L0 
     /tmp/cce446Yi.s:241    .text:000000000000017c .L0 
     /tmp/cce446Yi.s:243    .text:0000000000000180 .L0 
     /tmp/cce446Yi.s:249    .text:000000000000018c .L0 
     /tmp/cce446Yi.s:250    .text:000000000000018c .L0 
     /tmp/cce446Yi.s:252    .text:0000000000000190 .L0 
     /tmp/cce446Yi.s:254    .text:0000000000000194 .L0 
     /tmp/cce446Yi.s:260    .text:00000000000001a0 .L0 
     /tmp/cce446Yi.s:261    .text:00000000000001a0 .L0 
     /tmp/cce446Yi.s:263    .text:00000000000001a4 .L0 
     /tmp/cce446Yi.s:265    .text:00000000000001a8 .L0 
     /tmp/cce446Yi.s:271    .text:00000000000001b4 .L0 
     /tmp/cce446Yi.s:272    .text:00000000000001b4 .L0 
     /tmp/cce446Yi.s:274    .text:00000000000001bc .L0 
     /tmp/cce446Yi.s:275    .text:00000000000001bc .L0 
     /tmp/cce446Yi.s:277    .text:00000000000001c0 .L0 
     /tmp/cce446Yi.s:278    .text:00000000000001c0 .L0 
     /tmp/cce446Yi.s:280    .text:00000000000001c4 .L0 
     /tmp/cce446Yi.s:282    .text:00000000000001c8 .L0 
     /tmp/cce446Yi.s:284    .text:00000000000001cc .L0 
     /tmp/cce446Yi.s:287    .text:00000000000001d0 .L0 
     /tmp/cce446Yi.s:290    .text:00000000000001d4 .L0 
     /tmp/cce446Yi.s:299    .text:00000000000001f0 .L0 
     /tmp/cce446Yi.s:306    .text:0000000000000208 .L0 
     /tmp/cce446Yi.s:342    .text:0000000000000208 .L0 
     /tmp/cce446Yi.s:94     .text:0000000000000064 .L0 
     /tmp/cce446Yi.s:122    .text:000000000000008c .L0 
GAS LISTING /tmp/cce446Yi.s 			page 14


     /tmp/cce446Yi.s:137    .text:00000000000000b0 .L0 
     /tmp/cce446Yi.s:141    .text:00000000000000bc .L0 
     /tmp/cce446Yi.s:154    .text:00000000000000dc .L0 
     /tmp/cce446Yi.s:161    .text:00000000000000f0 .L0 
     /tmp/cce446Yi.s:169    .text:0000000000000108 .L0 
     /tmp/cce446Yi.s:181    .text:0000000000000128 .L0 
     /tmp/cce446Yi.s:24     .text:0000000000000010 .L2
     /tmp/cce446Yi.s:221    .text:000000000000015c .L7
     /tmp/cce446Yi.s:197    .text:0000000000000144 .L8
     /tmp/cce446Yi.s:236    .text:0000000000000178 .L9
     /tmp/cce446Yi.s:247    .text:000000000000018c .L10
     /tmp/cce446Yi.s:258    .text:00000000000001a0 .L11
     /tmp/cce446Yi.s:270    .text:00000000000001b4 .L17
     /tmp/cce446Yi.s:88     .text:000000000000005c .LEHB0
     /tmp/cce446Yi.s:70     .text:0000000000000044 .LFB36
     /tmp/cce446Yi.s:115    .text:0000000000000080 .LEHE0
     /tmp/cce446Yi.s:117    .text:0000000000000084 .LEHB1
     /tmp/cce446Yi.s:120    .text:000000000000008c .LEHE1
     /tmp/cce446Yi.s:286    .text:00000000000001d0 .L15
     /tmp/cce446Yi.s:127    .text:000000000000009c .LEHB2
     /tmp/cce446Yi.s:130    .text:00000000000000a4 .LEHE2
     /tmp/cce446Yi.s:132    .text:00000000000000a8 .LEHB3
     /tmp/cce446Yi.s:135    .text:00000000000000b0 .LEHE3
     /tmp/cce446Yi.s:296    .text:00000000000001ec .L16
     /tmp/cce446Yi.s:149    .text:00000000000000d4 .LEHB4
     /tmp/cce446Yi.s:305    .text:0000000000000208 .LEHE4
     /tmp/cce446Yi.s:1277   .debug_abbrev:0000000000000000 .Ldebug_abbrev0
     /tmp/cce446Yi.s:2286   .debug_str:000000000000059d .LASF111
     /tmp/cce446Yi.s:2150   .debug_str:0000000000000157 .LASF112
     /tmp/cce446Yi.s:2158   .debug_str:0000000000000186 .LASF113
     /tmp/cce446Yi.s:5      .text:0000000000000000 .Ltext0
     /tmp/cce446Yi.s:337    .text:0000000000000208 .Letext0
     /tmp/cce446Yi.s:2100   .debug_line:0000000000000000 .Ldebug_line0
     /tmp/cce446Yi.s:2174   .debug_str:000000000000021f .LASF0
     /tmp/cce446Yi.s:2190   .debug_str:00000000000002a0 .LASF1
     /tmp/cce446Yi.s:2248   .debug_str:0000000000000489 .LASF2
     /tmp/cce446Yi.s:2254   .debug_str:00000000000004b9 .LASF4
     /tmp/cce446Yi.s:2180   .debug_str:0000000000000246 .LASF3
     /tmp/cce446Yi.s:2104   .debug_str:0000000000000010 .LASF5
     /tmp/cce446Yi.s:2232   .debug_str:0000000000000404 .LASF6
     /tmp/cce446Yi.s:2228   .debug_str:00000000000003e8 .LASF7
     /tmp/cce446Yi.s:2184   .debug_str:0000000000000275 .LASF8
     /tmp/cce446Yi.s:2156   .debug_str:0000000000000176 .LASF9
     /tmp/cce446Yi.s:2162   .debug_str:00000000000001c0 .LASF10
     /tmp/cce446Yi.s:2120   .debug_str:0000000000000087 .LASF11
     /tmp/cce446Yi.s:2148   .debug_str:0000000000000148 .LASF12
     /tmp/cce446Yi.s:2126   .debug_str:00000000000000ae .LASF13
     /tmp/cce446Yi.s:2118   .debug_str:0000000000000077 .LASF14
     /tmp/cce446Yi.s:2274   .debug_str:0000000000000559 .LASF15
     /tmp/cce446Yi.s:2140   .debug_str:0000000000000108 .LASF16
     /tmp/cce446Yi.s:2266   .debug_str:000000000000050b .LASF17
     /tmp/cce446Yi.s:2224   .debug_str:00000000000003cb .LASF26
     /tmp/cce446Yi.s:2262   .debug_str:00000000000004e5 .LASF31
     /tmp/cce446Yi.s:2188   .debug_str:000000000000029b .LASF18
     /tmp/cce446Yi.s:2122   .debug_str:0000000000000096 .LASF19
     /tmp/cce446Yi.s:2292   .debug_str:0000000000000680 .LASF20
     /tmp/cce446Yi.s:2236   .debug_str:0000000000000412 .LASF22
GAS LISTING /tmp/cce446Yi.s 			page 15


     /tmp/cce446Yi.s:2296   .debug_str:000000000000069c .LASF21
     /tmp/cce446Yi.s:2182   .debug_str:0000000000000258 .LASF23
     /tmp/cce446Yi.s:2260   .debug_str:00000000000004da .LASF34
     /tmp/cce446Yi.s:2268   .debug_str:0000000000000521 .LASF36
     /tmp/cce446Yi.s:2240   .debug_str:0000000000000443 .LASF93
     /tmp/cce446Yi.s:2250   .debug_str:0000000000000497 .LASF114
     /tmp/cce446Yi.s:2300   .debug_str:00000000000006aa .LASF115
     /tmp/cce446Yi.s:2208   .debug_str:000000000000032e .LASF82
     /tmp/cce446Yi.s:2278   .debug_str:0000000000000575 .LASF24
     /tmp/cce446Yi.s:2212   .debug_str:000000000000035b .LASF25
     /tmp/cce446Yi.s:2310   .debug_str:00000000000006e7 .LASF27
     /tmp/cce446Yi.s:2324   .debug_str:0000000000000751 .LASF116
     /tmp/cce446Yi.s:2142   .debug_str:000000000000011e .LASF28
     /tmp/cce446Yi.s:2284   .debug_str:0000000000000590 .LASF29
     /tmp/cce446Yi.s:2132   .debug_str:00000000000000cc .LASF30
     /tmp/cce446Yi.s:2226   .debug_str:00000000000003db .LASF32
     /tmp/cce446Yi.s:2316   .debug_str:0000000000000719 .LASF33
     /tmp/cce446Yi.s:2166   .debug_str:00000000000001dd .LASF35
     /tmp/cce446Yi.s:2170   .debug_str:00000000000001fa .LASF37
     /tmp/cce446Yi.s:2298   .debug_str:00000000000006a1 .LASF38
     /tmp/cce446Yi.s:2198   .debug_str:00000000000002dd .LASF40
     /tmp/cce446Yi.s:2244   .debug_str:0000000000000475 .LASF42
     /tmp/cce446Yi.s:2220   .debug_str:0000000000000395 .LASF44
     /tmp/cce446Yi.s:2234   .debug_str:000000000000040b .LASF39
     /tmp/cce446Yi.s:2114   .debug_str:0000000000000051 .LASF41
     /tmp/cce446Yi.s:2216   .debug_str:000000000000037a .LASF43
     /tmp/cce446Yi.s:2186   .debug_str:0000000000000288 .LASF45
     /tmp/cce446Yi.s:2320   .debug_str:0000000000000733 .LASF46
     /tmp/cce446Yi.s:2288   .debug_str:0000000000000661 .LASF47
     /tmp/cce446Yi.s:2214   .debug_str:0000000000000372 .LASF48
     /tmp/cce446Yi.s:2218   .debug_str:0000000000000381 .LASF49
     /tmp/cce446Yi.s:2192   .debug_str:00000000000002b3 .LASF50
     /tmp/cce446Yi.s:2238   .debug_str:000000000000042f .LASF51
     /tmp/cce446Yi.s:2336   .debug_str:00000000000007bb .LASF52
     /tmp/cce446Yi.s:2178   .debug_str:0000000000000232 .LASF53
     /tmp/cce446Yi.s:2106   .debug_str:0000000000000017 .LASF54
     /tmp/cce446Yi.s:2252   .debug_str:00000000000004a1 .LASF55
     /tmp/cce446Yi.s:2246   .debug_str:000000000000047e .LASF56
     /tmp/cce446Yi.s:2330   .debug_str:0000000000000781 .LASF57
     /tmp/cce446Yi.s:2314   .debug_str:000000000000070f .LASF58
     /tmp/cce446Yi.s:2322   .debug_str:000000000000073b .LASF59
     /tmp/cce446Yi.s:2308   .debug_str:00000000000006dd .LASF60
     /tmp/cce446Yi.s:2206   .debug_str:0000000000000318 .LASF61
     /tmp/cce446Yi.s:2270   .debug_str:0000000000000544 .LASF62
     /tmp/cce446Yi.s:2256   .debug_str:00000000000004c0 .LASF63
     /tmp/cce446Yi.s:2258   .debug_str:00000000000004d3 .LASF64
     /tmp/cce446Yi.s:2124   .debug_str:000000000000009b .LASF65
     /tmp/cce446Yi.s:2138   .debug_str:0000000000000102 .LASF66
     /tmp/cce446Yi.s:2168   .debug_str:00000000000001e8 .LASF67
     /tmp/cce446Yi.s:2176   .debug_str:000000000000022c .LASF68
     /tmp/cce446Yi.s:2136   .debug_str:00000000000000f0 .LASF69
     /tmp/cce446Yi.s:2318   .debug_str:0000000000000724 .LASF70
     /tmp/cce446Yi.s:2160   .debug_str:00000000000001a4 .LASF71
     /tmp/cce446Yi.s:2306   .debug_str:00000000000006d2 .LASF72
     /tmp/cce446Yi.s:2144   .debug_str:000000000000012a .LASF73
     /tmp/cce446Yi.s:2116   .debug_str:0000000000000064 .LASF74
     /tmp/cce446Yi.s:2210   .debug_str:000000000000033b .LASF75
GAS LISTING /tmp/cce446Yi.s 			page 16


     /tmp/cce446Yi.s:2334   .debug_str:00000000000007a6 .LASF76
     /tmp/cce446Yi.s:2312   .debug_str:00000000000006ed .LASF78
     /tmp/cce446Yi.s:2112   .debug_str:0000000000000042 .LASF77
     /tmp/cce446Yi.s:2196   .debug_str:00000000000002c1 .LASF79
     /tmp/cce446Yi.s:2326   .debug_str:0000000000000760 .LASF80
     /tmp/cce446Yi.s:2264   .debug_str:00000000000004ec .LASF81
     /tmp/cce446Yi.s:2152   .debug_str:0000000000000164 .LASF83
     /tmp/cce446Yi.s:2200   .debug_str:00000000000002f2 .LASF84
     /tmp/cce446Yi.s:2128   .debug_str:00000000000000be .LASF85
     /tmp/cce446Yi.s:2280   .debug_str:0000000000000580 .LASF86
     /tmp/cce446Yi.s:2154   .debug_str:0000000000000171 .LASF87
     /tmp/cce446Yi.s:307    .text:0000000000000208 .LFE36
     /tmp/cce446Yi.s:2282   .debug_str:0000000000000585 .LASF88
     /tmp/cce446Yi.s:2290   .debug_str:0000000000000675 .LASF89
     /tmp/cce446Yi.s:2242   .debug_str:000000000000045f .LASF90
     /tmp/cce446Yi.s:2164   .debug_str:00000000000001ce .LASF91
     /tmp/cce446Yi.s:97     .text:0000000000000070 .LBB8
     /tmp/cce446Yi.s:109    .text:0000000000000074 .LBE8
     /tmp/cce446Yi.s:2051   .debug_loc:0000000000000000 .LLST1
     /tmp/cce446Yi.s:186    .text:000000000000013c .LBB10
     /tmp/cce446Yi.s:199    .text:0000000000000144 .LBE10
     /tmp/cce446Yi.s:2058   .debug_loc:0000000000000023 .LLST2
     /tmp/cce446Yi.s:205    .text:0000000000000148 .LBB12
     /tmp/cce446Yi.s:213    .text:000000000000014c .LBE12
     /tmp/cce446Yi.s:2066   .debug_loc:0000000000000047 .LLST3
     /tmp/cce446Yi.s:91     .text:0000000000000064 .LVL4
     /tmp/cce446Yi.s:114    .text:0000000000000080 .LVL7
     /tmp/cce446Yi.s:119    .text:000000000000008c .LVL8
     /tmp/cce446Yi.s:129    .text:00000000000000a4 .LVL9
     /tmp/cce446Yi.s:134    .text:00000000000000b0 .LVL10
     /tmp/cce446Yi.s:151    .text:00000000000000dc .LVL11
     /tmp/cce446Yi.s:164    .text:0000000000000104 .LVL12
     /tmp/cce446Yi.s:172    .text:000000000000011c .LVL13
     /tmp/cce446Yi.s:184    .text:000000000000013c .LVL14
     /tmp/cce446Yi.s:219    .text:0000000000000158 .LVL18
     /tmp/cce446Yi.s:225    .text:0000000000000164 .LVL19
     /tmp/cce446Yi.s:292    .text:00000000000001e0 .LVL24
     /tmp/cce446Yi.s:295    .text:00000000000001ec .LVL25
     /tmp/cce446Yi.s:301    .text:00000000000001fc .LVL26
     /tmp/cce446Yi.s:304    .text:0000000000000208 .LVL27
     /tmp/cce446Yi.s:2204   .debug_str:0000000000000308 .LASF92
     /tmp/cce446Yi.s:2294   .debug_str:0000000000000686 .LASF94
     /tmp/cce446Yi.s:39     .text:000000000000001c .LFB35
     /tmp/cce446Yi.s:64     .text:0000000000000044 .LFE35
     /tmp/cce446Yi.s:53     .text:0000000000000034 .LVL3
     /tmp/cce446Yi.s:2110   .debug_str:0000000000000037 .LASF95
     /tmp/cce446Yi.s:2202   .debug_str:00000000000002f7 .LASF96
     /tmp/cce446Yi.s:10     .text:0000000000000000 .LFB34
     /tmp/cce446Yi.s:33     .text:000000000000001c .LFE34
     /tmp/cce446Yi.s:2073   .debug_loc:000000000000006a .LLST0
     /tmp/cce446Yi.s:29     .text:0000000000000018 .LVL2
     /tmp/cce446Yi.s:2302   .debug_str:00000000000006c6 .LASF97
     /tmp/cce446Yi.s:2194   .debug_str:00000000000002bb .LASF98
     /tmp/cce446Yi.s:2130   .debug_str:00000000000000c7 .LASF117
     /tmp/cce446Yi.s:2146   .debug_str:0000000000000142 .LASF103
     /tmp/cce446Yi.s:2332   .debug_str:0000000000000799 .LASF105
     /tmp/cce446Yi.s:2222   .debug_str:00000000000003aa .LASF99
GAS LISTING /tmp/cce446Yi.s 			page 17


     /tmp/cce446Yi.s:2272   .debug_str:000000000000054b .LASF101
     /tmp/cce446Yi.s:2108   .debug_str:0000000000000022 .LASF100
     /tmp/cce446Yi.s:2276   .debug_str:0000000000000565 .LASF102
     /tmp/cce446Yi.s:2304   .debug_str:00000000000006cb .LASF104
     /tmp/cce446Yi.s:2102   .debug_str:0000000000000000 .LASF106
     /tmp/cce446Yi.s:2328   .debug_str:0000000000000772 .LASF107
     /tmp/cce446Yi.s:2134   .debug_str:00000000000000d8 .LASF108
     /tmp/cce446Yi.s:2172   .debug_str:0000000000000212 .LASF109
     /tmp/cce446Yi.s:2230   .debug_str:00000000000003fb .LASF110
     /tmp/cce446Yi.s:96     .text:0000000000000070 .LVL5
     /tmp/cce446Yi.s:106    .text:0000000000000074 .LVL6
     /tmp/cce446Yi.s:195    .text:0000000000000144 .LVL15
     /tmp/cce446Yi.s:204    .text:0000000000000148 .LVL16
     /tmp/cce446Yi.s:211    .text:000000000000014c .LVL17
     /tmp/cce446Yi.s:14     .text:0000000000000000 .LVL0
     /tmp/cce446Yi.s:23     .text:0000000000000010 .LVL1
     /tmp/cce446Yi.s:343    .debug_info:0000000000000000 .Ldebug_info0
     /tmp/cce446Yi.s:310    .gcc_except_table:0000000000000000 .LLSDA36

UNDEFINED SYMBOLS
_Z15thread_dispatchv
_Z8userMainv
_ZN15MemoryAllocator10initializeEv
_ZN5Riscv14supervisorTrapEv
_Znwm
_ZN13BoundedBufferC1Ev
_ZN8_console9inputBuffE
_ZN8_console10outputBuffE
_ZN3TCB14newThrUserModeE
_Z13thread_createPP3TCBPFvPvES2_
_ZN3TCB7runningE
_ZN8_console15consumerConsoleEPv
_ZdlPv
_Unwind_Resume
__gxx_personality_v0
