GAS LISTING /tmp/cclTZYqD.s 			page 1


   1              		.file	"MemoryAllocator.cpp"
   2              		.option pic
   3              		.option norelax
   4              		.text
   5              	.Ltext0:
   6              		.align	2
   8              	_Z41__static_initialization_and_destruction_0ii:
   9              	.LFB3:
  10              		.file 1 "src/MemoryAllocator.cpp"
   1:src/MemoryAllocator.cpp **** //
   2:src/MemoryAllocator.cpp **** // Created by os on 5/15/23.
   3:src/MemoryAllocator.cpp **** //
   4:src/MemoryAllocator.cpp **** #include "../h/MemoryAllocator.hpp"
   5:src/MemoryAllocator.cpp **** 
   6:src/MemoryAllocator.cpp **** MemoryAllocator::MemSeg* MemoryAllocator::firstFreeSeg=(MemSeg*)HEAP_START_ADDR;
   7:src/MemoryAllocator.cpp **** 
   8:src/MemoryAllocator.cpp **** 
   9:src/MemoryAllocator.cpp **** void* MemoryAllocator::alloc(size_t sz) {
  10:src/MemoryAllocator.cpp ****     //sz parametar velicina u blokovima
  11:src/MemoryAllocator.cpp **** 
  12:src/MemoryAllocator.cpp ****     if(sz<=0)return nullptr;
  13:src/MemoryAllocator.cpp ****     MemSeg* free=firstFreeSeg, *prev=nullptr;
  14:src/MemoryAllocator.cpp **** 
  15:src/MemoryAllocator.cpp ****     while(free){
  16:src/MemoryAllocator.cpp **** 
  17:src/MemoryAllocator.cpp ****         if(free->size-1>=sz)
  18:src/MemoryAllocator.cpp ****             break;
  19:src/MemoryAllocator.cpp **** 
  20:src/MemoryAllocator.cpp ****         prev=free;
  21:src/MemoryAllocator.cpp ****         free=free->next;
  22:src/MemoryAllocator.cpp ****     }
  23:src/MemoryAllocator.cpp ****     if(!free)return nullptr;
  24:src/MemoryAllocator.cpp **** 
  25:src/MemoryAllocator.cpp **** 
  26:src/MemoryAllocator.cpp ****     MemSeg *taken=free, *ret=(MemSeg*)((char*)free+MEM_BLOCK_SIZE);
  27:src/MemoryAllocator.cpp ****     size_t oldFreeSize=free->size;
  28:src/MemoryAllocator.cpp ****     MemSeg* next=free->next;
  29:src/MemoryAllocator.cpp ****     if(free->size-1==sz || ((free->size-1-1)==sz)){
  30:src/MemoryAllocator.cpp ****         if(prev!=nullptr){
  31:src/MemoryAllocator.cpp ****             prev->next=free->next;
  32:src/MemoryAllocator.cpp ****         }
  33:src/MemoryAllocator.cpp ****         else{
  34:src/MemoryAllocator.cpp ****             firstFreeSeg=free->next;
  35:src/MemoryAllocator.cpp ****         }
  36:src/MemoryAllocator.cpp ****         taken->size=oldFreeSize;
  37:src/MemoryAllocator.cpp ****         //taken->next=next;
  38:src/MemoryAllocator.cpp ****     }
  39:src/MemoryAllocator.cpp ****     else if(oldFreeSize-sz-1>=2){
  40:src/MemoryAllocator.cpp **** 
  41:src/MemoryAllocator.cpp ****         free=(MemSeg*)((char*)free+(sz+1)*MEM_BLOCK_SIZE);
  42:src/MemoryAllocator.cpp ****         free->size=oldFreeSize-sz-1;
  43:src/MemoryAllocator.cpp ****         free->next=next;
  44:src/MemoryAllocator.cpp ****         if(prev!=nullptr){
  45:src/MemoryAllocator.cpp ****             prev->next=free;
  46:src/MemoryAllocator.cpp ****         }
  47:src/MemoryAllocator.cpp ****         else{
  48:src/MemoryAllocator.cpp ****             firstFreeSeg=free;
GAS LISTING /tmp/cclTZYqD.s 			page 2


  49:src/MemoryAllocator.cpp ****         }
  50:src/MemoryAllocator.cpp ****         taken->size=sz+1;
  51:src/MemoryAllocator.cpp ****         //taken->next=free;proveriti da li je potrebno jer ako se alocira segment odmah iza alocira
  52:src/MemoryAllocator.cpp ****     }
  53:src/MemoryAllocator.cpp **** 
  54:src/MemoryAllocator.cpp ****     taken->next=nullptr;
  55:src/MemoryAllocator.cpp ****     return ret;
  56:src/MemoryAllocator.cpp **** }
  57:src/MemoryAllocator.cpp **** 
  58:src/MemoryAllocator.cpp **** int MemoryAllocator::free(void *ptr) {
  59:src/MemoryAllocator.cpp ****     //u slucaju da se prosledi ptr koji ne ukazuje na prethodno alocirani segment nepredvidjeno pon
  60:src/MemoryAllocator.cpp **** 
  61:src/MemoryAllocator.cpp ****     if(!ptr)return -1;
  62:src/MemoryAllocator.cpp **** 
  63:src/MemoryAllocator.cpp ****     MemSeg* freeFromAddr=(MemSeg*)((char*)ptr-MEM_BLOCK_SIZE);
  64:src/MemoryAllocator.cpp **** 
  65:src/MemoryAllocator.cpp ****     if(!firstFreeSeg){
  66:src/MemoryAllocator.cpp ****         freeFromAddr->next=nullptr;
  67:src/MemoryAllocator.cpp ****         firstFreeSeg=freeFromAddr;
  68:src/MemoryAllocator.cpp ****         return 0;
  69:src/MemoryAllocator.cpp ****     }
  70:src/MemoryAllocator.cpp **** 
  71:src/MemoryAllocator.cpp ****     if(firstFreeSeg>freeFromAddr){
  72:src/MemoryAllocator.cpp ****         //mogu da se spoje
  73:src/MemoryAllocator.cpp ****         if((char*)freeFromAddr+freeFromAddr->size*MEM_BLOCK_SIZE==(char*)firstFreeSeg){
  74:src/MemoryAllocator.cpp ****             freeFromAddr->size+=firstFreeSeg->size;
  75:src/MemoryAllocator.cpp ****             freeFromAddr->next=firstFreeSeg->next;
  76:src/MemoryAllocator.cpp ****             firstFreeSeg=freeFromAddr;
  77:src/MemoryAllocator.cpp ****             return 0;
  78:src/MemoryAllocator.cpp ****         }
  79:src/MemoryAllocator.cpp ****         //ne mogu da se spoje
  80:src/MemoryAllocator.cpp ****         freeFromAddr->next=firstFreeSeg;
  81:src/MemoryAllocator.cpp ****         firstFreeSeg=freeFromAddr;
  82:src/MemoryAllocator.cpp ****         return 0;
  83:src/MemoryAllocator.cpp ****     }
  84:src/MemoryAllocator.cpp **** 
  85:src/MemoryAllocator.cpp ****     MemSeg* nextFree=firstFreeSeg, *prev=nullptr;
  86:src/MemoryAllocator.cpp ****     while(nextFree){
  87:src/MemoryAllocator.cpp **** 
  88:src/MemoryAllocator.cpp ****         if(nextFree>freeFromAddr)break;
  89:src/MemoryAllocator.cpp **** 
  90:src/MemoryAllocator.cpp ****         prev=nextFree;
  91:src/MemoryAllocator.cpp ****         nextFree=nextFree->next;
  92:src/MemoryAllocator.cpp ****     }
  93:src/MemoryAllocator.cpp **** 
  94:src/MemoryAllocator.cpp ****     if(nextFree==nullptr){
  95:src/MemoryAllocator.cpp ****         //dealokacija segmenta do kraja hipa
  96:src/MemoryAllocator.cpp ****         if((char*)prev+prev->size*MEM_BLOCK_SIZE==(char*)freeFromAddr){
  97:src/MemoryAllocator.cpp ****             //mogu da se spoje
  98:src/MemoryAllocator.cpp ****             prev->size+=freeFromAddr->size;
  99:src/MemoryAllocator.cpp ****             //prev->next=nullptr;
 100:src/MemoryAllocator.cpp ****             return 0;
 101:src/MemoryAllocator.cpp ****         }
 102:src/MemoryAllocator.cpp ****         else{
 103:src/MemoryAllocator.cpp ****             //ne mogu da se spoje
 104:src/MemoryAllocator.cpp ****             freeFromAddr->next=nullptr;
 105:src/MemoryAllocator.cpp ****             prev->next=freeFromAddr;
GAS LISTING /tmp/cclTZYqD.s 			page 3


 106:src/MemoryAllocator.cpp ****             return 0;
 107:src/MemoryAllocator.cpp ****         }
 108:src/MemoryAllocator.cpp **** 
 109:src/MemoryAllocator.cpp ****     }
 110:src/MemoryAllocator.cpp **** 
 111:src/MemoryAllocator.cpp ****     //proveriti ujutru dobro
 112:src/MemoryAllocator.cpp ****     //moze da se spoji sa prethodnim
 113:src/MemoryAllocator.cpp ****     if((char*)prev+prev->size*MEM_BLOCK_SIZE==(char*)freeFromAddr){
 114:src/MemoryAllocator.cpp ****         prev->size+=freeFromAddr->size;
 115:src/MemoryAllocator.cpp ****         if((char*)prev+prev->size*MEM_BLOCK_SIZE==(char*)nextFree){
 116:src/MemoryAllocator.cpp ****             prev->size+=nextFree->size;
 117:src/MemoryAllocator.cpp ****             prev->next=nextFree->next;
 118:src/MemoryAllocator.cpp ****         }
 119:src/MemoryAllocator.cpp ****         return 0;
 120:src/MemoryAllocator.cpp ****     }
 121:src/MemoryAllocator.cpp ****     //ne moze da se spoji sa prethodnim
 122:src/MemoryAllocator.cpp ****     prev->next=freeFromAddr;
 123:src/MemoryAllocator.cpp ****     if((char*)freeFromAddr+freeFromAddr->size*MEM_BLOCK_SIZE==(char*)nextFree){
 124:src/MemoryAllocator.cpp ****         //moze da se spoji sa narednim
 125:src/MemoryAllocator.cpp ****         freeFromAddr->size+=nextFree->size;
 126:src/MemoryAllocator.cpp ****         freeFromAddr->next=nextFree->next;
 127:src/MemoryAllocator.cpp ****         return 0;
 128:src/MemoryAllocator.cpp ****     }
 129:src/MemoryAllocator.cpp ****     //ne moze ni sa prethodnim ni sa narednim
 130:src/MemoryAllocator.cpp ****     freeFromAddr->next=nextFree;
 131:src/MemoryAllocator.cpp ****     return 0;
 132:src/MemoryAllocator.cpp **** }
 133:src/MemoryAllocator.cpp **** 
 134:src/MemoryAllocator.cpp **** void MemoryAllocator::initialize()
 135:src/MemoryAllocator.cpp **** {
 136:src/MemoryAllocator.cpp ****     firstFreeSeg=(MemSeg*)HEAP_START_ADDR;
 137:src/MemoryAllocator.cpp ****     firstFreeSeg->size=(size_t)(((char*)HEAP_END_ADDR-(char*)HEAP_START_ADDR)/MEM_BLOCK_SIZE);
 138:src/MemoryAllocator.cpp ****     firstFreeSeg->next=nullptr;
 139:src/MemoryAllocator.cpp **** }...
  11              		.loc 1 139 1
  12              		.cfi_startproc
  13              	.LVL0:
  14 0000 130101FF 		addi	sp,sp,-16
  15              		.cfi_def_cfa_offset 16
  16 0004 23348100 		sd	s0,8(sp)
  17              		.cfi_offset 8, -8
  18 0008 13040101 		addi	s0,sp,16
  19              		.cfi_def_cfa 8, 0
  20              		.loc 1 139 1 is_stmt 0
  21 000c 93071000 		li	a5,1
  22 0010 6308F500 		beq	a0,a5,.L4
  23              	.L1:
  24 0014 03348100 		ld	s0,8(sp)
  25              		.cfi_remember_state
  26              		.cfi_restore 8
  27              		.cfi_def_cfa 2, 16
  28 0018 13010101 		addi	sp,sp,16
  29              		.cfi_def_cfa_offset 0
  30 001c 67800000 		jr	ra
  31              	.L4:
  32              		.cfi_restore_state
  33              		.loc 1 139 1 discriminator 1
GAS LISTING /tmp/cclTZYqD.s 			page 4


  34 0020 B7070100 		li	a5,65536
  35 0024 9387F7FF 		addi	a5,a5,-1
  36 0028 E396F5FE 		bne	a1,a5,.L1
   6:src/MemoryAllocator.cpp **** MemoryAllocator::MemSeg* MemoryAllocator::firstFreeSeg=(MemSeg*)HEAP_START_ADDR;
  37              		.loc 1 6 26
  38 002c 97070000 		la	a5,HEAP_START_ADDR
  38      83B70700 
  39 0034 83B70700 		ld	a5,0(a5)
  40 0038 17070000 		sd	a5,.LANCHOR0,a4
  40      2330F700 
  41              		.loc 1 139 1
  42 0040 6FF05FFD 		j	.L1
  43              		.cfi_endproc
  44              	.LFE3:
  46              		.align	2
  47              		.globl	_ZN15MemoryAllocator5allocEm
  49              	_ZN15MemoryAllocator5allocEm:
  50              	.LFB0:
   9:src/MemoryAllocator.cpp **** void* MemoryAllocator::alloc(size_t sz) {
  51              		.loc 1 9 41 is_stmt 1
  52              		.cfi_startproc
  53              	.LVL1:
  54 0044 130101FF 		addi	sp,sp,-16
  55              		.cfi_def_cfa_offset 16
  56 0048 23348100 		sd	s0,8(sp)
  57              		.cfi_offset 8, -8
  58 004c 13040101 		addi	s0,sp,16
  59              		.cfi_def_cfa 8, 0
  12:src/MemoryAllocator.cpp ****     if(sz<=0)return nullptr;
  60              		.loc 1 12 5
  61 0050 630C050A 		beqz	a0,.L16
  62 0054 93060500 		mv	a3,a0
  13:src/MemoryAllocator.cpp ****     MemSeg* free=firstFreeSeg, *prev=nullptr;
  63              		.loc 1 13 5
  13:src/MemoryAllocator.cpp ****     MemSeg* free=firstFreeSeg, *prev=nullptr;
  64              		.loc 1 13 13 is_stmt 0
  65 0058 97070000 		ld	a5,.LANCHOR0
  65      83B70700 
  66              	.LVL2:
  13:src/MemoryAllocator.cpp ****     MemSeg* free=firstFreeSeg, *prev=nullptr;
  67              		.loc 1 13 33
  68 0060 13060000 		li	a2,0
  69              	.LVL3:
  70              	.L8:
  15:src/MemoryAllocator.cpp ****     while(free){
  71              		.loc 1 15 5 is_stmt 1
  15:src/MemoryAllocator.cpp ****     while(free){
  72              		.loc 1 15 11
  73 0064 638E0700 		beqz	a5,.L7
  17:src/MemoryAllocator.cpp ****         if(free->size-1>=sz)
  74              		.loc 1 17 9
  17:src/MemoryAllocator.cpp ****         if(free->size-1>=sz)
  75              		.loc 1 17 18 is_stmt 0
  76 0068 03B70700 		ld	a4,0(a5)
  17:src/MemoryAllocator.cpp ****         if(free->size-1>=sz)
  77              		.loc 1 17 22
  78 006c 1307F7FF 		addi	a4,a4,-1
GAS LISTING /tmp/cclTZYqD.s 			page 5


  17:src/MemoryAllocator.cpp ****         if(free->size-1>=sz)
  79              		.loc 1 17 9
  80 0070 6378D700 		bgeu	a4,a3,.L7
  20:src/MemoryAllocator.cpp ****         prev=free;
  81              		.loc 1 20 9 is_stmt 1
  82              	.LVL4:
  21:src/MemoryAllocator.cpp ****         free=free->next;
  83              		.loc 1 21 9
  20:src/MemoryAllocator.cpp ****         prev=free;
  84              		.loc 1 20 13 is_stmt 0
  85 0074 13860700 		mv	a2,a5
  21:src/MemoryAllocator.cpp ****         free=free->next;
  86              		.loc 1 21 13
  87 0078 83B78700 		ld	a5,8(a5)
  88              	.LVL5:
  15:src/MemoryAllocator.cpp ****     while(free){
  89              		.loc 1 15 5
  90 007c 6FF09FFE 		j	.L8
  91              	.L7:
  23:src/MemoryAllocator.cpp ****     if(!free)return nullptr;
  92              		.loc 1 23 5 is_stmt 1
  93 0080 63880708 		beqz	a5,.L17
  26:src/MemoryAllocator.cpp ****     MemSeg *taken=free, *ret=(MemSeg*)((char*)free+MEM_BLOCK_SIZE);
  94              		.loc 1 26 5
  95              	.LVL6:
  26:src/MemoryAllocator.cpp ****     MemSeg *taken=free, *ret=(MemSeg*)((char*)free+MEM_BLOCK_SIZE);
  96              		.loc 1 26 26 is_stmt 0
  97 0084 13850704 		addi	a0,a5,64
  98              	.LVL7:
  27:src/MemoryAllocator.cpp ****     size_t oldFreeSize=free->size;
  99              		.loc 1 27 5 is_stmt 1
  27:src/MemoryAllocator.cpp ****     size_t oldFreeSize=free->size;
 100              		.loc 1 27 12 is_stmt 0
 101 0088 03B70700 		ld	a4,0(a5)
 102              	.LVL8:
  28:src/MemoryAllocator.cpp ****     MemSeg* next=free->next;
 103              		.loc 1 28 5 is_stmt 1
  28:src/MemoryAllocator.cpp ****     MemSeg* next=free->next;
 104              		.loc 1 28 13 is_stmt 0
 105 008c 03B88700 		ld	a6,8(a5)
 106              	.LVL9:
  29:src/MemoryAllocator.cpp ****     if(free->size-1==sz || ((free->size-1-1)==sz)){
 107              		.loc 1 29 5 is_stmt 1
  29:src/MemoryAllocator.cpp ****     if(free->size-1==sz || ((free->size-1-1)==sz)){
 108              		.loc 1 29 18 is_stmt 0
 109 0090 9305F7FF 		addi	a1,a4,-1
  29:src/MemoryAllocator.cpp ****     if(free->size-1==sz || ((free->size-1-1)==sz)){
 110              		.loc 1 29 5
 111 0094 6380D504 		beq	a1,a3,.L9
  29:src/MemoryAllocator.cpp ****     if(free->size-1==sz || ((free->size-1-1)==sz)){
 112              		.loc 1 29 42 discriminator 1
 113 0098 9305E7FF 		addi	a1,a4,-2
  29:src/MemoryAllocator.cpp ****     if(free->size-1==sz || ((free->size-1-1)==sz)){
 114              		.loc 1 29 25 discriminator 1
 115 009c 638CD502 		beq	a1,a3,.L9
  39:src/MemoryAllocator.cpp ****     else if(oldFreeSize-sz-1>=2){
 116              		.loc 1 39 10 is_stmt 1
GAS LISTING /tmp/cclTZYqD.s 			page 6


  39:src/MemoryAllocator.cpp ****     else if(oldFreeSize-sz-1>=2){
 117              		.loc 1 39 24 is_stmt 0
 118 00a0 3307D740 		sub	a4,a4,a3
 119              	.LVL10:
  39:src/MemoryAllocator.cpp ****     else if(oldFreeSize-sz-1>=2){
 120              		.loc 1 39 27
 121 00a4 1307F7FF 		addi	a4,a4,-1
  39:src/MemoryAllocator.cpp ****     else if(oldFreeSize-sz-1>=2){
 122              		.loc 1 39 10
 123 00a8 93051000 		li	a1,1
 124 00ac 63FAE502 		bleu	a4,a1,.L13
  41:src/MemoryAllocator.cpp ****         free=(MemSeg*)((char*)free+(sz+1)*MEM_BLOCK_SIZE);
 125              		.loc 1 41 9 is_stmt 1
  41:src/MemoryAllocator.cpp ****         free=(MemSeg*)((char*)free+(sz+1)*MEM_BLOCK_SIZE);
 126              		.loc 1 41 39 is_stmt 0
 127 00b0 93861600 		addi	a3,a3,1
 128              	.LVL11:
  41:src/MemoryAllocator.cpp ****         free=(MemSeg*)((char*)free+(sz+1)*MEM_BLOCK_SIZE);
 129              		.loc 1 41 42
 130 00b4 93956600 		slli	a1,a3,6
  41:src/MemoryAllocator.cpp ****         free=(MemSeg*)((char*)free+(sz+1)*MEM_BLOCK_SIZE);
 131              		.loc 1 41 13
 132 00b8 B385B700 		add	a1,a5,a1
 133              	.LVL12:
  42:src/MemoryAllocator.cpp ****         free->size=oldFreeSize-sz-1;
 134              		.loc 1 42 9 is_stmt 1
  42:src/MemoryAllocator.cpp ****         free->size=oldFreeSize-sz-1;
 135              		.loc 1 42 19 is_stmt 0
 136 00bc 23B0E500 		sd	a4,0(a1)
 137              	.LVL13:
  43:src/MemoryAllocator.cpp ****         free->next=next;
 138              		.loc 1 43 9 is_stmt 1
  43:src/MemoryAllocator.cpp ****         free->next=next;
 139              		.loc 1 43 19 is_stmt 0
 140 00c0 23B40501 		sd	a6,8(a1)
  44:src/MemoryAllocator.cpp ****         if(prev!=nullptr){
 141              		.loc 1 44 9 is_stmt 1
 142 00c4 630C0602 		beqz	a2,.L14
  45:src/MemoryAllocator.cpp ****             prev->next=free;
 143              		.loc 1 45 13
  45:src/MemoryAllocator.cpp ****             prev->next=free;
 144              		.loc 1 45 23 is_stmt 0
 145 00c8 2334B600 		sd	a1,8(a2)
 146              	.L15:
  50:src/MemoryAllocator.cpp ****         taken->size=sz+1;
 147              		.loc 1 50 9 is_stmt 1
  50:src/MemoryAllocator.cpp ****         taken->size=sz+1;
 148              		.loc 1 50 20 is_stmt 0
 149 00cc 23B0D700 		sd	a3,0(a5)
 150 00d0 6F000001 		j	.L13
 151              	.LVL14:
 152              	.L9:
  30:src/MemoryAllocator.cpp ****         if(prev!=nullptr){
 153              		.loc 1 30 9 is_stmt 1
 154 00d4 630E0600 		beqz	a2,.L11
  31:src/MemoryAllocator.cpp ****             prev->next=free->next;
 155              		.loc 1 31 13
GAS LISTING /tmp/cclTZYqD.s 			page 7


  31:src/MemoryAllocator.cpp ****             prev->next=free->next;
 156              		.loc 1 31 23 is_stmt 0
 157 00d8 23340601 		sd	a6,8(a2)
 158              	.LVL15:
 159              	.L12:
  36:src/MemoryAllocator.cpp ****         taken->size=oldFreeSize;
 160              		.loc 1 36 9 is_stmt 1
  36:src/MemoryAllocator.cpp ****         taken->size=oldFreeSize;
 161              		.loc 1 36 20 is_stmt 0
 162 00dc 23B0E700 		sd	a4,0(a5)
 163              	.LVL16:
 164              	.L13:
  54:src/MemoryAllocator.cpp ****     taken->next=nullptr;
 165              		.loc 1 54 5 is_stmt 1
  54:src/MemoryAllocator.cpp ****     taken->next=nullptr;
 166              		.loc 1 54 16 is_stmt 0
 167 00e0 23B40700 		sd	zero,8(a5)
  55:src/MemoryAllocator.cpp ****     return ret;
 168              		.loc 1 55 5 is_stmt 1
 169              	.LVL17:
 170              	.L5:
  56:src/MemoryAllocator.cpp **** }
 171              		.loc 1 56 1 is_stmt 0
 172 00e4 03348100 		ld	s0,8(sp)
 173              		.cfi_remember_state
 174              		.cfi_restore 8
 175              		.cfi_def_cfa 2, 16
 176 00e8 13010101 		addi	sp,sp,16
 177              		.cfi_def_cfa_offset 0
 178 00ec 67800000 		jr	ra
 179              	.LVL18:
 180              	.L11:
 181              		.cfi_restore_state
  34:src/MemoryAllocator.cpp ****             firstFreeSeg=free->next;
 182              		.loc 1 34 13 is_stmt 1
  34:src/MemoryAllocator.cpp ****             firstFreeSeg=free->next;
 183              		.loc 1 34 25 is_stmt 0
 184 00f0 97060000 		sd	a6,.LANCHOR0,a3
 184      23B00601 
 185              	.LVL19:
 186 00f8 6FF05FFE 		j	.L12
 187              	.LVL20:
 188              	.L14:
  48:src/MemoryAllocator.cpp ****             firstFreeSeg=free;
 189              		.loc 1 48 13 is_stmt 1
  48:src/MemoryAllocator.cpp ****             firstFreeSeg=free;
 190              		.loc 1 48 25 is_stmt 0
 191 00fc 17070000 		sd	a1,.LANCHOR0,a4
 191      2330B700 
 192 0104 6FF09FFC 		j	.L15
 193              	.LVL21:
 194              	.L16:
  12:src/MemoryAllocator.cpp ****     if(sz<=0)return nullptr;
 195              		.loc 1 12 21
 196 0108 13050000 		li	a0,0
 197              	.LVL22:
 198 010c 6FF09FFD 		j	.L5
GAS LISTING /tmp/cclTZYqD.s 			page 8


 199              	.LVL23:
 200              	.L17:
  23:src/MemoryAllocator.cpp ****     if(!free)return nullptr;
 201              		.loc 1 23 21
 202 0110 13850700 		mv	a0,a5
 203              	.LVL24:
 204 0114 6FF01FFD 		j	.L5
 205              		.cfi_endproc
 206              	.LFE0:
 208              		.align	2
 209              		.globl	_ZN15MemoryAllocator4freeEPv
 211              	_ZN15MemoryAllocator4freeEPv:
 212              	.LFB1:
  58:src/MemoryAllocator.cpp **** int MemoryAllocator::free(void *ptr) {
 213              		.loc 1 58 38 is_stmt 1
 214              		.cfi_startproc
 215              	.LVL25:
 216 0118 130101FF 		addi	sp,sp,-16
 217              		.cfi_def_cfa_offset 16
 218 011c 23348100 		sd	s0,8(sp)
 219              		.cfi_offset 8, -8
 220 0120 13040101 		addi	s0,sp,16
 221              		.cfi_def_cfa 8, 0
  61:src/MemoryAllocator.cpp ****     if(!ptr)return -1;
 222              		.loc 1 61 5
 223 0124 630C0514 		beqz	a0,.L30
  63:src/MemoryAllocator.cpp ****     MemSeg* freeFromAddr=(MemSeg*)((char*)ptr-MEM_BLOCK_SIZE);
 224              		.loc 1 63 5
  63:src/MemoryAllocator.cpp ****     MemSeg* freeFromAddr=(MemSeg*)((char*)ptr-MEM_BLOCK_SIZE);
 225              		.loc 1 63 13 is_stmt 0
 226 0128 130705FC 		addi	a4,a0,-64
 227              	.LVL26:
  65:src/MemoryAllocator.cpp ****     if(!firstFreeSeg){
 228              		.loc 1 65 5 is_stmt 1
  65:src/MemoryAllocator.cpp ****     if(!firstFreeSeg){
 229              		.loc 1 65 8 is_stmt 0
 230 012c 97070000 		ld	a5,.LANCHOR0
 230      83B70700 
  65:src/MemoryAllocator.cpp ****     if(!firstFreeSeg){
 231              		.loc 1 65 5
 232 0134 638A0702 		beqz	a5,.L33
  71:src/MemoryAllocator.cpp ****     if(firstFreeSeg>freeFromAddr){
 233              		.loc 1 71 5 is_stmt 1
 234 0138 6378F706 		bleu	a5,a4,.L31
  73:src/MemoryAllocator.cpp ****         if((char*)freeFromAddr+freeFromAddr->size*MEM_BLOCK_SIZE==(char*)firstFreeSeg){
 235              		.loc 1 73 9
  73:src/MemoryAllocator.cpp ****         if((char*)freeFromAddr+freeFromAddr->size*MEM_BLOCK_SIZE==(char*)firstFreeSeg){
 236              		.loc 1 73 46 is_stmt 0
 237 013c 033605FC 		ld	a2,-64(a0)
  73:src/MemoryAllocator.cpp ****         if((char*)freeFromAddr+freeFromAddr->size*MEM_BLOCK_SIZE==(char*)firstFreeSeg){
 238              		.loc 1 73 50
 239 0140 93166600 		slli	a3,a2,6
  73:src/MemoryAllocator.cpp ****         if((char*)freeFromAddr+freeFromAddr->size*MEM_BLOCK_SIZE==(char*)firstFreeSeg){
 240              		.loc 1 73 31
 241 0144 B306D700 		add	a3,a4,a3
  73:src/MemoryAllocator.cpp ****         if((char*)freeFromAddr+freeFromAddr->size*MEM_BLOCK_SIZE==(char*)firstFreeSeg){
 242              		.loc 1 73 9
GAS LISTING /tmp/cclTZYqD.s 			page 9


 243 0148 638AD702 		beq	a5,a3,.L34
  80:src/MemoryAllocator.cpp ****         freeFromAddr->next=firstFreeSeg;
 244              		.loc 1 80 9 is_stmt 1
  80:src/MemoryAllocator.cpp ****         freeFromAddr->next=firstFreeSeg;
 245              		.loc 1 80 27 is_stmt 0
 246 014c 2334F5FC 		sd	a5,-56(a0)
  81:src/MemoryAllocator.cpp ****         firstFreeSeg=freeFromAddr;
 247              		.loc 1 81 9 is_stmt 1
  81:src/MemoryAllocator.cpp ****         firstFreeSeg=freeFromAddr;
 248              		.loc 1 81 21 is_stmt 0
 249 0150 97070000 		sd	a4,.LANCHOR0,a5
 249      23B0E700 
  82:src/MemoryAllocator.cpp ****         return 0;
 250              		.loc 1 82 9 is_stmt 1
  82:src/MemoryAllocator.cpp ****         return 0;
 251              		.loc 1 82 16 is_stmt 0
 252 0158 13050000 		li	a0,0
 253              	.LVL27:
 254              	.L20:
 132:src/MemoryAllocator.cpp **** }
 255              		.loc 1 132 1
 256 015c 03348100 		ld	s0,8(sp)
 257              		.cfi_remember_state
 258              		.cfi_restore 8
 259              		.cfi_def_cfa 2, 16
 260 0160 13010101 		addi	sp,sp,16
 261              		.cfi_def_cfa_offset 0
 262 0164 67800000 		jr	ra
 263              	.LVL28:
 264              	.L33:
 265              		.cfi_restore_state
  66:src/MemoryAllocator.cpp ****         freeFromAddr->next=nullptr;
 266              		.loc 1 66 9 is_stmt 1
  66:src/MemoryAllocator.cpp ****         freeFromAddr->next=nullptr;
 267              		.loc 1 66 27 is_stmt 0
 268 0168 233405FC 		sd	zero,-56(a0)
  67:src/MemoryAllocator.cpp ****         firstFreeSeg=freeFromAddr;
 269              		.loc 1 67 9 is_stmt 1
  67:src/MemoryAllocator.cpp ****         firstFreeSeg=freeFromAddr;
 270              		.loc 1 67 21 is_stmt 0
 271 016c 97070000 		sd	a4,.LANCHOR0,a5
 271      23B0E700 
  68:src/MemoryAllocator.cpp ****         return 0;
 272              		.loc 1 68 9 is_stmt 1
  68:src/MemoryAllocator.cpp ****         return 0;
 273              		.loc 1 68 16 is_stmt 0
 274 0174 13050000 		li	a0,0
 275              	.LVL29:
 276 0178 6FF05FFE 		j	.L20
 277              	.LVL30:
 278              	.L34:
  74:src/MemoryAllocator.cpp ****             freeFromAddr->size+=firstFreeSeg->size;
 279              		.loc 1 74 13 is_stmt 1
  74:src/MemoryAllocator.cpp ****             freeFromAddr->size+=firstFreeSeg->size;
 280              		.loc 1 74 47 is_stmt 0
 281 017c 83B70700 		ld	a5,0(a5)
  74:src/MemoryAllocator.cpp ****             freeFromAddr->size+=firstFreeSeg->size;
GAS LISTING /tmp/cclTZYqD.s 			page 10


 282              		.loc 1 74 31
 283 0180 3306F600 		add	a2,a2,a5
 284 0184 2330C5FC 		sd	a2,-64(a0)
  75:src/MemoryAllocator.cpp ****             freeFromAddr->next=firstFreeSeg->next;
 285              		.loc 1 75 13 is_stmt 1
  75:src/MemoryAllocator.cpp ****             freeFromAddr->next=firstFreeSeg->next;
 286              		.loc 1 75 46 is_stmt 0
 287 0188 97070000 		lla	a5,.LANCHOR0
 287      93870700 
 288 0190 83B60700 		ld	a3,0(a5)
 289 0194 83B68600 		ld	a3,8(a3)
  75:src/MemoryAllocator.cpp ****             freeFromAddr->next=firstFreeSeg->next;
 290              		.loc 1 75 31
 291 0198 2334D5FC 		sd	a3,-56(a0)
  76:src/MemoryAllocator.cpp ****             firstFreeSeg=freeFromAddr;
 292              		.loc 1 76 13 is_stmt 1
  76:src/MemoryAllocator.cpp ****             firstFreeSeg=freeFromAddr;
 293              		.loc 1 76 25 is_stmt 0
 294 019c 23B0E700 		sd	a4,0(a5)
  77:src/MemoryAllocator.cpp ****             return 0;
 295              		.loc 1 77 13 is_stmt 1
  77:src/MemoryAllocator.cpp ****             return 0;
 296              		.loc 1 77 20 is_stmt 0
 297 01a0 13050000 		li	a0,0
 298              	.LVL31:
 299 01a4 6FF09FFB 		j	.L20
 300              	.LVL32:
 301              	.L31:
  85:src/MemoryAllocator.cpp ****     MemSeg* nextFree=firstFreeSeg, *prev=nullptr;
 302              		.loc 1 85 37
 303 01a8 93060000 		li	a3,0
 304              	.L22:
 305              	.LVL33:
  86:src/MemoryAllocator.cpp ****     while(nextFree){
 306              		.loc 1 86 5 is_stmt 1
  86:src/MemoryAllocator.cpp ****     while(nextFree){
 307              		.loc 1 86 11
 308 01ac 638A0700 		beqz	a5,.L24
  88:src/MemoryAllocator.cpp ****         if(nextFree>freeFromAddr)break;
 309              		.loc 1 88 9
 310 01b0 6368F700 		bgtu	a5,a4,.L24
  90:src/MemoryAllocator.cpp ****         prev=nextFree;
 311              		.loc 1 90 9
 312              	.LVL34:
  91:src/MemoryAllocator.cpp ****         nextFree=nextFree->next;
 313              		.loc 1 91 9
  90:src/MemoryAllocator.cpp ****         prev=nextFree;
 314              		.loc 1 90 13 is_stmt 0
 315 01b4 93860700 		mv	a3,a5
  91:src/MemoryAllocator.cpp ****         nextFree=nextFree->next;
 316              		.loc 1 91 17
 317 01b8 83B78700 		ld	a5,8(a5)
 318              	.LVL35:
  86:src/MemoryAllocator.cpp ****     while(nextFree){
 319              		.loc 1 86 5
 320 01bc 6FF01FFF 		j	.L22
 321              	.L24:
GAS LISTING /tmp/cclTZYqD.s 			page 11


  94:src/MemoryAllocator.cpp ****     if(nextFree==nullptr){
 322              		.loc 1 94 5 is_stmt 1
 323 01c0 638A0702 		beqz	a5,.L35
 113:src/MemoryAllocator.cpp ****     if((char*)prev+prev->size*MEM_BLOCK_SIZE==(char*)freeFromAddr){
 324              		.loc 1 113 5
 113:src/MemoryAllocator.cpp ****     if((char*)prev+prev->size*MEM_BLOCK_SIZE==(char*)freeFromAddr){
 325              		.loc 1 113 26 is_stmt 0
 326 01c4 83B50600 		ld	a1,0(a3)
 113:src/MemoryAllocator.cpp ****     if((char*)prev+prev->size*MEM_BLOCK_SIZE==(char*)freeFromAddr){
 327              		.loc 1 113 30
 328 01c8 13966500 		slli	a2,a1,6
 113:src/MemoryAllocator.cpp ****     if((char*)prev+prev->size*MEM_BLOCK_SIZE==(char*)freeFromAddr){
 329              		.loc 1 113 19
 330 01cc 3386C600 		add	a2,a3,a2
 113:src/MemoryAllocator.cpp ****     if((char*)prev+prev->size*MEM_BLOCK_SIZE==(char*)freeFromAddr){
 331              		.loc 1 113 5
 332 01d0 630CE604 		beq	a2,a4,.L36
 122:src/MemoryAllocator.cpp ****     prev->next=freeFromAddr;
 333              		.loc 1 122 5 is_stmt 1
 122:src/MemoryAllocator.cpp ****     prev->next=freeFromAddr;
 334              		.loc 1 122 15 is_stmt 0
 335 01d4 23B4E600 		sd	a4,8(a3)
 123:src/MemoryAllocator.cpp ****     if((char*)freeFromAddr+freeFromAddr->size*MEM_BLOCK_SIZE==(char*)nextFree){
 336              		.loc 1 123 5 is_stmt 1
 123:src/MemoryAllocator.cpp ****     if((char*)freeFromAddr+freeFromAddr->size*MEM_BLOCK_SIZE==(char*)nextFree){
 337              		.loc 1 123 42 is_stmt 0
 338 01d8 833605FC 		ld	a3,-64(a0)
 339              	.LVL36:
 123:src/MemoryAllocator.cpp ****     if((char*)freeFromAddr+freeFromAddr->size*MEM_BLOCK_SIZE==(char*)nextFree){
 340              		.loc 1 123 46
 341 01dc 13966600 		slli	a2,a3,6
 123:src/MemoryAllocator.cpp ****     if((char*)freeFromAddr+freeFromAddr->size*MEM_BLOCK_SIZE==(char*)nextFree){
 342              		.loc 1 123 27
 343 01e0 3307C700 		add	a4,a4,a2
 344              	.LVL37:
 123:src/MemoryAllocator.cpp ****     if((char*)freeFromAddr+freeFromAddr->size*MEM_BLOCK_SIZE==(char*)nextFree){
 345              		.loc 1 123 5
 346 01e4 630EF706 		beq	a4,a5,.L37
 130:src/MemoryAllocator.cpp ****     freeFromAddr->next=nextFree;
 347              		.loc 1 130 5 is_stmt 1
 130:src/MemoryAllocator.cpp ****     freeFromAddr->next=nextFree;
 348              		.loc 1 130 23 is_stmt 0
 349 01e8 2334F5FC 		sd	a5,-56(a0)
 131:src/MemoryAllocator.cpp ****     return 0;
 350              		.loc 1 131 5 is_stmt 1
 131:src/MemoryAllocator.cpp ****     return 0;
 351              		.loc 1 131 12 is_stmt 0
 352 01ec 13050000 		li	a0,0
 353              	.LVL38:
 354 01f0 6FF0DFF6 		j	.L20
 355              	.LVL39:
 356              	.L35:
  96:src/MemoryAllocator.cpp ****         if((char*)prev+prev->size*MEM_BLOCK_SIZE==(char*)freeFromAddr){
 357              		.loc 1 96 9 is_stmt 1
  96:src/MemoryAllocator.cpp ****         if((char*)prev+prev->size*MEM_BLOCK_SIZE==(char*)freeFromAddr){
 358              		.loc 1 96 30 is_stmt 0
 359 01f4 03B60600 		ld	a2,0(a3)
GAS LISTING /tmp/cclTZYqD.s 			page 12


  96:src/MemoryAllocator.cpp ****         if((char*)prev+prev->size*MEM_BLOCK_SIZE==(char*)freeFromAddr){
 360              		.loc 1 96 34
 361 01f8 93176600 		slli	a5,a2,6
 362              	.LVL40:
  96:src/MemoryAllocator.cpp ****         if((char*)prev+prev->size*MEM_BLOCK_SIZE==(char*)freeFromAddr){
 363              		.loc 1 96 23
 364 01fc B387F600 		add	a5,a3,a5
  96:src/MemoryAllocator.cpp ****         if((char*)prev+prev->size*MEM_BLOCK_SIZE==(char*)freeFromAddr){
 365              		.loc 1 96 9
 366 0200 638AE700 		beq	a5,a4,.L38
 104:src/MemoryAllocator.cpp ****             freeFromAddr->next=nullptr;
 367              		.loc 1 104 13 is_stmt 1
 104:src/MemoryAllocator.cpp ****             freeFromAddr->next=nullptr;
 368              		.loc 1 104 31 is_stmt 0
 369 0204 233405FC 		sd	zero,-56(a0)
 105:src/MemoryAllocator.cpp ****             prev->next=freeFromAddr;
 370              		.loc 1 105 13 is_stmt 1
 105:src/MemoryAllocator.cpp ****             prev->next=freeFromAddr;
 371              		.loc 1 105 23 is_stmt 0
 372 0208 23B4E600 		sd	a4,8(a3)
 106:src/MemoryAllocator.cpp ****             return 0;
 373              		.loc 1 106 13 is_stmt 1
 106:src/MemoryAllocator.cpp ****             return 0;
 374              		.loc 1 106 20 is_stmt 0
 375 020c 13050000 		li	a0,0
 376              	.LVL41:
 377 0210 6FF0DFF4 		j	.L20
 378              	.LVL42:
 379              	.L38:
  98:src/MemoryAllocator.cpp ****             prev->size+=freeFromAddr->size;
 380              		.loc 1 98 13 is_stmt 1
  98:src/MemoryAllocator.cpp ****             prev->size+=freeFromAddr->size;
 381              		.loc 1 98 39 is_stmt 0
 382 0214 833705FC 		ld	a5,-64(a0)
  98:src/MemoryAllocator.cpp ****             prev->size+=freeFromAddr->size;
 383              		.loc 1 98 23
 384 0218 3306F600 		add	a2,a2,a5
 385 021c 23B0C600 		sd	a2,0(a3)
 100:src/MemoryAllocator.cpp ****             return 0;
 386              		.loc 1 100 13 is_stmt 1
 100:src/MemoryAllocator.cpp ****             return 0;
 387              		.loc 1 100 20 is_stmt 0
 388 0220 13050000 		li	a0,0
 389              	.LVL43:
 390 0224 6FF09FF3 		j	.L20
 391              	.LVL44:
 392              	.L36:
 114:src/MemoryAllocator.cpp ****         prev->size+=freeFromAddr->size;
 393              		.loc 1 114 9 is_stmt 1
 114:src/MemoryAllocator.cpp ****         prev->size+=freeFromAddr->size;
 394              		.loc 1 114 35 is_stmt 0
 395 0228 033705FC 		ld	a4,-64(a0)
 396              	.LVL45:
 114:src/MemoryAllocator.cpp ****         prev->size+=freeFromAddr->size;
 397              		.loc 1 114 19
 398 022c B385E500 		add	a1,a1,a4
 399 0230 23B0B600 		sd	a1,0(a3)
GAS LISTING /tmp/cclTZYqD.s 			page 13


 115:src/MemoryAllocator.cpp ****         if((char*)prev+prev->size*MEM_BLOCK_SIZE==(char*)nextFree){
 400              		.loc 1 115 9 is_stmt 1
 115:src/MemoryAllocator.cpp ****         if((char*)prev+prev->size*MEM_BLOCK_SIZE==(char*)nextFree){
 401              		.loc 1 115 34 is_stmt 0
 402 0234 13976500 		slli	a4,a1,6
 115:src/MemoryAllocator.cpp ****         if((char*)prev+prev->size*MEM_BLOCK_SIZE==(char*)nextFree){
 403              		.loc 1 115 23
 404 0238 3387E600 		add	a4,a3,a4
 115:src/MemoryAllocator.cpp ****         if((char*)prev+prev->size*MEM_BLOCK_SIZE==(char*)nextFree){
 405              		.loc 1 115 9
 406 023c 6306F700 		beq	a4,a5,.L39
 407              	.LVL46:
 408              	.L28:
 119:src/MemoryAllocator.cpp ****         return 0;
 409              		.loc 1 119 9 is_stmt 1
 119:src/MemoryAllocator.cpp ****         return 0;
 410              		.loc 1 119 16 is_stmt 0
 411 0240 13050000 		li	a0,0
 412              	.LVL47:
 413 0244 6FF09FF1 		j	.L20
 414              	.LVL48:
 415              	.L39:
 116:src/MemoryAllocator.cpp ****             prev->size+=nextFree->size;
 416              		.loc 1 116 13 is_stmt 1
 116:src/MemoryAllocator.cpp ****             prev->size+=nextFree->size;
 417              		.loc 1 116 35 is_stmt 0
 418 0248 03B70700 		ld	a4,0(a5)
 116:src/MemoryAllocator.cpp ****             prev->size+=nextFree->size;
 419              		.loc 1 116 23
 420 024c B385E500 		add	a1,a1,a4
 421 0250 23B0B600 		sd	a1,0(a3)
 117:src/MemoryAllocator.cpp ****             prev->next=nextFree->next;
 422              		.loc 1 117 13 is_stmt 1
 117:src/MemoryAllocator.cpp ****             prev->next=nextFree->next;
 423              		.loc 1 117 34 is_stmt 0
 424 0254 83B78700 		ld	a5,8(a5)
 425              	.LVL49:
 117:src/MemoryAllocator.cpp ****             prev->next=nextFree->next;
 426              		.loc 1 117 23
 427 0258 23B4F600 		sd	a5,8(a3)
 428 025c 6FF05FFE 		j	.L28
 429              	.LVL50:
 430              	.L37:
 125:src/MemoryAllocator.cpp ****         freeFromAddr->size+=nextFree->size;
 431              		.loc 1 125 9 is_stmt 1
 125:src/MemoryAllocator.cpp ****         freeFromAddr->size+=nextFree->size;
 432              		.loc 1 125 39 is_stmt 0
 433 0260 03B70700 		ld	a4,0(a5)
 125:src/MemoryAllocator.cpp ****         freeFromAddr->size+=nextFree->size;
 434              		.loc 1 125 27
 435 0264 B386E600 		add	a3,a3,a4
 436 0268 2330D5FC 		sd	a3,-64(a0)
 126:src/MemoryAllocator.cpp ****         freeFromAddr->next=nextFree->next;
 437              		.loc 1 126 9 is_stmt 1
 126:src/MemoryAllocator.cpp ****         freeFromAddr->next=nextFree->next;
 438              		.loc 1 126 38 is_stmt 0
 439 026c 83B78700 		ld	a5,8(a5)
GAS LISTING /tmp/cclTZYqD.s 			page 14


 440              	.LVL51:
 126:src/MemoryAllocator.cpp ****         freeFromAddr->next=nextFree->next;
 441              		.loc 1 126 27
 442 0270 2334F5FC 		sd	a5,-56(a0)
 127:src/MemoryAllocator.cpp ****         return 0;
 443              		.loc 1 127 9 is_stmt 1
 127:src/MemoryAllocator.cpp ****         return 0;
 444              		.loc 1 127 16 is_stmt 0
 445 0274 13050000 		li	a0,0
 446              	.LVL52:
 447 0278 6FF05FEE 		j	.L20
 448              	.LVL53:
 449              	.L30:
  61:src/MemoryAllocator.cpp ****     if(!ptr)return -1;
 450              		.loc 1 61 21
 451 027c 1305F0FF 		li	a0,-1
 452              	.LVL54:
 453 0280 6FF0DFED 		j	.L20
 454              		.cfi_endproc
 455              	.LFE1:
 457              		.align	2
 458              		.globl	_ZN15MemoryAllocator10initializeEv
 460              	_ZN15MemoryAllocator10initializeEv:
 461              	.LFB2:
 135:src/MemoryAllocator.cpp **** {
 462              		.loc 1 135 1 is_stmt 1
 463              		.cfi_startproc
 464 0284 130101FF 		addi	sp,sp,-16
 465              		.cfi_def_cfa_offset 16
 466 0288 23348100 		sd	s0,8(sp)
 467              		.cfi_offset 8, -8
 468 028c 13040101 		addi	s0,sp,16
 469              		.cfi_def_cfa 8, 0
 136:src/MemoryAllocator.cpp ****     firstFreeSeg=(MemSeg*)HEAP_START_ADDR;
 470              		.loc 1 136 5
 136:src/MemoryAllocator.cpp ****     firstFreeSeg=(MemSeg*)HEAP_START_ADDR;
 471              		.loc 1 136 17 is_stmt 0
 472 0290 97070000 		la	a5,HEAP_START_ADDR
 472      83B70700 
 473 0298 03B70700 		ld	a4,0(a5)
 474 029c 97060000 		lla	a3,.LANCHOR0
 474      93860600 
 475 02a4 23B0E600 		sd	a4,0(a3)
 137:src/MemoryAllocator.cpp ****     firstFreeSeg->size=(size_t)(((char*)HEAP_END_ADDR-(char*)HEAP_START_ADDR)/MEM_BLOCK_SIZE);
 476              		.loc 1 137 5 is_stmt 1
 137:src/MemoryAllocator.cpp ****     firstFreeSeg->size=(size_t)(((char*)HEAP_END_ADDR-(char*)HEAP_START_ADDR)/MEM_BLOCK_SIZE);
 477              		.loc 1 137 34 is_stmt 0
 478 02a8 97070000 		la	a5,HEAP_END_ADDR
 478      83B70700 
 479 02b0 83B70700 		ld	a5,0(a5)
 137:src/MemoryAllocator.cpp ****     firstFreeSeg->size=(size_t)(((char*)HEAP_END_ADDR-(char*)HEAP_START_ADDR)/MEM_BLOCK_SIZE);
 480              		.loc 1 137 54
 481 02b4 B387E740 		sub	a5,a5,a4
 137:src/MemoryAllocator.cpp ****     firstFreeSeg->size=(size_t)(((char*)HEAP_END_ADDR-(char*)HEAP_START_ADDR)/MEM_BLOCK_SIZE);
 482              		.loc 1 137 78
 483 02b8 93D76700 		srli	a5,a5,6
 137:src/MemoryAllocator.cpp ****     firstFreeSeg->size=(size_t)(((char*)HEAP_END_ADDR-(char*)HEAP_START_ADDR)/MEM_BLOCK_SIZE);
GAS LISTING /tmp/cclTZYqD.s 			page 15


 484              		.loc 1 137 23
 485 02bc 2330F700 		sd	a5,0(a4)
 138:src/MemoryAllocator.cpp ****     firstFreeSeg->next=nullptr;
 486              		.loc 1 138 5 is_stmt 1
 138:src/MemoryAllocator.cpp ****     firstFreeSeg->next=nullptr;
 487              		.loc 1 138 19 is_stmt 0
 488 02c0 83B70600 		ld	a5,0(a3)
 138:src/MemoryAllocator.cpp ****     firstFreeSeg->next=nullptr;
 489              		.loc 1 138 23
 490 02c4 23B40700 		sd	zero,8(a5)
 491              		.loc 1 139 1
 492 02c8 03348100 		ld	s0,8(sp)
 493              		.cfi_restore 8
 494              		.cfi_def_cfa 2, 16
 495 02cc 13010101 		addi	sp,sp,16
 496              		.cfi_def_cfa_offset 0
 497 02d0 67800000 		jr	ra
 498              		.cfi_endproc
 499              	.LFE2:
 501              		.align	2
 503              	_GLOBAL__sub_I__ZN15MemoryAllocator12firstFreeSegE:
 504              	.LFB4:
 505              		.loc 1 139 1 is_stmt 1
 506              		.cfi_startproc
 507 02d4 130101FF 		addi	sp,sp,-16
 508              		.cfi_def_cfa_offset 16
 509 02d8 23341100 		sd	ra,8(sp)
 510 02dc 23308100 		sd	s0,0(sp)
 511              		.cfi_offset 1, -8
 512              		.cfi_offset 8, -16
 513 02e0 13040101 		addi	s0,sp,16
 514              		.cfi_def_cfa 8, 0
 515              		.loc 1 139 1 is_stmt 0
 516 02e4 B7050100 		li	a1,65536
 517 02e8 9385F5FF 		addi	a1,a1,-1
 518 02ec 13051000 		li	a0,1
 519 02f0 97000000 		call	_Z41__static_initialization_and_destruction_0ii
 519      E7800000 
 520              	.LVL55:
 521 02f8 83308100 		ld	ra,8(sp)
 522              		.cfi_restore 1
 523 02fc 03340100 		ld	s0,0(sp)
 524              		.cfi_restore 8
 525              		.cfi_def_cfa 2, 16
 526 0300 13010101 		addi	sp,sp,16
 527              		.cfi_def_cfa_offset 0
 528 0304 67800000 		jr	ra
 529              		.cfi_endproc
 530              	.LFE4:
 532              		.section	.init_array,"aw"
 533              		.align	3
 534 0000 00000000 		.dword	_GLOBAL__sub_I__ZN15MemoryAllocator12firstFreeSegE
 534      00000000 
 535              		.globl	_ZN15MemoryAllocator12firstFreeSegE
 536              		.bss
 537              		.align	3
 538              		.set	.LANCHOR0,. + 0
GAS LISTING /tmp/cclTZYqD.s 			page 16


 541              	_ZN15MemoryAllocator12firstFreeSegE:
 542 0000 00000000 		.zero	8
 542      00000000 
 543              		.text
 544              	.Letext0:
 545              		.file 2 "src/../h/../lib/hw.h"
 546              		.file 3 "src/../h/MemoryAllocator.hpp"
GAS LISTING /tmp/cclTZYqD.s 			page 17

