GAS LISTING /tmp/ccYEVC8S.s 			page 1


   1              		.file	"riscv.cpp"
   2              		.option pic
   3              		.option norelax
   4              		.text
   5              	.Ltext0:
   6              		.align	2
   7              		.globl	_ZN5Riscv17hardwareInterruptEv
   9              	_ZN5Riscv17hardwareInterruptEv:
  10              	.LFB36:
  11              		.file 1 "src/riscv.cpp"
   1:src/riscv.cpp **** //
   2:src/riscv.cpp **** // Created by os on 7/24/23.
   3:src/riscv.cpp **** //
   4:src/riscv.cpp **** //sa vezbi 7
   5:src/riscv.cpp **** #include "../h/riscv.hpp"
   6:src/riscv.cpp **** #include "../lib/console.h"
   7:src/riscv.cpp **** #include "../h/TCB.hpp"
   8:src/riscv.cpp **** #include "../h/MemoryAllocator.hpp"
   9:src/riscv.cpp **** #include "../test/printing.hpp"
  10:src/riscv.cpp **** #include "../h/_sem.hpp"
  11:src/riscv.cpp **** #include "../h/Scheduler.hpp"
  12:src/riscv.cpp **** #include "../h/_console.hpp"
  13:src/riscv.cpp **** 
  14:src/riscv.cpp **** Riscv::SleepingElem* Riscv::headSleeping=nullptr;
  15:src/riscv.cpp **** 
  16:src/riscv.cpp **** void Riscv::handleEcallException(){
  17:src/riscv.cpp ****     uint64 scause=r_scause();
  18:src/riscv.cpp **** 
  19:src/riscv.cpp ****     uint64 volatile a0;
  20:src/riscv.cpp ****     __asm__ volatile("ld %0, 0x50(fp)": "=r"(a0));
  21:src/riscv.cpp ****     uint64 volatile a1;
  22:src/riscv.cpp ****     __asm__ volatile("ld %0, 0x58(fp)": "=r"(a1));
  23:src/riscv.cpp ****     uint64 volatile a2;
  24:src/riscv.cpp ****     __asm__ volatile("ld %0, 0x60(fp)": "=r"(a2));
  25:src/riscv.cpp ****     uint64 volatile a3;
  26:src/riscv.cpp ****     __asm__ volatile("ld %0, 0x68(fp)": "=r"(a3));
  27:src/riscv.cpp ****     uint64 volatile a4;
  28:src/riscv.cpp ****     __asm__ volatile("ld %0, 0x70(fp)": "=r"(a4));
  29:src/riscv.cpp **** 
  30:src/riscv.cpp ****     if(scause==0x09UL || scause==0x08UL){
  31:src/riscv.cpp ****         //09 iz sist rezima, 08 iz korisnickog
  32:src/riscv.cpp ****         uint64 volatile sepc=r_sepc()+4;
  33:src/riscv.cpp ****         uint64 volatile sstatus=r_sstatus();
  34:src/riscv.cpp **** 
  35:src/riscv.cpp ****         if(a0==0x01){
  36:src/riscv.cpp ****             //mem_alloc
  37:src/riscv.cpp ****             void *ptr=MemoryAllocator::alloc(a1);
  38:src/riscv.cpp ****             __asm__ volatile("sd %0, 0x50(fp)": : "r"((uint64)ptr));
  39:src/riscv.cpp ****         }
  40:src/riscv.cpp ****         else if(a0==0x02){
  41:src/riscv.cpp ****             //mem_free
  42:src/riscv.cpp ****             int stat=MemoryAllocator::free((void*)a1);
  43:src/riscv.cpp ****             __asm__ volatile("sd %0, 0x50(fp)": : "r"(stat));
  44:src/riscv.cpp ****         }
  45:src/riscv.cpp **** 
  46:src/riscv.cpp ****         else if(a0==0x11){
  47:src/riscv.cpp ****             /*thread_create
GAS LISTING /tmp/ccYEVC8S.s 			page 2


  48:src/riscv.cpp ****             a1- thread_t* handle
  49:src/riscv.cpp ****              a2- *start_routine
  50:src/riscv.cpp ****              a3- void* arg
  51:src/riscv.cpp ****              a4- char* stack
  52:src/riscv.cpp ****             */
  53:src/riscv.cpp **** 
  54:src/riscv.cpp ****             TCB* handle= TCB::createThread((TCB::Body)a2, (char*)a4, (void*)a3);
  55:src/riscv.cpp **** 
  56:src/riscv.cpp ****             if(!handle){
  57:src/riscv.cpp ****                 __asm__ volatile("sd %0, 0x50(fp)": : "r"(-1));
  58:src/riscv.cpp ****             }
  59:src/riscv.cpp ****             else{
  60:src/riscv.cpp ****                 //*han=(thread_t)handle;
  61:src/riscv.cpp ****                 TCB** retHandle=(TCB**)a1;
  62:src/riscv.cpp ****                 *retHandle=handle;
  63:src/riscv.cpp ****                 __asm__ volatile("sd %0, 0x50(fp)": : "r"(0));
  64:src/riscv.cpp ****             }
  65:src/riscv.cpp **** 
  66:src/riscv.cpp ****         }
  67:src/riscv.cpp ****         else if(a0==0x12){
  68:src/riscv.cpp ****             //thread_exit()
  69:src/riscv.cpp ****             /*if(TCB::running->isFinished()){
  70:src/riscv.cpp ****                 __asm__ volatile("sd %0, 0x50(fp)": : "r"(-1));
  71:src/riscv.cpp ****             }
  72:src/riscv.cpp ****             else{
  73:src/riscv.cpp ****                 //TCB* exited=TCB::running;
  74:src/riscv.cpp ****                 TCB::running->setFinished(true);
  75:src/riscv.cpp ****                 TCB::dispatch();
  76:src/riscv.cpp ****                 //delete exited; ovde se nikad ne vraca
  77:src/riscv.cpp ****             }*/
  78:src/riscv.cpp ****             int stat=TCB::exit();
  79:src/riscv.cpp ****             __asm__ volatile("sd %0, 0x50(fp)": : "r"(stat));
  80:src/riscv.cpp ****         }
  81:src/riscv.cpp ****         else if(a0==0x13){
  82:src/riscv.cpp ****             //thread_dispatch()
  83:src/riscv.cpp ****             TCB::timeSliceCounter=0;
  84:src/riscv.cpp ****             TCB::dispatch();
  85:src/riscv.cpp ****         }
  86:src/riscv.cpp ****         else if(a0==0x41){
  87:src/riscv.cpp ****             //char getc();
  88:src/riscv.cpp **** 
  89:src/riscv.cpp ****             char c= _console::inputBuff_take();
  90:src/riscv.cpp ****             __asm__ volatile("sd %0, 0x50(fp)": : "r"(c));
  91:src/riscv.cpp **** 
  92:src/riscv.cpp ****             /*char c=__getc();
  93:src/riscv.cpp ****             __asm__ volatile("sd %0, 0x50(fp)": : "r"(c));*/
  94:src/riscv.cpp ****         }
  95:src/riscv.cpp ****         else if(a0==0x42){
  96:src/riscv.cpp ****             //void putc()
  97:src/riscv.cpp **** 
  98:src/riscv.cpp ****             char c=(char)a1;
  99:src/riscv.cpp ****             _console::outputBuff_put(c);
 100:src/riscv.cpp **** 
 101:src/riscv.cpp ****             //__putc((char)a1);
 102:src/riscv.cpp ****         }
 103:src/riscv.cpp ****         else if(a0==0x21){
 104:src/riscv.cpp ****             //sem_open
GAS LISTING /tmp/ccYEVC8S.s 			page 3


 105:src/riscv.cpp ****             //a1 - sem_t* handle
 106:src/riscv.cpp ****             //a2 - unsigned int init
 107:src/riscv.cpp ****             _sem* handle=_sem::open((int)a2);
 108:src/riscv.cpp ****             if(!handle){
 109:src/riscv.cpp ****                 __asm__ volatile("sd %0, 0x50(fp)": : "r"(-1));
 110:src/riscv.cpp ****             }
 111:src/riscv.cpp ****             else{
 112:src/riscv.cpp ****                 _sem** retHandle=(_sem**)a1;
 113:src/riscv.cpp ****                 *retHandle=handle;
 114:src/riscv.cpp ****                 __asm__ volatile("sd %0, 0x50(fp)": : "r"(0));
 115:src/riscv.cpp ****             }
 116:src/riscv.cpp ****         }
 117:src/riscv.cpp ****         else if(a0==0x23){
 118:src/riscv.cpp ****             //sem_wait(sem_t id)
 119:src/riscv.cpp ****             _sem* handle=(_sem*) a1;
 120:src/riscv.cpp ****             int stat=handle->wait();
 121:src/riscv.cpp ****             __asm__ volatile("sd %0, 0x50(fp)": : "r"(stat));
 122:src/riscv.cpp ****         }
 123:src/riscv.cpp ****         else if(a0==0x22){
 124:src/riscv.cpp ****             //sem_close(sem_t handle)
 125:src/riscv.cpp ****             _sem* handle=(_sem*) a1;
 126:src/riscv.cpp ****             int stat=handle->close();
 127:src/riscv.cpp ****             __asm__ volatile("sd %0, 0x50(fp)": : "r"(stat));
 128:src/riscv.cpp ****         }
 129:src/riscv.cpp ****         else if(a0==0x24){
 130:src/riscv.cpp ****             //sem_signal(sem_t id)
 131:src/riscv.cpp ****             _sem* handle=(_sem*) a1;
 132:src/riscv.cpp ****             int stat=handle->signal();
 133:src/riscv.cpp ****             __asm__ volatile("sd %0, 0x50(fp)": : "r"(stat));
 134:src/riscv.cpp ****         }
 135:src/riscv.cpp ****         else if(a0==0x14){
 136:src/riscv.cpp ****             //thread_join(thread_t)
 137:src/riscv.cpp ****             TCB::join((TCB*)a1);
 138:src/riscv.cpp ****         }
 139:src/riscv.cpp ****         else if(a0==0x31){
 140:src/riscv.cpp ****             //time_sleep(time_t)
 141:src/riscv.cpp ****             time_t time=(time_t)a1;
 142:src/riscv.cpp ****             int stat=Riscv::putToSleep(time);
 143:src/riscv.cpp ****             __asm__ volatile("sd %0, 0x50(fp)": : "r"(stat));
 144:src/riscv.cpp ****         }
 145:src/riscv.cpp **** 
 146:src/riscv.cpp ****         w_sstatus(sstatus);
 147:src/riscv.cpp ****         w_sepc(sepc);
 148:src/riscv.cpp ****     }
 149:src/riscv.cpp **** 
 150:src/riscv.cpp ****     else{
 151:src/riscv.cpp ****         printString("GRESKA:");
 152:src/riscv.cpp ****         printInt(scause);
 153:src/riscv.cpp ****         printString("\nsepc:");
 154:src/riscv.cpp ****         printInt(r_sepc());
 155:src/riscv.cpp ****         printString("\n");
 156:src/riscv.cpp **** 
 157:src/riscv.cpp ****         while(true){
 158:src/riscv.cpp ****             //TCB::dispatch();
 159:src/riscv.cpp ****         }
 160:src/riscv.cpp ****     }
 161:src/riscv.cpp **** 
GAS LISTING /tmp/ccYEVC8S.s 			page 4


 162:src/riscv.cpp **** }
 163:src/riscv.cpp **** 
 164:src/riscv.cpp **** void Riscv::timerInterrupt() {
 165:src/riscv.cpp ****     uint64 scause=r_scause();
 166:src/riscv.cpp ****     if(scause==0x8000000000000001UL){
 167:src/riscv.cpp ****         //prekid od tajmera, softverski prekid
 168:src/riscv.cpp **** 
 169:src/riscv.cpp ****         updateSleepingList();
 170:src/riscv.cpp **** 
 171:src/riscv.cpp ****         TCB::timeSliceCounter++;
 172:src/riscv.cpp ****         if(TCB::timeSliceCounter>=TCB::running->getTimeSlice()){
 173:src/riscv.cpp ****             uint64 volatile sepc=r_sepc();
 174:src/riscv.cpp ****             uint64 volatile sstatus=r_sstatus();
 175:src/riscv.cpp ****             TCB::timeSliceCounter=0;
 176:src/riscv.cpp ****             TCB::dispatch();
 177:src/riscv.cpp ****             w_sstatus(sstatus);
 178:src/riscv.cpp ****             w_sepc(sepc);
 179:src/riscv.cpp ****         }
 180:src/riscv.cpp ****         mc_sip(SIP_SSIP);
 181:src/riscv.cpp ****     }
 182:src/riscv.cpp **** }
 183:src/riscv.cpp **** 
 184:src/riscv.cpp **** void Riscv::hardwareInterrupt() {
  12              		.loc 1 184 33
  13              		.cfi_startproc
  14 0000 130101FD 		addi	sp,sp,-48
  15              		.cfi_def_cfa_offset 48
  16 0004 23341102 		sd	ra,40(sp)
  17 0008 23308102 		sd	s0,32(sp)
  18 000c 233C9100 		sd	s1,24(sp)
  19              		.cfi_offset 1, -8
  20              		.cfi_offset 8, -16
  21              		.cfi_offset 9, -24
  22 0010 13040103 		addi	s0,sp,48
  23              		.cfi_def_cfa 8, 0
 185:src/riscv.cpp ****     /*uint64 scause=r_scause();
 186:src/riscv.cpp ****     if(scause==0x8000000000000009UL){
 187:src/riscv.cpp ****         //prekid konzola
 188:src/riscv.cpp ****         console_handler();
 189:src/riscv.cpp ****     }*/
 190:src/riscv.cpp ****     uint64 scause=r_scause();
  24              		.loc 1 190 5
  25              	.LBB87:
  26              	.LBB88:
  27              		.file 2 "src/../h/riscv.hpp"
   1:src/../h/riscv.hpp **** //
   2:src/../h/riscv.hpp **** // Created by os on 7/24/23.
   3:src/../h/riscv.hpp **** //
   4:src/../h/riscv.hpp **** 
   5:src/../h/riscv.hpp **** #ifndef PROJECT_BASE_RISCV_HPP
   6:src/../h/riscv.hpp **** #define PROJECT_BASE_RISCV_HPP
   7:src/../h/riscv.hpp **** 
   8:src/../h/riscv.hpp **** #include "../lib/hw.h"
   9:src/../h/riscv.hpp **** #include "../h/TCB.hpp"
  10:src/../h/riscv.hpp **** //sa vezbi 7
  11:src/../h/riscv.hpp **** 
  12:src/../h/riscv.hpp **** class Riscv{
GAS LISTING /tmp/ccYEVC8S.s 			page 5


  13:src/../h/riscv.hpp **** 
  14:src/../h/riscv.hpp **** public:
  15:src/../h/riscv.hpp **** 
  16:src/../h/riscv.hpp ****     //supervisor previous privileged, previousInterruptEnable
  17:src/../h/riscv.hpp ****     //mora da bude ne inline da se poziva
  18:src/../h/riscv.hpp ****     static void popSppSpie();
  19:src/../h/riscv.hpp **** 
  20:src/../h/riscv.hpp ****     static uint64 r_scause();
  21:src/../h/riscv.hpp ****     static void w_scause(uint64 scause);
  22:src/../h/riscv.hpp ****     static uint64 r_sepc();
  23:src/../h/riscv.hpp ****     static void w_sepc(uint64 sepc);
  24:src/../h/riscv.hpp ****     static uint64 r_stvec();
  25:src/../h/riscv.hpp ****     static void w_stvec(uint64 stvec);
  26:src/../h/riscv.hpp ****     static uint64 r_stval();
  27:src/../h/riscv.hpp ****     static void w_stval(uint64 stval);
  28:src/../h/riscv.hpp **** 
  29:src/../h/riscv.hpp ****     enum BitMaskSStatus{
  30:src/../h/riscv.hpp ****         SSTATUS_SIE=(1<<1),
  31:src/../h/riscv.hpp ****         SSTATUS_SPIE=(1<<5),
  32:src/../h/riscv.hpp ****         SSTATUS_SPP=(1<<8)
  33:src/../h/riscv.hpp ****     };
  34:src/../h/riscv.hpp **** 
  35:src/../h/riscv.hpp ****     static void ms_sstatus(uint64 mask);
  36:src/../h/riscv.hpp ****     static void mc_sstatus(uint64 mask);
  37:src/../h/riscv.hpp ****     static uint64 r_sstatus();
  38:src/../h/riscv.hpp ****     static void w_sstatus(uint64 sstatus);
  39:src/../h/riscv.hpp **** 
  40:src/../h/riscv.hpp **** 
  41:src/../h/riscv.hpp ****     enum BitMaskSip{
  42:src/../h/riscv.hpp ****         SIP_SSIP=(1<<1),//software interrupt pending
  43:src/../h/riscv.hpp ****         SIP_STIP=(1 << 5),
  44:src/../h/riscv.hpp ****         SIP_SEIP=(1 << 9)
  45:src/../h/riscv.hpp ****     };
  46:src/../h/riscv.hpp **** 
  47:src/../h/riscv.hpp ****     static void ms_sip(uint64 mask);
  48:src/../h/riscv.hpp ****     static void mc_sip(uint64 mask);
  49:src/../h/riscv.hpp ****     static uint64 r_sip();
  50:src/../h/riscv.hpp ****     static void w_sip(uint64 sip);
  51:src/../h/riscv.hpp **** 
  52:src/../h/riscv.hpp ****     static void supervisorTrap();
  53:src/../h/riscv.hpp **** 
  54:src/../h/riscv.hpp ****     struct SleepingElem{
  55:src/../h/riscv.hpp ****         TCB* thr;
  56:src/../h/riscv.hpp ****         time_t toSleepRel;
  57:src/../h/riscv.hpp ****         SleepingElem* next;
  58:src/../h/riscv.hpp ****     };
  59:src/../h/riscv.hpp **** 
  60:src/../h/riscv.hpp ****     static int putToSleep(time_t);
  61:src/../h/riscv.hpp ****     static void updateSleepingList();
  62:src/../h/riscv.hpp **** 
  63:src/../h/riscv.hpp **** private:
  64:src/../h/riscv.hpp **** 
  65:src/../h/riscv.hpp ****     static void handleEcallException();
  66:src/../h/riscv.hpp ****     static void timerInterrupt();
  67:src/../h/riscv.hpp ****     static void hardwareInterrupt();
  68:src/../h/riscv.hpp **** 
  69:src/../h/riscv.hpp ****     static SleepingElem* headSleeping;
GAS LISTING /tmp/ccYEVC8S.s 			page 6


  70:src/../h/riscv.hpp **** 
  71:src/../h/riscv.hpp **** };
  72:src/../h/riscv.hpp **** 
  73:src/../h/riscv.hpp **** inline uint64 Riscv::r_scause() {
  74:src/../h/riscv.hpp ****     uint64 volatile scause;
  28              		.loc 2 74 5
  75:src/../h/riscv.hpp ****     __asm__ volatile("csrr %[scause], scause":[scause]"=r"(scause));
  29              		.loc 2 75 5
  30              		.loc 2 75 68 is_stmt 0
  31              	#APP
  32              	# 75 "src/../h/riscv.hpp" 1
  76              	    return scause;
  33              		csrr a5, scause
  34              	# 0 "" 2
  35              	#NO_APP
  36 0018 233CF4FC 		sd	a5,-40(s0)
  37              		.loc 2 76 5 is_stmt 1
  38              		.loc 2 76 12 is_stmt 0
  39 001c 033784FD 		ld	a4,-40(s0)
  40              	.LVL0:
  41              	.LBE88:
  42              	.LBE87:
 191:src/riscv.cpp ****     if(scause==0x8000000000000009UL){
  43              		.loc 1 191 5 is_stmt 1
  44              	.LBB89:
  45 0020 9307F0FF 		li	a5,-1
  46 0024 9397F703 		slli	a5,a5,63
  47 0028 93879700 		addi	a5,a5,9
  48 002c 630CF700 		beq	a4,a5,.L6
  49              	.LVL1:
  50              	.L1:
  51              	.LBE89:
 192:src/riscv.cpp ****         int intNumber=plic_claim();
 193:src/riscv.cpp **** 
 194:src/riscv.cpp ****         if(intNumber==CONSOLE_IRQ){
 195:src/riscv.cpp ****             //za getc
 196:src/riscv.cpp ****             while((*(char*)CONSOLE_STATUS) & CONSOLE_RX_STATUS_BIT){
 197:src/riscv.cpp ****                 char c= *(char*)CONSOLE_RX_DATA;
 198:src/riscv.cpp ****                 _console::inputBuff_put(c);
 199:src/riscv.cpp ****             }
 200:src/riscv.cpp ****         }
 201:src/riscv.cpp **** 
 202:src/riscv.cpp ****         plic_complete(intNumber);
 203:src/riscv.cpp ****     }
 204:src/riscv.cpp **** }
  52              		.loc 1 204 1 is_stmt 0
  53 0030 83308102 		ld	ra,40(sp)
  54              		.cfi_remember_state
  55              		.cfi_restore 1
  56 0034 03340102 		ld	s0,32(sp)
  57              		.cfi_restore 8
  58              		.cfi_def_cfa 2, 48
  59 0038 83348101 		ld	s1,24(sp)
  60              		.cfi_restore 9
  61 003c 13010103 		addi	sp,sp,48
  62              		.cfi_def_cfa_offset 0
  63 0040 67800000 		jr	ra
GAS LISTING /tmp/ccYEVC8S.s 			page 7


  64              	.LVL2:
  65              	.L6:
  66              		.cfi_restore_state
  67              	.LBB96:
  68              	.LBB90:
 192:src/riscv.cpp ****         int intNumber=plic_claim();
  69              		.loc 1 192 9 is_stmt 1
 192:src/riscv.cpp ****         int intNumber=plic_claim();
  70              		.loc 1 192 33 is_stmt 0
  71 0044 97000000 		call	plic_claim@plt
  71      E7800000 
  72              	.LVL3:
  73 004c 93040500 		mv	s1,a0
  74              	.LVL4:
 194:src/riscv.cpp ****             //za getc
  75              		.loc 1 194 9 is_stmt 1
  76              	.LBB91:
  77 0050 9307A000 		li	a5,10
  78 0054 630AF500 		beq	a0,a5,.L4
  79              	.LVL5:
  80              	.L3:
  81              	.LBE91:
 202:src/riscv.cpp ****     }
  82              		.loc 1 202 9
 202:src/riscv.cpp ****     }
  83              		.loc 1 202 22 is_stmt 0
  84 0058 13850400 		mv	a0,s1
  85 005c 97000000 		call	plic_complete@plt
  85      E7800000 
  86              	.LVL6:
  87              	.LBE90:
  88              	.LBE96:
  89              		.loc 1 204 1
  90 0064 6FF0DFFC 		j	.L1
  91              	.L4:
  92              	.LBB97:
  93              	.LBB95:
  94              	.LBB94:
  95              	.LBB92:
 196:src/riscv.cpp ****                 char c= *(char*)CONSOLE_RX_DATA;
  96              		.loc 1 196 13 is_stmt 1
 196:src/riscv.cpp ****                 char c= *(char*)CONSOLE_RX_DATA;
  97              		.loc 1 196 46
 196:src/riscv.cpp ****                 char c= *(char*)CONSOLE_RX_DATA;
  98              		.loc 1 196 20 is_stmt 0
  99 0068 97070000 		la	a5,CONSOLE_STATUS
  99      83B70700 
 100 0070 83B70700 		ld	a5,0(a5)
 101 0074 83C70700 		lbu	a5,0(a5)
 196:src/riscv.cpp ****                 char c= *(char*)CONSOLE_RX_DATA;
 102              		.loc 1 196 46
 103 0078 93F71700 		andi	a5,a5,1
 104 007c E38E07FC 		beqz	a5,.L3
 105              	.LBB93:
 197:src/riscv.cpp ****                 _console::inputBuff_put(c);
 106              		.loc 1 197 17 is_stmt 1
 197:src/riscv.cpp ****                 _console::inputBuff_put(c);
GAS LISTING /tmp/ccYEVC8S.s 			page 8


 107              		.loc 1 197 25 is_stmt 0
 108 0080 97070000 		la	a5,CONSOLE_RX_DATA
 108      83B70700 
 109 0088 83B70700 		ld	a5,0(a5)
 110              	.LVL7:
 198:src/riscv.cpp ****             }
 111              		.loc 1 198 17 is_stmt 1
 198:src/riscv.cpp ****             }
 112              		.loc 1 198 40 is_stmt 0
 113 008c 03C50700 		lbu	a0,0(a5)
 114 0090 97000000 		call	_ZN8_console13inputBuff_putEc@plt
 114      E7800000 
 115              	.LVL8:
 116              	.LBE93:
 196:src/riscv.cpp ****                 char c= *(char*)CONSOLE_RX_DATA;
 117              		.loc 1 196 13
 118 0098 6FF01FFD 		j	.L4
 119              	.LBE92:
 120              	.LBE94:
 121              	.LBE95:
 122              	.LBE97:
 123              		.cfi_endproc
 124              	.LFE36:
 126              		.align	2
 127              		.globl	_ZN5Riscv10popSppSpieEv
 129              	_ZN5Riscv10popSppSpieEv:
 130              	.LFB37:
 205:src/riscv.cpp **** 
 206:src/riscv.cpp **** 
 207:src/riscv.cpp **** 
 208:src/riscv.cpp **** void Riscv::popSppSpie() {
 131              		.loc 1 208 26 is_stmt 1
 132              		.cfi_startproc
 133 009c 130101FF 		addi	sp,sp,-16
 134              		.cfi_def_cfa_offset 16
 135 00a0 23348100 		sd	s0,8(sp)
 136              		.cfi_offset 8, -8
 137 00a4 13040101 		addi	s0,sp,16
 138              		.cfi_def_cfa 8, 0
 209:src/riscv.cpp ****     Riscv::ms_sstatus(SSTATUS_SPIE);
 139              		.loc 1 209 5
 140              	.LVL9:
 141              	.LBB98:
 142              	.LBB99:
  77:src/../h/riscv.hpp **** }
  78:src/../h/riscv.hpp **** inline void Riscv::w_scause(uint64 scause) {
  79:src/../h/riscv.hpp ****     __asm__ volatile("csrw scause, %[scause]"::[scause]"r"(scause));
  80:src/../h/riscv.hpp **** }
  81:src/../h/riscv.hpp **** 
  82:src/../h/riscv.hpp **** inline uint64 Riscv::r_sepc(){
  83:src/../h/riscv.hpp ****     uint64 volatile sepc;
  84:src/../h/riscv.hpp ****     __asm__ volatile("csrr %[sepc], sepc":[sepc]"=r"(sepc));
  85:src/../h/riscv.hpp ****     return sepc;
  86:src/../h/riscv.hpp **** }
  87:src/../h/riscv.hpp **** inline void Riscv::w_sepc(uint64 sepc) {
  88:src/../h/riscv.hpp ****     __asm__ volatile("csrw sepc, %[sepc]"::[sepc]"r"(sepc));
  89:src/../h/riscv.hpp **** }
GAS LISTING /tmp/ccYEVC8S.s 			page 9


  90:src/../h/riscv.hpp **** inline uint64 Riscv::r_stvec(){
  91:src/../h/riscv.hpp ****     uint64 volatile stvec;
  92:src/../h/riscv.hpp ****     __asm__ volatile("csrr %[stvec], stvec":[stvec]"=r"(stvec));
  93:src/../h/riscv.hpp ****     return stvec;
  94:src/../h/riscv.hpp **** }
  95:src/../h/riscv.hpp **** inline void Riscv::w_stvec(uint64 stvec) {
  96:src/../h/riscv.hpp ****     __asm__ volatile("csrw stvec, %[stvec]"::[stvec]"r"(stvec));
  97:src/../h/riscv.hpp **** }
  98:src/../h/riscv.hpp **** inline uint64 Riscv::r_stval(){
  99:src/../h/riscv.hpp ****     uint64 volatile stval;
 100:src/../h/riscv.hpp ****     __asm__ volatile("csrr %[stval], stval":[stval]"=r"(stval));
 101:src/../h/riscv.hpp ****     return stval;
 102:src/../h/riscv.hpp **** }
 103:src/../h/riscv.hpp **** inline void Riscv::w_stval(uint64 stval) {
 104:src/../h/riscv.hpp ****     __asm__ volatile("csrw stval, %[stval]"::[stval]"r"(stval));
 105:src/../h/riscv.hpp **** }
 106:src/../h/riscv.hpp **** 
 107:src/../h/riscv.hpp **** inline void Riscv::ms_sip(uint64 mask) {
 108:src/../h/riscv.hpp ****     __asm__ volatile("csrs sip, %[mask]"::[mask]"r"(mask));
 109:src/../h/riscv.hpp **** }
 110:src/../h/riscv.hpp **** inline void Riscv::mc_sip(uint64 mask) {
 111:src/../h/riscv.hpp ****     __asm__ volatile("csrc sip, %[mask]"::[mask]"r"(mask));
 112:src/../h/riscv.hpp **** }
 113:src/../h/riscv.hpp **** 
 114:src/../h/riscv.hpp **** 
 115:src/../h/riscv.hpp **** inline uint64 Riscv::r_sip(){
 116:src/../h/riscv.hpp ****     uint64 volatile sip;
 117:src/../h/riscv.hpp ****     __asm__ volatile("csrr %[sip], sip":[sip]"=r"(sip));
 118:src/../h/riscv.hpp ****     return sip;
 119:src/../h/riscv.hpp **** }
 120:src/../h/riscv.hpp **** inline void Riscv::w_sip(uint64 sip) {
 121:src/../h/riscv.hpp ****     __asm__ volatile("csrw sip, %[sip]"::[sip]"r"(sip));
 122:src/../h/riscv.hpp **** }
 123:src/../h/riscv.hpp **** 
 124:src/../h/riscv.hpp **** inline void Riscv::ms_sstatus(uint64 mask) {
 125:src/../h/riscv.hpp ****     __asm__ volatile("csrs sstatus, %[mask]"::[mask]"r"(mask));
 143              		.loc 2 125 5
 144              		.loc 2 125 63 is_stmt 0
 145 00a8 93070002 		li	a5,32
 146              	#APP
 147              	# 125 "src/../h/riscv.hpp" 1
 126              	}
 148              		csrs sstatus, a5
 149              	# 0 "" 2
 150              	.LVL10:
 151              	#NO_APP
 152              	.LBE99:
 153              	.LBE98:
 210:src/riscv.cpp ****     if(TCB::newThrUserMode){
 154              		.loc 1 210 5 is_stmt 1
 155 00b0 97070000 		la	a5,_ZN3TCB14newThrUserModeE
 155      83B70700 
 156 00b8 83C70700 		lbu	a5,0(a5)
 157 00bc 63800702 		beqz	a5,.L8
 211:src/riscv.cpp ****         Riscv::mc_sstatus(SSTATUS_SPP);
 158              		.loc 1 211 9
 159              	.LVL11:
GAS LISTING /tmp/ccYEVC8S.s 			page 10


 160              	.LBB100:
 161              	.LBB101:
 127:src/../h/riscv.hpp **** 
 128:src/../h/riscv.hpp **** inline uint64 Riscv::r_sstatus(){
 129:src/../h/riscv.hpp ****     uint64 volatile sstatus;
 130:src/../h/riscv.hpp ****     __asm__ volatile("csrr %[sstatus], sstatus":[sstatus]"=r"(sstatus));
 131:src/../h/riscv.hpp ****     return sstatus;
 132:src/../h/riscv.hpp **** }
 133:src/../h/riscv.hpp **** inline void Riscv::w_sstatus(uint64 sstatus) {
 134:src/../h/riscv.hpp ****     __asm__ volatile("csrw sstatus, %[sstatus]"::[sstatus]"r"(sstatus));
 135:src/../h/riscv.hpp **** }
 136:src/../h/riscv.hpp **** 
 137:src/../h/riscv.hpp **** inline void Riscv::mc_sstatus(uint64 mask) {
 138:src/../h/riscv.hpp ****     __asm__ volatile("csrc sstatus, %[mask]"::[mask]"r"(mask));
 162              		.loc 2 138 5
 163              		.loc 2 138 63 is_stmt 0
 164 00c0 93070010 		li	a5,256
 165              	#APP
 166              	# 138 "src/../h/riscv.hpp" 1
 139              	}
 167              		csrc sstatus, a5
 168              	# 0 "" 2
 169              	.LVL12:
 170              	#NO_APP
 171              	.L9:
 172              	.LBE101:
 173              	.LBE100:
 212:src/riscv.cpp ****     }
 213:src/riscv.cpp ****     else{
 214:src/riscv.cpp ****         Riscv::ms_sstatus(SSTATUS_SPP);
 215:src/riscv.cpp ****     }
 216:src/riscv.cpp ****     __asm__ volatile("csrw sepc, ra");
 174              		.loc 1 216 5 is_stmt 1
 175              		.loc 1 216 38 is_stmt 0
 176              	#APP
 177              	# 216 "src/riscv.cpp" 1
 217              	    __asm__ volatile("sret");
 178              		csrw sepc, ra
 179              	# 0 "" 2
 180              		.loc 1 217 5 is_stmt 1
 181              		.loc 1 217 29 is_stmt 0
 182              	# 217 "src/riscv.cpp" 1
 218              	}
 183              		sret
 184              	# 0 "" 2
 185              		.loc 1 218 1
 186              	#NO_APP
 187 00d0 03348100 		ld	s0,8(sp)
 188              		.cfi_remember_state
 189              		.cfi_restore 8
 190              		.cfi_def_cfa 2, 16
 191 00d4 13010101 		addi	sp,sp,16
 192              		.cfi_def_cfa_offset 0
 193 00d8 67800000 		jr	ra
 194              	.L8:
 195              		.cfi_restore_state
 214:src/riscv.cpp ****     }
GAS LISTING /tmp/ccYEVC8S.s 			page 11


 196              		.loc 1 214 9 is_stmt 1
 197              	.LVL13:
 198              	.LBB102:
 199              	.LBB103:
 125:src/../h/riscv.hpp **** }
 200              		.loc 2 125 5
 125:src/../h/riscv.hpp **** }
 201              		.loc 2 125 63 is_stmt 0
 202 00dc 93070010 		li	a5,256
 203              	#APP
 204              	# 125 "src/../h/riscv.hpp" 1
 126:src/../h/riscv.hpp **** 
 205              		csrs sstatus, a5
 206              	# 0 "" 2
 207              		.loc 2 126 1
 208              	#NO_APP
 209 00e4 6FF05FFE 		j	.L9
 210              	.LBE103:
 211              	.LBE102:
 212              		.cfi_endproc
 213              	.LFE37:
 215              		.align	2
 216              		.globl	_ZN5Riscv10putToSleepEm
 218              	_ZN5Riscv10putToSleepEm:
 219              	.LFB38:
 219:src/riscv.cpp **** 
 220:src/riscv.cpp **** 
 221:src/riscv.cpp **** int Riscv::putToSleep(time_t time) {
 220              		.loc 1 221 36 is_stmt 1
 221              		.cfi_startproc
 222              	.LVL14:
 222:src/riscv.cpp ****     if(time<=0)return -1;
 223              		.loc 1 222 5
 224 00e8 63040510 		beqz	a0,.L20
 221:src/riscv.cpp ****     if(time<=0)return -1;
 225              		.loc 1 221 36 is_stmt 0
 226 00ec 130101FE 		addi	sp,sp,-32
 227              		.cfi_def_cfa_offset 32
 228 00f0 233C1100 		sd	ra,24(sp)
 229 00f4 23388100 		sd	s0,16(sp)
 230 00f8 23349100 		sd	s1,8(sp)
 231 00fc 23302101 		sd	s2,0(sp)
 232              		.cfi_offset 1, -8
 233              		.cfi_offset 8, -16
 234              		.cfi_offset 9, -24
 235              		.cfi_offset 18, -32
 236 0100 13040102 		addi	s0,sp,32
 237              		.cfi_def_cfa 8, 0
 238 0104 93040500 		mv	s1,a0
 223:src/riscv.cpp ****     TCB::running->setSleeping(true);
 239              		.loc 1 223 5 is_stmt 1
 240              		.loc 1 223 30 is_stmt 0
 241 0108 17090000 		la	s2,_ZN3TCB7runningE
 241      03390900 
 242 0110 83370900 		ld	a5,0(s2)
 243              	.LVL15:
 244              	.LBB104:
GAS LISTING /tmp/ccYEVC8S.s 			page 12


 245              	.LBB105:
 246              		.file 3 "src/../h/../h/TCB.hpp"
   1:src/../h/../h/TCB.hpp **** //
   2:src/../h/../h/TCB.hpp **** // Created by os on 7/18/23.
   3:src/../h/../h/TCB.hpp **** //
   4:src/../h/../h/TCB.hpp **** 
   5:src/../h/../h/TCB.hpp **** //sa vezbi 7
   6:src/../h/../h/TCB.hpp **** 
   7:src/../h/../h/TCB.hpp **** #ifndef PROJECT_BASE_TCB_HPP
   8:src/../h/../h/TCB.hpp **** #define PROJECT_BASE_TCB_HPP
   9:src/../h/../h/TCB.hpp **** 
  10:src/../h/../h/TCB.hpp **** #include "../lib/hw.h"
  11:src/../h/../h/TCB.hpp **** 
  12:src/../h/../h/TCB.hpp **** class TCB{
  13:src/../h/../h/TCB.hpp **** public:
  14:src/../h/../h/TCB.hpp ****     virtual ~TCB();
  15:src/../h/../h/TCB.hpp **** 
  16:src/../h/../h/TCB.hpp ****     bool isBlocked() const {
  17:src/../h/../h/TCB.hpp ****         return blocked;
  18:src/../h/../h/TCB.hpp ****     }
  19:src/../h/../h/TCB.hpp **** 
  20:src/../h/../h/TCB.hpp ****     void setBlocked(bool blocked) {
  21:src/../h/../h/TCB.hpp ****         TCB::blocked = blocked;
  22:src/../h/../h/TCB.hpp ****     }
  23:src/../h/../h/TCB.hpp **** 
  24:src/../h/../h/TCB.hpp ****     bool isFinished() const{
  25:src/../h/../h/TCB.hpp ****         return finished;
  26:src/../h/../h/TCB.hpp ****     }
  27:src/../h/../h/TCB.hpp **** 
  28:src/../h/../h/TCB.hpp ****     void setFinished(bool finished){
  29:src/../h/../h/TCB.hpp ****         TCB::finished = finished;
  30:src/../h/../h/TCB.hpp ****     }
  31:src/../h/../h/TCB.hpp **** 
  32:src/../h/../h/TCB.hpp ****     uint64 getTimeSlice() const{
  33:src/../h/../h/TCB.hpp ****         return timeSlice;
  34:src/../h/../h/TCB.hpp ****     }
  35:src/../h/../h/TCB.hpp **** 
  36:src/../h/../h/TCB.hpp ****     bool isSleeping() const {
  37:src/../h/../h/TCB.hpp ****         return sleeping;
  38:src/../h/../h/TCB.hpp ****     }
  39:src/../h/../h/TCB.hpp **** 
  40:src/../h/../h/TCB.hpp ****     void setSleeping(bool sleeping) {
  41:src/../h/../h/TCB.hpp ****         TCB::sleeping = sleeping;
 247              		.loc 3 41 9 is_stmt 1
 248              		.loc 3 41 23 is_stmt 0
 249 0114 13071000 		li	a4,1
 250 0118 A380E704 		sb	a4,65(a5)
 251              	.LVL16:
 252              	.LBE105:
 253              	.LBE104:
 224:src/riscv.cpp **** 
 225:src/riscv.cpp ****     SleepingElem* newElem=(SleepingElem*)MemoryAllocator::alloc((sizeof(SleepingElem)+MEM_BLOCK_SIZ
 254              		.loc 1 225 5 is_stmt 1
 255              		.loc 1 225 64 is_stmt 0
 256 011c 13051000 		li	a0,1
 257              	.LVL17:
 258 0120 97000000 		call	_ZN15MemoryAllocator5allocEm@plt
GAS LISTING /tmp/ccYEVC8S.s 			page 13


 258      E7800000 
 259              	.LVL18:
 226:src/riscv.cpp ****     newElem->thr=TCB::running;
 260              		.loc 1 226 5 is_stmt 1
 261              		.loc 1 226 17 is_stmt 0
 262 0128 83370900 		ld	a5,0(s2)
 263 012c 2330F500 		sd	a5,0(a0)
 227:src/riscv.cpp **** 
 228:src/riscv.cpp ****     if(!Riscv::headSleeping){
 264              		.loc 1 228 5 is_stmt 1
 265              	.LBB106:
 266              		.loc 1 228 8 is_stmt 0
 267 0130 17060000 		ld	a2,.LANCHOR0
 267      03360600 
 268              		.loc 1 228 5
 269 0138 630C0604 		beqz	a2,.L25
 270              	.LBE106:
 229:src/riscv.cpp ****         newElem->toSleepRel=time;
 230:src/riscv.cpp ****         newElem->next=nullptr;
 231:src/riscv.cpp ****         headSleeping=newElem;
 232:src/riscv.cpp ****     }
 233:src/riscv.cpp ****     else{
 234:src/riscv.cpp ****         if(time<=Riscv::headSleeping->toSleepRel){
 271              		.loc 1 234 9 is_stmt 1
 272              	.LBB110:
 273              	.LBB107:
 274              		.loc 1 234 39 is_stmt 0
 275 013c 03378600 		ld	a4,8(a2)
 276              		.loc 1 234 9
 277 0140 63629706 		bltu	a4,s1,.L15
 235:src/riscv.cpp ****             newElem->toSleepRel=time;
 278              		.loc 1 235 13 is_stmt 1
 279              		.loc 1 235 32 is_stmt 0
 280 0144 23349500 		sd	s1,8(a0)
 236:src/riscv.cpp ****             newElem->next=Riscv::headSleeping;
 281              		.loc 1 236 13 is_stmt 1
 282              		.loc 1 236 26 is_stmt 0
 283 0148 2338C500 		sd	a2,16(a0)
 237:src/riscv.cpp ****             headSleeping->toSleepRel-=time;
 284              		.loc 1 237 13 is_stmt 1
 285              		.loc 1 237 37 is_stmt 0
 286 014c 03378600 		ld	a4,8(a2)
 287 0150 33079740 		sub	a4,a4,s1
 288 0154 2334E600 		sd	a4,8(a2)
 238:src/riscv.cpp ****             headSleeping=newElem;
 289              		.loc 1 238 13 is_stmt 1
 290              		.loc 1 238 25 is_stmt 0
 291 0158 97070000 		sd	a0,.LANCHOR0,a5
 291      23B0A700 
 292              	.L14:
 293              	.LBE107:
 294              	.LBE110:
 239:src/riscv.cpp ****         }
 240:src/riscv.cpp ****         else{
 241:src/riscv.cpp ****             time_t relTime=time-Riscv::headSleeping->toSleepRel;
 242:src/riscv.cpp ****             SleepingElem* pom=headSleeping->next;
 243:src/riscv.cpp ****             SleepingElem* prev=headSleeping;
GAS LISTING /tmp/ccYEVC8S.s 			page 14


 244:src/riscv.cpp ****             while(pom!=nullptr && relTime>pom->toSleepRel){
 245:src/riscv.cpp ****                 relTime-=pom->toSleepRel;
 246:src/riscv.cpp ****                 prev=pom;
 247:src/riscv.cpp ****                 pom=pom->next;
 248:src/riscv.cpp ****             }
 249:src/riscv.cpp ****             if(pom==nullptr){
 250:src/riscv.cpp ****                 newElem->next= nullptr;
 251:src/riscv.cpp ****             }
 252:src/riscv.cpp ****             else{
 253:src/riscv.cpp ****                 newElem->next=pom;
 254:src/riscv.cpp ****                 pom->toSleepRel-=relTime;
 255:src/riscv.cpp ****             }
 256:src/riscv.cpp ****             newElem->toSleepRel=relTime;
 257:src/riscv.cpp ****             prev->next=newElem;
 258:src/riscv.cpp ****         }
 259:src/riscv.cpp ****     }
 260:src/riscv.cpp **** 
 261:src/riscv.cpp ****     TCB::timeSliceCounter=0;
 295              		.loc 1 261 5 is_stmt 1
 296              		.loc 1 261 26 is_stmt 0
 297 0160 97070000 		la	a5,_ZN3TCB16timeSliceCounterE
 297      83B70700 
 298 0168 23B00700 		sd	zero,0(a5)
 262:src/riscv.cpp ****     TCB::dispatch();
 299              		.loc 1 262 5 is_stmt 1
 300              		.loc 1 262 18 is_stmt 0
 301 016c 97000000 		call	_ZN3TCB8dispatchEv@plt
 301      E7800000 
 302              	.LVL19:
 263:src/riscv.cpp ****     return 0;
 303              		.loc 1 263 5 is_stmt 1
 304              		.loc 1 263 12 is_stmt 0
 305 0174 13050000 		li	a0,0
 264:src/riscv.cpp **** }
 306              		.loc 1 264 1
 307 0178 83308101 		ld	ra,24(sp)
 308              		.cfi_remember_state
 309              		.cfi_restore 1
 310 017c 03340101 		ld	s0,16(sp)
 311              		.cfi_restore 8
 312              		.cfi_def_cfa 2, 32
 313 0180 83348100 		ld	s1,8(sp)
 314              		.cfi_restore 9
 315              	.LVL20:
 316 0184 03390100 		ld	s2,0(sp)
 317              		.cfi_restore 18
 318 0188 13010102 		addi	sp,sp,32
 319              		.cfi_def_cfa_offset 0
 320 018c 67800000 		jr	ra
 321              	.LVL21:
 322              	.L25:
 323              		.cfi_restore_state
 324              	.LBB111:
 229:src/riscv.cpp ****         newElem->next=nullptr;
 325              		.loc 1 229 9 is_stmt 1
 229:src/riscv.cpp ****         newElem->next=nullptr;
 326              		.loc 1 229 28 is_stmt 0
GAS LISTING /tmp/ccYEVC8S.s 			page 15


 327 0190 23349500 		sd	s1,8(a0)
 230:src/riscv.cpp ****         headSleeping=newElem;
 328              		.loc 1 230 9 is_stmt 1
 230:src/riscv.cpp ****         headSleeping=newElem;
 329              		.loc 1 230 22 is_stmt 0
 330 0194 23380500 		sd	zero,16(a0)
 231:src/riscv.cpp ****     }
 331              		.loc 1 231 9 is_stmt 1
 231:src/riscv.cpp ****     }
 332              		.loc 1 231 21 is_stmt 0
 333 0198 97070000 		sd	a0,.LANCHOR0,a5
 333      23B0A700 
 334 01a0 6FF01FFC 		j	.L14
 335              	.L15:
 336              	.LBB109:
 337              	.LBB108:
 241:src/riscv.cpp ****             SleepingElem* pom=headSleeping->next;
 338              		.loc 1 241 13 is_stmt 1
 241:src/riscv.cpp ****             SleepingElem* pom=headSleeping->next;
 339              		.loc 1 241 20 is_stmt 0
 340 01a4 3387E440 		sub	a4,s1,a4
 341              	.LVL22:
 242:src/riscv.cpp ****             SleepingElem* prev=headSleeping;
 342              		.loc 1 242 13 is_stmt 1
 242:src/riscv.cpp ****             SleepingElem* prev=headSleeping;
 343              		.loc 1 242 27 is_stmt 0
 344 01a8 83370601 		ld	a5,16(a2)
 345              	.LVL23:
 243:src/riscv.cpp ****             while(pom!=nullptr && relTime>pom->toSleepRel){
 346              		.loc 1 243 13 is_stmt 1
 347              	.L17:
 244:src/riscv.cpp ****                 relTime-=pom->toSleepRel;
 348              		.loc 1 244 13
 244:src/riscv.cpp ****                 relTime-=pom->toSleepRel;
 349              		.loc 1 244 32
 350 01ac 638E0700 		beqz	a5,.L16
 244:src/riscv.cpp ****                 relTime-=pom->toSleepRel;
 351              		.loc 1 244 48 is_stmt 0 discriminator 1
 352 01b0 83B68700 		ld	a3,8(a5)
 244:src/riscv.cpp ****                 relTime-=pom->toSleepRel;
 353              		.loc 1 244 32 discriminator 1
 354 01b4 63FAE600 		bgeu	a3,a4,.L16
 245:src/riscv.cpp ****                 prev=pom;
 355              		.loc 1 245 17 is_stmt 1
 245:src/riscv.cpp ****                 prev=pom;
 356              		.loc 1 245 24 is_stmt 0
 357 01b8 3307D740 		sub	a4,a4,a3
 358              	.LVL24:
 246:src/riscv.cpp ****                 pom=pom->next;
 359              		.loc 1 246 17 is_stmt 1
 247:src/riscv.cpp ****             }
 360              		.loc 1 247 17
 246:src/riscv.cpp ****                 pom=pom->next;
 361              		.loc 1 246 21 is_stmt 0
 362 01bc 13860700 		mv	a2,a5
 247:src/riscv.cpp ****             }
 363              		.loc 1 247 20
GAS LISTING /tmp/ccYEVC8S.s 			page 16


 364 01c0 83B70701 		ld	a5,16(a5)
 365              	.LVL25:
 244:src/riscv.cpp ****                 relTime-=pom->toSleepRel;
 366              		.loc 1 244 13
 367 01c4 6FF09FFE 		j	.L17
 368              	.L16:
 249:src/riscv.cpp ****                 newElem->next= nullptr;
 369              		.loc 1 249 13 is_stmt 1
 370 01c8 63800702 		beqz	a5,.L26
 253:src/riscv.cpp ****                 pom->toSleepRel-=relTime;
 371              		.loc 1 253 17
 253:src/riscv.cpp ****                 pom->toSleepRel-=relTime;
 372              		.loc 1 253 30 is_stmt 0
 373 01cc 2338F500 		sd	a5,16(a0)
 254:src/riscv.cpp ****             }
 374              		.loc 1 254 17 is_stmt 1
 254:src/riscv.cpp ****             }
 375              		.loc 1 254 32 is_stmt 0
 376 01d0 83B68700 		ld	a3,8(a5)
 377 01d4 B386E640 		sub	a3,a3,a4
 378 01d8 23B4D700 		sd	a3,8(a5)
 379              	.L19:
 256:src/riscv.cpp ****             prev->next=newElem;
 380              		.loc 1 256 13 is_stmt 1
 256:src/riscv.cpp ****             prev->next=newElem;
 381              		.loc 1 256 32 is_stmt 0
 382 01dc 2334E500 		sd	a4,8(a0)
 257:src/riscv.cpp ****         }
 383              		.loc 1 257 13 is_stmt 1
 257:src/riscv.cpp ****         }
 384              		.loc 1 257 23 is_stmt 0
 385 01e0 2338A600 		sd	a0,16(a2)
 386 01e4 6FF0DFF7 		j	.L14
 387              	.L26:
 250:src/riscv.cpp ****             }
 388              		.loc 1 250 17 is_stmt 1
 250:src/riscv.cpp ****             }
 389              		.loc 1 250 30 is_stmt 0
 390 01e8 23380500 		sd	zero,16(a0)
 391 01ec 6FF01FFF 		j	.L19
 392              	.LVL26:
 393              	.L20:
 394              		.cfi_def_cfa_register 2
 395              		.cfi_restore 1
 396              		.cfi_restore 8
 397              		.cfi_restore 9
 398              		.cfi_restore 18
 399              	.LBE108:
 400              	.LBE109:
 401              	.LBE111:
 222:src/riscv.cpp ****     TCB::running->setSleeping(true);
 402              		.loc 1 222 24
 403 01f0 1305F0FF 		li	a0,-1
 404              	.LVL27:
 405              		.loc 1 264 1
 406 01f4 67800000 		ret
 407              		.cfi_endproc
GAS LISTING /tmp/ccYEVC8S.s 			page 17


 408              	.LFE38:
 410              		.section	.rodata.str1.8,"aMS",@progbits,1
 411              		.align	3
 412              	.LC0:
 413 0000 47524553 		.string	"GRESKA:"
 413      4B413A00 
 414              		.align	3
 415              	.LC1:
 416 0008 0A736570 		.string	"\nsepc:"
 416      633A00
 417 000f 00       		.align	3
 418              	.LC2:
 419 0010 0A00     		.string	"\n"
 420              		.text
 421              		.align	2
 422              		.globl	_ZN5Riscv20handleEcallExceptionEv
 424              	_ZN5Riscv20handleEcallExceptionEv:
 425              	.LFB34:
  16:src/riscv.cpp ****     uint64 scause=r_scause();
 426              		.loc 1 16 35 is_stmt 1
 427              		.cfi_startproc
 428 01f8 130101F9 		addi	sp,sp,-112
 429              		.cfi_def_cfa_offset 112
 430 01fc 23341106 		sd	ra,104(sp)
 431 0200 23308106 		sd	s0,96(sp)
 432 0204 233C9104 		sd	s1,88(sp)
 433              		.cfi_offset 1, -8
 434              		.cfi_offset 8, -16
 435              		.cfi_offset 9, -24
 436 0208 13040107 		addi	s0,sp,112
 437              		.cfi_def_cfa 8, 0
  17:src/riscv.cpp **** 
 438              		.loc 1 17 5
 439              	.LBB112:
 440              	.LBB113:
  74:src/../h/riscv.hpp ****     __asm__ volatile("csrr %[scause], scause":[scause]"=r"(scause));
 441              		.loc 2 74 5
  75:src/../h/riscv.hpp ****     return scause;
 442              		.loc 2 75 5
  75:src/../h/riscv.hpp ****     return scause;
 443              		.loc 2 75 68 is_stmt 0
 444              	#APP
 445              	# 75 "src/../h/riscv.hpp" 1
 446              		csrr a5, scause
 447              	# 0 "" 2
 448              	#NO_APP
 449 0210 2330F4FA 		sd	a5,-96(s0)
  76:src/../h/riscv.hpp **** }
 450              		.loc 2 76 5 is_stmt 1
  76:src/../h/riscv.hpp **** }
 451              		.loc 2 76 12 is_stmt 0
 452 0214 833404FA 		ld	s1,-96(s0)
 453              	.LVL28:
 454              	.LBE113:
 455              	.LBE112:
  19:src/riscv.cpp ****     __asm__ volatile("ld %0, 0x50(fp)": "=r"(a0));
 456              		.loc 1 19 5 is_stmt 1
GAS LISTING /tmp/ccYEVC8S.s 			page 18


  20:src/riscv.cpp ****     uint64 volatile a1;
 457              		.loc 1 20 5
  20:src/riscv.cpp ****     uint64 volatile a1;
 458              		.loc 1 20 50 is_stmt 0
 459              	#APP
 460              	# 20 "src/riscv.cpp" 1
 461              		ld a5, 0x50(fp)
 462              	# 0 "" 2
 463              	#NO_APP
 464 021c 233CF4FC 		sd	a5,-40(s0)
  21:src/riscv.cpp ****     __asm__ volatile("ld %0, 0x58(fp)": "=r"(a1));
 465              		.loc 1 21 5 is_stmt 1
  22:src/riscv.cpp ****     uint64 volatile a2;
 466              		.loc 1 22 5
  22:src/riscv.cpp ****     uint64 volatile a2;
 467              		.loc 1 22 50 is_stmt 0
 468              	#APP
 469              	# 22 "src/riscv.cpp" 1
 470              		ld a5, 0x58(fp)
 471              	# 0 "" 2
 472              	#NO_APP
 473 0224 2338F4FC 		sd	a5,-48(s0)
  23:src/riscv.cpp ****     __asm__ volatile("ld %0, 0x60(fp)": "=r"(a2));
 474              		.loc 1 23 5 is_stmt 1
  24:src/riscv.cpp ****     uint64 volatile a3;
 475              		.loc 1 24 5
  24:src/riscv.cpp ****     uint64 volatile a3;
 476              		.loc 1 24 50 is_stmt 0
 477              	#APP
 478              	# 24 "src/riscv.cpp" 1
 479              		ld a5, 0x60(fp)
 480              	# 0 "" 2
 481              	#NO_APP
 482 022c 2334F4FC 		sd	a5,-56(s0)
  25:src/riscv.cpp ****     __asm__ volatile("ld %0, 0x68(fp)": "=r"(a3));
 483              		.loc 1 25 5 is_stmt 1
  26:src/riscv.cpp ****     uint64 volatile a4;
 484              		.loc 1 26 5
  26:src/riscv.cpp ****     uint64 volatile a4;
 485              		.loc 1 26 50 is_stmt 0
 486              	#APP
 487              	# 26 "src/riscv.cpp" 1
 488              		ld a5, 0x68(fp)
 489              	# 0 "" 2
 490              	#NO_APP
 491 0234 2330F4FC 		sd	a5,-64(s0)
  27:src/riscv.cpp ****     __asm__ volatile("ld %0, 0x70(fp)": "=r"(a4));
 492              		.loc 1 27 5 is_stmt 1
  28:src/riscv.cpp **** 
 493              		.loc 1 28 5
  28:src/riscv.cpp **** 
 494              		.loc 1 28 50 is_stmt 0
 495              	#APP
 496              	# 28 "src/riscv.cpp" 1
 497              		ld a5, 0x70(fp)
 498              	# 0 "" 2
 499              	#NO_APP
GAS LISTING /tmp/ccYEVC8S.s 			page 19


 500 023c 233CF4FA 		sd	a5,-72(s0)
  30:src/riscv.cpp ****         //09 iz sist rezima, 08 iz korisnickog
 501              		.loc 1 30 5 is_stmt 1
 502              	.LBB114:
  30:src/riscv.cpp ****         //09 iz sist rezima, 08 iz korisnickog
 503              		.loc 1 30 23 is_stmt 0
 504 0240 138784FF 		addi	a4,s1,-8
  30:src/riscv.cpp ****         //09 iz sist rezima, 08 iz korisnickog
 505              		.loc 1 30 5
 506 0244 93071000 		li	a5,1
 507 0248 63E2E722 		bgtu	a4,a5,.L28
 508              	.LBB115:
  32:src/riscv.cpp ****         uint64 volatile sstatus=r_sstatus();
 509              		.loc 1 32 9 is_stmt 1
 510              	.LBB116:
 511              	.LBB117:
  83:src/../h/riscv.hpp ****     __asm__ volatile("csrr %[sepc], sepc":[sepc]"=r"(sepc));
 512              		.loc 2 83 5
  84:src/../h/riscv.hpp ****     return sepc;
 513              		.loc 2 84 5
  84:src/../h/riscv.hpp ****     return sepc;
 514              		.loc 2 84 60 is_stmt 0
 515              	#APP
 516              	# 84 "src/../h/riscv.hpp" 1
 517              		csrr a5, sepc
 518              	# 0 "" 2
 519              	#NO_APP
 520 0250 2338F4FA 		sd	a5,-80(s0)
  85:src/../h/riscv.hpp **** }
 521              		.loc 2 85 5 is_stmt 1
  85:src/../h/riscv.hpp **** }
 522              		.loc 2 85 12 is_stmt 0
 523 0254 833704FB 		ld	a5,-80(s0)
 524              	.LBE117:
 525              	.LBE116:
  32:src/riscv.cpp ****         uint64 volatile sstatus=r_sstatus();
 526              		.loc 1 32 38
 527 0258 93874700 		addi	a5,a5,4
  32:src/riscv.cpp ****         uint64 volatile sstatus=r_sstatus();
 528              		.loc 1 32 39
 529 025c 2338F4F8 		sd	a5,-112(s0)
  33:src/riscv.cpp **** 
 530              		.loc 1 33 9 is_stmt 1
 531              	.LBB118:
 532              	.LBB119:
 129:src/../h/riscv.hpp ****     __asm__ volatile("csrr %[sstatus], sstatus":[sstatus]"=r"(sstatus));
 533              		.loc 2 129 5
 130:src/../h/riscv.hpp ****     return sstatus;
 534              		.loc 2 130 5
 130:src/../h/riscv.hpp ****     return sstatus;
 535              		.loc 2 130 72 is_stmt 0
 536              	#APP
 537              	# 130 "src/../h/riscv.hpp" 1
 538              		csrr a5, sstatus
 539              	# 0 "" 2
 540              	#NO_APP
 541 0264 2334F4FA 		sd	a5,-88(s0)
GAS LISTING /tmp/ccYEVC8S.s 			page 20


 131:src/../h/riscv.hpp **** }
 542              		.loc 2 131 5 is_stmt 1
 131:src/../h/riscv.hpp **** }
 543              		.loc 2 131 12 is_stmt 0
 544 0268 833784FA 		ld	a5,-88(s0)
 545              	.LBE119:
 546              	.LBE118:
  33:src/riscv.cpp **** 
 547              		.loc 1 33 43
 548 026c 233CF4F8 		sd	a5,-104(s0)
  35:src/riscv.cpp ****             //mem_alloc
 549              		.loc 1 35 9 is_stmt 1
 550              	.LBB120:
  35:src/riscv.cpp ****             //mem_alloc
 551              		.loc 1 35 14 is_stmt 0
 552 0270 033784FD 		ld	a4,-40(s0)
  35:src/riscv.cpp ****             //mem_alloc
 553              		.loc 1 35 9
 554 0274 93071000 		li	a5,1
 555 0278 6304F70A 		beq	a4,a5,.L47
 556              	.LBE120:
 557              	.LBE115:
 558              	.LBE114:
  40:src/riscv.cpp ****             //mem_free
 559              		.loc 1 40 14 is_stmt 1
 560              	.LBB257:
 561              	.LBB242:
 562              	.LBB225:
 563              	.LBB121:
  40:src/riscv.cpp ****             //mem_free
 564              		.loc 1 40 19 is_stmt 0
 565 027c 033784FD 		ld	a4,-40(s0)
  40:src/riscv.cpp ****             //mem_free
 566              		.loc 1 40 14
 567 0280 93072000 		li	a5,2
 568 0284 6308F70C 		beq	a4,a5,.L48
 569              	.LBE121:
 570              	.LBE225:
 571              	.LBE242:
 572              	.LBE257:
  46:src/riscv.cpp ****             /*thread_create
 573              		.loc 1 46 14 is_stmt 1
 574              	.LBB258:
 575              	.LBB243:
 576              	.LBB226:
 577              	.LBB212:
 578              	.LBB122:
  46:src/riscv.cpp ****             /*thread_create
 579              		.loc 1 46 19 is_stmt 0
 580 0288 033784FD 		ld	a4,-40(s0)
  46:src/riscv.cpp ****             /*thread_create
 581              		.loc 1 46 14
 582 028c 93071001 		li	a5,17
 583 0290 630CF70C 		beq	a4,a5,.L49
 584              	.LBE122:
 585              	.LBE212:
 586              	.LBE226:
GAS LISTING /tmp/ccYEVC8S.s 			page 21


 587              	.LBE243:
 588              	.LBE258:
  67:src/riscv.cpp ****             //thread_exit()
 589              		.loc 1 67 14 is_stmt 1
 590              	.LBB259:
 591              	.LBB244:
 592              	.LBB227:
 593              	.LBB213:
 594              	.LBB200:
 595              	.LBB123:
  67:src/riscv.cpp ****             //thread_exit()
 596              		.loc 1 67 19 is_stmt 0
 597 0294 033784FD 		ld	a4,-40(s0)
  67:src/riscv.cpp ****             //thread_exit()
 598              		.loc 1 67 14
 599 0298 93072001 		li	a5,18
 600 029c 6302F710 		beq	a4,a5,.L50
 601              	.LBE123:
 602              	.LBE200:
 603              	.LBE213:
 604              	.LBE227:
 605              	.LBE244:
 606              	.LBE259:
  81:src/riscv.cpp ****             //thread_dispatch()
 607              		.loc 1 81 14 is_stmt 1
 608              	.LBB260:
 609              	.LBB245:
 610              	.LBB228:
 611              	.LBB214:
 612              	.LBB201:
 613              	.LBB187:
 614              	.LBB124:
  81:src/riscv.cpp ****             //thread_dispatch()
 615              		.loc 1 81 19 is_stmt 0
 616 02a0 033784FD 		ld	a4,-40(s0)
  81:src/riscv.cpp ****             //thread_dispatch()
 617              		.loc 1 81 14
 618 02a4 93073001 		li	a5,19
 619 02a8 6304F710 		beq	a4,a5,.L51
 620              	.LBE124:
 621              	.LBE187:
 622              	.LBE201:
 623              	.LBE214:
 624              	.LBE228:
 625              	.LBE245:
 626              	.LBE260:
  86:src/riscv.cpp ****             //char getc();
 627              		.loc 1 86 14 is_stmt 1
 628              	.LBB261:
 629              	.LBB246:
 630              	.LBB229:
 631              	.LBB215:
 632              	.LBB202:
 633              	.LBB188:
 634              	.LBB177:
 635              	.LBB125:
  86:src/riscv.cpp ****             //char getc();
GAS LISTING /tmp/ccYEVC8S.s 			page 22


 636              		.loc 1 86 19 is_stmt 0
 637 02ac 033784FD 		ld	a4,-40(s0)
  86:src/riscv.cpp ****             //char getc();
 638              		.loc 1 86 14
 639 02b0 93071004 		li	a5,65
 640 02b4 630AF710 		beq	a4,a5,.L52
 641              	.LBE125:
 642              	.LBE177:
 643              	.LBE188:
 644              	.LBE202:
 645              	.LBE215:
 646              	.LBE229:
 647              	.LBE246:
 648              	.LBE261:
  95:src/riscv.cpp ****             //void putc()
 649              		.loc 1 95 14 is_stmt 1
 650              	.LBB262:
 651              	.LBB247:
 652              	.LBB230:
 653              	.LBB216:
 654              	.LBB203:
 655              	.LBB189:
 656              	.LBB178:
 657              	.LBB169:
 658              	.LBB126:
  95:src/riscv.cpp ****             //void putc()
 659              		.loc 1 95 19 is_stmt 0
 660 02b8 033784FD 		ld	a4,-40(s0)
  95:src/riscv.cpp ****             //void putc()
 661              		.loc 1 95 14
 662 02bc 93072004 		li	a5,66
 663 02c0 630CF710 		beq	a4,a5,.L53
 664              	.LBE126:
 665              	.LBE169:
 666              	.LBE178:
 667              	.LBE189:
 668              	.LBE203:
 669              	.LBE216:
 670              	.LBE230:
 671              	.LBE247:
 672              	.LBE262:
 103:src/riscv.cpp ****             //sem_open
 673              		.loc 1 103 14 is_stmt 1
 674              	.LBB263:
 675              	.LBB248:
 676              	.LBB231:
 677              	.LBB217:
 678              	.LBB204:
 679              	.LBB190:
 680              	.LBB179:
 681              	.LBB170:
 682              	.LBB161:
 683              	.LBB127:
 103:src/riscv.cpp ****             //sem_open
 684              		.loc 1 103 19 is_stmt 0
 685 02c4 033784FD 		ld	a4,-40(s0)
 103:src/riscv.cpp ****             //sem_open
GAS LISTING /tmp/ccYEVC8S.s 			page 23


 686              		.loc 1 103 14
 687 02c8 93071002 		li	a5,33
 688 02cc 6300F712 		beq	a4,a5,.L54
 689              	.LBE127:
 690              	.LBE161:
 691              	.LBE170:
 692              	.LBE179:
 693              	.LBE190:
 694              	.LBE204:
 695              	.LBE217:
 696              	.LBE231:
 697              	.LBE248:
 698              	.LBE263:
 117:src/riscv.cpp ****             //sem_wait(sem_t id)
 699              		.loc 1 117 14 is_stmt 1
 700              	.LBB264:
 701              	.LBB249:
 702              	.LBB232:
 703              	.LBB218:
 704              	.LBB205:
 705              	.LBB191:
 706              	.LBB180:
 707              	.LBB171:
 708              	.LBB162:
 709              	.LBB154:
 710              	.LBB128:
 117:src/riscv.cpp ****             //sem_wait(sem_t id)
 711              		.loc 1 117 19 is_stmt 0
 712 02d0 033784FD 		ld	a4,-40(s0)
 117:src/riscv.cpp ****             //sem_wait(sem_t id)
 713              		.loc 1 117 14
 714 02d4 93073002 		li	a5,35
 715 02d8 6304F714 		beq	a4,a5,.L55
 716              	.LBE128:
 717              	.LBE154:
 718              	.LBE162:
 719              	.LBE171:
 720              	.LBE180:
 721              	.LBE191:
 722              	.LBE205:
 723              	.LBE218:
 724              	.LBE232:
 725              	.LBE249:
 726              	.LBE264:
 123:src/riscv.cpp ****             //sem_close(sem_t handle)
 727              		.loc 1 123 14 is_stmt 1
 728              	.LBB265:
 729              	.LBB250:
 730              	.LBB233:
 731              	.LBB219:
 732              	.LBB206:
 733              	.LBB192:
 734              	.LBB181:
 735              	.LBB172:
 736              	.LBB163:
 737              	.LBB155:
 738              	.LBB146:
GAS LISTING /tmp/ccYEVC8S.s 			page 24


 739              	.LBB129:
 123:src/riscv.cpp ****             //sem_close(sem_t handle)
 740              		.loc 1 123 19 is_stmt 0
 741 02dc 033784FD 		ld	a4,-40(s0)
 123:src/riscv.cpp ****             //sem_close(sem_t handle)
 742              		.loc 1 123 14
 743 02e0 93072002 		li	a5,34
 744 02e4 6308F714 		beq	a4,a5,.L56
 745              	.LBE129:
 746              	.LBE146:
 747              	.LBE155:
 748              	.LBE163:
 749              	.LBE172:
 750              	.LBE181:
 751              	.LBE192:
 752              	.LBE206:
 753              	.LBE219:
 754              	.LBE233:
 755              	.LBE250:
 756              	.LBE265:
 129:src/riscv.cpp ****             //sem_signal(sem_t id)
 757              		.loc 1 129 14 is_stmt 1
 758              	.LBB266:
 759              	.LBB251:
 760              	.LBB234:
 761              	.LBB220:
 762              	.LBB207:
 763              	.LBB193:
 764              	.LBB182:
 765              	.LBB173:
 766              	.LBB164:
 767              	.LBB156:
 768              	.LBB147:
 769              	.LBB141:
 770              	.LBB130:
 129:src/riscv.cpp ****             //sem_signal(sem_t id)
 771              		.loc 1 129 19 is_stmt 0
 772 02e8 033784FD 		ld	a4,-40(s0)
 129:src/riscv.cpp ****             //sem_signal(sem_t id)
 773              		.loc 1 129 14
 774 02ec 93074002 		li	a5,36
 775 02f0 630CF714 		beq	a4,a5,.L57
 776              	.LBE130:
 777              	.LBE141:
 778              	.LBE147:
 779              	.LBE156:
 780              	.LBE164:
 781              	.LBE173:
 782              	.LBE182:
 783              	.LBE193:
 784              	.LBE207:
 785              	.LBE220:
 786              	.LBE234:
 787              	.LBE251:
 788              	.LBE266:
 135:src/riscv.cpp ****             //thread_join(thread_t)
 789              		.loc 1 135 14 is_stmt 1
GAS LISTING /tmp/ccYEVC8S.s 			page 25


 790              	.LBB267:
 791              	.LBB252:
 792              	.LBB235:
 793              	.LBB221:
 794              	.LBB208:
 795              	.LBB194:
 796              	.LBB183:
 797              	.LBB174:
 798              	.LBB165:
 799              	.LBB157:
 800              	.LBB148:
 801              	.LBB142:
 802              	.LBB137:
 803              	.LBB131:
 135:src/riscv.cpp ****             //thread_join(thread_t)
 804              		.loc 1 135 19 is_stmt 0
 805 02f4 033784FD 		ld	a4,-40(s0)
 135:src/riscv.cpp ****             //thread_join(thread_t)
 806              		.loc 1 135 14
 807 02f8 93074001 		li	a5,20
 808 02fc 6300F716 		beq	a4,a5,.L58
 809              	.LBE131:
 810              	.LBE137:
 811              	.LBE142:
 812              	.LBE148:
 813              	.LBE157:
 814              	.LBE165:
 815              	.LBE174:
 816              	.LBE183:
 817              	.LBE194:
 818              	.LBE208:
 819              	.LBE221:
 820              	.LBE235:
 821              	.LBE252:
 822              	.LBE267:
 139:src/riscv.cpp ****             //time_sleep(time_t)
 823              		.loc 1 139 14 is_stmt 1
 824              	.LBB268:
 825              	.LBB253:
 826              	.LBB236:
 827              	.LBB222:
 828              	.LBB209:
 829              	.LBB195:
 830              	.LBB184:
 831              	.LBB175:
 832              	.LBB166:
 833              	.LBB158:
 834              	.LBB149:
 835              	.LBB143:
 836              	.LBB138:
 837              	.LBB134:
 838              	.LBB132:
 139:src/riscv.cpp ****             //time_sleep(time_t)
 839              		.loc 1 139 19 is_stmt 0
 840 0300 033784FD 		ld	a4,-40(s0)
 139:src/riscv.cpp ****             //time_sleep(time_t)
 841              		.loc 1 139 14
GAS LISTING /tmp/ccYEVC8S.s 			page 26


 842 0304 93071003 		li	a5,49
 843 0308 6314F702 		bne	a4,a5,.L30
 844              	.LBB133:
 141:src/riscv.cpp ****             int stat=Riscv::putToSleep(time);
 845              		.loc 1 141 13 is_stmt 1
 141:src/riscv.cpp ****             int stat=Riscv::putToSleep(time);
 846              		.loc 1 141 33 is_stmt 0
 847 030c 033504FD 		ld	a0,-48(s0)
 848              	.LVL29:
 142:src/riscv.cpp ****             __asm__ volatile("sd %0, 0x50(fp)": : "r"(stat));
 849              		.loc 1 142 13 is_stmt 1
 142:src/riscv.cpp ****             __asm__ volatile("sd %0, 0x50(fp)": : "r"(stat));
 850              		.loc 1 142 39 is_stmt 0
 851 0310 97000000 		call	_ZN5Riscv10putToSleepEm
 851      E7800000 
 852              	.LVL30:
 143:src/riscv.cpp ****         }
 853              		.loc 1 143 13 is_stmt 1
 143:src/riscv.cpp ****         }
 854              		.loc 1 143 61 is_stmt 0
 855              	#APP
 856              	# 143 "src/riscv.cpp" 1
 857              		sd a0, 0x50(fp)
 858              	# 0 "" 2
 859              	#NO_APP
 860              	.LBE133:
 861 031c 6F004001 		j	.L30
 862              	.LVL31:
 863              	.L47:
 864              	.LBE132:
 865              	.LBE134:
 866              	.LBE138:
 867              	.LBE143:
 868              	.LBE149:
 869              	.LBE158:
 870              	.LBE166:
 871              	.LBE175:
 872              	.LBE184:
 873              	.LBE195:
 874              	.LBE209:
 875              	.LBE222:
 876              	.LBB223:
  37:src/riscv.cpp ****             __asm__ volatile("sd %0, 0x50(fp)": : "r"((uint64)ptr));
 877              		.loc 1 37 13 is_stmt 1
  37:src/riscv.cpp ****             __asm__ volatile("sd %0, 0x50(fp)": : "r"((uint64)ptr));
 878              		.loc 1 37 45 is_stmt 0
 879 0320 033504FD 		ld	a0,-48(s0)
 880 0324 97000000 		call	_ZN15MemoryAllocator5allocEm@plt
 880      E7800000 
 881              	.LVL32:
  38:src/riscv.cpp ****         }
 882              		.loc 1 38 13 is_stmt 1
  38:src/riscv.cpp ****         }
 883              		.loc 1 38 68 is_stmt 0
 884              	#APP
 885              	# 38 "src/riscv.cpp" 1
 886              		sd a0, 0x50(fp)
GAS LISTING /tmp/ccYEVC8S.s 			page 27


 887              	# 0 "" 2
 888              	.LVL33:
 889              	#NO_APP
 890              	.L30:
 891              	.LBE223:
 892              	.LBE236:
 146:src/riscv.cpp ****         w_sepc(sepc);
 893              		.loc 1 146 9 is_stmt 1
 146:src/riscv.cpp ****         w_sepc(sepc);
 894              		.loc 1 146 18 is_stmt 0
 895 0330 833784F9 		ld	a5,-104(s0)
 896              	.LVL34:
 897              	.LBB237:
 898              	.LBB238:
 134:src/../h/riscv.hpp **** }
 899              		.loc 2 134 5 is_stmt 1
 134:src/../h/riscv.hpp **** }
 900              		.loc 2 134 72 is_stmt 0
 901              	#APP
 902              	# 134 "src/../h/riscv.hpp" 1
 903              		csrw sstatus, a5
 904              	# 0 "" 2
 905              	.LVL35:
 906              	#NO_APP
 907              	.LBE238:
 908              	.LBE237:
 147:src/riscv.cpp ****     }
 909              		.loc 1 147 9 is_stmt 1
 147:src/riscv.cpp ****     }
 910              		.loc 1 147 15 is_stmt 0
 911 0338 833704F9 		ld	a5,-112(s0)
 912              	.LVL36:
 913              	.LBB239:
 914              	.LBB240:
  88:src/../h/riscv.hpp **** }
 915              		.loc 2 88 5 is_stmt 1
  88:src/../h/riscv.hpp **** }
 916              		.loc 2 88 60 is_stmt 0
 917              	#APP
 918              	# 88 "src/../h/riscv.hpp" 1
 919              		csrw sepc, a5
 920              	# 0 "" 2
 921              	.LVL37:
 922              	#NO_APP
 923              	.LBE240:
 924              	.LBE239:
 925              	.LBE253:
 926              	.LBE268:
 162:src/riscv.cpp **** 
 927              		.loc 1 162 1
 928 0340 83308106 		ld	ra,104(sp)
 929              		.cfi_remember_state
 930              		.cfi_restore 1
 931 0344 03340106 		ld	s0,96(sp)
 932              		.cfi_restore 8
 933              		.cfi_def_cfa 2, 112
 934 0348 83348105 		ld	s1,88(sp)
GAS LISTING /tmp/ccYEVC8S.s 			page 28


 935              		.cfi_restore 9
 936              	.LVL38:
 937 034c 13010107 		addi	sp,sp,112
 938              		.cfi_def_cfa_offset 0
 939 0350 67800000 		jr	ra
 940              	.LVL39:
 941              	.L48:
 942              		.cfi_restore_state
 943              	.LBB269:
 944              	.LBB254:
 945              	.LBB241:
 946              	.LBB224:
 947              	.LBB210:
  42:src/riscv.cpp ****             __asm__ volatile("sd %0, 0x50(fp)": : "r"(stat));
 948              		.loc 1 42 13 is_stmt 1
  42:src/riscv.cpp ****             __asm__ volatile("sd %0, 0x50(fp)": : "r"(stat));
 949              		.loc 1 42 43 is_stmt 0
 950 0354 033504FD 		ld	a0,-48(s0)
 951 0358 97000000 		call	_ZN15MemoryAllocator4freeEPv@plt
 951      E7800000 
 952              	.LVL40:
  43:src/riscv.cpp ****         }
 953              		.loc 1 43 13 is_stmt 1
  43:src/riscv.cpp ****         }
 954              		.loc 1 43 61 is_stmt 0
 955              	#APP
 956              	# 43 "src/riscv.cpp" 1
 957              		sd a0, 0x50(fp)
 958              	# 0 "" 2
 959              	#NO_APP
 960              	.LBE210:
 961 0364 6FF0DFFC 		j	.L30
 962              	.LVL41:
 963              	.L49:
 964              	.LBB211:
 965              	.LBB196:
  54:src/riscv.cpp **** 
 966              		.loc 1 54 13 is_stmt 1
  54:src/riscv.cpp **** 
 967              		.loc 1 54 43 is_stmt 0
 968 0368 033584FC 		ld	a0,-56(s0)
 969 036c 833584FB 		ld	a1,-72(s0)
 970 0370 033604FC 		ld	a2,-64(s0)
 971 0374 97000000 		call	_ZN3TCB12createThreadEPFvPvEPcS0_@plt
 971      E7800000 
 972              	.LVL42:
  56:src/riscv.cpp ****                 __asm__ volatile("sd %0, 0x50(fp)": : "r"(-1));
 973              		.loc 1 56 13 is_stmt 1
 974              	.LBB197:
 975 037c 630C0500 		beqz	a0,.L59
 976              	.LBB198:
  61:src/riscv.cpp ****                 *retHandle=handle;
 977              		.loc 1 61 17
  61:src/riscv.cpp ****                 *retHandle=handle;
 978              		.loc 1 61 40 is_stmt 0
 979 0380 033704FD 		ld	a4,-48(s0)
 980              	.LVL43:
GAS LISTING /tmp/ccYEVC8S.s 			page 29


  62:src/riscv.cpp ****                 __asm__ volatile("sd %0, 0x50(fp)": : "r"(0));
 981              		.loc 1 62 17 is_stmt 1
  62:src/riscv.cpp ****                 __asm__ volatile("sd %0, 0x50(fp)": : "r"(0));
 982              		.loc 1 62 27 is_stmt 0
 983 0384 2330A700 		sd	a0,0(a4)
  63:src/riscv.cpp ****             }
 984              		.loc 1 63 17 is_stmt 1
  63:src/riscv.cpp ****             }
 985              		.loc 1 63 62 is_stmt 0
 986 0388 93070000 		li	a5,0
 987              	#APP
 988              	# 63 "src/riscv.cpp" 1
 989              		sd a5, 0x50(fp)
 990              	# 0 "" 2
 991              	#NO_APP
 992 0390 6FF01FFA 		j	.L30
 993              	.LVL44:
 994              	.L59:
 995              	.LBE198:
  57:src/riscv.cpp ****             }
 996              		.loc 1 57 17 is_stmt 1
  57:src/riscv.cpp ****             }
 997              		.loc 1 57 63 is_stmt 0
 998 0394 9307F0FF 		li	a5,-1
 999              	#APP
 1000              	# 57 "src/riscv.cpp" 1
 1001              		sd a5, 0x50(fp)
 1002              	# 0 "" 2
 1003              	#NO_APP
 1004 039c 6FF05FF9 		j	.L30
 1005              	.LVL45:
 1006              	.L50:
 1007              	.LBE197:
 1008              	.LBE196:
 1009              	.LBB199:
 1010              	.LBB185:
  78:src/riscv.cpp ****             __asm__ volatile("sd %0, 0x50(fp)": : "r"(stat));
 1011              		.loc 1 78 13 is_stmt 1
  78:src/riscv.cpp ****             __asm__ volatile("sd %0, 0x50(fp)": : "r"(stat));
 1012              		.loc 1 78 31 is_stmt 0
 1013 03a0 97000000 		call	_ZN3TCB4exitEv@plt
 1013      E7800000 
 1014              	.LVL46:
  79:src/riscv.cpp ****         }
 1015              		.loc 1 79 13 is_stmt 1
  79:src/riscv.cpp ****         }
 1016              		.loc 1 79 61 is_stmt 0
 1017              	#APP
 1018              	# 79 "src/riscv.cpp" 1
 1019              		sd a0, 0x50(fp)
 1020              	# 0 "" 2
 1021              	#NO_APP
 1022              	.LBE185:
 1023 03ac 6FF05FF8 		j	.L30
 1024              	.LVL47:
 1025              	.L51:
 1026              	.LBB186:
GAS LISTING /tmp/ccYEVC8S.s 			page 30


  83:src/riscv.cpp ****             TCB::dispatch();
 1027              		.loc 1 83 13 is_stmt 1
  83:src/riscv.cpp ****             TCB::dispatch();
 1028              		.loc 1 83 34 is_stmt 0
 1029 03b0 97070000 		la	a5,_ZN3TCB16timeSliceCounterE
 1029      83B70700 
 1030 03b8 23B00700 		sd	zero,0(a5)
  84:src/riscv.cpp ****         }
 1031              		.loc 1 84 13 is_stmt 1
  84:src/riscv.cpp ****         }
 1032              		.loc 1 84 26 is_stmt 0
 1033 03bc 97000000 		call	_ZN3TCB8dispatchEv@plt
 1033      E7800000 
 1034              	.LVL48:
 1035 03c4 6FF0DFF6 		j	.L30
 1036              	.L52:
 1037              	.LBB176:
 1038              	.LBB167:
  89:src/riscv.cpp ****             __asm__ volatile("sd %0, 0x50(fp)": : "r"(c));
 1039              		.loc 1 89 13 is_stmt 1
  89:src/riscv.cpp ****             __asm__ volatile("sd %0, 0x50(fp)": : "r"(c));
 1040              		.loc 1 89 45 is_stmt 0
 1041 03c8 97000000 		call	_ZN8_console14inputBuff_takeEv@plt
 1041      E7800000 
 1042              	.LVL49:
  90:src/riscv.cpp **** 
 1043              		.loc 1 90 13 is_stmt 1
  90:src/riscv.cpp **** 
 1044              		.loc 1 90 58 is_stmt 0
 1045              	#APP
 1046              	# 90 "src/riscv.cpp" 1
 1047              		sd a0, 0x50(fp)
 1048              	# 0 "" 2
 1049              	#NO_APP
 1050              	.LBE167:
 1051 03d4 6FF0DFF5 		j	.L30
 1052              	.LVL50:
 1053              	.L53:
 1054              	.LBB168:
 1055              	.LBB159:
  98:src/riscv.cpp ****             _console::outputBuff_put(c);
 1056              		.loc 1 98 13 is_stmt 1
  98:src/riscv.cpp ****             _console::outputBuff_put(c);
 1057              		.loc 1 98 26 is_stmt 0
 1058 03d8 033504FD 		ld	a0,-48(s0)
 1059              	.LVL51:
  99:src/riscv.cpp **** 
 1060              		.loc 1 99 13 is_stmt 1
  99:src/riscv.cpp **** 
 1061              		.loc 1 99 37 is_stmt 0
 1062 03dc 1375F50F 		andi	a0,a0,0xff
 1063 03e0 97000000 		call	_ZN8_console14outputBuff_putEc@plt
 1063      E7800000 
 1064              	.LVL52:
 1065              	.LBE159:
 1066 03e8 6FF09FF4 		j	.L30
 1067              	.L54:
GAS LISTING /tmp/ccYEVC8S.s 			page 31


 1068              	.LBB160:
 1069              	.LBB150:
 107:src/riscv.cpp ****             if(!handle){
 1070              		.loc 1 107 13 is_stmt 1
 107:src/riscv.cpp ****             if(!handle){
 1071              		.loc 1 107 36 is_stmt 0
 1072 03ec 033584FC 		ld	a0,-56(s0)
 1073 03f0 1B050500 		sext.w	a0,a0
 1074 03f4 97000000 		call	_ZN4_sem4openEi@plt
 1074      E7800000 
 1075              	.LVL53:
 108:src/riscv.cpp ****                 __asm__ volatile("sd %0, 0x50(fp)": : "r"(-1));
 1076              		.loc 1 108 13 is_stmt 1
 1077              	.LBB151:
 1078 03fc 630C0500 		beqz	a0,.L60
 1079              	.LBB152:
 112:src/riscv.cpp ****                 *retHandle=handle;
 1080              		.loc 1 112 17
 112:src/riscv.cpp ****                 *retHandle=handle;
 1081              		.loc 1 112 42 is_stmt 0
 1082 0400 033704FD 		ld	a4,-48(s0)
 1083              	.LVL54:
 113:src/riscv.cpp ****                 __asm__ volatile("sd %0, 0x50(fp)": : "r"(0));
 1084              		.loc 1 113 17 is_stmt 1
 113:src/riscv.cpp ****                 __asm__ volatile("sd %0, 0x50(fp)": : "r"(0));
 1085              		.loc 1 113 27 is_stmt 0
 1086 0404 2330A700 		sd	a0,0(a4)
 114:src/riscv.cpp ****             }
 1087              		.loc 1 114 17 is_stmt 1
 114:src/riscv.cpp ****             }
 1088              		.loc 1 114 62 is_stmt 0
 1089 0408 93070000 		li	a5,0
 1090              	#APP
 1091              	# 114 "src/riscv.cpp" 1
 1092              		sd a5, 0x50(fp)
 1093              	# 0 "" 2
 1094              	#NO_APP
 1095 0410 6FF01FF2 		j	.L30
 1096              	.LVL55:
 1097              	.L60:
 1098              	.LBE152:
 109:src/riscv.cpp ****             }
 1099              		.loc 1 109 17 is_stmt 1
 109:src/riscv.cpp ****             }
 1100              		.loc 1 109 63 is_stmt 0
 1101 0414 9307F0FF 		li	a5,-1
 1102              	#APP
 1103              	# 109 "src/riscv.cpp" 1
 1104              		sd a5, 0x50(fp)
 1105              	# 0 "" 2
 1106              	#NO_APP
 1107 041c 6FF05FF1 		j	.L30
 1108              	.LVL56:
 1109              	.L55:
 1110              	.LBE151:
 1111              	.LBE150:
 1112              	.LBB153:
GAS LISTING /tmp/ccYEVC8S.s 			page 32


 1113              	.LBB144:
 119:src/riscv.cpp ****             int stat=handle->wait();
 1114              		.loc 1 119 13 is_stmt 1
 119:src/riscv.cpp ****             int stat=handle->wait();
 1115              		.loc 1 119 34 is_stmt 0
 1116 0420 033504FD 		ld	a0,-48(s0)
 1117              	.LVL57:
 120:src/riscv.cpp ****             __asm__ volatile("sd %0, 0x50(fp)": : "r"(stat));
 1118              		.loc 1 120 13 is_stmt 1
 120:src/riscv.cpp ****             __asm__ volatile("sd %0, 0x50(fp)": : "r"(stat));
 1119              		.loc 1 120 34 is_stmt 0
 1120 0424 97000000 		call	_ZN4_sem4waitEv@plt
 1120      E7800000 
 1121              	.LVL58:
 121:src/riscv.cpp ****         }
 1122              		.loc 1 121 13 is_stmt 1
 121:src/riscv.cpp ****         }
 1123              		.loc 1 121 61 is_stmt 0
 1124              	#APP
 1125              	# 121 "src/riscv.cpp" 1
 1126              		sd a0, 0x50(fp)
 1127              	# 0 "" 2
 1128              	#NO_APP
 1129              	.LBE144:
 1130 0430 6FF01FF0 		j	.L30
 1131              	.LVL59:
 1132              	.L56:
 1133              	.LBB145:
 1134              	.LBB139:
 125:src/riscv.cpp ****             int stat=handle->close();
 1135              		.loc 1 125 13 is_stmt 1
 125:src/riscv.cpp ****             int stat=handle->close();
 1136              		.loc 1 125 34 is_stmt 0
 1137 0434 033504FD 		ld	a0,-48(s0)
 1138              	.LVL60:
 126:src/riscv.cpp ****             __asm__ volatile("sd %0, 0x50(fp)": : "r"(stat));
 1139              		.loc 1 126 13 is_stmt 1
 126:src/riscv.cpp ****             __asm__ volatile("sd %0, 0x50(fp)": : "r"(stat));
 1140              		.loc 1 126 35 is_stmt 0
 1141 0438 97000000 		call	_ZN4_sem5closeEv@plt
 1141      E7800000 
 1142              	.LVL61:
 127:src/riscv.cpp ****         }
 1143              		.loc 1 127 13 is_stmt 1
 127:src/riscv.cpp ****         }
 1144              		.loc 1 127 61 is_stmt 0
 1145              	#APP
 1146              	# 127 "src/riscv.cpp" 1
 1147              		sd a0, 0x50(fp)
 1148              	# 0 "" 2
 1149              	#NO_APP
 1150              	.LBE139:
 1151 0444 6FF0DFEE 		j	.L30
 1152              	.LVL62:
 1153              	.L57:
 1154              	.LBB140:
 1155              	.LBB135:
GAS LISTING /tmp/ccYEVC8S.s 			page 33


 131:src/riscv.cpp ****             int stat=handle->signal();
 1156              		.loc 1 131 13 is_stmt 1
 131:src/riscv.cpp ****             int stat=handle->signal();
 1157              		.loc 1 131 34 is_stmt 0
 1158 0448 033504FD 		ld	a0,-48(s0)
 1159              	.LVL63:
 132:src/riscv.cpp ****             __asm__ volatile("sd %0, 0x50(fp)": : "r"(stat));
 1160              		.loc 1 132 13 is_stmt 1
 132:src/riscv.cpp ****             __asm__ volatile("sd %0, 0x50(fp)": : "r"(stat));
 1161              		.loc 1 132 36 is_stmt 0
 1162 044c 97000000 		call	_ZN4_sem6signalEv@plt
 1162      E7800000 
 1163              	.LVL64:
 133:src/riscv.cpp ****         }
 1164              		.loc 1 133 13 is_stmt 1
 133:src/riscv.cpp ****         }
 1165              		.loc 1 133 61 is_stmt 0
 1166              	#APP
 1167              	# 133 "src/riscv.cpp" 1
 1168              		sd a0, 0x50(fp)
 1169              	# 0 "" 2
 1170              	#NO_APP
 1171              	.LBE135:
 1172 0458 6FF09FED 		j	.L30
 1173              	.LVL65:
 1174              	.L58:
 1175              	.LBB136:
 137:src/riscv.cpp ****         }
 1176              		.loc 1 137 13 is_stmt 1
 137:src/riscv.cpp ****         }
 1177              		.loc 1 137 22 is_stmt 0
 1178 045c 033504FD 		ld	a0,-48(s0)
 1179 0460 97000000 		call	_ZN3TCB4joinEPS_@plt
 1179      E7800000 
 1180              	.LVL66:
 1181 0468 6FF09FEC 		j	.L30
 1182              	.L28:
 1183              	.LBE136:
 1184              	.LBE140:
 1185              	.LBE145:
 1186              	.LBE153:
 1187              	.LBE160:
 1188              	.LBE168:
 1189              	.LBE176:
 1190              	.LBE186:
 1191              	.LBE199:
 1192              	.LBE211:
 1193              	.LBE224:
 1194              	.LBE241:
 1195              	.LBE254:
 151:src/riscv.cpp ****         printInt(scause);
 1196              		.loc 1 151 9 is_stmt 1
 151:src/riscv.cpp ****         printInt(scause);
 1197              		.loc 1 151 20 is_stmt 0
 1198 046c 17050000 		lla	a0,.LC0
 1198      13050500 
 1199 0474 97000000 		call	_Z11printStringPKc@plt
GAS LISTING /tmp/ccYEVC8S.s 			page 34


 1199      E7800000 
 1200              	.LVL67:
 152:src/riscv.cpp ****         printString("\nsepc:");
 1201              		.loc 1 152 9 is_stmt 1
 152:src/riscv.cpp ****         printString("\nsepc:");
 1202              		.loc 1 152 17 is_stmt 0
 1203 047c 13060000 		li	a2,0
 1204 0480 9305A000 		li	a1,10
 1205 0484 1B850400 		sext.w	a0,s1
 1206 0488 97000000 		call	_Z8printIntiii@plt
 1206      E7800000 
 1207              	.LVL68:
 153:src/riscv.cpp ****         printInt(r_sepc());
 1208              		.loc 1 153 9 is_stmt 1
 153:src/riscv.cpp ****         printInt(r_sepc());
 1209              		.loc 1 153 20 is_stmt 0
 1210 0490 17050000 		lla	a0,.LC1
 1210      13050500 
 1211 0498 97000000 		call	_Z11printStringPKc@plt
 1211      E7800000 
 1212              	.LVL69:
 154:src/riscv.cpp ****         printString("\n");
 1213              		.loc 1 154 9 is_stmt 1
 1214              	.LBB255:
 1215              	.LBB256:
  83:src/../h/riscv.hpp ****     __asm__ volatile("csrr %[sepc], sepc":[sepc]"=r"(sepc));
 1216              		.loc 2 83 5
  84:src/../h/riscv.hpp ****     return sepc;
 1217              		.loc 2 84 5
  84:src/../h/riscv.hpp ****     return sepc;
 1218              		.loc 2 84 60 is_stmt 0
 1219              	#APP
 1220              	# 84 "src/../h/riscv.hpp" 1
 1221              		csrr a5, sepc
 1222              	# 0 "" 2
 1223              	#NO_APP
 1224 04a4 2338F4FA 		sd	a5,-80(s0)
  85:src/../h/riscv.hpp **** }
 1225              		.loc 2 85 5 is_stmt 1
  85:src/../h/riscv.hpp **** }
 1226              		.loc 2 85 12 is_stmt 0
 1227 04a8 033504FB 		ld	a0,-80(s0)
 1228              	.LBE256:
 1229              	.LBE255:
 154:src/riscv.cpp ****         printString("\n");
 1230              		.loc 1 154 17
 1231 04ac 13060000 		li	a2,0
 1232 04b0 9305A000 		li	a1,10
 1233 04b4 1B050500 		sext.w	a0,a0
 1234 04b8 97000000 		call	_Z8printIntiii@plt
 1234      E7800000 
 1235              	.LVL70:
 155:src/riscv.cpp **** 
 1236              		.loc 1 155 9 is_stmt 1
 155:src/riscv.cpp **** 
 1237              		.loc 1 155 20 is_stmt 0
 1238 04c0 17050000 		lla	a0,.LC2
GAS LISTING /tmp/ccYEVC8S.s 			page 35


 1238      13050500 
 1239 04c8 97000000 		call	_Z11printStringPKc@plt
 1239      E7800000 
 1240              	.LVL71:
 1241              	.L44:
 157:src/riscv.cpp ****             //TCB::dispatch();
 1242              		.loc 1 157 9 is_stmt 1 discriminator 1
 157:src/riscv.cpp ****             //TCB::dispatch();
 1243              		.loc 1 157 9 discriminator 1
 1244 04d0 6F000000 		j	.L44
 1245              	.LBE269:
 1246              		.cfi_endproc
 1247              	.LFE34:
 1249              		.align	2
 1250              		.globl	_ZN5Riscv18updateSleepingListEv
 1252              	_ZN5Riscv18updateSleepingListEv:
 1253              	.LFB39:
 265:src/riscv.cpp **** 
 266:src/riscv.cpp **** void Riscv::updateSleepingList() {
 1254              		.loc 1 266 34
 1255              		.cfi_startproc
 267:src/riscv.cpp ****     if(headSleeping!=nullptr){
 1256              		.loc 1 267 5
 1257              	.LBB270:
 1258              		.loc 1 267 20 is_stmt 0
 1259 04d4 97070000 		ld	a5,.LANCHOR0
 1259      83B70700 
 1260              		.loc 1 267 5
 1261 04dc 638A0700 		beqz	a5,.L65
 1262              	.LBE270:
 268:src/riscv.cpp ****         if(--headSleeping->toSleepRel==0){
 1263              		.loc 1 268 9 is_stmt 1
 1264              	.LBB278:
 1265              	.LBB271:
 1266              		.loc 1 268 28 is_stmt 0
 1267 04e0 03B78700 		ld	a4,8(a5)
 1268              		.loc 1 268 12
 1269 04e4 1307F7FF 		addi	a4,a4,-1
 1270              		.loc 1 268 38
 1271 04e8 23B4E700 		sd	a4,8(a5)
 1272              		.loc 1 268 9
 1273 04ec 63040700 		beqz	a4,.L68
 1274              	.L65:
 1275 04f0 67800000 		ret
 1276              	.L68:
 1277              	.LBE271:
 1278              	.LBE278:
 266:src/riscv.cpp ****     if(headSleeping!=nullptr){
 1279              		.loc 1 266 34
 1280 04f4 130101FF 		addi	sp,sp,-16
 1281              		.cfi_def_cfa_offset 16
 1282 04f8 23341100 		sd	ra,8(sp)
 1283 04fc 23308100 		sd	s0,0(sp)
 1284              		.cfi_offset 1, -8
 1285              		.cfi_offset 8, -16
 1286 0500 13040101 		addi	s0,sp,16
 1287              		.cfi_def_cfa 8, 0
GAS LISTING /tmp/ccYEVC8S.s 			page 36


 1288              	.LBB279:
 1289              	.LBB277:
 1290              	.LBB272:
 269:src/riscv.cpp ****             headSleeping->thr->setSleeping(false);
 1291              		.loc 1 269 13 is_stmt 1
 1292              		.loc 1 269 27 is_stmt 0
 1293 0504 03B70700 		ld	a4,0(a5)
 1294              	.LVL72:
 1295              	.LBB273:
 1296              	.LBB274:
 1297              		.loc 3 41 9 is_stmt 1
 1298              		.loc 3 41 23 is_stmt 0
 1299 0508 A3000704 		sb	zero,65(a4)
 1300              	.LVL73:
 1301              	.LBE274:
 1302              	.LBE273:
 270:src/riscv.cpp ****             Scheduler::put(headSleeping->thr);
 1303              		.loc 1 270 13 is_stmt 1
 1304              		.loc 1 270 27 is_stmt 0
 1305 050c 03B50700 		ld	a0,0(a5)
 1306 0510 97000000 		call	_ZN9Scheduler3putEP3TCB@plt
 1306      E7800000 
 1307              	.LVL74:
 271:src/riscv.cpp ****             SleepingElem* old=headSleeping;
 1308              		.loc 1 271 13 is_stmt 1
 1309              		.loc 1 271 27 is_stmt 0
 1310 0518 97070000 		lla	a5,.LANCHOR0
 1310      93870700 
 1311 0520 03B50700 		ld	a0,0(a5)
 1312              	.LVL75:
 272:src/riscv.cpp ****             headSleeping=headSleeping->next;
 1313              		.loc 1 272 13 is_stmt 1
 1314              		.loc 1 272 40 is_stmt 0
 1315 0524 03370501 		ld	a4,16(a0)
 1316              		.loc 1 272 25
 1317 0528 23B0E700 		sd	a4,0(a5)
 273:src/riscv.cpp ****             MemoryAllocator::free(old);
 1318              		.loc 1 273 13 is_stmt 1
 1319              		.loc 1 273 34 is_stmt 0
 1320 052c 97000000 		call	_ZN15MemoryAllocator4freeEPv@plt
 1320      E7800000 
 1321              	.LVL76:
 1322              	.L63:
 274:src/riscv.cpp ****             while(headSleeping!=nullptr && headSleeping->toSleepRel==0){
 1323              		.loc 1 274 13 is_stmt 1
 1324              		.loc 1 274 41
 1325              		.loc 1 274 31 is_stmt 0
 1326 0534 97070000 		ld	a5,.LANCHOR0
 1326      83B70700 
 1327              		.loc 1 274 41
 1328 053c 63800704 		beqz	a5,.L61
 1329              		.loc 1 274 58 discriminator 1
 1330 0540 03B78700 		ld	a4,8(a5)
 1331              		.loc 1 274 41 discriminator 1
 1332 0544 631C0702 		bnez	a4,.L61
 275:src/riscv.cpp ****                 headSleeping->thr->setSleeping(false);
 1333              		.loc 1 275 17 is_stmt 1
GAS LISTING /tmp/ccYEVC8S.s 			page 37


 1334              		.loc 1 275 31 is_stmt 0
 1335 0548 03B70700 		ld	a4,0(a5)
 1336              	.LVL77:
 1337              	.LBB275:
 1338              	.LBB276:
 1339              		.loc 3 41 9 is_stmt 1
 1340              		.loc 3 41 23 is_stmt 0
 1341 054c A3000704 		sb	zero,65(a4)
 1342              	.LVL78:
 1343              	.LBE276:
 1344              	.LBE275:
 276:src/riscv.cpp ****                 Scheduler::put(headSleeping->thr);
 1345              		.loc 1 276 17 is_stmt 1
 1346              		.loc 1 276 31 is_stmt 0
 1347 0550 03B50700 		ld	a0,0(a5)
 1348 0554 97000000 		call	_ZN9Scheduler3putEP3TCB@plt
 1348      E7800000 
 1349              	.LVL79:
 277:src/riscv.cpp ****                 old=headSleeping;
 1350              		.loc 1 277 17 is_stmt 1
 1351              		.loc 1 277 20 is_stmt 0
 1352 055c 97070000 		lla	a5,.LANCHOR0
 1352      93870700 
 1353 0564 03B50700 		ld	a0,0(a5)
 1354              	.LVL80:
 278:src/riscv.cpp ****                 headSleeping=headSleeping->next;
 1355              		.loc 1 278 17 is_stmt 1
 1356              		.loc 1 278 44 is_stmt 0
 1357 0568 03370501 		ld	a4,16(a0)
 1358              		.loc 1 278 29
 1359 056c 23B0E700 		sd	a4,0(a5)
 279:src/riscv.cpp ****                 MemoryAllocator::free(old);
 1360              		.loc 1 279 17 is_stmt 1
 1361              		.loc 1 279 38 is_stmt 0
 1362 0570 97000000 		call	_ZN15MemoryAllocator4freeEPv@plt
 1362      E7800000 
 1363              	.LVL81:
 274:src/riscv.cpp ****                 headSleeping->thr->setSleeping(false);
 1364              		.loc 1 274 13
 1365 0578 6FF0DFFB 		j	.L63
 1366              	.L61:
 1367              	.LBE272:
 1368              	.LBE277:
 1369              	.LBE279:
 280:src/riscv.cpp ****             }
 281:src/riscv.cpp ****         }
 282:src/riscv.cpp ****     }
 283:src/riscv.cpp **** }
 1370              		.loc 1 283 1
 1371 057c 83308100 		ld	ra,8(sp)
 1372              		.cfi_restore 1
 1373 0580 03340100 		ld	s0,0(sp)
 1374              		.cfi_restore 8
 1375              		.cfi_def_cfa 2, 16
 1376 0584 13010101 		addi	sp,sp,16
 1377              		.cfi_def_cfa_offset 0
 1378 0588 67800000 		jr	ra
GAS LISTING /tmp/ccYEVC8S.s 			page 38


 1379              		.cfi_endproc
 1380              	.LFE39:
 1382              		.align	2
 1383              		.globl	_ZN5Riscv14timerInterruptEv
 1385              	_ZN5Riscv14timerInterruptEv:
 1386              	.LFB35:
 164:src/riscv.cpp ****     uint64 scause=r_scause();
 1387              		.loc 1 164 30 is_stmt 1
 1388              		.cfi_startproc
 1389 058c 130101FC 		addi	sp,sp,-64
 1390              		.cfi_def_cfa_offset 64
 1391 0590 233C1102 		sd	ra,56(sp)
 1392 0594 23388102 		sd	s0,48(sp)
 1393              		.cfi_offset 1, -8
 1394              		.cfi_offset 8, -16
 1395 0598 13040104 		addi	s0,sp,64
 1396              		.cfi_def_cfa 8, 0
 165:src/riscv.cpp ****     if(scause==0x8000000000000001UL){
 1397              		.loc 1 165 5
 1398              	.LBB280:
 1399              	.LBB281:
  74:src/../h/riscv.hpp ****     __asm__ volatile("csrr %[scause], scause":[scause]"=r"(scause));
 1400              		.loc 2 74 5
  75:src/../h/riscv.hpp ****     return scause;
 1401              		.loc 2 75 5
  75:src/../h/riscv.hpp ****     return scause;
 1402              		.loc 2 75 68 is_stmt 0
 1403              	#APP
 1404              	# 75 "src/../h/riscv.hpp" 1
 1405              		csrr a5, scause
 1406              	# 0 "" 2
 1407              	#NO_APP
 1408 05a0 233CF4FC 		sd	a5,-40(s0)
  76:src/../h/riscv.hpp **** }
 1409              		.loc 2 76 5 is_stmt 1
  76:src/../h/riscv.hpp **** }
 1410              		.loc 2 76 12 is_stmt 0
 1411 05a4 033784FD 		ld	a4,-40(s0)
 1412              	.LVL82:
 1413              	.LBE281:
 1414              	.LBE280:
 166:src/riscv.cpp ****         //prekid od tajmera, softverski prekid
 1415              		.loc 1 166 5 is_stmt 1
 1416              	.LBB282:
 1417 05a8 9307F0FF 		li	a5,-1
 1418 05ac 9397F703 		slli	a5,a5,63
 1419 05b0 93871700 		addi	a5,a5,1
 1420 05b4 630AF700 		beq	a4,a5,.L73
 1421              	.LVL83:
 1422              	.L69:
 1423              	.LBE282:
 182:src/riscv.cpp **** 
 1424              		.loc 1 182 1 is_stmt 0
 1425 05b8 83308103 		ld	ra,56(sp)
 1426              		.cfi_remember_state
 1427              		.cfi_restore 1
 1428 05bc 03340103 		ld	s0,48(sp)
GAS LISTING /tmp/ccYEVC8S.s 			page 39


 1429              		.cfi_restore 8
 1430              		.cfi_def_cfa 2, 64
 1431 05c0 13010104 		addi	sp,sp,64
 1432              		.cfi_def_cfa_offset 0
 1433 05c4 67800000 		jr	ra
 1434              	.LVL84:
 1435              	.L73:
 1436              		.cfi_restore_state
 1437              	.LBB300:
 1438              	.LBB283:
 169:src/riscv.cpp **** 
 1439              		.loc 1 169 9 is_stmt 1
 169:src/riscv.cpp **** 
 1440              		.loc 1 169 27 is_stmt 0
 1441 05c8 97000000 		call	_ZN5Riscv18updateSleepingListEv
 1441      E7800000 
 1442              	.LVL85:
 171:src/riscv.cpp ****         if(TCB::timeSliceCounter>=TCB::running->getTimeSlice()){
 1443              		.loc 1 171 9 is_stmt 1
 171:src/riscv.cpp ****         if(TCB::timeSliceCounter>=TCB::running->getTimeSlice()){
 1444              		.loc 1 171 30 is_stmt 0
 1445 05d0 17070000 		la	a4,_ZN3TCB16timeSliceCounterE
 1445      03370700 
 1446 05d8 83370700 		ld	a5,0(a4)
 1447 05dc 93871700 		addi	a5,a5,1
 1448 05e0 2330F700 		sd	a5,0(a4)
 172:src/riscv.cpp ****             uint64 volatile sepc=r_sepc();
 1449              		.loc 1 172 9 is_stmt 1
 1450              	.LBB284:
 172:src/riscv.cpp ****             uint64 volatile sepc=r_sepc();
 1451              		.loc 1 172 61 is_stmt 0
 1452 05e4 17070000 		la	a4,_ZN3TCB7runningE
 1452      03370700 
 1453 05ec 03370700 		ld	a4,0(a4)
 1454              	.LVL86:
 1455              	.LBB285:
 1456              	.LBB286:
  33:src/../h/../h/TCB.hpp ****     }
 1457              		.loc 3 33 9 is_stmt 1
  33:src/../h/../h/TCB.hpp ****     }
 1458              		.loc 3 33 16 is_stmt 0
 1459 05f0 03378702 		ld	a4,40(a4)
 1460              	.LVL87:
 1461              	.LBE286:
 1462              	.LBE285:
 172:src/riscv.cpp ****             uint64 volatile sepc=r_sepc();
 1463              		.loc 1 172 9
 1464 05f4 63F8E700 		bgeu	a5,a4,.L74
 1465              	.L71:
 1466              	.LBE284:
 180:src/riscv.cpp ****     }
 1467              		.loc 1 180 9 is_stmt 1
 1468              	.LVL88:
 1469              	.LBB296:
 1470              	.LBB297:
 111:src/../h/riscv.hpp **** }
 1471              		.loc 2 111 5
GAS LISTING /tmp/ccYEVC8S.s 			page 40


 111:src/../h/riscv.hpp **** }
 1472              		.loc 2 111 59 is_stmt 0
 1473 05f8 93072000 		li	a5,2
 1474              	#APP
 1475              	# 111 "src/../h/riscv.hpp" 1
 1476              		csrc sip, a5
 1477              	# 0 "" 2
 1478              	.LVL89:
 1479              	#NO_APP
 1480              	.LBE297:
 1481              	.LBE296:
 1482              	.LBE283:
 1483              	.LBE300:
 182:src/riscv.cpp **** 
 1484              		.loc 1 182 1
 1485 0600 6FF09FFB 		j	.L69
 1486              	.L74:
 1487              	.LBB301:
 1488              	.LBB299:
 1489              	.LBB298:
 1490              	.LBB287:
 173:src/riscv.cpp ****             uint64 volatile sstatus=r_sstatus();
 1491              		.loc 1 173 13 is_stmt 1
 1492              	.LBB288:
 1493              	.LBB289:
  83:src/../h/riscv.hpp ****     __asm__ volatile("csrr %[sepc], sepc":[sepc]"=r"(sepc));
 1494              		.loc 2 83 5
  84:src/../h/riscv.hpp ****     return sepc;
 1495              		.loc 2 84 5
  84:src/../h/riscv.hpp ****     return sepc;
 1496              		.loc 2 84 60 is_stmt 0
 1497              	#APP
 1498              	# 84 "src/../h/riscv.hpp" 1
 1499              		csrr a5, sepc
 1500              	# 0 "" 2
 1501              	#NO_APP
 1502 0608 2334F4FE 		sd	a5,-24(s0)
  85:src/../h/riscv.hpp **** }
 1503              		.loc 2 85 5 is_stmt 1
  85:src/../h/riscv.hpp **** }
 1504              		.loc 2 85 12 is_stmt 0
 1505 060c 833784FE 		ld	a5,-24(s0)
 1506              	.LBE289:
 1507              	.LBE288:
 173:src/riscv.cpp ****             uint64 volatile sstatus=r_sstatus();
 1508              		.loc 1 173 41
 1509 0610 2334F4FC 		sd	a5,-56(s0)
 174:src/riscv.cpp ****             TCB::timeSliceCounter=0;
 1510              		.loc 1 174 13 is_stmt 1
 1511              	.LBB290:
 1512              	.LBB291:
 129:src/../h/riscv.hpp ****     __asm__ volatile("csrr %[sstatus], sstatus":[sstatus]"=r"(sstatus));
 1513              		.loc 2 129 5
 130:src/../h/riscv.hpp ****     return sstatus;
 1514              		.loc 2 130 5
 130:src/../h/riscv.hpp ****     return sstatus;
 1515              		.loc 2 130 72 is_stmt 0
GAS LISTING /tmp/ccYEVC8S.s 			page 41


 1516              	#APP
 1517              	# 130 "src/../h/riscv.hpp" 1
 1518              		csrr a5, sstatus
 1519              	# 0 "" 2
 1520              	#NO_APP
 1521 0618 2330F4FE 		sd	a5,-32(s0)
 131:src/../h/riscv.hpp **** }
 1522              		.loc 2 131 5 is_stmt 1
 131:src/../h/riscv.hpp **** }
 1523              		.loc 2 131 12 is_stmt 0
 1524 061c 833704FE 		ld	a5,-32(s0)
 1525              	.LBE291:
 1526              	.LBE290:
 174:src/riscv.cpp ****             TCB::timeSliceCounter=0;
 1527              		.loc 1 174 47
 1528 0620 2338F4FC 		sd	a5,-48(s0)
 175:src/riscv.cpp ****             TCB::dispatch();
 1529              		.loc 1 175 13 is_stmt 1
 175:src/riscv.cpp ****             TCB::dispatch();
 1530              		.loc 1 175 34 is_stmt 0
 1531 0624 97070000 		la	a5,_ZN3TCB16timeSliceCounterE
 1531      83B70700 
 1532 062c 23B00700 		sd	zero,0(a5)
 176:src/riscv.cpp ****             w_sstatus(sstatus);
 1533              		.loc 1 176 13 is_stmt 1
 176:src/riscv.cpp ****             w_sstatus(sstatus);
 1534              		.loc 1 176 26 is_stmt 0
 1535 0630 97000000 		call	_ZN3TCB8dispatchEv@plt
 1535      E7800000 
 1536              	.LVL90:
 177:src/riscv.cpp ****             w_sepc(sepc);
 1537              		.loc 1 177 13 is_stmt 1
 177:src/riscv.cpp ****             w_sepc(sepc);
 1538              		.loc 1 177 22 is_stmt 0
 1539 0638 833704FD 		ld	a5,-48(s0)
 1540              	.LVL91:
 1541              	.LBB292:
 1542              	.LBB293:
 134:src/../h/riscv.hpp **** }
 1543              		.loc 2 134 5 is_stmt 1
 134:src/../h/riscv.hpp **** }
 1544              		.loc 2 134 72 is_stmt 0
 1545              	#APP
 1546              	# 134 "src/../h/riscv.hpp" 1
 1547              		csrw sstatus, a5
 1548              	# 0 "" 2
 1549              	.LVL92:
 1550              	#NO_APP
 1551              	.LBE293:
 1552              	.LBE292:
 178:src/riscv.cpp ****         }
 1553              		.loc 1 178 13 is_stmt 1
 178:src/riscv.cpp ****         }
 1554              		.loc 1 178 19 is_stmt 0
 1555 0640 833784FC 		ld	a5,-56(s0)
 1556              	.LVL93:
 1557              	.LBB294:
GAS LISTING /tmp/ccYEVC8S.s 			page 42


 1558              	.LBB295:
  88:src/../h/riscv.hpp **** }
 1559              		.loc 2 88 5 is_stmt 1
  88:src/../h/riscv.hpp **** }
 1560              		.loc 2 88 60 is_stmt 0
 1561              	#APP
 1562              	# 88 "src/../h/riscv.hpp" 1
  89:src/../h/riscv.hpp **** inline uint64 Riscv::r_stvec(){
 1563              		csrw sepc, a5
 1564              	# 0 "" 2
 1565              		.loc 2 89 1
 1566              	#NO_APP
 1567 0648 6FF01FFB 		j	.L71
 1568              	.LBE295:
 1569              	.LBE294:
 1570              	.LBE287:
 1571              	.LBE298:
 1572              	.LBE299:
 1573              	.LBE301:
 1574              		.cfi_endproc
 1575              	.LFE35:
 1577              		.globl	_ZN5Riscv12headSleepingE
 1578              		.bss
 1579              		.align	3
 1580              		.set	.LANCHOR0,. + 0
 1583              	_ZN5Riscv12headSleepingE:
 1584 0000 00000000 		.zero	8
 1584      00000000 
 1585              		.text
 1586              	.Letext0:
 1587              		.file 4 "src/../h/../lib/hw.h"
 1588              		.file 5 "src/../h/MemoryAllocator.hpp"
 1589              		.file 6 "src/../h/_sem.hpp"
 1590              		.file 7 "src/../h/../h/list.hpp"
 1591              		.file 8 "src/../h/Scheduler.hpp"
 1592              		.file 9 "src/../h/_console.hpp"
 1593              		.file 10 "src/../test/../h/syscall_c.hpp"
 1594              		.file 11 "src/../test/printing.hpp"
GAS LISTING /tmp/ccYEVC8S.s 			page 43


DEFINED SYMBOLS
                            *ABS*:0000000000000000 riscv.cpp
     /tmp/ccYEVC8S.s:9      .text:0000000000000000 _ZN5Riscv17hardwareInterruptEv
     /tmp/ccYEVC8S.s:13     .text:0000000000000000 .L0 
     /tmp/ccYEVC8S.s:14     .text:0000000000000000 .L0 
     /tmp/ccYEVC8S.s:15     .text:0000000000000004 .L0 
     /tmp/ccYEVC8S.s:19     .text:0000000000000010 .L0 
     /tmp/ccYEVC8S.s:20     .text:0000000000000010 .L0 
     /tmp/ccYEVC8S.s:21     .text:0000000000000010 .L0 
     /tmp/ccYEVC8S.s:23     .text:0000000000000014 .L0 
     /tmp/ccYEVC8S.s:28     .text:0000000000000014 .L0 
     /tmp/ccYEVC8S.s:29     .text:0000000000000014 .L0 
     /tmp/ccYEVC8S.s:30     .text:0000000000000014 .L0 
  src/../h/riscv.hpp:75     .text:0000000000000014 .L0 
     /tmp/ccYEVC8S.s:38     .text:000000000000001c .L0 
     /tmp/ccYEVC8S.s:39     .text:000000000000001c .L0 
     /tmp/ccYEVC8S.s:45     .text:0000000000000020 .L0 
     /tmp/ccYEVC8S.s:53     .text:0000000000000030 .L0 
     /tmp/ccYEVC8S.s:54     .text:0000000000000034 .L0 
     /tmp/ccYEVC8S.s:55     .text:0000000000000034 .L0 
     /tmp/ccYEVC8S.s:57     .text:0000000000000038 .L0 
     /tmp/ccYEVC8S.s:58     .text:0000000000000038 .L0 
     /tmp/ccYEVC8S.s:60     .text:000000000000003c .L0 
     /tmp/ccYEVC8S.s:62     .text:0000000000000040 .L0 
     /tmp/ccYEVC8S.s:66     .text:0000000000000044 .L0 
     /tmp/ccYEVC8S.s:70     .text:0000000000000044 .L0 
     /tmp/ccYEVC8S.s:71     .text:0000000000000044 .L0 
     /tmp/ccYEVC8S.s:77     .text:0000000000000050 .L0 
     /tmp/ccYEVC8S.s:83     .text:0000000000000058 .L0 
     /tmp/ccYEVC8S.s:84     .text:0000000000000058 .L0 
     /tmp/ccYEVC8S.s:90     .text:0000000000000064 .L0 
     /tmp/ccYEVC8S.s:97     .text:0000000000000068 .L0 
     /tmp/ccYEVC8S.s:98     .text:0000000000000068 .L0 
     /tmp/ccYEVC8S.s:99     .text:0000000000000068 .L0 
     /tmp/ccYEVC8S.s:103    .text:0000000000000078 .L0 
     /tmp/ccYEVC8S.s:107    .text:0000000000000080 .L0 
     /tmp/ccYEVC8S.s:108    .text:0000000000000080 .L0 
     /tmp/ccYEVC8S.s:112    .text:000000000000008c .L0 
     /tmp/ccYEVC8S.s:113    .text:000000000000008c .L0 
     /tmp/ccYEVC8S.s:118    .text:0000000000000098 .L0 
     /tmp/ccYEVC8S.s:123    .text:000000000000009c .L0 
     /tmp/ccYEVC8S.s:129    .text:000000000000009c _ZN5Riscv10popSppSpieEv
     /tmp/ccYEVC8S.s:132    .text:000000000000009c .L0 
     /tmp/ccYEVC8S.s:133    .text:000000000000009c .L0 
     /tmp/ccYEVC8S.s:134    .text:00000000000000a0 .L0 
     /tmp/ccYEVC8S.s:136    .text:00000000000000a4 .L0 
     /tmp/ccYEVC8S.s:138    .text:00000000000000a8 .L0 
     /tmp/ccYEVC8S.s:143    .text:00000000000000a8 .L0 
     /tmp/ccYEVC8S.s:144    .text:00000000000000a8 .L0 
     /tmp/ccYEVC8S.s:145    .text:00000000000000a8 .L0 
     /tmp/ccYEVC8S.s:155    .text:00000000000000b0 .L0 
     /tmp/ccYEVC8S.s:162    .text:00000000000000c0 .L0 
     /tmp/ccYEVC8S.s:163    .text:00000000000000c0 .L0 
     /tmp/ccYEVC8S.s:164    .text:00000000000000c0 .L0 
     /tmp/ccYEVC8S.s:175    .text:00000000000000c8 .L0 
       src/riscv.cpp:216    .text:00000000000000c8 .L0 
     /tmp/ccYEVC8S.s:181    .text:00000000000000cc .L0 
GAS LISTING /tmp/ccYEVC8S.s 			page 44


       src/riscv.cpp:217    .text:00000000000000cc .L0 
     /tmp/ccYEVC8S.s:187    .text:00000000000000d0 .L0 
     /tmp/ccYEVC8S.s:188    .text:00000000000000d4 .L0 
     /tmp/ccYEVC8S.s:189    .text:00000000000000d4 .L0 
     /tmp/ccYEVC8S.s:190    .text:00000000000000d4 .L0 
     /tmp/ccYEVC8S.s:192    .text:00000000000000d8 .L0 
     /tmp/ccYEVC8S.s:195    .text:00000000000000dc .L0 
     /tmp/ccYEVC8S.s:200    .text:00000000000000dc .L0 
     /tmp/ccYEVC8S.s:201    .text:00000000000000dc .L0 
     /tmp/ccYEVC8S.s:202    .text:00000000000000dc .L0 
     /tmp/ccYEVC8S.s:209    .text:00000000000000e4 .L0 
     /tmp/ccYEVC8S.s:212    .text:00000000000000e8 .L0 
     /tmp/ccYEVC8S.s:218    .text:00000000000000e8 _ZN5Riscv10putToSleepEm
     /tmp/ccYEVC8S.s:221    .text:00000000000000e8 .L0 
     /tmp/ccYEVC8S.s:223    .text:00000000000000e8 .L0 
     /tmp/ccYEVC8S.s:224    .text:00000000000000e8 .L0 
     /tmp/ccYEVC8S.s:226    .text:00000000000000ec .L0 
     /tmp/ccYEVC8S.s:227    .text:00000000000000f0 .L0 
     /tmp/ccYEVC8S.s:232    .text:0000000000000100 .L0 
     /tmp/ccYEVC8S.s:233    .text:0000000000000100 .L0 
     /tmp/ccYEVC8S.s:234    .text:0000000000000100 .L0 
     /tmp/ccYEVC8S.s:235    .text:0000000000000100 .L0 
     /tmp/ccYEVC8S.s:237    .text:0000000000000104 .L0 
     /tmp/ccYEVC8S.s:240    .text:0000000000000108 .L0 
     /tmp/ccYEVC8S.s:241    .text:0000000000000108 .L0 
     /tmp/ccYEVC8S.s:248    .text:0000000000000114 .L0 
     /tmp/ccYEVC8S.s:249    .text:0000000000000114 .L0 
     /tmp/ccYEVC8S.s:255    .text:000000000000011c .L0 
     /tmp/ccYEVC8S.s:256    .text:000000000000011c .L0 
     /tmp/ccYEVC8S.s:261    .text:0000000000000128 .L0 
     /tmp/ccYEVC8S.s:262    .text:0000000000000128 .L0 
     /tmp/ccYEVC8S.s:266    .text:0000000000000130 .L0 
     /tmp/ccYEVC8S.s:267    .text:0000000000000130 .L0 
     /tmp/ccYEVC8S.s:269    .text:0000000000000138 .L0 
     /tmp/ccYEVC8S.s:274    .text:000000000000013c .L0 
     /tmp/ccYEVC8S.s:275    .text:000000000000013c .L0 
     /tmp/ccYEVC8S.s:277    .text:0000000000000140 .L0 
     /tmp/ccYEVC8S.s:279    .text:0000000000000144 .L0 
     /tmp/ccYEVC8S.s:280    .text:0000000000000144 .L0 
     /tmp/ccYEVC8S.s:282    .text:0000000000000148 .L0 
     /tmp/ccYEVC8S.s:283    .text:0000000000000148 .L0 
     /tmp/ccYEVC8S.s:285    .text:000000000000014c .L0 
     /tmp/ccYEVC8S.s:286    .text:000000000000014c .L0 
     /tmp/ccYEVC8S.s:290    .text:0000000000000158 .L0 
     /tmp/ccYEVC8S.s:291    .text:0000000000000158 .L0 
     /tmp/ccYEVC8S.s:296    .text:0000000000000160 .L0 
     /tmp/ccYEVC8S.s:297    .text:0000000000000160 .L0 
     /tmp/ccYEVC8S.s:300    .text:000000000000016c .L0 
     /tmp/ccYEVC8S.s:301    .text:000000000000016c .L0 
     /tmp/ccYEVC8S.s:304    .text:0000000000000174 .L0 
     /tmp/ccYEVC8S.s:305    .text:0000000000000174 .L0 
     /tmp/ccYEVC8S.s:307    .text:0000000000000178 .L0 
     /tmp/ccYEVC8S.s:308    .text:000000000000017c .L0 
     /tmp/ccYEVC8S.s:309    .text:000000000000017c .L0 
     /tmp/ccYEVC8S.s:311    .text:0000000000000180 .L0 
     /tmp/ccYEVC8S.s:312    .text:0000000000000180 .L0 
     /tmp/ccYEVC8S.s:314    .text:0000000000000184 .L0 
GAS LISTING /tmp/ccYEVC8S.s 			page 45


     /tmp/ccYEVC8S.s:317    .text:0000000000000188 .L0 
     /tmp/ccYEVC8S.s:319    .text:000000000000018c .L0 
     /tmp/ccYEVC8S.s:323    .text:0000000000000190 .L0 
     /tmp/ccYEVC8S.s:326    .text:0000000000000190 .L0 
     /tmp/ccYEVC8S.s:327    .text:0000000000000190 .L0 
     /tmp/ccYEVC8S.s:329    .text:0000000000000194 .L0 
     /tmp/ccYEVC8S.s:330    .text:0000000000000194 .L0 
     /tmp/ccYEVC8S.s:332    .text:0000000000000198 .L0 
     /tmp/ccYEVC8S.s:333    .text:0000000000000198 .L0 
     /tmp/ccYEVC8S.s:339    .text:00000000000001a4 .L0 
     /tmp/ccYEVC8S.s:340    .text:00000000000001a4 .L0 
     /tmp/ccYEVC8S.s:343    .text:00000000000001a8 .L0 
     /tmp/ccYEVC8S.s:344    .text:00000000000001a8 .L0 
     /tmp/ccYEVC8S.s:348    .text:00000000000001ac .L0 
     /tmp/ccYEVC8S.s:349    .text:00000000000001ac .L0 
     /tmp/ccYEVC8S.s:350    .text:00000000000001ac .L0 
     /tmp/ccYEVC8S.s:352    .text:00000000000001b0 .L0 
     /tmp/ccYEVC8S.s:354    .text:00000000000001b4 .L0 
     /tmp/ccYEVC8S.s:356    .text:00000000000001b8 .L0 
     /tmp/ccYEVC8S.s:357    .text:00000000000001b8 .L0 
     /tmp/ccYEVC8S.s:360    .text:00000000000001bc .L0 
     /tmp/ccYEVC8S.s:361    .text:00000000000001bc .L0 
     /tmp/ccYEVC8S.s:362    .text:00000000000001bc .L0 
     /tmp/ccYEVC8S.s:364    .text:00000000000001c0 .L0 
     /tmp/ccYEVC8S.s:367    .text:00000000000001c4 .L0 
     /tmp/ccYEVC8S.s:370    .text:00000000000001c8 .L0 
     /tmp/ccYEVC8S.s:372    .text:00000000000001cc .L0 
     /tmp/ccYEVC8S.s:373    .text:00000000000001cc .L0 
     /tmp/ccYEVC8S.s:375    .text:00000000000001d0 .L0 
     /tmp/ccYEVC8S.s:376    .text:00000000000001d0 .L0 
     /tmp/ccYEVC8S.s:381    .text:00000000000001dc .L0 
     /tmp/ccYEVC8S.s:382    .text:00000000000001dc .L0 
     /tmp/ccYEVC8S.s:384    .text:00000000000001e0 .L0 
     /tmp/ccYEVC8S.s:385    .text:00000000000001e0 .L0 
     /tmp/ccYEVC8S.s:389    .text:00000000000001e8 .L0 
     /tmp/ccYEVC8S.s:390    .text:00000000000001e8 .L0 
     /tmp/ccYEVC8S.s:394    .text:00000000000001f0 .L0 
     /tmp/ccYEVC8S.s:395    .text:00000000000001f0 .L0 
     /tmp/ccYEVC8S.s:396    .text:00000000000001f0 .L0 
     /tmp/ccYEVC8S.s:397    .text:00000000000001f0 .L0 
     /tmp/ccYEVC8S.s:398    .text:00000000000001f0 .L0 
     /tmp/ccYEVC8S.s:403    .text:00000000000001f0 .L0 
     /tmp/ccYEVC8S.s:406    .text:00000000000001f4 .L0 
     /tmp/ccYEVC8S.s:407    .text:00000000000001f8 .L0 
     /tmp/ccYEVC8S.s:424    .text:00000000000001f8 _ZN5Riscv20handleEcallExceptionEv
     /tmp/ccYEVC8S.s:427    .text:00000000000001f8 .L0 
     /tmp/ccYEVC8S.s:428    .text:00000000000001f8 .L0 
     /tmp/ccYEVC8S.s:429    .text:00000000000001fc .L0 
     /tmp/ccYEVC8S.s:433    .text:0000000000000208 .L0 
     /tmp/ccYEVC8S.s:434    .text:0000000000000208 .L0 
     /tmp/ccYEVC8S.s:435    .text:0000000000000208 .L0 
     /tmp/ccYEVC8S.s:437    .text:000000000000020c .L0 
     /tmp/ccYEVC8S.s:441    .text:000000000000020c .L0 
     /tmp/ccYEVC8S.s:442    .text:000000000000020c .L0 
     /tmp/ccYEVC8S.s:443    .text:000000000000020c .L0 
  src/../h/riscv.hpp:75     .text:000000000000020c .L0 
     /tmp/ccYEVC8S.s:451    .text:0000000000000214 .L0 
GAS LISTING /tmp/ccYEVC8S.s 			page 46


     /tmp/ccYEVC8S.s:452    .text:0000000000000214 .L0 
     /tmp/ccYEVC8S.s:457    .text:0000000000000218 .L0 
     /tmp/ccYEVC8S.s:458    .text:0000000000000218 .L0 
       src/riscv.cpp:20     .text:0000000000000218 .L0 
     /tmp/ccYEVC8S.s:466    .text:0000000000000220 .L0 
     /tmp/ccYEVC8S.s:467    .text:0000000000000220 .L0 
       src/riscv.cpp:22     .text:0000000000000220 .L0 
     /tmp/ccYEVC8S.s:475    .text:0000000000000228 .L0 
     /tmp/ccYEVC8S.s:476    .text:0000000000000228 .L0 
       src/riscv.cpp:24     .text:0000000000000228 .L0 
     /tmp/ccYEVC8S.s:484    .text:0000000000000230 .L0 
     /tmp/ccYEVC8S.s:485    .text:0000000000000230 .L0 
       src/riscv.cpp:26     .text:0000000000000230 .L0 
     /tmp/ccYEVC8S.s:493    .text:0000000000000238 .L0 
     /tmp/ccYEVC8S.s:494    .text:0000000000000238 .L0 
       src/riscv.cpp:28     .text:0000000000000238 .L0 
     /tmp/ccYEVC8S.s:503    .text:0000000000000240 .L0 
     /tmp/ccYEVC8S.s:504    .text:0000000000000240 .L0 
     /tmp/ccYEVC8S.s:506    .text:0000000000000244 .L0 
     /tmp/ccYEVC8S.s:512    .text:000000000000024c .L0 
     /tmp/ccYEVC8S.s:513    .text:000000000000024c .L0 
     /tmp/ccYEVC8S.s:514    .text:000000000000024c .L0 
  src/../h/riscv.hpp:84     .text:000000000000024c .L0 
     /tmp/ccYEVC8S.s:522    .text:0000000000000254 .L0 
     /tmp/ccYEVC8S.s:523    .text:0000000000000254 .L0 
     /tmp/ccYEVC8S.s:527    .text:0000000000000258 .L0 
     /tmp/ccYEVC8S.s:529    .text:000000000000025c .L0 
     /tmp/ccYEVC8S.s:533    .text:0000000000000260 .L0 
     /tmp/ccYEVC8S.s:534    .text:0000000000000260 .L0 
     /tmp/ccYEVC8S.s:535    .text:0000000000000260 .L0 
  src/../h/riscv.hpp:130    .text:0000000000000260 .L0 
     /tmp/ccYEVC8S.s:543    .text:0000000000000268 .L0 
     /tmp/ccYEVC8S.s:544    .text:0000000000000268 .L0 
     /tmp/ccYEVC8S.s:548    .text:000000000000026c .L0 
     /tmp/ccYEVC8S.s:551    .text:0000000000000270 .L0 
     /tmp/ccYEVC8S.s:552    .text:0000000000000270 .L0 
     /tmp/ccYEVC8S.s:554    .text:0000000000000274 .L0 
     /tmp/ccYEVC8S.s:564    .text:000000000000027c .L0 
     /tmp/ccYEVC8S.s:565    .text:000000000000027c .L0 
     /tmp/ccYEVC8S.s:567    .text:0000000000000280 .L0 
     /tmp/ccYEVC8S.s:579    .text:0000000000000288 .L0 
     /tmp/ccYEVC8S.s:580    .text:0000000000000288 .L0 
     /tmp/ccYEVC8S.s:582    .text:000000000000028c .L0 
     /tmp/ccYEVC8S.s:596    .text:0000000000000294 .L0 
     /tmp/ccYEVC8S.s:597    .text:0000000000000294 .L0 
     /tmp/ccYEVC8S.s:599    .text:0000000000000298 .L0 
     /tmp/ccYEVC8S.s:615    .text:00000000000002a0 .L0 
     /tmp/ccYEVC8S.s:616    .text:00000000000002a0 .L0 
     /tmp/ccYEVC8S.s:618    .text:00000000000002a4 .L0 
     /tmp/ccYEVC8S.s:636    .text:00000000000002ac .L0 
     /tmp/ccYEVC8S.s:637    .text:00000000000002ac .L0 
     /tmp/ccYEVC8S.s:639    .text:00000000000002b0 .L0 
     /tmp/ccYEVC8S.s:659    .text:00000000000002b8 .L0 
     /tmp/ccYEVC8S.s:660    .text:00000000000002b8 .L0 
     /tmp/ccYEVC8S.s:662    .text:00000000000002bc .L0 
     /tmp/ccYEVC8S.s:684    .text:00000000000002c4 .L0 
     /tmp/ccYEVC8S.s:685    .text:00000000000002c4 .L0 
GAS LISTING /tmp/ccYEVC8S.s 			page 47


     /tmp/ccYEVC8S.s:687    .text:00000000000002c8 .L0 
     /tmp/ccYEVC8S.s:711    .text:00000000000002d0 .L0 
     /tmp/ccYEVC8S.s:712    .text:00000000000002d0 .L0 
     /tmp/ccYEVC8S.s:714    .text:00000000000002d4 .L0 
     /tmp/ccYEVC8S.s:740    .text:00000000000002dc .L0 
     /tmp/ccYEVC8S.s:741    .text:00000000000002dc .L0 
     /tmp/ccYEVC8S.s:743    .text:00000000000002e0 .L0 
     /tmp/ccYEVC8S.s:771    .text:00000000000002e8 .L0 
     /tmp/ccYEVC8S.s:772    .text:00000000000002e8 .L0 
     /tmp/ccYEVC8S.s:774    .text:00000000000002ec .L0 
     /tmp/ccYEVC8S.s:804    .text:00000000000002f4 .L0 
     /tmp/ccYEVC8S.s:805    .text:00000000000002f4 .L0 
     /tmp/ccYEVC8S.s:807    .text:00000000000002f8 .L0 
     /tmp/ccYEVC8S.s:839    .text:0000000000000300 .L0 
     /tmp/ccYEVC8S.s:840    .text:0000000000000300 .L0 
     /tmp/ccYEVC8S.s:842    .text:0000000000000304 .L0 
     /tmp/ccYEVC8S.s:846    .text:000000000000030c .L0 
     /tmp/ccYEVC8S.s:847    .text:000000000000030c .L0 
     /tmp/ccYEVC8S.s:850    .text:0000000000000310 .L0 
     /tmp/ccYEVC8S.s:851    .text:0000000000000310 .L0 
     /tmp/ccYEVC8S.s:854    .text:0000000000000318 .L0 
       src/riscv.cpp:143    .text:0000000000000318 .L0 
     /tmp/ccYEVC8S.s:878    .text:0000000000000320 .L0 
     /tmp/ccYEVC8S.s:879    .text:0000000000000320 .L0 
     /tmp/ccYEVC8S.s:883    .text:000000000000032c .L0 
       src/riscv.cpp:38     .text:000000000000032c .L0 
     /tmp/ccYEVC8S.s:894    .text:0000000000000330 .L0 
     /tmp/ccYEVC8S.s:895    .text:0000000000000330 .L0 
     /tmp/ccYEVC8S.s:900    .text:0000000000000334 .L0 
  src/../h/riscv.hpp:134    .text:0000000000000334 .L0 
     /tmp/ccYEVC8S.s:910    .text:0000000000000338 .L0 
     /tmp/ccYEVC8S.s:911    .text:0000000000000338 .L0 
     /tmp/ccYEVC8S.s:916    .text:000000000000033c .L0 
  src/../h/riscv.hpp:88     .text:000000000000033c .L0 
     /tmp/ccYEVC8S.s:928    .text:0000000000000340 .L0 
     /tmp/ccYEVC8S.s:929    .text:0000000000000344 .L0 
     /tmp/ccYEVC8S.s:930    .text:0000000000000344 .L0 
     /tmp/ccYEVC8S.s:932    .text:0000000000000348 .L0 
     /tmp/ccYEVC8S.s:933    .text:0000000000000348 .L0 
     /tmp/ccYEVC8S.s:935    .text:000000000000034c .L0 
     /tmp/ccYEVC8S.s:938    .text:0000000000000350 .L0 
     /tmp/ccYEVC8S.s:942    .text:0000000000000354 .L0 
     /tmp/ccYEVC8S.s:949    .text:0000000000000354 .L0 
     /tmp/ccYEVC8S.s:950    .text:0000000000000354 .L0 
     /tmp/ccYEVC8S.s:954    .text:0000000000000360 .L0 
       src/riscv.cpp:43     .text:0000000000000360 .L0 
     /tmp/ccYEVC8S.s:967    .text:0000000000000368 .L0 
     /tmp/ccYEVC8S.s:968    .text:0000000000000368 .L0 
     /tmp/ccYEVC8S.s:975    .text:000000000000037c .L0 
     /tmp/ccYEVC8S.s:978    .text:0000000000000380 .L0 
     /tmp/ccYEVC8S.s:979    .text:0000000000000380 .L0 
     /tmp/ccYEVC8S.s:982    .text:0000000000000384 .L0 
     /tmp/ccYEVC8S.s:983    .text:0000000000000384 .L0 
     /tmp/ccYEVC8S.s:985    .text:0000000000000388 .L0 
     /tmp/ccYEVC8S.s:986    .text:0000000000000388 .L0 
     /tmp/ccYEVC8S.s:997    .text:0000000000000394 .L0 
     /tmp/ccYEVC8S.s:998    .text:0000000000000394 .L0 
GAS LISTING /tmp/ccYEVC8S.s 			page 48


     /tmp/ccYEVC8S.s:1012   .text:00000000000003a0 .L0 
     /tmp/ccYEVC8S.s:1013   .text:00000000000003a0 .L0 
     /tmp/ccYEVC8S.s:1016   .text:00000000000003a8 .L0 
       src/riscv.cpp:79     .text:00000000000003a8 .L0 
     /tmp/ccYEVC8S.s:1028   .text:00000000000003b0 .L0 
     /tmp/ccYEVC8S.s:1029   .text:00000000000003b0 .L0 
     /tmp/ccYEVC8S.s:1032   .text:00000000000003bc .L0 
     /tmp/ccYEVC8S.s:1033   .text:00000000000003bc .L0 
     /tmp/ccYEVC8S.s:1040   .text:00000000000003c8 .L0 
     /tmp/ccYEVC8S.s:1041   .text:00000000000003c8 .L0 
     /tmp/ccYEVC8S.s:1044   .text:00000000000003d0 .L0 
       src/riscv.cpp:90     .text:00000000000003d0 .L0 
     /tmp/ccYEVC8S.s:1057   .text:00000000000003d8 .L0 
     /tmp/ccYEVC8S.s:1058   .text:00000000000003d8 .L0 
     /tmp/ccYEVC8S.s:1061   .text:00000000000003dc .L0 
     /tmp/ccYEVC8S.s:1062   .text:00000000000003dc .L0 
     /tmp/ccYEVC8S.s:1071   .text:00000000000003ec .L0 
     /tmp/ccYEVC8S.s:1072   .text:00000000000003ec .L0 
     /tmp/ccYEVC8S.s:1078   .text:00000000000003fc .L0 
     /tmp/ccYEVC8S.s:1081   .text:0000000000000400 .L0 
     /tmp/ccYEVC8S.s:1082   .text:0000000000000400 .L0 
     /tmp/ccYEVC8S.s:1085   .text:0000000000000404 .L0 
     /tmp/ccYEVC8S.s:1086   .text:0000000000000404 .L0 
     /tmp/ccYEVC8S.s:1088   .text:0000000000000408 .L0 
     /tmp/ccYEVC8S.s:1089   .text:0000000000000408 .L0 
     /tmp/ccYEVC8S.s:1100   .text:0000000000000414 .L0 
     /tmp/ccYEVC8S.s:1101   .text:0000000000000414 .L0 
     /tmp/ccYEVC8S.s:1115   .text:0000000000000420 .L0 
     /tmp/ccYEVC8S.s:1116   .text:0000000000000420 .L0 
     /tmp/ccYEVC8S.s:1119   .text:0000000000000424 .L0 
     /tmp/ccYEVC8S.s:1120   .text:0000000000000424 .L0 
     /tmp/ccYEVC8S.s:1123   .text:000000000000042c .L0 
       src/riscv.cpp:121    .text:000000000000042c .L0 
     /tmp/ccYEVC8S.s:1136   .text:0000000000000434 .L0 
     /tmp/ccYEVC8S.s:1137   .text:0000000000000434 .L0 
     /tmp/ccYEVC8S.s:1140   .text:0000000000000438 .L0 
     /tmp/ccYEVC8S.s:1141   .text:0000000000000438 .L0 
     /tmp/ccYEVC8S.s:1144   .text:0000000000000440 .L0 
       src/riscv.cpp:127    .text:0000000000000440 .L0 
     /tmp/ccYEVC8S.s:1157   .text:0000000000000448 .L0 
     /tmp/ccYEVC8S.s:1158   .text:0000000000000448 .L0 
     /tmp/ccYEVC8S.s:1161   .text:000000000000044c .L0 
     /tmp/ccYEVC8S.s:1162   .text:000000000000044c .L0 
     /tmp/ccYEVC8S.s:1165   .text:0000000000000454 .L0 
       src/riscv.cpp:133    .text:0000000000000454 .L0 
     /tmp/ccYEVC8S.s:1177   .text:000000000000045c .L0 
     /tmp/ccYEVC8S.s:1178   .text:000000000000045c .L0 
     /tmp/ccYEVC8S.s:1197   .text:000000000000046c .L0 
     /tmp/ccYEVC8S.s:1198   .text:000000000000046c .L0 
     /tmp/ccYEVC8S.s:1202   .text:000000000000047c .L0 
     /tmp/ccYEVC8S.s:1203   .text:000000000000047c .L0 
     /tmp/ccYEVC8S.s:1209   .text:0000000000000490 .L0 
     /tmp/ccYEVC8S.s:1210   .text:0000000000000490 .L0 
     /tmp/ccYEVC8S.s:1216   .text:00000000000004a0 .L0 
     /tmp/ccYEVC8S.s:1217   .text:00000000000004a0 .L0 
     /tmp/ccYEVC8S.s:1218   .text:00000000000004a0 .L0 
  src/../h/riscv.hpp:84     .text:00000000000004a0 .L0 
GAS LISTING /tmp/ccYEVC8S.s 			page 49


     /tmp/ccYEVC8S.s:1226   .text:00000000000004a8 .L0 
     /tmp/ccYEVC8S.s:1227   .text:00000000000004a8 .L0 
     /tmp/ccYEVC8S.s:1231   .text:00000000000004ac .L0 
     /tmp/ccYEVC8S.s:1237   .text:00000000000004c0 .L0 
     /tmp/ccYEVC8S.s:1238   .text:00000000000004c0 .L0 
     /tmp/ccYEVC8S.s:1243   .text:00000000000004d0 .L0 
     /tmp/ccYEVC8S.s:1244   .text:00000000000004d0 .L0 
     /tmp/ccYEVC8S.s:1246   .text:00000000000004d4 .L0 
     /tmp/ccYEVC8S.s:1252   .text:00000000000004d4 _ZN5Riscv18updateSleepingListEv
     /tmp/ccYEVC8S.s:1255   .text:00000000000004d4 .L0 
     /tmp/ccYEVC8S.s:1256   .text:00000000000004d4 .L0 
     /tmp/ccYEVC8S.s:1258   .text:00000000000004d4 .L0 
     /tmp/ccYEVC8S.s:1259   .text:00000000000004d4 .L0 
     /tmp/ccYEVC8S.s:1261   .text:00000000000004dc .L0 
     /tmp/ccYEVC8S.s:1266   .text:00000000000004e0 .L0 
     /tmp/ccYEVC8S.s:1267   .text:00000000000004e0 .L0 
     /tmp/ccYEVC8S.s:1269   .text:00000000000004e4 .L0 
     /tmp/ccYEVC8S.s:1271   .text:00000000000004e8 .L0 
     /tmp/ccYEVC8S.s:1273   .text:00000000000004ec .L0 
     /tmp/ccYEVC8S.s:1280   .text:00000000000004f4 .L0 
     /tmp/ccYEVC8S.s:1281   .text:00000000000004f8 .L0 
     /tmp/ccYEVC8S.s:1284   .text:0000000000000500 .L0 
     /tmp/ccYEVC8S.s:1285   .text:0000000000000500 .L0 
     /tmp/ccYEVC8S.s:1287   .text:0000000000000504 .L0 
     /tmp/ccYEVC8S.s:1292   .text:0000000000000504 .L0 
     /tmp/ccYEVC8S.s:1293   .text:0000000000000504 .L0 
     /tmp/ccYEVC8S.s:1298   .text:0000000000000508 .L0 
     /tmp/ccYEVC8S.s:1299   .text:0000000000000508 .L0 
     /tmp/ccYEVC8S.s:1304   .text:000000000000050c .L0 
     /tmp/ccYEVC8S.s:1305   .text:000000000000050c .L0 
     /tmp/ccYEVC8S.s:1309   .text:0000000000000518 .L0 
     /tmp/ccYEVC8S.s:1310   .text:0000000000000518 .L0 
     /tmp/ccYEVC8S.s:1314   .text:0000000000000524 .L0 
     /tmp/ccYEVC8S.s:1315   .text:0000000000000524 .L0 
     /tmp/ccYEVC8S.s:1317   .text:0000000000000528 .L0 
     /tmp/ccYEVC8S.s:1319   .text:000000000000052c .L0 
     /tmp/ccYEVC8S.s:1320   .text:000000000000052c .L0 
     /tmp/ccYEVC8S.s:1324   .text:0000000000000534 .L0 
     /tmp/ccYEVC8S.s:1325   .text:0000000000000534 .L0 
     /tmp/ccYEVC8S.s:1326   .text:0000000000000534 .L0 
     /tmp/ccYEVC8S.s:1328   .text:000000000000053c .L0 
     /tmp/ccYEVC8S.s:1330   .text:0000000000000540 .L0 
     /tmp/ccYEVC8S.s:1332   .text:0000000000000544 .L0 
     /tmp/ccYEVC8S.s:1334   .text:0000000000000548 .L0 
     /tmp/ccYEVC8S.s:1335   .text:0000000000000548 .L0 
     /tmp/ccYEVC8S.s:1340   .text:000000000000054c .L0 
     /tmp/ccYEVC8S.s:1341   .text:000000000000054c .L0 
     /tmp/ccYEVC8S.s:1346   .text:0000000000000550 .L0 
     /tmp/ccYEVC8S.s:1347   .text:0000000000000550 .L0 
     /tmp/ccYEVC8S.s:1351   .text:000000000000055c .L0 
     /tmp/ccYEVC8S.s:1352   .text:000000000000055c .L0 
     /tmp/ccYEVC8S.s:1356   .text:0000000000000568 .L0 
     /tmp/ccYEVC8S.s:1357   .text:0000000000000568 .L0 
     /tmp/ccYEVC8S.s:1359   .text:000000000000056c .L0 
     /tmp/ccYEVC8S.s:1361   .text:0000000000000570 .L0 
     /tmp/ccYEVC8S.s:1362   .text:0000000000000570 .L0 
     /tmp/ccYEVC8S.s:1365   .text:0000000000000578 .L0 
GAS LISTING /tmp/ccYEVC8S.s 			page 50


     /tmp/ccYEVC8S.s:1371   .text:000000000000057c .L0 
     /tmp/ccYEVC8S.s:1372   .text:0000000000000580 .L0 
     /tmp/ccYEVC8S.s:1374   .text:0000000000000584 .L0 
     /tmp/ccYEVC8S.s:1375   .text:0000000000000584 .L0 
     /tmp/ccYEVC8S.s:1377   .text:0000000000000588 .L0 
     /tmp/ccYEVC8S.s:1379   .text:000000000000058c .L0 
     /tmp/ccYEVC8S.s:1385   .text:000000000000058c _ZN5Riscv14timerInterruptEv
     /tmp/ccYEVC8S.s:1388   .text:000000000000058c .L0 
     /tmp/ccYEVC8S.s:1389   .text:000000000000058c .L0 
     /tmp/ccYEVC8S.s:1390   .text:0000000000000590 .L0 
     /tmp/ccYEVC8S.s:1393   .text:0000000000000598 .L0 
     /tmp/ccYEVC8S.s:1394   .text:0000000000000598 .L0 
     /tmp/ccYEVC8S.s:1396   .text:000000000000059c .L0 
     /tmp/ccYEVC8S.s:1400   .text:000000000000059c .L0 
     /tmp/ccYEVC8S.s:1401   .text:000000000000059c .L0 
     /tmp/ccYEVC8S.s:1402   .text:000000000000059c .L0 
  src/../h/riscv.hpp:75     .text:000000000000059c .L0 
     /tmp/ccYEVC8S.s:1410   .text:00000000000005a4 .L0 
     /tmp/ccYEVC8S.s:1411   .text:00000000000005a4 .L0 
     /tmp/ccYEVC8S.s:1417   .text:00000000000005a8 .L0 
     /tmp/ccYEVC8S.s:1425   .text:00000000000005b8 .L0 
     /tmp/ccYEVC8S.s:1426   .text:00000000000005bc .L0 
     /tmp/ccYEVC8S.s:1427   .text:00000000000005bc .L0 
     /tmp/ccYEVC8S.s:1429   .text:00000000000005c0 .L0 
     /tmp/ccYEVC8S.s:1430   .text:00000000000005c0 .L0 
     /tmp/ccYEVC8S.s:1432   .text:00000000000005c4 .L0 
     /tmp/ccYEVC8S.s:1436   .text:00000000000005c8 .L0 
     /tmp/ccYEVC8S.s:1440   .text:00000000000005c8 .L0 
     /tmp/ccYEVC8S.s:1441   .text:00000000000005c8 .L0 
     /tmp/ccYEVC8S.s:1444   .text:00000000000005d0 .L0 
     /tmp/ccYEVC8S.s:1445   .text:00000000000005d0 .L0 
     /tmp/ccYEVC8S.s:1451   .text:00000000000005e4 .L0 
     /tmp/ccYEVC8S.s:1452   .text:00000000000005e4 .L0 
     /tmp/ccYEVC8S.s:1458   .text:00000000000005f0 .L0 
     /tmp/ccYEVC8S.s:1459   .text:00000000000005f0 .L0 
     /tmp/ccYEVC8S.s:1464   .text:00000000000005f4 .L0 
     /tmp/ccYEVC8S.s:1471   .text:00000000000005f8 .L0 
     /tmp/ccYEVC8S.s:1472   .text:00000000000005f8 .L0 
     /tmp/ccYEVC8S.s:1473   .text:00000000000005f8 .L0 
     /tmp/ccYEVC8S.s:1485   .text:0000000000000600 .L0 
     /tmp/ccYEVC8S.s:1494   .text:0000000000000604 .L0 
     /tmp/ccYEVC8S.s:1495   .text:0000000000000604 .L0 
     /tmp/ccYEVC8S.s:1496   .text:0000000000000604 .L0 
  src/../h/riscv.hpp:84     .text:0000000000000604 .L0 
     /tmp/ccYEVC8S.s:1504   .text:000000000000060c .L0 
     /tmp/ccYEVC8S.s:1505   .text:000000000000060c .L0 
     /tmp/ccYEVC8S.s:1509   .text:0000000000000610 .L0 
     /tmp/ccYEVC8S.s:1513   .text:0000000000000614 .L0 
     /tmp/ccYEVC8S.s:1514   .text:0000000000000614 .L0 
     /tmp/ccYEVC8S.s:1515   .text:0000000000000614 .L0 
  src/../h/riscv.hpp:130    .text:0000000000000614 .L0 
     /tmp/ccYEVC8S.s:1523   .text:000000000000061c .L0 
     /tmp/ccYEVC8S.s:1524   .text:000000000000061c .L0 
     /tmp/ccYEVC8S.s:1528   .text:0000000000000620 .L0 
     /tmp/ccYEVC8S.s:1530   .text:0000000000000624 .L0 
     /tmp/ccYEVC8S.s:1531   .text:0000000000000624 .L0 
     /tmp/ccYEVC8S.s:1534   .text:0000000000000630 .L0 
GAS LISTING /tmp/ccYEVC8S.s 			page 51


     /tmp/ccYEVC8S.s:1535   .text:0000000000000630 .L0 
     /tmp/ccYEVC8S.s:1538   .text:0000000000000638 .L0 
     /tmp/ccYEVC8S.s:1539   .text:0000000000000638 .L0 
     /tmp/ccYEVC8S.s:1544   .text:000000000000063c .L0 
  src/../h/riscv.hpp:134    .text:000000000000063c .L0 
     /tmp/ccYEVC8S.s:1554   .text:0000000000000640 .L0 
     /tmp/ccYEVC8S.s:1555   .text:0000000000000640 .L0 
     /tmp/ccYEVC8S.s:1560   .text:0000000000000644 .L0 
  src/../h/riscv.hpp:88     .text:0000000000000644 .L0 
     /tmp/ccYEVC8S.s:1567   .text:0000000000000648 .L0 
     /tmp/ccYEVC8S.s:1574   .text:000000000000064c .L0 
     /tmp/ccYEVC8S.s:1583   .bss:0000000000000000 _ZN5Riscv12headSleepingE
     /tmp/ccYEVC8S.s:1580   .bss:0000000000000000 .LANCHOR0
     /tmp/ccYEVC8S.s:1595   .text:000000000000064c .L0 
     /tmp/ccYEVC8S.s:99     .text:0000000000000068 .L0 
     /tmp/ccYEVC8S.s:108    .text:0000000000000080 .L0 
     /tmp/ccYEVC8S.s:155    .text:00000000000000b0 .L0 
     /tmp/ccYEVC8S.s:241    .text:0000000000000108 .L0 
     /tmp/ccYEVC8S.s:267    .text:0000000000000130 .L0 
     /tmp/ccYEVC8S.s:291    .text:0000000000000158 .L0 
     /tmp/ccYEVC8S.s:297    .text:0000000000000160 .L0 
     /tmp/ccYEVC8S.s:333    .text:0000000000000198 .L0 
     /tmp/ccYEVC8S.s:1029   .text:00000000000003b0 .L0 
     /tmp/ccYEVC8S.s:412    .rodata.str1.8:0000000000000000 .LC0
     /tmp/ccYEVC8S.s:1198   .text:000000000000046c .L0 
     /tmp/ccYEVC8S.s:415    .rodata.str1.8:0000000000000008 .LC1
     /tmp/ccYEVC8S.s:1210   .text:0000000000000490 .L0 
     /tmp/ccYEVC8S.s:418    .rodata.str1.8:0000000000000010 .LC2
     /tmp/ccYEVC8S.s:1238   .text:00000000000004c0 .L0 
     /tmp/ccYEVC8S.s:1259   .text:00000000000004d4 .L0 
     /tmp/ccYEVC8S.s:1310   .text:0000000000000518 .L0 
     /tmp/ccYEVC8S.s:1326   .text:0000000000000534 .L0 
     /tmp/ccYEVC8S.s:1352   .text:000000000000055c .L0 
     /tmp/ccYEVC8S.s:1445   .text:00000000000005d0 .L0 
     /tmp/ccYEVC8S.s:1452   .text:00000000000005e4 .L0 
     /tmp/ccYEVC8S.s:1531   .text:0000000000000624 .L0 
     /tmp/ccYEVC8S.s:65     .text:0000000000000044 .L6
     /tmp/ccYEVC8S.s:91     .text:0000000000000068 .L4
     /tmp/ccYEVC8S.s:50     .text:0000000000000030 .L1
     /tmp/ccYEVC8S.s:80     .text:0000000000000058 .L3
     /tmp/ccYEVC8S.s:194    .text:00000000000000dc .L8
     /tmp/ccYEVC8S.s:171    .text:00000000000000c8 .L9
     /tmp/ccYEVC8S.s:393    .text:00000000000001f0 .L20
     /tmp/ccYEVC8S.s:322    .text:0000000000000190 .L25
     /tmp/ccYEVC8S.s:335    .text:00000000000001a4 .L15
     /tmp/ccYEVC8S.s:292    .text:0000000000000160 .L14
     /tmp/ccYEVC8S.s:368    .text:00000000000001c8 .L16
     /tmp/ccYEVC8S.s:347    .text:00000000000001ac .L17
     /tmp/ccYEVC8S.s:387    .text:00000000000001e8 .L26
     /tmp/ccYEVC8S.s:379    .text:00000000000001dc .L19
     /tmp/ccYEVC8S.s:1182   .text:000000000000046c .L28
     /tmp/ccYEVC8S.s:863    .text:0000000000000320 .L47
     /tmp/ccYEVC8S.s:941    .text:0000000000000354 .L48
     /tmp/ccYEVC8S.s:963    .text:0000000000000368 .L49
     /tmp/ccYEVC8S.s:1006   .text:00000000000003a0 .L50
     /tmp/ccYEVC8S.s:1025   .text:00000000000003b0 .L51
     /tmp/ccYEVC8S.s:1036   .text:00000000000003c8 .L52
GAS LISTING /tmp/ccYEVC8S.s 			page 52


     /tmp/ccYEVC8S.s:1053   .text:00000000000003d8 .L53
     /tmp/ccYEVC8S.s:1067   .text:00000000000003ec .L54
     /tmp/ccYEVC8S.s:1109   .text:0000000000000420 .L55
     /tmp/ccYEVC8S.s:1132   .text:0000000000000434 .L56
     /tmp/ccYEVC8S.s:1153   .text:0000000000000448 .L57
     /tmp/ccYEVC8S.s:1174   .text:000000000000045c .L58
     /tmp/ccYEVC8S.s:890    .text:0000000000000330 .L30
     /tmp/ccYEVC8S.s:994    .text:0000000000000394 .L59
     /tmp/ccYEVC8S.s:1097   .text:0000000000000414 .L60
     /tmp/ccYEVC8S.s:1241   .text:00000000000004d0 .L44
     /tmp/ccYEVC8S.s:1274   .text:00000000000004f0 .L65
     /tmp/ccYEVC8S.s:1276   .text:00000000000004f4 .L68
     /tmp/ccYEVC8S.s:1366   .text:000000000000057c .L61
     /tmp/ccYEVC8S.s:1322   .text:0000000000000534 .L63
     /tmp/ccYEVC8S.s:1435   .text:00000000000005c8 .L73
     /tmp/ccYEVC8S.s:1486   .text:0000000000000604 .L74
     /tmp/ccYEVC8S.s:1422   .text:00000000000005b8 .L69
     /tmp/ccYEVC8S.s:1465   .text:00000000000005f8 .L71
     /tmp/ccYEVC8S.s:3865   .debug_abbrev:0000000000000000 .Ldebug_abbrev0
     /tmp/ccYEVC8S.s:5647   .debug_str:000000000000098e .LASF196
     /tmp/ccYEVC8S.s:5703   .debug_str:0000000000000bb4 .LASF197
     /tmp/ccYEVC8S.s:5435   .debug_str:000000000000034e .LASF198
     /tmp/ccYEVC8S.s:5      .text:0000000000000000 .Ltext0
     /tmp/ccYEVC8S.s:1586   .text:000000000000064c .Letext0
     /tmp/ccYEVC8S.s:5325   .debug_line:0000000000000000 .Ldebug_line0
     /tmp/ccYEVC8S.s:5457   .debug_str:0000000000000410 .LASF0
     /tmp/ccYEVC8S.s:5485   .debug_str:0000000000000505 .LASF1
     /tmp/ccYEVC8S.s:5591   .debug_str:0000000000000824 .LASF2
     /tmp/ccYEVC8S.s:5599   .debug_str:0000000000000869 .LASF4
     /tmp/ccYEVC8S.s:5467   .debug_str:0000000000000481 .LASF3
     /tmp/ccYEVC8S.s:5337   .debug_str:000000000000003e .LASF5
     /tmp/ccYEVC8S.s:5567   .debug_str:0000000000000763 .LASF6
     /tmp/ccYEVC8S.s:5555   .debug_str:0000000000000706 .LASF7
     /tmp/ccYEVC8S.s:5477   .debug_str:00000000000004d1 .LASF8
     /tmp/ccYEVC8S.s:5433   .debug_str:000000000000033e .LASF9
     /tmp/ccYEVC8S.s:5441   .debug_str:0000000000000394 .LASF10
     /tmp/ccYEVC8S.s:5365   .debug_str:000000000000012e .LASF11
     /tmp/ccYEVC8S.s:5423   .debug_str:0000000000000302 .LASF12
     /tmp/ccYEVC8S.s:5383   .debug_str:00000000000001c0 .LASF13
     /tmp/ccYEVC8S.s:5363   .debug_str:000000000000011e .LASF14
     /tmp/ccYEVC8S.s:5631   .debug_str:0000000000000950 .LASF15
     /tmp/ccYEVC8S.s:5405   .debug_str:0000000000000265 .LASF16
     /tmp/ccYEVC8S.s:5615   .debug_str:00000000000008cf .LASF17
     /tmp/ccYEVC8S.s:5659   .debug_str:0000000000000a7e .LASF72
     /tmp/ccYEVC8S.s:5531   .debug_str:0000000000000651 .LASF74
     /tmp/ccYEVC8S.s:5487   .debug_str:0000000000000518 .LASF95
     /tmp/ccYEVC8S.s:5675   .debug_str:0000000000000aee .LASF96
     /tmp/ccYEVC8S.s:5371   .debug_str:0000000000000155 .LASF18
     /tmp/ccYEVC8S.s:5397   .debug_str:0000000000000233 .LASF20
     /tmp/ccYEVC8S.s:5465   .debug_str:000000000000045f .LASF19
     /tmp/ccYEVC8S.s:5629   .debug_str:0000000000000943 .LASF21
     /tmp/ccYEVC8S.s:5475   .debug_str:00000000000004c2 .LASF22
     /tmp/ccYEVC8S.s:5611   .debug_str:00000000000008ab .LASF23
     /tmp/ccYEVC8S.s:5545   .debug_str:00000000000006c2 .LASF24
     /tmp/ccYEVC8S.s:5643   .debug_str:000000000000097c .LASF25
     /tmp/ccYEVC8S.s:5687   .debug_str:0000000000000b46 .LASF84
     /tmp/ccYEVC8S.s:5711   .debug_str:0000000000000be8 .LASF29
GAS LISTING /tmp/ccYEVC8S.s 			page 53


     /tmp/ccYEVC8S.s:5413   .debug_str:00000000000002a8 .LASF26
     /tmp/ccYEVC8S.s:5645   .debug_str:0000000000000981 .LASF27
     /tmp/ccYEVC8S.s:5393   .debug_str:0000000000000215 .LASF28
     /tmp/ccYEVC8S.s:5579   .debug_str:00000000000007b5 .LASF30
     /tmp/ccYEVC8S.s:5473   .debug_str:00000000000004b9 .LASF31
     /tmp/ccYEVC8S.s:5411   .debug_str:000000000000029f .LASF32
     /tmp/ccYEVC8S.s:5705   .debug_str:0000000000000bc2 .LASF33
     /tmp/ccYEVC8S.s:5553   .debug_str:00000000000006f9 .LASF86
     /tmp/ccYEVC8S.s:5695   .debug_str:0000000000000b80 .LASF34
     /tmp/ccYEVC8S.s:5367   .debug_str:000000000000013d .LASF35
     /tmp/ccYEVC8S.s:5445   .debug_str:00000000000003b7 .LASF68
     /tmp/ccYEVC8S.s:5453   .debug_str:00000000000003f2 .LASF70
     /tmp/ccYEVC8S.s:5671   .debug_str:0000000000000ae0 .LASF36
     /tmp/ccYEVC8S.s:5663   .debug_str:0000000000000a95 .LASF38
     /tmp/ccYEVC8S.s:5587   .debug_str:0000000000000810 .LASF40
     /tmp/ccYEVC8S.s:5537   .debug_str:000000000000068b .LASF42
     /tmp/ccYEVC8S.s:5571   .debug_str:0000000000000772 .LASF37
     /tmp/ccYEVC8S.s:5573   .debug_str:0000000000000779 .LASF39
     /tmp/ccYEVC8S.s:5527   .debug_str:0000000000000645 .LASF41
     /tmp/ccYEVC8S.s:5479   .debug_str:00000000000004e4 .LASF43
     /tmp/ccYEVC8S.s:5701   .debug_str:0000000000000bac .LASF44
     /tmp/ccYEVC8S.s:5655   .debug_str:0000000000000a64 .LASF45
     /tmp/ccYEVC8S.s:5523   .debug_str:0000000000000638 .LASF46
     /tmp/ccYEVC8S.s:5535   .debug_str:0000000000000677 .LASF47
     /tmp/ccYEVC8S.s:5493   .debug_str:0000000000000539 .LASF48
     /tmp/ccYEVC8S.s:5577   .debug_str:00000000000007a1 .LASF49
     /tmp/ccYEVC8S.s:5727   .debug_str:0000000000000c84 .LASF50
     /tmp/ccYEVC8S.s:5463   .debug_str:000000000000044b .LASF51
     /tmp/ccYEVC8S.s:5339   .debug_str:0000000000000045 .LASF52
     /tmp/ccYEVC8S.s:5595   .debug_str:000000000000083c .LASF53
     /tmp/ccYEVC8S.s:5589   .debug_str:0000000000000819 .LASF54
     /tmp/ccYEVC8S.s:5721   .debug_str:0000000000000c4a .LASF55
     /tmp/ccYEVC8S.s:5691   .debug_str:0000000000000b6e .LASF56
     /tmp/ccYEVC8S.s:5709   .debug_str:0000000000000bd2 .LASF57
     /tmp/ccYEVC8S.s:5681   .debug_str:0000000000000b17 .LASF58
     /tmp/ccYEVC8S.s:5509   .debug_str:00000000000005b4 .LASF59
     /tmp/ccYEVC8S.s:5625   .debug_str:0000000000000932 .LASF60
     /tmp/ccYEVC8S.s:5601   .debug_str:0000000000000870 .LASF61
     /tmp/ccYEVC8S.s:5603   .debug_str:0000000000000883 .LASF62
     /tmp/ccYEVC8S.s:5369   .debug_str:0000000000000142 .LASF63
     /tmp/ccYEVC8S.s:5401   .debug_str:0000000000000241 .LASF64
     /tmp/ccYEVC8S.s:5451   .debug_str:00000000000003e0 .LASF65
     /tmp/ccYEVC8S.s:5461   .debug_str:0000000000000445 .LASF66
     /tmp/ccYEVC8S.s:5395   .debug_str:0000000000000221 .LASF67
     /tmp/ccYEVC8S.s:5699   .debug_str:0000000000000b9d .LASF69
     /tmp/ccYEVC8S.s:5439   .debug_str:0000000000000378 .LASF71
     /tmp/ccYEVC8S.s:5679   .debug_str:0000000000000b0c .LASF73
     /tmp/ccYEVC8S.s:5415   .debug_str:00000000000002b4 .LASF75
     /tmp/ccYEVC8S.s:5353   .debug_str:00000000000000b7 .LASF76
     /tmp/ccYEVC8S.s:5517   .debug_str:00000000000005f1 .LASF77
     /tmp/ccYEVC8S.s:5725   .debug_str:0000000000000c6f .LASF78
     /tmp/ccYEVC8S.s:5689   .debug_str:0000000000000b4c .LASF80
     /tmp/ccYEVC8S.s:5349   .debug_str:000000000000008b .LASF79
     /tmp/ccYEVC8S.s:5497   .debug_str:000000000000054c .LASF81
     /tmp/ccYEVC8S.s:5715   .debug_str:0000000000000c09 .LASF82
     /tmp/ccYEVC8S.s:5613   .debug_str:00000000000008b0 .LASF83
     /tmp/ccYEVC8S.s:5429   .debug_str:0000000000000327 .LASF98
GAS LISTING /tmp/ccYEVC8S.s 			page 54


     /tmp/ccYEVC8S.s:5547   .debug_str:00000000000006d3 .LASF85
     /tmp/ccYEVC8S.s:5609   .debug_str:00000000000008a4 .LASF87
     /tmp/ccYEVC8S.s:5483   .debug_str:0000000000000500 .LASF88
     /tmp/ccYEVC8S.s:5657   .debug_str:0000000000000a78 .LASF89
     /tmp/ccYEVC8S.s:5585   .debug_str:00000000000007f3 .LASF90
     /tmp/ccYEVC8S.s:5539   .debug_str:00000000000006a0 .LASF91
     /tmp/ccYEVC8S.s:5469   .debug_str:0000000000000493 .LASF92
     /tmp/ccYEVC8S.s:5607   .debug_str:0000000000000899 .LASF93
     /tmp/ccYEVC8S.s:5621   .debug_str:000000000000090a .LASF94
     /tmp/ccYEVC8S.s:5581   .debug_str:00000000000007c0 .LASF97
     /tmp/ccYEVC8S.s:5593   .debug_str:0000000000000832 .LASF132
     /tmp/ccYEVC8S.s:5391   .debug_str:00000000000001f9 .LASF133
     /tmp/ccYEVC8S.s:5513   .debug_str:00000000000005dc .LASF99
     /tmp/ccYEVC8S.s:5639   .debug_str:0000000000000972 .LASF100
     /tmp/ccYEVC8S.s:5543   .debug_str:00000000000006b5 .LASF101
     /tmp/ccYEVC8S.s:5529   .debug_str:000000000000064c .LASF102
     /tmp/ccYEVC8S.s:5541   .debug_str:00000000000006a5 .LASF103
     /tmp/ccYEVC8S.s:5341   .debug_str:0000000000000050 .LASF104
     /tmp/ccYEVC8S.s:5345   .debug_str:000000000000005b .LASF105
     /tmp/ccYEVC8S.s:5399   .debug_str:000000000000023c .LASF106
     /tmp/ccYEVC8S.s:5519   .debug_str:0000000000000611 .LASF107
     /tmp/ccYEVC8S.s:5633   .debug_str:000000000000095c .LASF108
     /tmp/ccYEVC8S.s:5619   .debug_str:00000000000008f8 .LASF109
     /tmp/ccYEVC8S.s:5447   .debug_str:00000000000003c2 .LASF110
     /tmp/ccYEVC8S.s:5511   .debug_str:00000000000005ca .LASF111
     /tmp/ccYEVC8S.s:5723   .debug_str:0000000000000c62 .LASF112
     /tmp/ccYEVC8S.s:5729   .debug_str:0000000000000c8c .LASF113
     /tmp/ccYEVC8S.s:5331   .debug_str:0000000000000018 .LASF114
     /tmp/ccYEVC8S.s:5421   .debug_str:00000000000002f4 .LASF115
     /tmp/ccYEVC8S.s:5361   .debug_str:0000000000000115 .LASF116
     /tmp/ccYEVC8S.s:5443   .debug_str:00000000000003a2 .LASF117
     /tmp/ccYEVC8S.s:5375   .debug_str:000000000000016d .LASF118
     /tmp/ccYEVC8S.s:5575   .debug_str:000000000000078c .LASF119
     /tmp/ccYEVC8S.s:5455   .debug_str:000000000000040a .LASF120
     /tmp/ccYEVC8S.s:5417   .debug_str:00000000000002cc .LASF121
     /tmp/ccYEVC8S.s:5333   .debug_str:0000000000000028 .LASF122
     /tmp/ccYEVC8S.s:5327   .debug_str:0000000000000000 .LASF123
     /tmp/ccYEVC8S.s:5569   .debug_str:000000000000076a .LASF124
     /tmp/ccYEVC8S.s:5685   .debug_str:0000000000000b3f .LASF125
     /tmp/ccYEVC8S.s:5559   .debug_str:0000000000000722 .LASF126
     /tmp/ccYEVC8S.s:5673   .debug_str:0000000000000ae9 .LASF145
     /tmp/ccYEVC8S.s:5623   .debug_str:000000000000092d .LASF127
     /tmp/ccYEVC8S.s:5525   .debug_str:0000000000000640 .LASF128
     /tmp/ccYEVC8S.s:5653   .debug_str:0000000000000a5f .LASF129
     /tmp/ccYEVC8S.s:5617   .debug_str:00000000000008e5 .LASF130
     /tmp/ccYEVC8S.s:5419   .debug_str:00000000000002dd .LASF131
     /tmp/ccYEVC8S.s:5583   .debug_str:00000000000007dc .LASF134
     /tmp/ccYEVC8S.s:5481   .debug_str:00000000000004f7 .LASF135
     /tmp/ccYEVC8S.s:5351   .debug_str:000000000000009a .LASF136
     /tmp/ccYEVC8S.s:5407   .debug_str:000000000000027b .LASF137
     /tmp/ccYEVC8S.s:5409   .debug_str:0000000000000283 .LASF138
     /tmp/ccYEVC8S.s:5549   .debug_str:00000000000006e3 .LASF139
     /tmp/ccYEVC8S.s:5683   .debug_str:0000000000000b21 .LASF140
     /tmp/ccYEVC8S.s:5731   .debug_str:0000000000000c99 .LASF141
     /tmp/ccYEVC8S.s:5719   .debug_str:0000000000000c2f .LASF142
     /tmp/ccYEVC8S.s:5503   .debug_str:0000000000000597 .LASF143
     /tmp/ccYEVC8S.s:5431   .debug_str:0000000000000334 .LASF144
GAS LISTING /tmp/ccYEVC8S.s 			page 55


     /tmp/ccYEVC8S.s:5449   .debug_str:00000000000003c8 .LASF199
     /tmp/ccYEVC8S.s:5717   .debug_str:0000000000000c1b .LASF200
     /tmp/ccYEVC8S.s:5359   .debug_str:0000000000000100 .LASF146
     /tmp/ccYEVC8S.s:5597   .debug_str:0000000000000854 .LASF147
     /tmp/ccYEVC8S.s:5637   .debug_str:000000000000096c .LASF148
     /tmp/ccYEVC8S.s:5491   .debug_str:0000000000000534 .LASF149
     /tmp/ccYEVC8S.s:5389   .debug_str:00000000000001f0 .LASF150
     /tmp/ccYEVC8S.s:5377   .debug_str:0000000000000177 .LASF151
     /tmp/ccYEVC8S.s:5521   .debug_str:0000000000000621 .LASF152
     /tmp/ccYEVC8S.s:5425   .debug_str:0000000000000311 .LASF153
     /tmp/ccYEVC8S.s:5357   .debug_str:00000000000000e9 .LASF154
     /tmp/ccYEVC8S.s:5565   .debug_str:000000000000074a .LASF201
     /tmp/ccYEVC8S.s:5713   .debug_str:0000000000000bf7 .LASF155
     /tmp/ccYEVC8S.s:5459   .debug_str:000000000000041d .LASF156
     /tmp/ccYEVC8S.s:5697   .debug_str:0000000000000b8b .LASF157
     /tmp/ccYEVC8S.s:5381   .debug_str:0000000000000198 .LASF158
     /tmp/ccYEVC8S.s:5427   .debug_str:0000000000000320 .LASF159
     /tmp/ccYEVC8S.s:5499   .debug_str:0000000000000568 .LASF160
     /tmp/ccYEVC8S.s:5507   .debug_str:00000000000005a6 .LASF161
     /tmp/ccYEVC8S.s:5641   .debug_str:0000000000000977 .LASF162
     /tmp/ccYEVC8S.s:5471   .debug_str:00000000000004b0 .LASF163
     /tmp/ccYEVC8S.s:5335   .debug_str:0000000000000030 .LASF164
     /tmp/ccYEVC8S.s:5403   .debug_str:0000000000000247 .LASF165
     /tmp/ccYEVC8S.s:5533   .debug_str:0000000000000668 .LASF166
     /tmp/ccYEVC8S.s:5347   .debug_str:000000000000006c .LASF167
     /tmp/ccYEVC8S.s:5489   .debug_str:0000000000000525 .LASF168
     /tmp/ccYEVC8S.s:5355   .debug_str:00000000000000ca .LASF169
     /tmp/ccYEVC8S.s:5561   .debug_str:000000000000072c .LASF170
     /tmp/ccYEVC8S.s:5501   .debug_str:0000000000000577 .LASF171
     /tmp/ccYEVC8S.s:5665   .debug_str:0000000000000aaa .LASF172
     /tmp/ccYEVC8S.s:5667   .debug_str:0000000000000aba .LASF173
     /tmp/ccYEVC8S.s:5661   .debug_str:0000000000000a8a .LASF174
     /tmp/ccYEVC8S.s:5551   .debug_str:00000000000006ef .LASF175
     /tmp/ccYEVC8S.s:5387   .debug_str:00000000000001d7 .LASF202
     /tmp/ccYEVC8S.s:1253   .text:00000000000004d4 .LFB39
     /tmp/ccYEVC8S.s:1380   .text:000000000000058c .LFE39
     /tmp/ccYEVC8S.s:1290   .text:0000000000000504 .LBB272
     /tmp/ccYEVC8S.s:1367   .text:000000000000057c .LBE272
     /tmp/ccYEVC8S.s:4915   .debug_loc:0000000000000000 .LLST32
     /tmp/ccYEVC8S.s:1295   .text:0000000000000508 .LBB273
     /tmp/ccYEVC8S.s:1302   .text:000000000000050c .LBE273
     /tmp/ccYEVC8S.s:4926   .debug_loc:0000000000000036 .LLST33
     /tmp/ccYEVC8S.s:4934   .debug_loc:000000000000005a .LLST34
     /tmp/ccYEVC8S.s:1337   .text:000000000000054c .LBB275
     /tmp/ccYEVC8S.s:1344   .text:0000000000000550 .LBE275
     /tmp/ccYEVC8S.s:4941   .debug_loc:000000000000007d .LLST35
     /tmp/ccYEVC8S.s:4949   .debug_loc:00000000000000a1 .LLST36
     /tmp/ccYEVC8S.s:1307   .text:0000000000000518 .LVL74
     /tmp/ccYEVC8S.s:1321   .text:0000000000000534 .LVL76
     /tmp/ccYEVC8S.s:1349   .text:000000000000055c .LVL79
     /tmp/ccYEVC8S.s:1363   .text:0000000000000578 .LVL81
     /tmp/ccYEVC8S.s:219    .text:00000000000000e8 .LFB38
     /tmp/ccYEVC8S.s:408    .text:00000000000001f8 .LFE38
     /tmp/ccYEVC8S.s:5669   .debug_str:0000000000000adb .LASF186
     /tmp/ccYEVC8S.s:4956   .debug_loc:00000000000000c4 .LLST5
     /tmp/ccYEVC8S.s:5515   .debug_str:00000000000005e9 .LASF176
     /tmp/ccYEVC8S.s:4989   .debug_loc:000000000000014c .LLST6
GAS LISTING /tmp/ccYEVC8S.s 			page 56


     /tmp/ccYEVC8S.s:337    .text:00000000000001a4 .LBB108
     /tmp/ccYEVC8S.s:399    .text:00000000000001f0 .LBE108
     /tmp/ccYEVC8S.s:5649   .debug_str:0000000000000a52 .LASF177
     /tmp/ccYEVC8S.s:5000   .debug_loc:0000000000000182 .LLST9
     /tmp/ccYEVC8S.s:5007   .debug_loc:00000000000001a5 .LLST10
     /tmp/ccYEVC8S.s:5343   .debug_str:0000000000000056 .LASF178
     /tmp/ccYEVC8S.s:5023   .debug_loc:00000000000001ef .LLST11
     /tmp/ccYEVC8S.s:244    .text:0000000000000114 .LBB104
     /tmp/ccYEVC8S.s:253    .text:000000000000011c .LBE104
     /tmp/ccYEVC8S.s:5038   .debug_loc:0000000000000238 .LLST7
     /tmp/ccYEVC8S.s:5046   .debug_loc:000000000000025c .LLST8
     /tmp/ccYEVC8S.s:259    .text:0000000000000128 .LVL18
     /tmp/ccYEVC8S.s:302    .text:0000000000000174 .LVL19
     /tmp/ccYEVC8S.s:130    .text:000000000000009c .LFB37
     /tmp/ccYEVC8S.s:213    .text:00000000000000e8 .LFE37
     /tmp/ccYEVC8S.s:141    .text:00000000000000a8 .LBB98
     /tmp/ccYEVC8S.s:153    .text:00000000000000b0 .LBE98
     /tmp/ccYEVC8S.s:5053   .debug_loc:000000000000027f .LLST3
     /tmp/ccYEVC8S.s:160    .text:00000000000000c0 .LBB100
     /tmp/ccYEVC8S.s:173    .text:00000000000000c8 .LBE100
     /tmp/ccYEVC8S.s:5062   .debug_loc:00000000000002a4 .LLST4
     /tmp/ccYEVC8S.s:198    .text:00000000000000dc .LBB102
     /tmp/ccYEVC8S.s:211    .text:00000000000000e8 .LBE102
     /tmp/ccYEVC8S.s:10     .text:0000000000000000 .LFB36
     /tmp/ccYEVC8S.s:124    .text:000000000000009c .LFE36
     /tmp/ccYEVC8S.s:5385   .debug_str:00000000000001d0 .LASF179
     /tmp/ccYEVC8S.s:5071   .debug_loc:00000000000002ca .LLST0
     /tmp/ccYEVC8S.s:5287   .debug_ranges:0000000000000000 .Ldebug_ranges0
     /tmp/ccYEVC8S.s:5505   .debug_str:000000000000059c .LASF180
     /tmp/ccYEVC8S.s:5082   .debug_loc:0000000000000300 .LLST1
     /tmp/ccYEVC8S.s:105    .text:0000000000000080 .LBB93
     /tmp/ccYEVC8S.s:116    .text:0000000000000098 .LBE93
     /tmp/ccYEVC8S.s:5089   .debug_loc:0000000000000323 .LLST2
     /tmp/ccYEVC8S.s:115    .text:0000000000000098 .LVL8
     /tmp/ccYEVC8S.s:72     .text:000000000000004c .LVL3
     /tmp/ccYEVC8S.s:86     .text:0000000000000064 .LVL6
     /tmp/ccYEVC8S.s:25     .text:0000000000000014 .LBB87
     /tmp/ccYEVC8S.s:42     .text:0000000000000020 .LBE87
     /tmp/ccYEVC8S.s:1386   .text:000000000000058c .LFB35
     /tmp/ccYEVC8S.s:1575   .text:000000000000064c .LFE35
     /tmp/ccYEVC8S.s:5097   .debug_loc:0000000000000347 .LLST37
     /tmp/ccYEVC8S.s:1490   .text:0000000000000604 .LBB287
     /tmp/ccYEVC8S.s:1570   .text:000000000000064c .LBE287
     /tmp/ccYEVC8S.s:5651   .debug_str:0000000000000a5a .LASF181
     /tmp/ccYEVC8S.s:5693   .debug_str:0000000000000b78 .LASF182
     /tmp/ccYEVC8S.s:1492   .text:0000000000000604 .LBB288
     /tmp/ccYEVC8S.s:1507   .text:0000000000000610 .LBE288
     /tmp/ccYEVC8S.s:1511   .text:0000000000000614 .LBB290
     /tmp/ccYEVC8S.s:1526   .text:0000000000000620 .LBE290
     /tmp/ccYEVC8S.s:1541   .text:000000000000063c .LBB292
     /tmp/ccYEVC8S.s:1552   .text:0000000000000640 .LBE292
     /tmp/ccYEVC8S.s:5108   .debug_loc:000000000000037d .LLST39
     /tmp/ccYEVC8S.s:1557   .text:0000000000000644 .LBB294
     /tmp/ccYEVC8S.s:1569   .text:000000000000064c .LBE294
     /tmp/ccYEVC8S.s:1536   .text:0000000000000638 .LVL90
     /tmp/ccYEVC8S.s:1398   .text:000000000000059c .LBB280
     /tmp/ccYEVC8S.s:1414   .text:00000000000005a8 .LBE280
GAS LISTING /tmp/ccYEVC8S.s 			page 57


     /tmp/ccYEVC8S.s:1455   .text:00000000000005f0 .LBB285
     /tmp/ccYEVC8S.s:1462   .text:00000000000005f4 .LBE285
     /tmp/ccYEVC8S.s:5115   .debug_loc:00000000000003a0 .LLST38
     /tmp/ccYEVC8S.s:1469   .text:00000000000005f8 .LBB296
     /tmp/ccYEVC8S.s:1481   .text:0000000000000600 .LBE296
     /tmp/ccYEVC8S.s:5122   .debug_loc:00000000000003c3 .LLST40
     /tmp/ccYEVC8S.s:1442   .text:00000000000005d0 .LVL85
     /tmp/ccYEVC8S.s:425    .text:00000000000001f8 .LFB34
     /tmp/ccYEVC8S.s:1247   .text:00000000000004d4 .LFE34
     /tmp/ccYEVC8S.s:5130   .debug_loc:00000000000003e7 .LLST12
     /tmp/ccYEVC8S.s:876    .text:0000000000000320 .LBB223
     /tmp/ccYEVC8S.s:891    .text:0000000000000330 .LBE223
     /tmp/ccYEVC8S.s:5141   .debug_loc:000000000000041d .LLST29
     /tmp/ccYEVC8S.s:881    .text:000000000000032c .LVL32
     /tmp/ccYEVC8S.s:947    .text:0000000000000354 .LBB210
     /tmp/ccYEVC8S.s:960    .text:0000000000000364 .LBE210
     /tmp/ccYEVC8S.s:5373   .debug_str:0000000000000168 .LASF183
     /tmp/ccYEVC8S.s:5148   .debug_loc:0000000000000440 .LLST28
     /tmp/ccYEVC8S.s:952    .text:0000000000000360 .LVL40
     /tmp/ccYEVC8S.s:965    .text:0000000000000368 .LBB196
     /tmp/ccYEVC8S.s:1008   .text:00000000000003a0 .LBE196
     /tmp/ccYEVC8S.s:5707   .debug_str:0000000000000bcb .LASF184
     /tmp/ccYEVC8S.s:5155   .debug_loc:0000000000000463 .LLST26
     /tmp/ccYEVC8S.s:976    .text:0000000000000380 .LBB198
     /tmp/ccYEVC8S.s:995    .text:0000000000000394 .LBE198
     /tmp/ccYEVC8S.s:5627   .debug_str:0000000000000939 .LASF185
     /tmp/ccYEVC8S.s:5162   .debug_loc:0000000000000486 .LLST27
     /tmp/ccYEVC8S.s:972    .text:000000000000037c .LVL42
     /tmp/ccYEVC8S.s:1010   .text:00000000000003a0 .LBB185
     /tmp/ccYEVC8S.s:1022   .text:00000000000003ac .LBE185
     /tmp/ccYEVC8S.s:5169   .debug_loc:00000000000004a9 .LLST25
     /tmp/ccYEVC8S.s:1014   .text:00000000000003a8 .LVL46
     /tmp/ccYEVC8S.s:1038   .text:00000000000003c8 .LBB167
     /tmp/ccYEVC8S.s:1050   .text:00000000000003d4 .LBE167
     /tmp/ccYEVC8S.s:5176   .debug_loc:00000000000004cc .LLST24
     /tmp/ccYEVC8S.s:1042   .text:00000000000003d0 .LVL49
     /tmp/ccYEVC8S.s:1055   .text:00000000000003d8 .LBB159
     /tmp/ccYEVC8S.s:1065   .text:00000000000003e8 .LBE159
     /tmp/ccYEVC8S.s:5183   .debug_loc:00000000000004ef .LLST23
     /tmp/ccYEVC8S.s:1064   .text:00000000000003e8 .LVL52
     /tmp/ccYEVC8S.s:1069   .text:00000000000003ec .LBB150
     /tmp/ccYEVC8S.s:1111   .text:0000000000000420 .LBE150
     /tmp/ccYEVC8S.s:5190   .debug_loc:0000000000000512 .LLST21
     /tmp/ccYEVC8S.s:1079   .text:0000000000000400 .LBB152
     /tmp/ccYEVC8S.s:1098   .text:0000000000000414 .LBE152
     /tmp/ccYEVC8S.s:5197   .debug_loc:0000000000000535 .LLST22
     /tmp/ccYEVC8S.s:1075   .text:00000000000003fc .LVL53
     /tmp/ccYEVC8S.s:1113   .text:0000000000000420 .LBB144
     /tmp/ccYEVC8S.s:1129   .text:0000000000000430 .LBE144
     /tmp/ccYEVC8S.s:5204   .debug_loc:0000000000000558 .LLST19
     /tmp/ccYEVC8S.s:5211   .debug_loc:000000000000057b .LLST20
     /tmp/ccYEVC8S.s:1121   .text:000000000000042c .LVL58
     /tmp/ccYEVC8S.s:1134   .text:0000000000000434 .LBB139
     /tmp/ccYEVC8S.s:1150   .text:0000000000000444 .LBE139
     /tmp/ccYEVC8S.s:5218   .debug_loc:000000000000059e .LLST17
     /tmp/ccYEVC8S.s:5225   .debug_loc:00000000000005c1 .LLST18
     /tmp/ccYEVC8S.s:1142   .text:0000000000000440 .LVL61
GAS LISTING /tmp/ccYEVC8S.s 			page 58


     /tmp/ccYEVC8S.s:1155   .text:0000000000000448 .LBB135
     /tmp/ccYEVC8S.s:1171   .text:0000000000000458 .LBE135
     /tmp/ccYEVC8S.s:5232   .debug_loc:00000000000005e4 .LLST15
     /tmp/ccYEVC8S.s:5239   .debug_loc:0000000000000607 .LLST16
     /tmp/ccYEVC8S.s:1163   .text:0000000000000454 .LVL64
     /tmp/ccYEVC8S.s:844    .text:000000000000030c .LBB133
     /tmp/ccYEVC8S.s:860    .text:000000000000031c .LBE133
     /tmp/ccYEVC8S.s:5246   .debug_loc:000000000000062a .LLST13
     /tmp/ccYEVC8S.s:5253   .debug_loc:000000000000064d .LLST14
     /tmp/ccYEVC8S.s:852    .text:0000000000000318 .LVL30
     /tmp/ccYEVC8S.s:510    .text:000000000000024c .LBB116
     /tmp/ccYEVC8S.s:525    .text:0000000000000258 .LBE116
     /tmp/ccYEVC8S.s:531    .text:0000000000000260 .LBB118
     /tmp/ccYEVC8S.s:546    .text:000000000000026c .LBE118
     /tmp/ccYEVC8S.s:897    .text:0000000000000334 .LBB237
     /tmp/ccYEVC8S.s:908    .text:0000000000000338 .LBE237
     /tmp/ccYEVC8S.s:5260   .debug_loc:0000000000000670 .LLST30
     /tmp/ccYEVC8S.s:913    .text:000000000000033c .LBB239
     /tmp/ccYEVC8S.s:924    .text:0000000000000340 .LBE239
     /tmp/ccYEVC8S.s:5267   .debug_loc:0000000000000693 .LLST31
     /tmp/ccYEVC8S.s:1034   .text:00000000000003c4 .LVL48
     /tmp/ccYEVC8S.s:1180   .text:0000000000000468 .LVL66
     /tmp/ccYEVC8S.s:439    .text:000000000000020c .LBB112
     /tmp/ccYEVC8S.s:455    .text:0000000000000218 .LBE112
     /tmp/ccYEVC8S.s:1214   .text:00000000000004a0 .LBB255
     /tmp/ccYEVC8S.s:1229   .text:00000000000004ac .LBE255
     /tmp/ccYEVC8S.s:1200   .text:000000000000047c .LVL67
     /tmp/ccYEVC8S.s:1207   .text:0000000000000490 .LVL68
     /tmp/ccYEVC8S.s:1212   .text:00000000000004a0 .LVL69
     /tmp/ccYEVC8S.s:1235   .text:00000000000004c0 .LVL70
     /tmp/ccYEVC8S.s:1240   .text:00000000000004d0 .LVL71
     /tmp/ccYEVC8S.s:5677   .debug_str:0000000000000b07 .LASF187
     /tmp/ccYEVC8S.s:5329   .debug_str:0000000000000013 .LASF189
     /tmp/ccYEVC8S.s:5635   .debug_str:0000000000000963 .LASF188
     /tmp/ccYEVC8S.s:5495   .debug_str:0000000000000541 .LASF190
     /tmp/ccYEVC8S.s:5563   .debug_str:000000000000073c .LASF191
     /tmp/ccYEVC8S.s:5379   .debug_str:0000000000000185 .LASF192
     /tmp/ccYEVC8S.s:5437   .debug_str:000000000000036c .LASF193
     /tmp/ccYEVC8S.s:5605   .debug_str:000000000000088a .LASF194
     /tmp/ccYEVC8S.s:5557   .debug_str:0000000000000719 .LASF195
     /tmp/ccYEVC8S.s:1312   .text:0000000000000524 .LVL75
     /tmp/ccYEVC8S.s:1354   .text:0000000000000568 .LVL80
     /tmp/ccYEVC8S.s:1294   .text:0000000000000508 .LVL72
     /tmp/ccYEVC8S.s:1300   .text:000000000000050c .LVL73
     /tmp/ccYEVC8S.s:1336   .text:000000000000054c .LVL77
     /tmp/ccYEVC8S.s:1342   .text:0000000000000550 .LVL78
     /tmp/ccYEVC8S.s:222    .text:00000000000000e8 .LVL14
     /tmp/ccYEVC8S.s:257    .text:0000000000000120 .LVL17
     /tmp/ccYEVC8S.s:315    .text:0000000000000184 .LVL20
     /tmp/ccYEVC8S.s:321    .text:0000000000000190 .LVL21
     /tmp/ccYEVC8S.s:392    .text:00000000000001f0 .LVL26
     /tmp/ccYEVC8S.s:404    .text:00000000000001f4 .LVL27
     /tmp/ccYEVC8S.s:341    .text:00000000000001a8 .LVL22
     /tmp/ccYEVC8S.s:345    .text:00000000000001ac .LVL23
     /tmp/ccYEVC8S.s:358    .text:00000000000001bc .LVL24
     /tmp/ccYEVC8S.s:365    .text:00000000000001c4 .LVL25
     /tmp/ccYEVC8S.s:243    .text:0000000000000114 .LVL15
GAS LISTING /tmp/ccYEVC8S.s 			page 59


     /tmp/ccYEVC8S.s:251    .text:000000000000011c .LVL16
     /tmp/ccYEVC8S.s:140    .text:00000000000000a8 .LVL9
     /tmp/ccYEVC8S.s:150    .text:00000000000000b0 .LVL10
     /tmp/ccYEVC8S.s:159    .text:00000000000000c0 .LVL11
     /tmp/ccYEVC8S.s:169    .text:00000000000000c8 .LVL12
     /tmp/ccYEVC8S.s:40     .text:0000000000000020 .LVL0
     /tmp/ccYEVC8S.s:49     .text:0000000000000030 .LVL1
     /tmp/ccYEVC8S.s:64     .text:0000000000000044 .LVL2
     /tmp/ccYEVC8S.s:74     .text:0000000000000050 .LVL4
     /tmp/ccYEVC8S.s:79     .text:0000000000000058 .LVL5
     /tmp/ccYEVC8S.s:110    .text:000000000000008c .LVL7
     /tmp/ccYEVC8S.s:1412   .text:00000000000005a8 .LVL82
     /tmp/ccYEVC8S.s:1421   .text:00000000000005b8 .LVL83
     /tmp/ccYEVC8S.s:1434   .text:00000000000005c8 .LVL84
     /tmp/ccYEVC8S.s:1540   .text:000000000000063c .LVL91
     /tmp/ccYEVC8S.s:1549   .text:0000000000000640 .LVL92
     /tmp/ccYEVC8S.s:1454   .text:00000000000005f0 .LVL86
     /tmp/ccYEVC8S.s:1460   .text:00000000000005f4 .LVL87
     /tmp/ccYEVC8S.s:1468   .text:00000000000005f8 .LVL88
     /tmp/ccYEVC8S.s:1478   .text:0000000000000600 .LVL89
     /tmp/ccYEVC8S.s:453    .text:0000000000000218 .LVL28
     /tmp/ccYEVC8S.s:936    .text:000000000000034c .LVL38
     /tmp/ccYEVC8S.s:940    .text:0000000000000354 .LVL39
     /tmp/ccYEVC8S.s:888    .text:0000000000000330 .LVL33
     /tmp/ccYEVC8S.s:962    .text:0000000000000368 .LVL41
     /tmp/ccYEVC8S.s:1005   .text:00000000000003a0 .LVL45
     /tmp/ccYEVC8S.s:980    .text:0000000000000384 .LVL43
     /tmp/ccYEVC8S.s:993    .text:0000000000000394 .LVL44
     /tmp/ccYEVC8S.s:1024   .text:00000000000003b0 .LVL47
     /tmp/ccYEVC8S.s:1052   .text:00000000000003d8 .LVL50
     /tmp/ccYEVC8S.s:1059   .text:00000000000003dc .LVL51
     /tmp/ccYEVC8S.s:1108   .text:0000000000000420 .LVL56
     /tmp/ccYEVC8S.s:1083   .text:0000000000000404 .LVL54
     /tmp/ccYEVC8S.s:1096   .text:0000000000000414 .LVL55
     /tmp/ccYEVC8S.s:1117   .text:0000000000000424 .LVL57
     /tmp/ccYEVC8S.s:1131   .text:0000000000000434 .LVL59
     /tmp/ccYEVC8S.s:1138   .text:0000000000000438 .LVL60
     /tmp/ccYEVC8S.s:1152   .text:0000000000000448 .LVL62
     /tmp/ccYEVC8S.s:1159   .text:000000000000044c .LVL63
     /tmp/ccYEVC8S.s:1173   .text:000000000000045c .LVL65
     /tmp/ccYEVC8S.s:848    .text:0000000000000310 .LVL29
     /tmp/ccYEVC8S.s:862    .text:0000000000000320 .LVL31
     /tmp/ccYEVC8S.s:896    .text:0000000000000334 .LVL34
     /tmp/ccYEVC8S.s:905    .text:0000000000000338 .LVL35
     /tmp/ccYEVC8S.s:912    .text:000000000000033c .LVL36
     /tmp/ccYEVC8S.s:921    .text:0000000000000340 .LVL37
     /tmp/ccYEVC8S.s:1596   .debug_info:0000000000000000 .Ldebug_info0
     /tmp/ccYEVC8S.s:68     .text:0000000000000044 .LBB90
     /tmp/ccYEVC8S.s:87     .text:0000000000000064 .LBE90
     /tmp/ccYEVC8S.s:93     .text:0000000000000068 .LBB95
     /tmp/ccYEVC8S.s:121    .text:000000000000009c .LBE95
     /tmp/ccYEVC8S.s:508    .text:000000000000024c .LBB115
     /tmp/ccYEVC8S.s:557    .text:000000000000027c .LBE115
     /tmp/ccYEVC8S.s:561    .text:000000000000027c .LBB242
     /tmp/ccYEVC8S.s:571    .text:0000000000000288 .LBE242
     /tmp/ccYEVC8S.s:575    .text:0000000000000288 .LBB243
     /tmp/ccYEVC8S.s:587    .text:0000000000000294 .LBE243
GAS LISTING /tmp/ccYEVC8S.s 			page 60


     /tmp/ccYEVC8S.s:591    .text:0000000000000294 .LBB244
     /tmp/ccYEVC8S.s:605    .text:00000000000002a0 .LBE244
     /tmp/ccYEVC8S.s:609    .text:00000000000002a0 .LBB245
     /tmp/ccYEVC8S.s:625    .text:00000000000002ac .LBE245
     /tmp/ccYEVC8S.s:629    .text:00000000000002ac .LBB246
     /tmp/ccYEVC8S.s:647    .text:00000000000002b8 .LBE246
     /tmp/ccYEVC8S.s:651    .text:00000000000002b8 .LBB247
     /tmp/ccYEVC8S.s:671    .text:00000000000002c4 .LBE247
     /tmp/ccYEVC8S.s:675    .text:00000000000002c4 .LBB248
     /tmp/ccYEVC8S.s:697    .text:00000000000002d0 .LBE248
     /tmp/ccYEVC8S.s:701    .text:00000000000002d0 .LBB249
     /tmp/ccYEVC8S.s:725    .text:00000000000002dc .LBE249
     /tmp/ccYEVC8S.s:729    .text:00000000000002dc .LBB250
     /tmp/ccYEVC8S.s:755    .text:00000000000002e8 .LBE250
     /tmp/ccYEVC8S.s:759    .text:00000000000002e8 .LBB251
     /tmp/ccYEVC8S.s:787    .text:00000000000002f4 .LBE251
     /tmp/ccYEVC8S.s:791    .text:00000000000002f4 .LBB252
     /tmp/ccYEVC8S.s:821    .text:0000000000000300 .LBE252
     /tmp/ccYEVC8S.s:825    .text:0000000000000300 .LBB253
     /tmp/ccYEVC8S.s:925    .text:0000000000000340 .LBE253
     /tmp/ccYEVC8S.s:944    .text:0000000000000354 .LBB254
     /tmp/ccYEVC8S.s:1195   .text:000000000000046c .LBE254

UNDEFINED SYMBOLS
plic_claim
plic_complete
CONSOLE_STATUS
CONSOLE_RX_DATA
_ZN8_console13inputBuff_putEc
_ZN3TCB14newThrUserModeE
_ZN3TCB7runningE
_ZN15MemoryAllocator5allocEm
_ZN3TCB16timeSliceCounterE
_ZN3TCB8dispatchEv
_ZN15MemoryAllocator4freeEPv
_ZN3TCB12createThreadEPFvPvEPcS0_
_ZN3TCB4exitEv
_ZN8_console14inputBuff_takeEv
_ZN8_console14outputBuff_putEc
_ZN4_sem4openEi
_ZN4_sem4waitEv
_ZN4_sem5closeEv
_ZN4_sem6signalEv
_ZN3TCB4joinEPS_
_Z11printStringPKc
_Z8printIntiii
_ZN9Scheduler3putEP3TCB
