GAS LISTING /tmp/ccF98P1y.s 			page 1


   1              		.file	"riscv.cpp"
   2              		.option pic
   3              		.option norelax
   4              		.text
   5              	.Ltext0:
   6              		.align	2
   7              		.globl	_ZN5Riscv17hardwareInterruptEv
   9              	_ZN5Riscv17hardwareInterruptEv:
  10              	.LFB36:
  11              		.file 1 "src/riscv.cpp"
   1:src/riscv.cpp **** //
   2:src/riscv.cpp **** // Created by os on 7/24/23.
   3:src/riscv.cpp **** //
   4:src/riscv.cpp **** //sa vezbi 7
   5:src/riscv.cpp **** #include "../h/riscv.hpp"
   6:src/riscv.cpp **** #include "../lib/console.h"
   7:src/riscv.cpp **** #include "../h/TCB.hpp"
   8:src/riscv.cpp **** #include "../h/MemoryAllocator.hpp"
   9:src/riscv.cpp **** #include "../test/printing.hpp"
  10:src/riscv.cpp **** #include "../h/_sem.hpp"
  11:src/riscv.cpp **** #include "../h/Scheduler.hpp"
  12:src/riscv.cpp **** #include "../h/_console.hpp"
  13:src/riscv.cpp **** 
  14:src/riscv.cpp **** Riscv::SleepingElem* Riscv::headSleeping=nullptr;
  15:src/riscv.cpp **** 
  16:src/riscv.cpp **** void Riscv::handleEcallException(){
  17:src/riscv.cpp ****     uint64 scause=r_scause();
  18:src/riscv.cpp **** 
  19:src/riscv.cpp ****     uint64 volatile a0;
  20:src/riscv.cpp ****     __asm__ volatile("ld %0, 0x50(fp)": "=r"(a0));
  21:src/riscv.cpp ****     uint64 volatile a1;
  22:src/riscv.cpp ****     __asm__ volatile("ld %0, 0x58(fp)": "=r"(a1));
  23:src/riscv.cpp ****     uint64 volatile a2;
  24:src/riscv.cpp ****     __asm__ volatile("ld %0, 0x60(fp)": "=r"(a2));
  25:src/riscv.cpp ****     uint64 volatile a3;
  26:src/riscv.cpp ****     __asm__ volatile("ld %0, 0x68(fp)": "=r"(a3));
  27:src/riscv.cpp ****     uint64 volatile a4;
  28:src/riscv.cpp ****     __asm__ volatile("ld %0, 0x70(fp)": "=r"(a4));
  29:src/riscv.cpp **** 
  30:src/riscv.cpp ****     if(scause==0x09UL || scause==0x08UL){
  31:src/riscv.cpp ****         //09 iz sist rezima, 08 iz korisnickog
  32:src/riscv.cpp ****         uint64 volatile sepc=r_sepc()+4;
  33:src/riscv.cpp ****         uint64 volatile sstatus=r_sstatus();
  34:src/riscv.cpp **** 
  35:src/riscv.cpp ****         if(a0==0x01){
  36:src/riscv.cpp ****             //mem_alloc
  37:src/riscv.cpp ****             void *ptr=MemoryAllocator::alloc(a1);
  38:src/riscv.cpp ****             __asm__ volatile("sd %0, 0x50(fp)": : "r"((uint64)ptr));
  39:src/riscv.cpp ****         }
  40:src/riscv.cpp ****         else if(a0==0x02){
  41:src/riscv.cpp ****             //mem_free
  42:src/riscv.cpp ****             int stat=MemoryAllocator::free((void*)a1);
  43:src/riscv.cpp ****             __asm__ volatile("sd %0, 0x50(fp)": : "r"(stat));
  44:src/riscv.cpp ****         }
  45:src/riscv.cpp **** 
  46:src/riscv.cpp ****         else if(a0==0x11){
  47:src/riscv.cpp ****             /*thread_create
GAS LISTING /tmp/ccF98P1y.s 			page 2


  48:src/riscv.cpp ****             a1- thread_t* handle
  49:src/riscv.cpp ****              a2- *start_routine
  50:src/riscv.cpp ****              a3- void* arg
  51:src/riscv.cpp ****              a4- char* stack
  52:src/riscv.cpp ****             */
  53:src/riscv.cpp **** 
  54:src/riscv.cpp ****             TCB* handle= TCB::createThread((TCB::Body)a2, (char*)a4, (void*)a3);
  55:src/riscv.cpp **** 
  56:src/riscv.cpp ****             if(!handle){
  57:src/riscv.cpp ****                 __asm__ volatile("sd %0, 0x50(fp)": : "r"(-1));
  58:src/riscv.cpp ****             }
  59:src/riscv.cpp ****             else{
  60:src/riscv.cpp ****                 //*han=(thread_t)handle;
  61:src/riscv.cpp ****                 TCB** retHandle=(TCB**)a1;
  62:src/riscv.cpp ****                 *retHandle=handle;
  63:src/riscv.cpp ****                 __asm__ volatile("sd %0, 0x50(fp)": : "r"(0));
  64:src/riscv.cpp ****             }
  65:src/riscv.cpp **** 
  66:src/riscv.cpp ****         }
  67:src/riscv.cpp ****         else if(a0==0x12){
  68:src/riscv.cpp ****             //thread_exit()
  69:src/riscv.cpp ****             /*if(TCB::running->isFinished()){
  70:src/riscv.cpp ****                 __asm__ volatile("sd %0, 0x50(fp)": : "r"(-1));
  71:src/riscv.cpp ****             }
  72:src/riscv.cpp ****             else{
  73:src/riscv.cpp ****                 //TCB* exited=TCB::running;
  74:src/riscv.cpp ****                 TCB::running->setFinished(true);
  75:src/riscv.cpp ****                 TCB::dispatch();
  76:src/riscv.cpp ****                 //delete exited; ovde se nikad ne vraca
  77:src/riscv.cpp ****             }*/
  78:src/riscv.cpp ****             int stat=TCB::exit();
  79:src/riscv.cpp ****             __asm__ volatile("sd %0, 0x50(fp)": : "r"(stat));
  80:src/riscv.cpp ****         }
  81:src/riscv.cpp ****         else if(a0==0x13){
  82:src/riscv.cpp ****             //thread_dispatch()
  83:src/riscv.cpp ****             TCB::timeSliceCounter=0;
  84:src/riscv.cpp ****             TCB::dispatch();
  85:src/riscv.cpp ****         }
  86:src/riscv.cpp ****         else if(a0==0x41){
  87:src/riscv.cpp ****             //char getc();
  88:src/riscv.cpp **** 
  89:src/riscv.cpp ****             char c=_console::inputBuff_get();
  90:src/riscv.cpp ****             __asm__ volatile("sd %0, 0x50(fp)": : "r"(c));
  91:src/riscv.cpp **** 
  92:src/riscv.cpp ****             /*char c=__getc();
  93:src/riscv.cpp ****             __asm__ volatile("sd %0, 0x50(fp)": : "r"(c));*/
  94:src/riscv.cpp ****         }
  95:src/riscv.cpp ****         else if(a0==0x42){
  96:src/riscv.cpp ****             //void putc()
  97:src/riscv.cpp **** 
  98:src/riscv.cpp ****             char c=(char)a1;
  99:src/riscv.cpp ****             _console::outputBuff_put(c);
 100:src/riscv.cpp **** 
 101:src/riscv.cpp ****             //__putc((char)a1);
 102:src/riscv.cpp ****         }
 103:src/riscv.cpp ****         else if(a0==0x21){
 104:src/riscv.cpp ****             //sem_open
GAS LISTING /tmp/ccF98P1y.s 			page 3


 105:src/riscv.cpp ****             //a1 - sem_t* handle
 106:src/riscv.cpp ****             //a2 - unsigned int init
 107:src/riscv.cpp ****             _sem* handle=_sem::open((int)a2);
 108:src/riscv.cpp ****             if(!handle){
 109:src/riscv.cpp ****                 __asm__ volatile("sd %0, 0x50(fp)": : "r"(-1));
 110:src/riscv.cpp ****             }
 111:src/riscv.cpp ****             else{
 112:src/riscv.cpp ****                 _sem** retHandle=(_sem**)a1;
 113:src/riscv.cpp ****                 *retHandle=handle;
 114:src/riscv.cpp ****                 __asm__ volatile("sd %0, 0x50(fp)": : "r"(0));
 115:src/riscv.cpp ****             }
 116:src/riscv.cpp ****         }
 117:src/riscv.cpp ****         else if(a0==0x23){
 118:src/riscv.cpp ****             //sem_wait(sem_t id)
 119:src/riscv.cpp ****             _sem* handle=(_sem*) a1;
 120:src/riscv.cpp ****             int stat=handle->wait();
 121:src/riscv.cpp ****             __asm__ volatile("sd %0, 0x50(fp)": : "r"(stat));
 122:src/riscv.cpp ****         }
 123:src/riscv.cpp ****         else if(a0==0x22){
 124:src/riscv.cpp ****             //sem_close(sem_t handle)
 125:src/riscv.cpp ****             _sem* handle=(_sem*) a1;
 126:src/riscv.cpp ****             int stat=handle->close();
 127:src/riscv.cpp ****             __asm__ volatile("sd %0, 0x50(fp)": : "r"(stat));
 128:src/riscv.cpp ****         }
 129:src/riscv.cpp ****         else if(a0==0x24){
 130:src/riscv.cpp ****             //sem_signal(sem_t id)
 131:src/riscv.cpp ****             _sem* handle=(_sem*) a1;
 132:src/riscv.cpp ****             int stat=handle->signal();
 133:src/riscv.cpp ****             __asm__ volatile("sd %0, 0x50(fp)": : "r"(stat));
 134:src/riscv.cpp ****         }
 135:src/riscv.cpp ****         else if(a0==0x14){
 136:src/riscv.cpp ****             //thread_join(thread_t)
 137:src/riscv.cpp ****             TCB::join((TCB*)a1);
 138:src/riscv.cpp ****         }
 139:src/riscv.cpp ****         else if(a0==0x31){
 140:src/riscv.cpp ****             //time_sleep(time_t)
 141:src/riscv.cpp ****             time_t time=(time_t)a1;
 142:src/riscv.cpp ****             int stat=Riscv::putToSleep(time);
 143:src/riscv.cpp ****             __asm__ volatile("sd %0, 0x50(fp)": : "r"(stat));
 144:src/riscv.cpp ****         }
 145:src/riscv.cpp **** 
 146:src/riscv.cpp ****         w_sstatus(sstatus);
 147:src/riscv.cpp ****         w_sepc(sepc);
 148:src/riscv.cpp ****     }
 149:src/riscv.cpp **** 
 150:src/riscv.cpp ****     else{
 151:src/riscv.cpp ****         printString("GRESKA:");
 152:src/riscv.cpp ****         printInt(scause);
 153:src/riscv.cpp ****         printString("\nsepc:");
 154:src/riscv.cpp ****         printInt(r_sepc());
 155:src/riscv.cpp ****         printString("\n");
 156:src/riscv.cpp **** 
 157:src/riscv.cpp ****         while(true){
 158:src/riscv.cpp ****             //TCB::dispatch();
 159:src/riscv.cpp ****         }
 160:src/riscv.cpp ****     }
 161:src/riscv.cpp **** 
GAS LISTING /tmp/ccF98P1y.s 			page 4


 162:src/riscv.cpp **** }
 163:src/riscv.cpp **** 
 164:src/riscv.cpp **** void Riscv::timerInterrupt() {
 165:src/riscv.cpp ****     uint64 scause=r_scause();
 166:src/riscv.cpp ****     if(scause==0x8000000000000001UL){
 167:src/riscv.cpp ****         //prekid od tajmera, softverski prekid
 168:src/riscv.cpp **** 
 169:src/riscv.cpp ****         updateSleepingList();
 170:src/riscv.cpp **** 
 171:src/riscv.cpp ****         TCB::timeSliceCounter++;
 172:src/riscv.cpp ****         if(TCB::timeSliceCounter>=TCB::running->getTimeSlice()){
 173:src/riscv.cpp ****             uint64 volatile sepc=r_sepc();
 174:src/riscv.cpp ****             uint64 volatile sstatus=r_sstatus();
 175:src/riscv.cpp ****             TCB::timeSliceCounter=0;
 176:src/riscv.cpp ****             TCB::dispatch();
 177:src/riscv.cpp ****             w_sstatus(sstatus);
 178:src/riscv.cpp ****             w_sepc(sepc);
 179:src/riscv.cpp ****         }
 180:src/riscv.cpp ****         mc_sip(SIP_SSIP);
 181:src/riscv.cpp ****     }
 182:src/riscv.cpp **** }
 183:src/riscv.cpp **** 
 184:src/riscv.cpp **** void Riscv::hardwareInterrupt() {
  12              		.loc 1 184 33
  13              		.cfi_startproc
  14 0000 130101FD 		addi	sp,sp,-48
  15              		.cfi_def_cfa_offset 48
  16 0004 23341102 		sd	ra,40(sp)
  17 0008 23308102 		sd	s0,32(sp)
  18 000c 233C9100 		sd	s1,24(sp)
  19              		.cfi_offset 1, -8
  20              		.cfi_offset 8, -16
  21              		.cfi_offset 9, -24
  22 0010 13040103 		addi	s0,sp,48
  23              		.cfi_def_cfa 8, 0
 185:src/riscv.cpp ****     /*uint64 scause=r_scause();
 186:src/riscv.cpp ****     if(scause==0x8000000000000009UL){
 187:src/riscv.cpp ****         //prekid konzola
 188:src/riscv.cpp ****         console_handler();
 189:src/riscv.cpp ****     }*/
 190:src/riscv.cpp ****     uint64 scause=r_scause();
  24              		.loc 1 190 5
  25              	.LBB87:
  26              	.LBB88:
  27              		.file 2 "src/../h/riscv.hpp"
   1:src/../h/riscv.hpp **** //
   2:src/../h/riscv.hpp **** // Created by os on 7/24/23.
   3:src/../h/riscv.hpp **** //
   4:src/../h/riscv.hpp **** 
   5:src/../h/riscv.hpp **** #ifndef PROJECT_BASE_RISCV_HPP
   6:src/../h/riscv.hpp **** #define PROJECT_BASE_RISCV_HPP
   7:src/../h/riscv.hpp **** 
   8:src/../h/riscv.hpp **** #include "../lib/hw.h"
   9:src/../h/riscv.hpp **** #include "../h/TCB.hpp"
  10:src/../h/riscv.hpp **** //sa vezbi 7
  11:src/../h/riscv.hpp **** 
  12:src/../h/riscv.hpp **** class Riscv{
GAS LISTING /tmp/ccF98P1y.s 			page 5


  13:src/../h/riscv.hpp **** 
  14:src/../h/riscv.hpp **** public:
  15:src/../h/riscv.hpp **** 
  16:src/../h/riscv.hpp ****     //supervisor previous privileged, previousInterruptEnable
  17:src/../h/riscv.hpp ****     //mora da bude ne inline da se poziva
  18:src/../h/riscv.hpp ****     static void popSppSpie();
  19:src/../h/riscv.hpp **** 
  20:src/../h/riscv.hpp ****     static uint64 r_scause();
  21:src/../h/riscv.hpp ****     static void w_scause(uint64 scause);
  22:src/../h/riscv.hpp ****     static uint64 r_sepc();
  23:src/../h/riscv.hpp ****     static void w_sepc(uint64 sepc);
  24:src/../h/riscv.hpp ****     static uint64 r_stvec();
  25:src/../h/riscv.hpp ****     static void w_stvec(uint64 stvec);
  26:src/../h/riscv.hpp ****     static uint64 r_stval();
  27:src/../h/riscv.hpp ****     static void w_stval(uint64 stval);
  28:src/../h/riscv.hpp **** 
  29:src/../h/riscv.hpp ****     enum BitMaskSStatus{
  30:src/../h/riscv.hpp ****         SSTATUS_SIE=(1<<1),
  31:src/../h/riscv.hpp ****         SSTATUS_SPIE=(1<<5),
  32:src/../h/riscv.hpp ****         SSTATUS_SPP=(1<<8)
  33:src/../h/riscv.hpp ****     };
  34:src/../h/riscv.hpp **** 
  35:src/../h/riscv.hpp ****     static void ms_sstatus(uint64 mask);
  36:src/../h/riscv.hpp ****     static void mc_sstatus(uint64 mask);
  37:src/../h/riscv.hpp ****     static uint64 r_sstatus();
  38:src/../h/riscv.hpp ****     static void w_sstatus(uint64 sstatus);
  39:src/../h/riscv.hpp **** 
  40:src/../h/riscv.hpp **** 
  41:src/../h/riscv.hpp ****     enum BitMaskSip{
  42:src/../h/riscv.hpp ****         SIP_SSIP=(1<<1),//software interrupt pending
  43:src/../h/riscv.hpp ****         SIP_STIP=(1 << 5),
  44:src/../h/riscv.hpp ****         SIP_SEIP=(1 << 9)
  45:src/../h/riscv.hpp ****     };
  46:src/../h/riscv.hpp **** 
  47:src/../h/riscv.hpp ****     static void ms_sip(uint64 mask);
  48:src/../h/riscv.hpp ****     static void mc_sip(uint64 mask);
  49:src/../h/riscv.hpp ****     static uint64 r_sip();
  50:src/../h/riscv.hpp ****     static void w_sip(uint64 sip);
  51:src/../h/riscv.hpp **** 
  52:src/../h/riscv.hpp ****     static void supervisorTrap();
  53:src/../h/riscv.hpp **** 
  54:src/../h/riscv.hpp ****     struct SleepingElem{
  55:src/../h/riscv.hpp ****         TCB* thr;
  56:src/../h/riscv.hpp ****         time_t toSleepRel;
  57:src/../h/riscv.hpp ****         SleepingElem* next;
  58:src/../h/riscv.hpp ****     };
  59:src/../h/riscv.hpp **** 
  60:src/../h/riscv.hpp ****     static int putToSleep(time_t);
  61:src/../h/riscv.hpp ****     static void updateSleepingList();
  62:src/../h/riscv.hpp **** 
  63:src/../h/riscv.hpp **** private:
  64:src/../h/riscv.hpp **** 
  65:src/../h/riscv.hpp ****     static void handleEcallException();
  66:src/../h/riscv.hpp ****     static void timerInterrupt();
  67:src/../h/riscv.hpp ****     static void hardwareInterrupt();
  68:src/../h/riscv.hpp **** 
  69:src/../h/riscv.hpp ****     static SleepingElem* headSleeping;
GAS LISTING /tmp/ccF98P1y.s 			page 6


  70:src/../h/riscv.hpp **** 
  71:src/../h/riscv.hpp **** };
  72:src/../h/riscv.hpp **** 
  73:src/../h/riscv.hpp **** inline uint64 Riscv::r_scause() {
  74:src/../h/riscv.hpp ****     uint64 volatile scause;
  28              		.loc 2 74 5
  75:src/../h/riscv.hpp ****     __asm__ volatile("csrr %[scause], scause":[scause]"=r"(scause));
  29              		.loc 2 75 5
  30              		.loc 2 75 68 is_stmt 0
  31              	#APP
  32              	# 75 "src/../h/riscv.hpp" 1
  76              	    return scause;
  33              		csrr a5, scause
  34              	# 0 "" 2
  35              	#NO_APP
  36 0018 233CF4FC 		sd	a5,-40(s0)
  37              		.loc 2 76 5 is_stmt 1
  38              		.loc 2 76 12 is_stmt 0
  39 001c 033784FD 		ld	a4,-40(s0)
  40              	.LVL0:
  41              	.LBE88:
  42              	.LBE87:
 191:src/riscv.cpp ****     if(scause==0x8000000000000009UL){
  43              		.loc 1 191 5 is_stmt 1
  44              	.LBB89:
  45 0020 9307F0FF 		li	a5,-1
  46 0024 9397F703 		slli	a5,a5,63
  47 0028 93879700 		addi	a5,a5,9
  48 002c 630CF700 		beq	a4,a5,.L6
  49              	.LVL1:
  50              	.L1:
  51              	.LBE89:
 192:src/riscv.cpp ****         int intNumber=plic_claim();
 193:src/riscv.cpp **** 
 194:src/riscv.cpp ****         if(intNumber==CONSOLE_IRQ){
 195:src/riscv.cpp ****             //za getc
 196:src/riscv.cpp ****             while((*(char*)CONSOLE_STATUS) & CONSOLE_RX_STATUS_BIT){
 197:src/riscv.cpp ****                 char c= *(char*)CONSOLE_RX_DATA;
 198:src/riscv.cpp ****                 _console::inputBuff_put(c);
 199:src/riscv.cpp ****             }
 200:src/riscv.cpp ****         }
 201:src/riscv.cpp **** 
 202:src/riscv.cpp ****         plic_complete(intNumber);
 203:src/riscv.cpp ****     }
 204:src/riscv.cpp **** }
  52              		.loc 1 204 1 is_stmt 0
  53 0030 83308102 		ld	ra,40(sp)
  54              		.cfi_remember_state
  55              		.cfi_restore 1
  56 0034 03340102 		ld	s0,32(sp)
  57              		.cfi_restore 8
  58              		.cfi_def_cfa 2, 48
  59 0038 83348101 		ld	s1,24(sp)
  60              		.cfi_restore 9
  61 003c 13010103 		addi	sp,sp,48
  62              		.cfi_def_cfa_offset 0
  63 0040 67800000 		jr	ra
GAS LISTING /tmp/ccF98P1y.s 			page 7


  64              	.LVL2:
  65              	.L6:
  66              		.cfi_restore_state
  67              	.LBB96:
  68              	.LBB90:
 192:src/riscv.cpp ****         int intNumber=plic_claim();
  69              		.loc 1 192 9 is_stmt 1
 192:src/riscv.cpp ****         int intNumber=plic_claim();
  70              		.loc 1 192 33 is_stmt 0
  71 0044 97000000 		call	plic_claim@plt
  71      E7800000 
  72              	.LVL3:
  73 004c 93040500 		mv	s1,a0
  74              	.LVL4:
 194:src/riscv.cpp ****             //za getc
  75              		.loc 1 194 9 is_stmt 1
  76              	.LBB91:
  77 0050 9307A000 		li	a5,10
  78 0054 630AF500 		beq	a0,a5,.L4
  79              	.LVL5:
  80              	.L3:
  81              	.LBE91:
 202:src/riscv.cpp ****     }
  82              		.loc 1 202 9
 202:src/riscv.cpp ****     }
  83              		.loc 1 202 22 is_stmt 0
  84 0058 13850400 		mv	a0,s1
  85 005c 97000000 		call	plic_complete@plt
  85      E7800000 
  86              	.LVL6:
  87              	.LBE90:
  88              	.LBE96:
  89              		.loc 1 204 1
  90 0064 6FF0DFFC 		j	.L1
  91              	.L4:
  92              	.LBB97:
  93              	.LBB95:
  94              	.LBB94:
  95              	.LBB92:
 196:src/riscv.cpp ****                 char c= *(char*)CONSOLE_RX_DATA;
  96              		.loc 1 196 13 is_stmt 1
 196:src/riscv.cpp ****                 char c= *(char*)CONSOLE_RX_DATA;
  97              		.loc 1 196 46
 196:src/riscv.cpp ****                 char c= *(char*)CONSOLE_RX_DATA;
  98              		.loc 1 196 20 is_stmt 0
  99 0068 97070000 		la	a5,CONSOLE_STATUS
  99      83B70700 
 100 0070 83B70700 		ld	a5,0(a5)
 101 0074 83C70700 		lbu	a5,0(a5)
 196:src/riscv.cpp ****                 char c= *(char*)CONSOLE_RX_DATA;
 102              		.loc 1 196 46
 103 0078 93F71700 		andi	a5,a5,1
 104 007c E38E07FC 		beqz	a5,.L3
 105              	.LBB93:
 197:src/riscv.cpp ****                 _console::inputBuff_put(c);
 106              		.loc 1 197 17 is_stmt 1
 197:src/riscv.cpp ****                 _console::inputBuff_put(c);
GAS LISTING /tmp/ccF98P1y.s 			page 8


 107              		.loc 1 197 25 is_stmt 0
 108 0080 97070000 		la	a5,CONSOLE_RX_DATA
 108      83B70700 
 109 0088 83B70700 		ld	a5,0(a5)
 110              	.LVL7:
 198:src/riscv.cpp ****             }
 111              		.loc 1 198 17 is_stmt 1
 198:src/riscv.cpp ****             }
 112              		.loc 1 198 40 is_stmt 0
 113 008c 03C50700 		lbu	a0,0(a5)
 114 0090 97000000 		call	_ZN8_console13inputBuff_putEc@plt
 114      E7800000 
 115              	.LVL8:
 116              	.LBE93:
 196:src/riscv.cpp ****                 char c= *(char*)CONSOLE_RX_DATA;
 117              		.loc 1 196 13
 118 0098 6FF01FFD 		j	.L4
 119              	.LBE92:
 120              	.LBE94:
 121              	.LBE95:
 122              	.LBE97:
 123              		.cfi_endproc
 124              	.LFE36:
 126              		.align	2
 127              		.globl	_ZN5Riscv10popSppSpieEv
 129              	_ZN5Riscv10popSppSpieEv:
 130              	.LFB37:
 205:src/riscv.cpp **** 
 206:src/riscv.cpp **** 
 207:src/riscv.cpp **** 
 208:src/riscv.cpp **** void Riscv::popSppSpie() {
 131              		.loc 1 208 26 is_stmt 1
 132              		.cfi_startproc
 133 009c 130101FF 		addi	sp,sp,-16
 134              		.cfi_def_cfa_offset 16
 135 00a0 23348100 		sd	s0,8(sp)
 136              		.cfi_offset 8, -8
 137 00a4 13040101 		addi	s0,sp,16
 138              		.cfi_def_cfa 8, 0
 209:src/riscv.cpp ****     Riscv::ms_sstatus(SSTATUS_SPIE);
 139              		.loc 1 209 5
 140              	.LVL9:
 141              	.LBB98:
 142              	.LBB99:
  77:src/../h/riscv.hpp **** }
  78:src/../h/riscv.hpp **** inline void Riscv::w_scause(uint64 scause) {
  79:src/../h/riscv.hpp ****     __asm__ volatile("csrw scause, %[scause]"::[scause]"r"(scause));
  80:src/../h/riscv.hpp **** }
  81:src/../h/riscv.hpp **** 
  82:src/../h/riscv.hpp **** inline uint64 Riscv::r_sepc(){
  83:src/../h/riscv.hpp ****     uint64 volatile sepc;
  84:src/../h/riscv.hpp ****     __asm__ volatile("csrr %[sepc], sepc":[sepc]"=r"(sepc));
  85:src/../h/riscv.hpp ****     return sepc;
  86:src/../h/riscv.hpp **** }
  87:src/../h/riscv.hpp **** inline void Riscv::w_sepc(uint64 sepc) {
  88:src/../h/riscv.hpp ****     __asm__ volatile("csrw sepc, %[sepc]"::[sepc]"r"(sepc));
  89:src/../h/riscv.hpp **** }
GAS LISTING /tmp/ccF98P1y.s 			page 9


  90:src/../h/riscv.hpp **** inline uint64 Riscv::r_stvec(){
  91:src/../h/riscv.hpp ****     uint64 volatile stvec;
  92:src/../h/riscv.hpp ****     __asm__ volatile("csrr %[stvec], stvec":[stvec]"=r"(stvec));
  93:src/../h/riscv.hpp ****     return stvec;
  94:src/../h/riscv.hpp **** }
  95:src/../h/riscv.hpp **** inline void Riscv::w_stvec(uint64 stvec) {
  96:src/../h/riscv.hpp ****     __asm__ volatile("csrw stvec, %[stvec]"::[stvec]"r"(stvec));
  97:src/../h/riscv.hpp **** }
  98:src/../h/riscv.hpp **** inline uint64 Riscv::r_stval(){
  99:src/../h/riscv.hpp ****     uint64 volatile stval;
 100:src/../h/riscv.hpp ****     __asm__ volatile("csrr %[stval], stval":[stval]"=r"(stval));
 101:src/../h/riscv.hpp ****     return stval;
 102:src/../h/riscv.hpp **** }
 103:src/../h/riscv.hpp **** inline void Riscv::w_stval(uint64 stval) {
 104:src/../h/riscv.hpp ****     __asm__ volatile("csrw stval, %[stval]"::[stval]"r"(stval));
 105:src/../h/riscv.hpp **** }
 106:src/../h/riscv.hpp **** 
 107:src/../h/riscv.hpp **** inline void Riscv::ms_sip(uint64 mask) {
 108:src/../h/riscv.hpp ****     __asm__ volatile("csrs sip, %[mask]"::[mask]"r"(mask));
 109:src/../h/riscv.hpp **** }
 110:src/../h/riscv.hpp **** inline void Riscv::mc_sip(uint64 mask) {
 111:src/../h/riscv.hpp ****     __asm__ volatile("csrc sip, %[mask]"::[mask]"r"(mask));
 112:src/../h/riscv.hpp **** }
 113:src/../h/riscv.hpp **** 
 114:src/../h/riscv.hpp **** 
 115:src/../h/riscv.hpp **** inline uint64 Riscv::r_sip(){
 116:src/../h/riscv.hpp ****     uint64 volatile sip;
 117:src/../h/riscv.hpp ****     __asm__ volatile("csrr %[sip], sip":[sip]"=r"(sip));
 118:src/../h/riscv.hpp ****     return sip;
 119:src/../h/riscv.hpp **** }
 120:src/../h/riscv.hpp **** inline void Riscv::w_sip(uint64 sip) {
 121:src/../h/riscv.hpp ****     __asm__ volatile("csrw sip, %[sip]"::[sip]"r"(sip));
 122:src/../h/riscv.hpp **** }
 123:src/../h/riscv.hpp **** 
 124:src/../h/riscv.hpp **** inline void Riscv::ms_sstatus(uint64 mask) {
 125:src/../h/riscv.hpp ****     __asm__ volatile("csrs sstatus, %[mask]"::[mask]"r"(mask));
 143              		.loc 2 125 5
 144              		.loc 2 125 63 is_stmt 0
 145 00a8 93070002 		li	a5,32
 146              	#APP
 147              	# 125 "src/../h/riscv.hpp" 1
 126              	}
 148              		csrs sstatus, a5
 149              	# 0 "" 2
 150              	.LVL10:
 151              	#NO_APP
 152              	.LBE99:
 153              	.LBE98:
 210:src/riscv.cpp ****     if(TCB::running->userMode){
 154              		.loc 1 210 5 is_stmt 1
 155              		.loc 1 210 22 is_stmt 0
 156 00b0 97070000 		la	a5,_ZN3TCB7runningE
 156      83B70700 
 157 00b8 83B70700 		ld	a5,0(a5)
 158 00bc 83C72704 		lbu	a5,66(a5)
 159              		.loc 1 210 5
 160 00c0 63800702 		beqz	a5,.L8
GAS LISTING /tmp/ccF98P1y.s 			page 10


 211:src/riscv.cpp ****         Riscv::mc_sstatus(SSTATUS_SPP);
 161              		.loc 1 211 9 is_stmt 1
 162              	.LVL11:
 163              	.LBB100:
 164              	.LBB101:
 127:src/../h/riscv.hpp **** 
 128:src/../h/riscv.hpp **** inline uint64 Riscv::r_sstatus(){
 129:src/../h/riscv.hpp ****     uint64 volatile sstatus;
 130:src/../h/riscv.hpp ****     __asm__ volatile("csrr %[sstatus], sstatus":[sstatus]"=r"(sstatus));
 131:src/../h/riscv.hpp ****     return sstatus;
 132:src/../h/riscv.hpp **** }
 133:src/../h/riscv.hpp **** inline void Riscv::w_sstatus(uint64 sstatus) {
 134:src/../h/riscv.hpp ****     __asm__ volatile("csrw sstatus, %[sstatus]"::[sstatus]"r"(sstatus));
 135:src/../h/riscv.hpp **** }
 136:src/../h/riscv.hpp **** 
 137:src/../h/riscv.hpp **** inline void Riscv::mc_sstatus(uint64 mask) {
 138:src/../h/riscv.hpp ****     __asm__ volatile("csrc sstatus, %[mask]"::[mask]"r"(mask));
 165              		.loc 2 138 5
 166              		.loc 2 138 63 is_stmt 0
 167 00c4 93070010 		li	a5,256
 168              	#APP
 169              	# 138 "src/../h/riscv.hpp" 1
 139              	}
 170              		csrc sstatus, a5
 171              	# 0 "" 2
 172              	.LVL12:
 173              	#NO_APP
 174              	.L9:
 175              	.LBE101:
 176              	.LBE100:
 212:src/riscv.cpp ****     }
 213:src/riscv.cpp ****     else{
 214:src/riscv.cpp ****         Riscv::ms_sstatus(SSTATUS_SPP);
 215:src/riscv.cpp ****     }
 216:src/riscv.cpp ****     __asm__ volatile("csrw sepc, ra");
 177              		.loc 1 216 5 is_stmt 1
 178              		.loc 1 216 38 is_stmt 0
 179              	#APP
 180              	# 216 "src/riscv.cpp" 1
 217              	    __asm__ volatile("sret");
 181              		csrw sepc, ra
 182              	# 0 "" 2
 183              		.loc 1 217 5 is_stmt 1
 184              		.loc 1 217 29 is_stmt 0
 185              	# 217 "src/riscv.cpp" 1
 218              	}
 186              		sret
 187              	# 0 "" 2
 188              		.loc 1 218 1
 189              	#NO_APP
 190 00d4 03348100 		ld	s0,8(sp)
 191              		.cfi_remember_state
 192              		.cfi_restore 8
 193              		.cfi_def_cfa 2, 16
 194 00d8 13010101 		addi	sp,sp,16
 195              		.cfi_def_cfa_offset 0
 196 00dc 67800000 		jr	ra
GAS LISTING /tmp/ccF98P1y.s 			page 11


 197              	.L8:
 198              		.cfi_restore_state
 214:src/riscv.cpp ****     }
 199              		.loc 1 214 9 is_stmt 1
 200              	.LVL13:
 201              	.LBB102:
 202              	.LBB103:
 125:src/../h/riscv.hpp **** }
 203              		.loc 2 125 5
 125:src/../h/riscv.hpp **** }
 204              		.loc 2 125 63 is_stmt 0
 205 00e0 93070010 		li	a5,256
 206              	#APP
 207              	# 125 "src/../h/riscv.hpp" 1
 126:src/../h/riscv.hpp **** 
 208              		csrs sstatus, a5
 209              	# 0 "" 2
 210              		.loc 2 126 1
 211              	#NO_APP
 212 00e8 6FF05FFE 		j	.L9
 213              	.LBE103:
 214              	.LBE102:
 215              		.cfi_endproc
 216              	.LFE37:
 218              		.align	2
 219              		.globl	_ZN5Riscv10putToSleepEm
 221              	_ZN5Riscv10putToSleepEm:
 222              	.LFB38:
 219:src/riscv.cpp **** 
 220:src/riscv.cpp **** 
 221:src/riscv.cpp **** int Riscv::putToSleep(time_t time) {
 223              		.loc 1 221 36 is_stmt 1
 224              		.cfi_startproc
 225              	.LVL14:
 222:src/riscv.cpp ****     if(time<=0)return -1;
 226              		.loc 1 222 5
 227 00ec 63040510 		beqz	a0,.L20
 221:src/riscv.cpp ****     if(time<=0)return -1;
 228              		.loc 1 221 36 is_stmt 0
 229 00f0 130101FE 		addi	sp,sp,-32
 230              		.cfi_def_cfa_offset 32
 231 00f4 233C1100 		sd	ra,24(sp)
 232 00f8 23388100 		sd	s0,16(sp)
 233 00fc 23349100 		sd	s1,8(sp)
 234 0100 23302101 		sd	s2,0(sp)
 235              		.cfi_offset 1, -8
 236              		.cfi_offset 8, -16
 237              		.cfi_offset 9, -24
 238              		.cfi_offset 18, -32
 239 0104 13040102 		addi	s0,sp,32
 240              		.cfi_def_cfa 8, 0
 241 0108 93040500 		mv	s1,a0
 223:src/riscv.cpp ****     TCB::running->setSleeping(true);
 242              		.loc 1 223 5 is_stmt 1
 243              		.loc 1 223 30 is_stmt 0
 244 010c 17090000 		la	s2,_ZN3TCB7runningE
 244      03390900 
GAS LISTING /tmp/ccF98P1y.s 			page 12


 245 0114 83370900 		ld	a5,0(s2)
 246              	.LVL15:
 247              	.LBB104:
 248              	.LBB105:
 249              		.file 3 "src/../h/../h/TCB.hpp"
   1:src/../h/../h/TCB.hpp **** //
   2:src/../h/../h/TCB.hpp **** // Created by os on 7/18/23.
   3:src/../h/../h/TCB.hpp **** //
   4:src/../h/../h/TCB.hpp **** 
   5:src/../h/../h/TCB.hpp **** //sa vezbi 7
   6:src/../h/../h/TCB.hpp **** 
   7:src/../h/../h/TCB.hpp **** #ifndef PROJECT_BASE_TCB_HPP
   8:src/../h/../h/TCB.hpp **** #define PROJECT_BASE_TCB_HPP
   9:src/../h/../h/TCB.hpp **** 
  10:src/../h/../h/TCB.hpp **** #include "../lib/hw.h"
  11:src/../h/../h/TCB.hpp **** 
  12:src/../h/../h/TCB.hpp **** class TCB{
  13:src/../h/../h/TCB.hpp **** public:
  14:src/../h/../h/TCB.hpp ****     virtual ~TCB();
  15:src/../h/../h/TCB.hpp **** 
  16:src/../h/../h/TCB.hpp ****     bool isBlocked() const {
  17:src/../h/../h/TCB.hpp ****         return blocked;
  18:src/../h/../h/TCB.hpp ****     }
  19:src/../h/../h/TCB.hpp **** 
  20:src/../h/../h/TCB.hpp ****     void setBlocked(bool blocked) {
  21:src/../h/../h/TCB.hpp ****         TCB::blocked = blocked;
  22:src/../h/../h/TCB.hpp ****     }
  23:src/../h/../h/TCB.hpp **** 
  24:src/../h/../h/TCB.hpp ****     bool isFinished() const{
  25:src/../h/../h/TCB.hpp ****         return finished;
  26:src/../h/../h/TCB.hpp ****     }
  27:src/../h/../h/TCB.hpp **** 
  28:src/../h/../h/TCB.hpp ****     void setFinished(bool finished){
  29:src/../h/../h/TCB.hpp ****         TCB::finished = finished;
  30:src/../h/../h/TCB.hpp ****     }
  31:src/../h/../h/TCB.hpp **** 
  32:src/../h/../h/TCB.hpp ****     uint64 getTimeSlice() const{
  33:src/../h/../h/TCB.hpp ****         return timeSlice;
  34:src/../h/../h/TCB.hpp ****     }
  35:src/../h/../h/TCB.hpp **** 
  36:src/../h/../h/TCB.hpp ****     bool isSleeping() const {
  37:src/../h/../h/TCB.hpp ****         return sleeping;
  38:src/../h/../h/TCB.hpp ****     }
  39:src/../h/../h/TCB.hpp **** 
  40:src/../h/../h/TCB.hpp ****     void setSleeping(bool sleeping) {
  41:src/../h/../h/TCB.hpp ****         TCB::sleeping = sleeping;
 250              		.loc 3 41 9 is_stmt 1
 251              		.loc 3 41 23 is_stmt 0
 252 0118 13071000 		li	a4,1
 253 011c A380E704 		sb	a4,65(a5)
 254              	.LVL16:
 255              	.LBE105:
 256              	.LBE104:
 224:src/riscv.cpp **** 
 225:src/riscv.cpp ****     SleepingElem* newElem=(SleepingElem*)MemoryAllocator::alloc((sizeof(SleepingElem)+MEM_BLOCK_SIZ
 257              		.loc 1 225 5 is_stmt 1
 258              		.loc 1 225 64 is_stmt 0
GAS LISTING /tmp/ccF98P1y.s 			page 13


 259 0120 13051000 		li	a0,1
 260              	.LVL17:
 261 0124 97000000 		call	_ZN15MemoryAllocator5allocEm@plt
 261      E7800000 
 262              	.LVL18:
 226:src/riscv.cpp ****     newElem->thr=TCB::running;
 263              		.loc 1 226 5 is_stmt 1
 264              		.loc 1 226 17 is_stmt 0
 265 012c 83370900 		ld	a5,0(s2)
 266 0130 2330F500 		sd	a5,0(a0)
 227:src/riscv.cpp **** 
 228:src/riscv.cpp ****     if(!Riscv::headSleeping){
 267              		.loc 1 228 5 is_stmt 1
 268              	.LBB106:
 269              		.loc 1 228 8 is_stmt 0
 270 0134 17060000 		ld	a2,.LANCHOR0
 270      03360600 
 271              		.loc 1 228 5
 272 013c 630C0604 		beqz	a2,.L25
 273              	.LBE106:
 229:src/riscv.cpp ****         newElem->toSleepRel=time;
 230:src/riscv.cpp ****         newElem->next=nullptr;
 231:src/riscv.cpp ****         headSleeping=newElem;
 232:src/riscv.cpp ****     }
 233:src/riscv.cpp ****     else{
 234:src/riscv.cpp ****         if(time<=Riscv::headSleeping->toSleepRel){
 274              		.loc 1 234 9 is_stmt 1
 275              	.LBB110:
 276              	.LBB107:
 277              		.loc 1 234 39 is_stmt 0
 278 0140 03378600 		ld	a4,8(a2)
 279              		.loc 1 234 9
 280 0144 63629706 		bltu	a4,s1,.L15
 235:src/riscv.cpp ****             newElem->toSleepRel=time;
 281              		.loc 1 235 13 is_stmt 1
 282              		.loc 1 235 32 is_stmt 0
 283 0148 23349500 		sd	s1,8(a0)
 236:src/riscv.cpp ****             newElem->next=Riscv::headSleeping;
 284              		.loc 1 236 13 is_stmt 1
 285              		.loc 1 236 26 is_stmt 0
 286 014c 2338C500 		sd	a2,16(a0)
 237:src/riscv.cpp ****             headSleeping->toSleepRel-=time;
 287              		.loc 1 237 13 is_stmt 1
 288              		.loc 1 237 37 is_stmt 0
 289 0150 03378600 		ld	a4,8(a2)
 290 0154 33079740 		sub	a4,a4,s1
 291 0158 2334E600 		sd	a4,8(a2)
 238:src/riscv.cpp ****             headSleeping=newElem;
 292              		.loc 1 238 13 is_stmt 1
 293              		.loc 1 238 25 is_stmt 0
 294 015c 97070000 		sd	a0,.LANCHOR0,a5
 294      23B0A700 
 295              	.L14:
 296              	.LBE107:
 297              	.LBE110:
 239:src/riscv.cpp ****         }
 240:src/riscv.cpp ****         else{
GAS LISTING /tmp/ccF98P1y.s 			page 14


 241:src/riscv.cpp ****             time_t relTime=time-Riscv::headSleeping->toSleepRel;
 242:src/riscv.cpp ****             SleepingElem* pom=headSleeping->next;
 243:src/riscv.cpp ****             SleepingElem* prev=headSleeping;
 244:src/riscv.cpp ****             while(pom!=nullptr && relTime>pom->toSleepRel){
 245:src/riscv.cpp ****                 relTime-=pom->toSleepRel;
 246:src/riscv.cpp ****                 prev=pom;
 247:src/riscv.cpp ****                 pom=pom->next;
 248:src/riscv.cpp ****             }
 249:src/riscv.cpp ****             if(pom==nullptr){
 250:src/riscv.cpp ****                 newElem->next= nullptr;
 251:src/riscv.cpp ****             }
 252:src/riscv.cpp ****             else{
 253:src/riscv.cpp ****                 newElem->next=pom;
 254:src/riscv.cpp ****                 pom->toSleepRel-=relTime;
 255:src/riscv.cpp ****             }
 256:src/riscv.cpp ****             newElem->toSleepRel=relTime;
 257:src/riscv.cpp ****             prev->next=newElem;
 258:src/riscv.cpp ****         }
 259:src/riscv.cpp ****     }
 260:src/riscv.cpp **** 
 261:src/riscv.cpp ****     TCB::timeSliceCounter=0;
 298              		.loc 1 261 5 is_stmt 1
 299              		.loc 1 261 26 is_stmt 0
 300 0164 97070000 		la	a5,_ZN3TCB16timeSliceCounterE
 300      83B70700 
 301 016c 23B00700 		sd	zero,0(a5)
 262:src/riscv.cpp ****     TCB::dispatch();
 302              		.loc 1 262 5 is_stmt 1
 303              		.loc 1 262 18 is_stmt 0
 304 0170 97000000 		call	_ZN3TCB8dispatchEv@plt
 304      E7800000 
 305              	.LVL19:
 263:src/riscv.cpp ****     return 0;
 306              		.loc 1 263 5 is_stmt 1
 307              		.loc 1 263 12 is_stmt 0
 308 0178 13050000 		li	a0,0
 264:src/riscv.cpp **** }
 309              		.loc 1 264 1
 310 017c 83308101 		ld	ra,24(sp)
 311              		.cfi_remember_state
 312              		.cfi_restore 1
 313 0180 03340101 		ld	s0,16(sp)
 314              		.cfi_restore 8
 315              		.cfi_def_cfa 2, 32
 316 0184 83348100 		ld	s1,8(sp)
 317              		.cfi_restore 9
 318              	.LVL20:
 319 0188 03390100 		ld	s2,0(sp)
 320              		.cfi_restore 18
 321 018c 13010102 		addi	sp,sp,32
 322              		.cfi_def_cfa_offset 0
 323 0190 67800000 		jr	ra
 324              	.LVL21:
 325              	.L25:
 326              		.cfi_restore_state
 327              	.LBB111:
 229:src/riscv.cpp ****         newElem->next=nullptr;
GAS LISTING /tmp/ccF98P1y.s 			page 15


 328              		.loc 1 229 9 is_stmt 1
 229:src/riscv.cpp ****         newElem->next=nullptr;
 329              		.loc 1 229 28 is_stmt 0
 330 0194 23349500 		sd	s1,8(a0)
 230:src/riscv.cpp ****         headSleeping=newElem;
 331              		.loc 1 230 9 is_stmt 1
 230:src/riscv.cpp ****         headSleeping=newElem;
 332              		.loc 1 230 22 is_stmt 0
 333 0198 23380500 		sd	zero,16(a0)
 231:src/riscv.cpp ****     }
 334              		.loc 1 231 9 is_stmt 1
 231:src/riscv.cpp ****     }
 335              		.loc 1 231 21 is_stmt 0
 336 019c 97070000 		sd	a0,.LANCHOR0,a5
 336      23B0A700 
 337 01a4 6FF01FFC 		j	.L14
 338              	.L15:
 339              	.LBB109:
 340              	.LBB108:
 241:src/riscv.cpp ****             SleepingElem* pom=headSleeping->next;
 341              		.loc 1 241 13 is_stmt 1
 241:src/riscv.cpp ****             SleepingElem* pom=headSleeping->next;
 342              		.loc 1 241 20 is_stmt 0
 343 01a8 3387E440 		sub	a4,s1,a4
 344              	.LVL22:
 242:src/riscv.cpp ****             SleepingElem* prev=headSleeping;
 345              		.loc 1 242 13 is_stmt 1
 242:src/riscv.cpp ****             SleepingElem* prev=headSleeping;
 346              		.loc 1 242 27 is_stmt 0
 347 01ac 83370601 		ld	a5,16(a2)
 348              	.LVL23:
 243:src/riscv.cpp ****             while(pom!=nullptr && relTime>pom->toSleepRel){
 349              		.loc 1 243 13 is_stmt 1
 350              	.L17:
 244:src/riscv.cpp ****                 relTime-=pom->toSleepRel;
 351              		.loc 1 244 13
 244:src/riscv.cpp ****                 relTime-=pom->toSleepRel;
 352              		.loc 1 244 32
 353 01b0 638E0700 		beqz	a5,.L16
 244:src/riscv.cpp ****                 relTime-=pom->toSleepRel;
 354              		.loc 1 244 48 is_stmt 0 discriminator 1
 355 01b4 83B68700 		ld	a3,8(a5)
 244:src/riscv.cpp ****                 relTime-=pom->toSleepRel;
 356              		.loc 1 244 32 discriminator 1
 357 01b8 63FAE600 		bgeu	a3,a4,.L16
 245:src/riscv.cpp ****                 prev=pom;
 358              		.loc 1 245 17 is_stmt 1
 245:src/riscv.cpp ****                 prev=pom;
 359              		.loc 1 245 24 is_stmt 0
 360 01bc 3307D740 		sub	a4,a4,a3
 361              	.LVL24:
 246:src/riscv.cpp ****                 pom=pom->next;
 362              		.loc 1 246 17 is_stmt 1
 247:src/riscv.cpp ****             }
 363              		.loc 1 247 17
 246:src/riscv.cpp ****                 pom=pom->next;
 364              		.loc 1 246 21 is_stmt 0
GAS LISTING /tmp/ccF98P1y.s 			page 16


 365 01c0 13860700 		mv	a2,a5
 247:src/riscv.cpp ****             }
 366              		.loc 1 247 20
 367 01c4 83B70701 		ld	a5,16(a5)
 368              	.LVL25:
 244:src/riscv.cpp ****                 relTime-=pom->toSleepRel;
 369              		.loc 1 244 13
 370 01c8 6FF09FFE 		j	.L17
 371              	.L16:
 249:src/riscv.cpp ****                 newElem->next= nullptr;
 372              		.loc 1 249 13 is_stmt 1
 373 01cc 63800702 		beqz	a5,.L26
 253:src/riscv.cpp ****                 pom->toSleepRel-=relTime;
 374              		.loc 1 253 17
 253:src/riscv.cpp ****                 pom->toSleepRel-=relTime;
 375              		.loc 1 253 30 is_stmt 0
 376 01d0 2338F500 		sd	a5,16(a0)
 254:src/riscv.cpp ****             }
 377              		.loc 1 254 17 is_stmt 1
 254:src/riscv.cpp ****             }
 378              		.loc 1 254 32 is_stmt 0
 379 01d4 83B68700 		ld	a3,8(a5)
 380 01d8 B386E640 		sub	a3,a3,a4
 381 01dc 23B4D700 		sd	a3,8(a5)
 382              	.L19:
 256:src/riscv.cpp ****             prev->next=newElem;
 383              		.loc 1 256 13 is_stmt 1
 256:src/riscv.cpp ****             prev->next=newElem;
 384              		.loc 1 256 32 is_stmt 0
 385 01e0 2334E500 		sd	a4,8(a0)
 257:src/riscv.cpp ****         }
 386              		.loc 1 257 13 is_stmt 1
 257:src/riscv.cpp ****         }
 387              		.loc 1 257 23 is_stmt 0
 388 01e4 2338A600 		sd	a0,16(a2)
 389 01e8 6FF0DFF7 		j	.L14
 390              	.L26:
 250:src/riscv.cpp ****             }
 391              		.loc 1 250 17 is_stmt 1
 250:src/riscv.cpp ****             }
 392              		.loc 1 250 30 is_stmt 0
 393 01ec 23380500 		sd	zero,16(a0)
 394 01f0 6FF01FFF 		j	.L19
 395              	.LVL26:
 396              	.L20:
 397              		.cfi_def_cfa_register 2
 398              		.cfi_restore 1
 399              		.cfi_restore 8
 400              		.cfi_restore 9
 401              		.cfi_restore 18
 402              	.LBE108:
 403              	.LBE109:
 404              	.LBE111:
 222:src/riscv.cpp ****     TCB::running->setSleeping(true);
 405              		.loc 1 222 24
 406 01f4 1305F0FF 		li	a0,-1
 407              	.LVL27:
GAS LISTING /tmp/ccF98P1y.s 			page 17


 408              		.loc 1 264 1
 409 01f8 67800000 		ret
 410              		.cfi_endproc
 411              	.LFE38:
 413              		.section	.rodata.str1.8,"aMS",@progbits,1
 414              		.align	3
 415              	.LC0:
 416 0000 47524553 		.string	"GRESKA:"
 416      4B413A00 
 417              		.align	3
 418              	.LC1:
 419 0008 0A736570 		.string	"\nsepc:"
 419      633A00
 420 000f 00       		.align	3
 421              	.LC2:
 422 0010 0A00     		.string	"\n"
 423              		.text
 424              		.align	2
 425              		.globl	_ZN5Riscv20handleEcallExceptionEv
 427              	_ZN5Riscv20handleEcallExceptionEv:
 428              	.LFB34:
  16:src/riscv.cpp ****     uint64 scause=r_scause();
 429              		.loc 1 16 35 is_stmt 1
 430              		.cfi_startproc
 431 01fc 130101F9 		addi	sp,sp,-112
 432              		.cfi_def_cfa_offset 112
 433 0200 23341106 		sd	ra,104(sp)
 434 0204 23308106 		sd	s0,96(sp)
 435 0208 233C9104 		sd	s1,88(sp)
 436              		.cfi_offset 1, -8
 437              		.cfi_offset 8, -16
 438              		.cfi_offset 9, -24
 439 020c 13040107 		addi	s0,sp,112
 440              		.cfi_def_cfa 8, 0
  17:src/riscv.cpp **** 
 441              		.loc 1 17 5
 442              	.LBB112:
 443              	.LBB113:
  74:src/../h/riscv.hpp ****     __asm__ volatile("csrr %[scause], scause":[scause]"=r"(scause));
 444              		.loc 2 74 5
  75:src/../h/riscv.hpp ****     return scause;
 445              		.loc 2 75 5
  75:src/../h/riscv.hpp ****     return scause;
 446              		.loc 2 75 68 is_stmt 0
 447              	#APP
 448              	# 75 "src/../h/riscv.hpp" 1
 449              		csrr a5, scause
 450              	# 0 "" 2
 451              	#NO_APP
 452 0214 2330F4FA 		sd	a5,-96(s0)
  76:src/../h/riscv.hpp **** }
 453              		.loc 2 76 5 is_stmt 1
  76:src/../h/riscv.hpp **** }
 454              		.loc 2 76 12 is_stmt 0
 455 0218 833404FA 		ld	s1,-96(s0)
 456              	.LVL28:
 457              	.LBE113:
GAS LISTING /tmp/ccF98P1y.s 			page 18


 458              	.LBE112:
  19:src/riscv.cpp ****     __asm__ volatile("ld %0, 0x50(fp)": "=r"(a0));
 459              		.loc 1 19 5 is_stmt 1
  20:src/riscv.cpp ****     uint64 volatile a1;
 460              		.loc 1 20 5
  20:src/riscv.cpp ****     uint64 volatile a1;
 461              		.loc 1 20 50 is_stmt 0
 462              	#APP
 463              	# 20 "src/riscv.cpp" 1
 464              		ld a5, 0x50(fp)
 465              	# 0 "" 2
 466              	#NO_APP
 467 0220 233CF4FC 		sd	a5,-40(s0)
  21:src/riscv.cpp ****     __asm__ volatile("ld %0, 0x58(fp)": "=r"(a1));
 468              		.loc 1 21 5 is_stmt 1
  22:src/riscv.cpp ****     uint64 volatile a2;
 469              		.loc 1 22 5
  22:src/riscv.cpp ****     uint64 volatile a2;
 470              		.loc 1 22 50 is_stmt 0
 471              	#APP
 472              	# 22 "src/riscv.cpp" 1
 473              		ld a5, 0x58(fp)
 474              	# 0 "" 2
 475              	#NO_APP
 476 0228 2338F4FC 		sd	a5,-48(s0)
  23:src/riscv.cpp ****     __asm__ volatile("ld %0, 0x60(fp)": "=r"(a2));
 477              		.loc 1 23 5 is_stmt 1
  24:src/riscv.cpp ****     uint64 volatile a3;
 478              		.loc 1 24 5
  24:src/riscv.cpp ****     uint64 volatile a3;
 479              		.loc 1 24 50 is_stmt 0
 480              	#APP
 481              	# 24 "src/riscv.cpp" 1
 482              		ld a5, 0x60(fp)
 483              	# 0 "" 2
 484              	#NO_APP
 485 0230 2334F4FC 		sd	a5,-56(s0)
  25:src/riscv.cpp ****     __asm__ volatile("ld %0, 0x68(fp)": "=r"(a3));
 486              		.loc 1 25 5 is_stmt 1
  26:src/riscv.cpp ****     uint64 volatile a4;
 487              		.loc 1 26 5
  26:src/riscv.cpp ****     uint64 volatile a4;
 488              		.loc 1 26 50 is_stmt 0
 489              	#APP
 490              	# 26 "src/riscv.cpp" 1
 491              		ld a5, 0x68(fp)
 492              	# 0 "" 2
 493              	#NO_APP
 494 0238 2330F4FC 		sd	a5,-64(s0)
  27:src/riscv.cpp ****     __asm__ volatile("ld %0, 0x70(fp)": "=r"(a4));
 495              		.loc 1 27 5 is_stmt 1
  28:src/riscv.cpp **** 
 496              		.loc 1 28 5
  28:src/riscv.cpp **** 
 497              		.loc 1 28 50 is_stmt 0
 498              	#APP
 499              	# 28 "src/riscv.cpp" 1
GAS LISTING /tmp/ccF98P1y.s 			page 19


 500              		ld a5, 0x70(fp)
 501              	# 0 "" 2
 502              	#NO_APP
 503 0240 233CF4FA 		sd	a5,-72(s0)
  30:src/riscv.cpp ****         //09 iz sist rezima, 08 iz korisnickog
 504              		.loc 1 30 5 is_stmt 1
 505              	.LBB114:
  30:src/riscv.cpp ****         //09 iz sist rezima, 08 iz korisnickog
 506              		.loc 1 30 23 is_stmt 0
 507 0244 138784FF 		addi	a4,s1,-8
  30:src/riscv.cpp ****         //09 iz sist rezima, 08 iz korisnickog
 508              		.loc 1 30 5
 509 0248 93071000 		li	a5,1
 510 024c 63E2E722 		bgtu	a4,a5,.L28
 511              	.LBB115:
  32:src/riscv.cpp ****         uint64 volatile sstatus=r_sstatus();
 512              		.loc 1 32 9 is_stmt 1
 513              	.LBB116:
 514              	.LBB117:
  83:src/../h/riscv.hpp ****     __asm__ volatile("csrr %[sepc], sepc":[sepc]"=r"(sepc));
 515              		.loc 2 83 5
  84:src/../h/riscv.hpp ****     return sepc;
 516              		.loc 2 84 5
  84:src/../h/riscv.hpp ****     return sepc;
 517              		.loc 2 84 60 is_stmt 0
 518              	#APP
 519              	# 84 "src/../h/riscv.hpp" 1
 520              		csrr a5, sepc
 521              	# 0 "" 2
 522              	#NO_APP
 523 0254 2338F4FA 		sd	a5,-80(s0)
  85:src/../h/riscv.hpp **** }
 524              		.loc 2 85 5 is_stmt 1
  85:src/../h/riscv.hpp **** }
 525              		.loc 2 85 12 is_stmt 0
 526 0258 833704FB 		ld	a5,-80(s0)
 527              	.LBE117:
 528              	.LBE116:
  32:src/riscv.cpp ****         uint64 volatile sstatus=r_sstatus();
 529              		.loc 1 32 38
 530 025c 93874700 		addi	a5,a5,4
  32:src/riscv.cpp ****         uint64 volatile sstatus=r_sstatus();
 531              		.loc 1 32 39
 532 0260 2338F4F8 		sd	a5,-112(s0)
  33:src/riscv.cpp **** 
 533              		.loc 1 33 9 is_stmt 1
 534              	.LBB118:
 535              	.LBB119:
 129:src/../h/riscv.hpp ****     __asm__ volatile("csrr %[sstatus], sstatus":[sstatus]"=r"(sstatus));
 536              		.loc 2 129 5
 130:src/../h/riscv.hpp ****     return sstatus;
 537              		.loc 2 130 5
 130:src/../h/riscv.hpp ****     return sstatus;
 538              		.loc 2 130 72 is_stmt 0
 539              	#APP
 540              	# 130 "src/../h/riscv.hpp" 1
 541              		csrr a5, sstatus
GAS LISTING /tmp/ccF98P1y.s 			page 20


 542              	# 0 "" 2
 543              	#NO_APP
 544 0268 2334F4FA 		sd	a5,-88(s0)
 131:src/../h/riscv.hpp **** }
 545              		.loc 2 131 5 is_stmt 1
 131:src/../h/riscv.hpp **** }
 546              		.loc 2 131 12 is_stmt 0
 547 026c 833784FA 		ld	a5,-88(s0)
 548              	.LBE119:
 549              	.LBE118:
  33:src/riscv.cpp **** 
 550              		.loc 1 33 43
 551 0270 233CF4F8 		sd	a5,-104(s0)
  35:src/riscv.cpp ****             //mem_alloc
 552              		.loc 1 35 9 is_stmt 1
 553              	.LBB120:
  35:src/riscv.cpp ****             //mem_alloc
 554              		.loc 1 35 14 is_stmt 0
 555 0274 033784FD 		ld	a4,-40(s0)
  35:src/riscv.cpp ****             //mem_alloc
 556              		.loc 1 35 9
 557 0278 93071000 		li	a5,1
 558 027c 6304F70A 		beq	a4,a5,.L47
 559              	.LBE120:
 560              	.LBE115:
 561              	.LBE114:
  40:src/riscv.cpp ****             //mem_free
 562              		.loc 1 40 14 is_stmt 1
 563              	.LBB257:
 564              	.LBB242:
 565              	.LBB225:
 566              	.LBB121:
  40:src/riscv.cpp ****             //mem_free
 567              		.loc 1 40 19 is_stmt 0
 568 0280 033784FD 		ld	a4,-40(s0)
  40:src/riscv.cpp ****             //mem_free
 569              		.loc 1 40 14
 570 0284 93072000 		li	a5,2
 571 0288 6308F70C 		beq	a4,a5,.L48
 572              	.LBE121:
 573              	.LBE225:
 574              	.LBE242:
 575              	.LBE257:
  46:src/riscv.cpp ****             /*thread_create
 576              		.loc 1 46 14 is_stmt 1
 577              	.LBB258:
 578              	.LBB243:
 579              	.LBB226:
 580              	.LBB212:
 581              	.LBB122:
  46:src/riscv.cpp ****             /*thread_create
 582              		.loc 1 46 19 is_stmt 0
 583 028c 033784FD 		ld	a4,-40(s0)
  46:src/riscv.cpp ****             /*thread_create
 584              		.loc 1 46 14
 585 0290 93071001 		li	a5,17
 586 0294 630CF70C 		beq	a4,a5,.L49
GAS LISTING /tmp/ccF98P1y.s 			page 21


 587              	.LBE122:
 588              	.LBE212:
 589              	.LBE226:
 590              	.LBE243:
 591              	.LBE258:
  67:src/riscv.cpp ****             //thread_exit()
 592              		.loc 1 67 14 is_stmt 1
 593              	.LBB259:
 594              	.LBB244:
 595              	.LBB227:
 596              	.LBB213:
 597              	.LBB200:
 598              	.LBB123:
  67:src/riscv.cpp ****             //thread_exit()
 599              		.loc 1 67 19 is_stmt 0
 600 0298 033784FD 		ld	a4,-40(s0)
  67:src/riscv.cpp ****             //thread_exit()
 601              		.loc 1 67 14
 602 029c 93072001 		li	a5,18
 603 02a0 6302F710 		beq	a4,a5,.L50
 604              	.LBE123:
 605              	.LBE200:
 606              	.LBE213:
 607              	.LBE227:
 608              	.LBE244:
 609              	.LBE259:
  81:src/riscv.cpp ****             //thread_dispatch()
 610              		.loc 1 81 14 is_stmt 1
 611              	.LBB260:
 612              	.LBB245:
 613              	.LBB228:
 614              	.LBB214:
 615              	.LBB201:
 616              	.LBB187:
 617              	.LBB124:
  81:src/riscv.cpp ****             //thread_dispatch()
 618              		.loc 1 81 19 is_stmt 0
 619 02a4 033784FD 		ld	a4,-40(s0)
  81:src/riscv.cpp ****             //thread_dispatch()
 620              		.loc 1 81 14
 621 02a8 93073001 		li	a5,19
 622 02ac 6304F710 		beq	a4,a5,.L51
 623              	.LBE124:
 624              	.LBE187:
 625              	.LBE201:
 626              	.LBE214:
 627              	.LBE228:
 628              	.LBE245:
 629              	.LBE260:
  86:src/riscv.cpp ****             //char getc();
 630              		.loc 1 86 14 is_stmt 1
 631              	.LBB261:
 632              	.LBB246:
 633              	.LBB229:
 634              	.LBB215:
 635              	.LBB202:
 636              	.LBB188:
GAS LISTING /tmp/ccF98P1y.s 			page 22


 637              	.LBB177:
 638              	.LBB125:
  86:src/riscv.cpp ****             //char getc();
 639              		.loc 1 86 19 is_stmt 0
 640 02b0 033784FD 		ld	a4,-40(s0)
  86:src/riscv.cpp ****             //char getc();
 641              		.loc 1 86 14
 642 02b4 93071004 		li	a5,65
 643 02b8 630AF710 		beq	a4,a5,.L52
 644              	.LBE125:
 645              	.LBE177:
 646              	.LBE188:
 647              	.LBE202:
 648              	.LBE215:
 649              	.LBE229:
 650              	.LBE246:
 651              	.LBE261:
  95:src/riscv.cpp ****             //void putc()
 652              		.loc 1 95 14 is_stmt 1
 653              	.LBB262:
 654              	.LBB247:
 655              	.LBB230:
 656              	.LBB216:
 657              	.LBB203:
 658              	.LBB189:
 659              	.LBB178:
 660              	.LBB169:
 661              	.LBB126:
  95:src/riscv.cpp ****             //void putc()
 662              		.loc 1 95 19 is_stmt 0
 663 02bc 033784FD 		ld	a4,-40(s0)
  95:src/riscv.cpp ****             //void putc()
 664              		.loc 1 95 14
 665 02c0 93072004 		li	a5,66
 666 02c4 630CF710 		beq	a4,a5,.L53
 667              	.LBE126:
 668              	.LBE169:
 669              	.LBE178:
 670              	.LBE189:
 671              	.LBE203:
 672              	.LBE216:
 673              	.LBE230:
 674              	.LBE247:
 675              	.LBE262:
 103:src/riscv.cpp ****             //sem_open
 676              		.loc 1 103 14 is_stmt 1
 677              	.LBB263:
 678              	.LBB248:
 679              	.LBB231:
 680              	.LBB217:
 681              	.LBB204:
 682              	.LBB190:
 683              	.LBB179:
 684              	.LBB170:
 685              	.LBB161:
 686              	.LBB127:
 103:src/riscv.cpp ****             //sem_open
GAS LISTING /tmp/ccF98P1y.s 			page 23


 687              		.loc 1 103 19 is_stmt 0
 688 02c8 033784FD 		ld	a4,-40(s0)
 103:src/riscv.cpp ****             //sem_open
 689              		.loc 1 103 14
 690 02cc 93071002 		li	a5,33
 691 02d0 6300F712 		beq	a4,a5,.L54
 692              	.LBE127:
 693              	.LBE161:
 694              	.LBE170:
 695              	.LBE179:
 696              	.LBE190:
 697              	.LBE204:
 698              	.LBE217:
 699              	.LBE231:
 700              	.LBE248:
 701              	.LBE263:
 117:src/riscv.cpp ****             //sem_wait(sem_t id)
 702              		.loc 1 117 14 is_stmt 1
 703              	.LBB264:
 704              	.LBB249:
 705              	.LBB232:
 706              	.LBB218:
 707              	.LBB205:
 708              	.LBB191:
 709              	.LBB180:
 710              	.LBB171:
 711              	.LBB162:
 712              	.LBB154:
 713              	.LBB128:
 117:src/riscv.cpp ****             //sem_wait(sem_t id)
 714              		.loc 1 117 19 is_stmt 0
 715 02d4 033784FD 		ld	a4,-40(s0)
 117:src/riscv.cpp ****             //sem_wait(sem_t id)
 716              		.loc 1 117 14
 717 02d8 93073002 		li	a5,35
 718 02dc 6304F714 		beq	a4,a5,.L55
 719              	.LBE128:
 720              	.LBE154:
 721              	.LBE162:
 722              	.LBE171:
 723              	.LBE180:
 724              	.LBE191:
 725              	.LBE205:
 726              	.LBE218:
 727              	.LBE232:
 728              	.LBE249:
 729              	.LBE264:
 123:src/riscv.cpp ****             //sem_close(sem_t handle)
 730              		.loc 1 123 14 is_stmt 1
 731              	.LBB265:
 732              	.LBB250:
 733              	.LBB233:
 734              	.LBB219:
 735              	.LBB206:
 736              	.LBB192:
 737              	.LBB181:
 738              	.LBB172:
GAS LISTING /tmp/ccF98P1y.s 			page 24


 739              	.LBB163:
 740              	.LBB155:
 741              	.LBB146:
 742              	.LBB129:
 123:src/riscv.cpp ****             //sem_close(sem_t handle)
 743              		.loc 1 123 19 is_stmt 0
 744 02e0 033784FD 		ld	a4,-40(s0)
 123:src/riscv.cpp ****             //sem_close(sem_t handle)
 745              		.loc 1 123 14
 746 02e4 93072002 		li	a5,34
 747 02e8 6308F714 		beq	a4,a5,.L56
 748              	.LBE129:
 749              	.LBE146:
 750              	.LBE155:
 751              	.LBE163:
 752              	.LBE172:
 753              	.LBE181:
 754              	.LBE192:
 755              	.LBE206:
 756              	.LBE219:
 757              	.LBE233:
 758              	.LBE250:
 759              	.LBE265:
 129:src/riscv.cpp ****             //sem_signal(sem_t id)
 760              		.loc 1 129 14 is_stmt 1
 761              	.LBB266:
 762              	.LBB251:
 763              	.LBB234:
 764              	.LBB220:
 765              	.LBB207:
 766              	.LBB193:
 767              	.LBB182:
 768              	.LBB173:
 769              	.LBB164:
 770              	.LBB156:
 771              	.LBB147:
 772              	.LBB141:
 773              	.LBB130:
 129:src/riscv.cpp ****             //sem_signal(sem_t id)
 774              		.loc 1 129 19 is_stmt 0
 775 02ec 033784FD 		ld	a4,-40(s0)
 129:src/riscv.cpp ****             //sem_signal(sem_t id)
 776              		.loc 1 129 14
 777 02f0 93074002 		li	a5,36
 778 02f4 630CF714 		beq	a4,a5,.L57
 779              	.LBE130:
 780              	.LBE141:
 781              	.LBE147:
 782              	.LBE156:
 783              	.LBE164:
 784              	.LBE173:
 785              	.LBE182:
 786              	.LBE193:
 787              	.LBE207:
 788              	.LBE220:
 789              	.LBE234:
 790              	.LBE251:
GAS LISTING /tmp/ccF98P1y.s 			page 25


 791              	.LBE266:
 135:src/riscv.cpp ****             //thread_join(thread_t)
 792              		.loc 1 135 14 is_stmt 1
 793              	.LBB267:
 794              	.LBB252:
 795              	.LBB235:
 796              	.LBB221:
 797              	.LBB208:
 798              	.LBB194:
 799              	.LBB183:
 800              	.LBB174:
 801              	.LBB165:
 802              	.LBB157:
 803              	.LBB148:
 804              	.LBB142:
 805              	.LBB137:
 806              	.LBB131:
 135:src/riscv.cpp ****             //thread_join(thread_t)
 807              		.loc 1 135 19 is_stmt 0
 808 02f8 033784FD 		ld	a4,-40(s0)
 135:src/riscv.cpp ****             //thread_join(thread_t)
 809              		.loc 1 135 14
 810 02fc 93074001 		li	a5,20
 811 0300 6300F716 		beq	a4,a5,.L58
 812              	.LBE131:
 813              	.LBE137:
 814              	.LBE142:
 815              	.LBE148:
 816              	.LBE157:
 817              	.LBE165:
 818              	.LBE174:
 819              	.LBE183:
 820              	.LBE194:
 821              	.LBE208:
 822              	.LBE221:
 823              	.LBE235:
 824              	.LBE252:
 825              	.LBE267:
 139:src/riscv.cpp ****             //time_sleep(time_t)
 826              		.loc 1 139 14 is_stmt 1
 827              	.LBB268:
 828              	.LBB253:
 829              	.LBB236:
 830              	.LBB222:
 831              	.LBB209:
 832              	.LBB195:
 833              	.LBB184:
 834              	.LBB175:
 835              	.LBB166:
 836              	.LBB158:
 837              	.LBB149:
 838              	.LBB143:
 839              	.LBB138:
 840              	.LBB134:
 841              	.LBB132:
 139:src/riscv.cpp ****             //time_sleep(time_t)
 842              		.loc 1 139 19 is_stmt 0
GAS LISTING /tmp/ccF98P1y.s 			page 26


 843 0304 033784FD 		ld	a4,-40(s0)
 139:src/riscv.cpp ****             //time_sleep(time_t)
 844              		.loc 1 139 14
 845 0308 93071003 		li	a5,49
 846 030c 6314F702 		bne	a4,a5,.L30
 847              	.LBB133:
 141:src/riscv.cpp ****             int stat=Riscv::putToSleep(time);
 848              		.loc 1 141 13 is_stmt 1
 141:src/riscv.cpp ****             int stat=Riscv::putToSleep(time);
 849              		.loc 1 141 33 is_stmt 0
 850 0310 033504FD 		ld	a0,-48(s0)
 851              	.LVL29:
 142:src/riscv.cpp ****             __asm__ volatile("sd %0, 0x50(fp)": : "r"(stat));
 852              		.loc 1 142 13 is_stmt 1
 142:src/riscv.cpp ****             __asm__ volatile("sd %0, 0x50(fp)": : "r"(stat));
 853              		.loc 1 142 39 is_stmt 0
 854 0314 97000000 		call	_ZN5Riscv10putToSleepEm
 854      E7800000 
 855              	.LVL30:
 143:src/riscv.cpp ****         }
 856              		.loc 1 143 13 is_stmt 1
 143:src/riscv.cpp ****         }
 857              		.loc 1 143 61 is_stmt 0
 858              	#APP
 859              	# 143 "src/riscv.cpp" 1
 860              		sd a0, 0x50(fp)
 861              	# 0 "" 2
 862              	#NO_APP
 863              	.LBE133:
 864 0320 6F004001 		j	.L30
 865              	.LVL31:
 866              	.L47:
 867              	.LBE132:
 868              	.LBE134:
 869              	.LBE138:
 870              	.LBE143:
 871              	.LBE149:
 872              	.LBE158:
 873              	.LBE166:
 874              	.LBE175:
 875              	.LBE184:
 876              	.LBE195:
 877              	.LBE209:
 878              	.LBE222:
 879              	.LBB223:
  37:src/riscv.cpp ****             __asm__ volatile("sd %0, 0x50(fp)": : "r"((uint64)ptr));
 880              		.loc 1 37 13 is_stmt 1
  37:src/riscv.cpp ****             __asm__ volatile("sd %0, 0x50(fp)": : "r"((uint64)ptr));
 881              		.loc 1 37 45 is_stmt 0
 882 0324 033504FD 		ld	a0,-48(s0)
 883 0328 97000000 		call	_ZN15MemoryAllocator5allocEm@plt
 883      E7800000 
 884              	.LVL32:
  38:src/riscv.cpp ****         }
 885              		.loc 1 38 13 is_stmt 1
  38:src/riscv.cpp ****         }
 886              		.loc 1 38 68 is_stmt 0
GAS LISTING /tmp/ccF98P1y.s 			page 27


 887              	#APP
 888              	# 38 "src/riscv.cpp" 1
 889              		sd a0, 0x50(fp)
 890              	# 0 "" 2
 891              	.LVL33:
 892              	#NO_APP
 893              	.L30:
 894              	.LBE223:
 895              	.LBE236:
 146:src/riscv.cpp ****         w_sepc(sepc);
 896              		.loc 1 146 9 is_stmt 1
 146:src/riscv.cpp ****         w_sepc(sepc);
 897              		.loc 1 146 18 is_stmt 0
 898 0334 833784F9 		ld	a5,-104(s0)
 899              	.LVL34:
 900              	.LBB237:
 901              	.LBB238:
 134:src/../h/riscv.hpp **** }
 902              		.loc 2 134 5 is_stmt 1
 134:src/../h/riscv.hpp **** }
 903              		.loc 2 134 72 is_stmt 0
 904              	#APP
 905              	# 134 "src/../h/riscv.hpp" 1
 906              		csrw sstatus, a5
 907              	# 0 "" 2
 908              	.LVL35:
 909              	#NO_APP
 910              	.LBE238:
 911              	.LBE237:
 147:src/riscv.cpp ****     }
 912              		.loc 1 147 9 is_stmt 1
 147:src/riscv.cpp ****     }
 913              		.loc 1 147 15 is_stmt 0
 914 033c 833704F9 		ld	a5,-112(s0)
 915              	.LVL36:
 916              	.LBB239:
 917              	.LBB240:
  88:src/../h/riscv.hpp **** }
 918              		.loc 2 88 5 is_stmt 1
  88:src/../h/riscv.hpp **** }
 919              		.loc 2 88 60 is_stmt 0
 920              	#APP
 921              	# 88 "src/../h/riscv.hpp" 1
 922              		csrw sepc, a5
 923              	# 0 "" 2
 924              	.LVL37:
 925              	#NO_APP
 926              	.LBE240:
 927              	.LBE239:
 928              	.LBE253:
 929              	.LBE268:
 162:src/riscv.cpp **** 
 930              		.loc 1 162 1
 931 0344 83308106 		ld	ra,104(sp)
 932              		.cfi_remember_state
 933              		.cfi_restore 1
 934 0348 03340106 		ld	s0,96(sp)
GAS LISTING /tmp/ccF98P1y.s 			page 28


 935              		.cfi_restore 8
 936              		.cfi_def_cfa 2, 112
 937 034c 83348105 		ld	s1,88(sp)
 938              		.cfi_restore 9
 939              	.LVL38:
 940 0350 13010107 		addi	sp,sp,112
 941              		.cfi_def_cfa_offset 0
 942 0354 67800000 		jr	ra
 943              	.LVL39:
 944              	.L48:
 945              		.cfi_restore_state
 946              	.LBB269:
 947              	.LBB254:
 948              	.LBB241:
 949              	.LBB224:
 950              	.LBB210:
  42:src/riscv.cpp ****             __asm__ volatile("sd %0, 0x50(fp)": : "r"(stat));
 951              		.loc 1 42 13 is_stmt 1
  42:src/riscv.cpp ****             __asm__ volatile("sd %0, 0x50(fp)": : "r"(stat));
 952              		.loc 1 42 43 is_stmt 0
 953 0358 033504FD 		ld	a0,-48(s0)
 954 035c 97000000 		call	_ZN15MemoryAllocator4freeEPv@plt
 954      E7800000 
 955              	.LVL40:
  43:src/riscv.cpp ****         }
 956              		.loc 1 43 13 is_stmt 1
  43:src/riscv.cpp ****         }
 957              		.loc 1 43 61 is_stmt 0
 958              	#APP
 959              	# 43 "src/riscv.cpp" 1
 960              		sd a0, 0x50(fp)
 961              	# 0 "" 2
 962              	#NO_APP
 963              	.LBE210:
 964 0368 6FF0DFFC 		j	.L30
 965              	.LVL41:
 966              	.L49:
 967              	.LBB211:
 968              	.LBB196:
  54:src/riscv.cpp **** 
 969              		.loc 1 54 13 is_stmt 1
  54:src/riscv.cpp **** 
 970              		.loc 1 54 43 is_stmt 0
 971 036c 033584FC 		ld	a0,-56(s0)
 972 0370 833584FB 		ld	a1,-72(s0)
 973 0374 033604FC 		ld	a2,-64(s0)
 974 0378 97000000 		call	_ZN3TCB12createThreadEPFvPvEPcS0_@plt
 974      E7800000 
 975              	.LVL42:
  56:src/riscv.cpp ****                 __asm__ volatile("sd %0, 0x50(fp)": : "r"(-1));
 976              		.loc 1 56 13 is_stmt 1
 977              	.LBB197:
 978 0380 630C0500 		beqz	a0,.L59
 979              	.LBB198:
  61:src/riscv.cpp ****                 *retHandle=handle;
 980              		.loc 1 61 17
  61:src/riscv.cpp ****                 *retHandle=handle;
GAS LISTING /tmp/ccF98P1y.s 			page 29


 981              		.loc 1 61 40 is_stmt 0
 982 0384 033704FD 		ld	a4,-48(s0)
 983              	.LVL43:
  62:src/riscv.cpp ****                 __asm__ volatile("sd %0, 0x50(fp)": : "r"(0));
 984              		.loc 1 62 17 is_stmt 1
  62:src/riscv.cpp ****                 __asm__ volatile("sd %0, 0x50(fp)": : "r"(0));
 985              		.loc 1 62 27 is_stmt 0
 986 0388 2330A700 		sd	a0,0(a4)
  63:src/riscv.cpp ****             }
 987              		.loc 1 63 17 is_stmt 1
  63:src/riscv.cpp ****             }
 988              		.loc 1 63 62 is_stmt 0
 989 038c 93070000 		li	a5,0
 990              	#APP
 991              	# 63 "src/riscv.cpp" 1
 992              		sd a5, 0x50(fp)
 993              	# 0 "" 2
 994              	#NO_APP
 995 0394 6FF01FFA 		j	.L30
 996              	.LVL44:
 997              	.L59:
 998              	.LBE198:
  57:src/riscv.cpp ****             }
 999              		.loc 1 57 17 is_stmt 1
  57:src/riscv.cpp ****             }
 1000              		.loc 1 57 63 is_stmt 0
 1001 0398 9307F0FF 		li	a5,-1
 1002              	#APP
 1003              	# 57 "src/riscv.cpp" 1
 1004              		sd a5, 0x50(fp)
 1005              	# 0 "" 2
 1006              	#NO_APP
 1007 03a0 6FF05FF9 		j	.L30
 1008              	.LVL45:
 1009              	.L50:
 1010              	.LBE197:
 1011              	.LBE196:
 1012              	.LBB199:
 1013              	.LBB185:
  78:src/riscv.cpp ****             __asm__ volatile("sd %0, 0x50(fp)": : "r"(stat));
 1014              		.loc 1 78 13 is_stmt 1
  78:src/riscv.cpp ****             __asm__ volatile("sd %0, 0x50(fp)": : "r"(stat));
 1015              		.loc 1 78 31 is_stmt 0
 1016 03a4 97000000 		call	_ZN3TCB4exitEv@plt
 1016      E7800000 
 1017              	.LVL46:
  79:src/riscv.cpp ****         }
 1018              		.loc 1 79 13 is_stmt 1
  79:src/riscv.cpp ****         }
 1019              		.loc 1 79 61 is_stmt 0
 1020              	#APP
 1021              	# 79 "src/riscv.cpp" 1
 1022              		sd a0, 0x50(fp)
 1023              	# 0 "" 2
 1024              	#NO_APP
 1025              	.LBE185:
 1026 03b0 6FF05FF8 		j	.L30
GAS LISTING /tmp/ccF98P1y.s 			page 30


 1027              	.LVL47:
 1028              	.L51:
 1029              	.LBB186:
  83:src/riscv.cpp ****             TCB::dispatch();
 1030              		.loc 1 83 13 is_stmt 1
  83:src/riscv.cpp ****             TCB::dispatch();
 1031              		.loc 1 83 34 is_stmt 0
 1032 03b4 97070000 		la	a5,_ZN3TCB16timeSliceCounterE
 1032      83B70700 
 1033 03bc 23B00700 		sd	zero,0(a5)
  84:src/riscv.cpp ****         }
 1034              		.loc 1 84 13 is_stmt 1
  84:src/riscv.cpp ****         }
 1035              		.loc 1 84 26 is_stmt 0
 1036 03c0 97000000 		call	_ZN3TCB8dispatchEv@plt
 1036      E7800000 
 1037              	.LVL48:
 1038 03c8 6FF0DFF6 		j	.L30
 1039              	.L52:
 1040              	.LBB176:
 1041              	.LBB167:
  89:src/riscv.cpp ****             __asm__ volatile("sd %0, 0x50(fp)": : "r"(c));
 1042              		.loc 1 89 13 is_stmt 1
  89:src/riscv.cpp ****             __asm__ volatile("sd %0, 0x50(fp)": : "r"(c));
 1043              		.loc 1 89 43 is_stmt 0
 1044 03cc 97000000 		call	_ZN8_console13inputBuff_getEv@plt
 1044      E7800000 
 1045              	.LVL49:
  90:src/riscv.cpp **** 
 1046              		.loc 1 90 13 is_stmt 1
  90:src/riscv.cpp **** 
 1047              		.loc 1 90 58 is_stmt 0
 1048              	#APP
 1049              	# 90 "src/riscv.cpp" 1
 1050              		sd a0, 0x50(fp)
 1051              	# 0 "" 2
 1052              	#NO_APP
 1053              	.LBE167:
 1054 03d8 6FF0DFF5 		j	.L30
 1055              	.LVL50:
 1056              	.L53:
 1057              	.LBB168:
 1058              	.LBB159:
  98:src/riscv.cpp ****             _console::outputBuff_put(c);
 1059              		.loc 1 98 13 is_stmt 1
  98:src/riscv.cpp ****             _console::outputBuff_put(c);
 1060              		.loc 1 98 26 is_stmt 0
 1061 03dc 033504FD 		ld	a0,-48(s0)
 1062              	.LVL51:
  99:src/riscv.cpp **** 
 1063              		.loc 1 99 13 is_stmt 1
  99:src/riscv.cpp **** 
 1064              		.loc 1 99 37 is_stmt 0
 1065 03e0 1375F50F 		andi	a0,a0,0xff
 1066 03e4 97000000 		call	_ZN8_console14outputBuff_putEc@plt
 1066      E7800000 
 1067              	.LVL52:
GAS LISTING /tmp/ccF98P1y.s 			page 31


 1068              	.LBE159:
 1069 03ec 6FF09FF4 		j	.L30
 1070              	.L54:
 1071              	.LBB160:
 1072              	.LBB150:
 107:src/riscv.cpp ****             if(!handle){
 1073              		.loc 1 107 13 is_stmt 1
 107:src/riscv.cpp ****             if(!handle){
 1074              		.loc 1 107 36 is_stmt 0
 1075 03f0 033584FC 		ld	a0,-56(s0)
 1076 03f4 1B050500 		sext.w	a0,a0
 1077 03f8 97000000 		call	_ZN4_sem4openEi@plt
 1077      E7800000 
 1078              	.LVL53:
 108:src/riscv.cpp ****                 __asm__ volatile("sd %0, 0x50(fp)": : "r"(-1));
 1079              		.loc 1 108 13 is_stmt 1
 1080              	.LBB151:
 1081 0400 630C0500 		beqz	a0,.L60
 1082              	.LBB152:
 112:src/riscv.cpp ****                 *retHandle=handle;
 1083              		.loc 1 112 17
 112:src/riscv.cpp ****                 *retHandle=handle;
 1084              		.loc 1 112 42 is_stmt 0
 1085 0404 033704FD 		ld	a4,-48(s0)
 1086              	.LVL54:
 113:src/riscv.cpp ****                 __asm__ volatile("sd %0, 0x50(fp)": : "r"(0));
 1087              		.loc 1 113 17 is_stmt 1
 113:src/riscv.cpp ****                 __asm__ volatile("sd %0, 0x50(fp)": : "r"(0));
 1088              		.loc 1 113 27 is_stmt 0
 1089 0408 2330A700 		sd	a0,0(a4)
 114:src/riscv.cpp ****             }
 1090              		.loc 1 114 17 is_stmt 1
 114:src/riscv.cpp ****             }
 1091              		.loc 1 114 62 is_stmt 0
 1092 040c 93070000 		li	a5,0
 1093              	#APP
 1094              	# 114 "src/riscv.cpp" 1
 1095              		sd a5, 0x50(fp)
 1096              	# 0 "" 2
 1097              	#NO_APP
 1098 0414 6FF01FF2 		j	.L30
 1099              	.LVL55:
 1100              	.L60:
 1101              	.LBE152:
 109:src/riscv.cpp ****             }
 1102              		.loc 1 109 17 is_stmt 1
 109:src/riscv.cpp ****             }
 1103              		.loc 1 109 63 is_stmt 0
 1104 0418 9307F0FF 		li	a5,-1
 1105              	#APP
 1106              	# 109 "src/riscv.cpp" 1
 1107              		sd a5, 0x50(fp)
 1108              	# 0 "" 2
 1109              	#NO_APP
 1110 0420 6FF05FF1 		j	.L30
 1111              	.LVL56:
 1112              	.L55:
GAS LISTING /tmp/ccF98P1y.s 			page 32


 1113              	.LBE151:
 1114              	.LBE150:
 1115              	.LBB153:
 1116              	.LBB144:
 119:src/riscv.cpp ****             int stat=handle->wait();
 1117              		.loc 1 119 13 is_stmt 1
 119:src/riscv.cpp ****             int stat=handle->wait();
 1118              		.loc 1 119 34 is_stmt 0
 1119 0424 033504FD 		ld	a0,-48(s0)
 1120              	.LVL57:
 120:src/riscv.cpp ****             __asm__ volatile("sd %0, 0x50(fp)": : "r"(stat));
 1121              		.loc 1 120 13 is_stmt 1
 120:src/riscv.cpp ****             __asm__ volatile("sd %0, 0x50(fp)": : "r"(stat));
 1122              		.loc 1 120 34 is_stmt 0
 1123 0428 97000000 		call	_ZN4_sem4waitEv@plt
 1123      E7800000 
 1124              	.LVL58:
 121:src/riscv.cpp ****         }
 1125              		.loc 1 121 13 is_stmt 1
 121:src/riscv.cpp ****         }
 1126              		.loc 1 121 61 is_stmt 0
 1127              	#APP
 1128              	# 121 "src/riscv.cpp" 1
 1129              		sd a0, 0x50(fp)
 1130              	# 0 "" 2
 1131              	#NO_APP
 1132              	.LBE144:
 1133 0434 6FF01FF0 		j	.L30
 1134              	.LVL59:
 1135              	.L56:
 1136              	.LBB145:
 1137              	.LBB139:
 125:src/riscv.cpp ****             int stat=handle->close();
 1138              		.loc 1 125 13 is_stmt 1
 125:src/riscv.cpp ****             int stat=handle->close();
 1139              		.loc 1 125 34 is_stmt 0
 1140 0438 033504FD 		ld	a0,-48(s0)
 1141              	.LVL60:
 126:src/riscv.cpp ****             __asm__ volatile("sd %0, 0x50(fp)": : "r"(stat));
 1142              		.loc 1 126 13 is_stmt 1
 126:src/riscv.cpp ****             __asm__ volatile("sd %0, 0x50(fp)": : "r"(stat));
 1143              		.loc 1 126 35 is_stmt 0
 1144 043c 97000000 		call	_ZN4_sem5closeEv@plt
 1144      E7800000 
 1145              	.LVL61:
 127:src/riscv.cpp ****         }
 1146              		.loc 1 127 13 is_stmt 1
 127:src/riscv.cpp ****         }
 1147              		.loc 1 127 61 is_stmt 0
 1148              	#APP
 1149              	# 127 "src/riscv.cpp" 1
 1150              		sd a0, 0x50(fp)
 1151              	# 0 "" 2
 1152              	#NO_APP
 1153              	.LBE139:
 1154 0448 6FF0DFEE 		j	.L30
 1155              	.LVL62:
GAS LISTING /tmp/ccF98P1y.s 			page 33


 1156              	.L57:
 1157              	.LBB140:
 1158              	.LBB135:
 131:src/riscv.cpp ****             int stat=handle->signal();
 1159              		.loc 1 131 13 is_stmt 1
 131:src/riscv.cpp ****             int stat=handle->signal();
 1160              		.loc 1 131 34 is_stmt 0
 1161 044c 033504FD 		ld	a0,-48(s0)
 1162              	.LVL63:
 132:src/riscv.cpp ****             __asm__ volatile("sd %0, 0x50(fp)": : "r"(stat));
 1163              		.loc 1 132 13 is_stmt 1
 132:src/riscv.cpp ****             __asm__ volatile("sd %0, 0x50(fp)": : "r"(stat));
 1164              		.loc 1 132 36 is_stmt 0
 1165 0450 97000000 		call	_ZN4_sem6signalEv@plt
 1165      E7800000 
 1166              	.LVL64:
 133:src/riscv.cpp ****         }
 1167              		.loc 1 133 13 is_stmt 1
 133:src/riscv.cpp ****         }
 1168              		.loc 1 133 61 is_stmt 0
 1169              	#APP
 1170              	# 133 "src/riscv.cpp" 1
 1171              		sd a0, 0x50(fp)
 1172              	# 0 "" 2
 1173              	#NO_APP
 1174              	.LBE135:
 1175 045c 6FF09FED 		j	.L30
 1176              	.LVL65:
 1177              	.L58:
 1178              	.LBB136:
 137:src/riscv.cpp ****         }
 1179              		.loc 1 137 13 is_stmt 1
 137:src/riscv.cpp ****         }
 1180              		.loc 1 137 22 is_stmt 0
 1181 0460 033504FD 		ld	a0,-48(s0)
 1182 0464 97000000 		call	_ZN3TCB4joinEPS_@plt
 1182      E7800000 
 1183              	.LVL66:
 1184 046c 6FF09FEC 		j	.L30
 1185              	.L28:
 1186              	.LBE136:
 1187              	.LBE140:
 1188              	.LBE145:
 1189              	.LBE153:
 1190              	.LBE160:
 1191              	.LBE168:
 1192              	.LBE176:
 1193              	.LBE186:
 1194              	.LBE199:
 1195              	.LBE211:
 1196              	.LBE224:
 1197              	.LBE241:
 1198              	.LBE254:
 151:src/riscv.cpp ****         printInt(scause);
 1199              		.loc 1 151 9 is_stmt 1
 151:src/riscv.cpp ****         printInt(scause);
 1200              		.loc 1 151 20 is_stmt 0
GAS LISTING /tmp/ccF98P1y.s 			page 34


 1201 0470 17050000 		lla	a0,.LC0
 1201      13050500 
 1202 0478 97000000 		call	_Z11printStringPKc@plt
 1202      E7800000 
 1203              	.LVL67:
 152:src/riscv.cpp ****         printString("\nsepc:");
 1204              		.loc 1 152 9 is_stmt 1
 152:src/riscv.cpp ****         printString("\nsepc:");
 1205              		.loc 1 152 17 is_stmt 0
 1206 0480 13060000 		li	a2,0
 1207 0484 9305A000 		li	a1,10
 1208 0488 1B850400 		sext.w	a0,s1
 1209 048c 97000000 		call	_Z8printIntiii@plt
 1209      E7800000 
 1210              	.LVL68:
 153:src/riscv.cpp ****         printInt(r_sepc());
 1211              		.loc 1 153 9 is_stmt 1
 153:src/riscv.cpp ****         printInt(r_sepc());
 1212              		.loc 1 153 20 is_stmt 0
 1213 0494 17050000 		lla	a0,.LC1
 1213      13050500 
 1214 049c 97000000 		call	_Z11printStringPKc@plt
 1214      E7800000 
 1215              	.LVL69:
 154:src/riscv.cpp ****         printString("\n");
 1216              		.loc 1 154 9 is_stmt 1
 1217              	.LBB255:
 1218              	.LBB256:
  83:src/../h/riscv.hpp ****     __asm__ volatile("csrr %[sepc], sepc":[sepc]"=r"(sepc));
 1219              		.loc 2 83 5
  84:src/../h/riscv.hpp ****     return sepc;
 1220              		.loc 2 84 5
  84:src/../h/riscv.hpp ****     return sepc;
 1221              		.loc 2 84 60 is_stmt 0
 1222              	#APP
 1223              	# 84 "src/../h/riscv.hpp" 1
 1224              		csrr a5, sepc
 1225              	# 0 "" 2
 1226              	#NO_APP
 1227 04a8 2338F4FA 		sd	a5,-80(s0)
  85:src/../h/riscv.hpp **** }
 1228              		.loc 2 85 5 is_stmt 1
  85:src/../h/riscv.hpp **** }
 1229              		.loc 2 85 12 is_stmt 0
 1230 04ac 033504FB 		ld	a0,-80(s0)
 1231              	.LBE256:
 1232              	.LBE255:
 154:src/riscv.cpp ****         printString("\n");
 1233              		.loc 1 154 17
 1234 04b0 13060000 		li	a2,0
 1235 04b4 9305A000 		li	a1,10
 1236 04b8 1B050500 		sext.w	a0,a0
 1237 04bc 97000000 		call	_Z8printIntiii@plt
 1237      E7800000 
 1238              	.LVL70:
 155:src/riscv.cpp **** 
 1239              		.loc 1 155 9 is_stmt 1
GAS LISTING /tmp/ccF98P1y.s 			page 35


 155:src/riscv.cpp **** 
 1240              		.loc 1 155 20 is_stmt 0
 1241 04c4 17050000 		lla	a0,.LC2
 1241      13050500 
 1242 04cc 97000000 		call	_Z11printStringPKc@plt
 1242      E7800000 
 1243              	.LVL71:
 1244              	.L44:
 157:src/riscv.cpp ****             //TCB::dispatch();
 1245              		.loc 1 157 9 is_stmt 1 discriminator 1
 157:src/riscv.cpp ****             //TCB::dispatch();
 1246              		.loc 1 157 9 discriminator 1
 1247 04d4 6F000000 		j	.L44
 1248              	.LBE269:
 1249              		.cfi_endproc
 1250              	.LFE34:
 1252              		.align	2
 1253              		.globl	_ZN5Riscv18updateSleepingListEv
 1255              	_ZN5Riscv18updateSleepingListEv:
 1256              	.LFB39:
 265:src/riscv.cpp **** 
 266:src/riscv.cpp **** void Riscv::updateSleepingList() {
 1257              		.loc 1 266 34
 1258              		.cfi_startproc
 267:src/riscv.cpp ****     if(headSleeping!=nullptr){
 1259              		.loc 1 267 5
 1260              	.LBB270:
 1261              		.loc 1 267 20 is_stmt 0
 1262 04d8 97070000 		ld	a5,.LANCHOR0
 1262      83B70700 
 1263              		.loc 1 267 5
 1264 04e0 638A0700 		beqz	a5,.L65
 1265              	.LBE270:
 268:src/riscv.cpp ****         if(--headSleeping->toSleepRel==0){
 1266              		.loc 1 268 9 is_stmt 1
 1267              	.LBB278:
 1268              	.LBB271:
 1269              		.loc 1 268 28 is_stmt 0
 1270 04e4 03B78700 		ld	a4,8(a5)
 1271              		.loc 1 268 12
 1272 04e8 1307F7FF 		addi	a4,a4,-1
 1273              		.loc 1 268 38
 1274 04ec 23B4E700 		sd	a4,8(a5)
 1275              		.loc 1 268 9
 1276 04f0 63040700 		beqz	a4,.L68
 1277              	.L65:
 1278 04f4 67800000 		ret
 1279              	.L68:
 1280              	.LBE271:
 1281              	.LBE278:
 266:src/riscv.cpp ****     if(headSleeping!=nullptr){
 1282              		.loc 1 266 34
 1283 04f8 130101FF 		addi	sp,sp,-16
 1284              		.cfi_def_cfa_offset 16
 1285 04fc 23341100 		sd	ra,8(sp)
 1286 0500 23308100 		sd	s0,0(sp)
 1287              		.cfi_offset 1, -8
GAS LISTING /tmp/ccF98P1y.s 			page 36


 1288              		.cfi_offset 8, -16
 1289 0504 13040101 		addi	s0,sp,16
 1290              		.cfi_def_cfa 8, 0
 1291              	.LBB279:
 1292              	.LBB277:
 1293              	.LBB272:
 269:src/riscv.cpp ****             headSleeping->thr->setSleeping(false);
 1294              		.loc 1 269 13 is_stmt 1
 1295              		.loc 1 269 27 is_stmt 0
 1296 0508 03B70700 		ld	a4,0(a5)
 1297              	.LVL72:
 1298              	.LBB273:
 1299              	.LBB274:
 1300              		.loc 3 41 9 is_stmt 1
 1301              		.loc 3 41 23 is_stmt 0
 1302 050c A3000704 		sb	zero,65(a4)
 1303              	.LVL73:
 1304              	.LBE274:
 1305              	.LBE273:
 270:src/riscv.cpp ****             Scheduler::put(headSleeping->thr);
 1306              		.loc 1 270 13 is_stmt 1
 1307              		.loc 1 270 27 is_stmt 0
 1308 0510 03B50700 		ld	a0,0(a5)
 1309 0514 97000000 		call	_ZN9Scheduler3putEP3TCB@plt
 1309      E7800000 
 1310              	.LVL74:
 271:src/riscv.cpp ****             SleepingElem* old=headSleeping;
 1311              		.loc 1 271 13 is_stmt 1
 1312              		.loc 1 271 27 is_stmt 0
 1313 051c 97070000 		lla	a5,.LANCHOR0
 1313      93870700 
 1314 0524 03B50700 		ld	a0,0(a5)
 1315              	.LVL75:
 272:src/riscv.cpp ****             headSleeping=headSleeping->next;
 1316              		.loc 1 272 13 is_stmt 1
 1317              		.loc 1 272 40 is_stmt 0
 1318 0528 03370501 		ld	a4,16(a0)
 1319              		.loc 1 272 25
 1320 052c 23B0E700 		sd	a4,0(a5)
 273:src/riscv.cpp ****             MemoryAllocator::free(old);
 1321              		.loc 1 273 13 is_stmt 1
 1322              		.loc 1 273 34 is_stmt 0
 1323 0530 97000000 		call	_ZN15MemoryAllocator4freeEPv@plt
 1323      E7800000 
 1324              	.LVL76:
 1325              	.L63:
 274:src/riscv.cpp ****             while(headSleeping!=nullptr && headSleeping->toSleepRel==0){
 1326              		.loc 1 274 13 is_stmt 1
 1327              		.loc 1 274 41
 1328              		.loc 1 274 31 is_stmt 0
 1329 0538 97070000 		ld	a5,.LANCHOR0
 1329      83B70700 
 1330              		.loc 1 274 41
 1331 0540 63800704 		beqz	a5,.L61
 1332              		.loc 1 274 58 discriminator 1
 1333 0544 03B78700 		ld	a4,8(a5)
 1334              		.loc 1 274 41 discriminator 1
GAS LISTING /tmp/ccF98P1y.s 			page 37


 1335 0548 631C0702 		bnez	a4,.L61
 275:src/riscv.cpp ****                 headSleeping->thr->setSleeping(false);
 1336              		.loc 1 275 17 is_stmt 1
 1337              		.loc 1 275 31 is_stmt 0
 1338 054c 03B70700 		ld	a4,0(a5)
 1339              	.LVL77:
 1340              	.LBB275:
 1341              	.LBB276:
 1342              		.loc 3 41 9 is_stmt 1
 1343              		.loc 3 41 23 is_stmt 0
 1344 0550 A3000704 		sb	zero,65(a4)
 1345              	.LVL78:
 1346              	.LBE276:
 1347              	.LBE275:
 276:src/riscv.cpp ****                 Scheduler::put(headSleeping->thr);
 1348              		.loc 1 276 17 is_stmt 1
 1349              		.loc 1 276 31 is_stmt 0
 1350 0554 03B50700 		ld	a0,0(a5)
 1351 0558 97000000 		call	_ZN9Scheduler3putEP3TCB@plt
 1351      E7800000 
 1352              	.LVL79:
 277:src/riscv.cpp ****                 old=headSleeping;
 1353              		.loc 1 277 17 is_stmt 1
 1354              		.loc 1 277 20 is_stmt 0
 1355 0560 97070000 		lla	a5,.LANCHOR0
 1355      93870700 
 1356 0568 03B50700 		ld	a0,0(a5)
 1357              	.LVL80:
 278:src/riscv.cpp ****                 headSleeping=headSleeping->next;
 1358              		.loc 1 278 17 is_stmt 1
 1359              		.loc 1 278 44 is_stmt 0
 1360 056c 03370501 		ld	a4,16(a0)
 1361              		.loc 1 278 29
 1362 0570 23B0E700 		sd	a4,0(a5)
 279:src/riscv.cpp ****                 MemoryAllocator::free(old);
 1363              		.loc 1 279 17 is_stmt 1
 1364              		.loc 1 279 38 is_stmt 0
 1365 0574 97000000 		call	_ZN15MemoryAllocator4freeEPv@plt
 1365      E7800000 
 1366              	.LVL81:
 274:src/riscv.cpp ****                 headSleeping->thr->setSleeping(false);
 1367              		.loc 1 274 13
 1368 057c 6FF0DFFB 		j	.L63
 1369              	.L61:
 1370              	.LBE272:
 1371              	.LBE277:
 1372              	.LBE279:
 280:src/riscv.cpp ****             }
 281:src/riscv.cpp ****         }
 282:src/riscv.cpp ****     }
 283:src/riscv.cpp **** }
 1373              		.loc 1 283 1
 1374 0580 83308100 		ld	ra,8(sp)
 1375              		.cfi_restore 1
 1376 0584 03340100 		ld	s0,0(sp)
 1377              		.cfi_restore 8
 1378              		.cfi_def_cfa 2, 16
GAS LISTING /tmp/ccF98P1y.s 			page 38


 1379 0588 13010101 		addi	sp,sp,16
 1380              		.cfi_def_cfa_offset 0
 1381 058c 67800000 		jr	ra
 1382              		.cfi_endproc
 1383              	.LFE39:
 1385              		.align	2
 1386              		.globl	_ZN5Riscv14timerInterruptEv
 1388              	_ZN5Riscv14timerInterruptEv:
 1389              	.LFB35:
 164:src/riscv.cpp ****     uint64 scause=r_scause();
 1390              		.loc 1 164 30 is_stmt 1
 1391              		.cfi_startproc
 1392 0590 130101FC 		addi	sp,sp,-64
 1393              		.cfi_def_cfa_offset 64
 1394 0594 233C1102 		sd	ra,56(sp)
 1395 0598 23388102 		sd	s0,48(sp)
 1396              		.cfi_offset 1, -8
 1397              		.cfi_offset 8, -16
 1398 059c 13040104 		addi	s0,sp,64
 1399              		.cfi_def_cfa 8, 0
 165:src/riscv.cpp ****     if(scause==0x8000000000000001UL){
 1400              		.loc 1 165 5
 1401              	.LBB280:
 1402              	.LBB281:
  74:src/../h/riscv.hpp ****     __asm__ volatile("csrr %[scause], scause":[scause]"=r"(scause));
 1403              		.loc 2 74 5
  75:src/../h/riscv.hpp ****     return scause;
 1404              		.loc 2 75 5
  75:src/../h/riscv.hpp ****     return scause;
 1405              		.loc 2 75 68 is_stmt 0
 1406              	#APP
 1407              	# 75 "src/../h/riscv.hpp" 1
 1408              		csrr a5, scause
 1409              	# 0 "" 2
 1410              	#NO_APP
 1411 05a4 233CF4FC 		sd	a5,-40(s0)
  76:src/../h/riscv.hpp **** }
 1412              		.loc 2 76 5 is_stmt 1
  76:src/../h/riscv.hpp **** }
 1413              		.loc 2 76 12 is_stmt 0
 1414 05a8 033784FD 		ld	a4,-40(s0)
 1415              	.LVL82:
 1416              	.LBE281:
 1417              	.LBE280:
 166:src/riscv.cpp ****         //prekid od tajmera, softverski prekid
 1418              		.loc 1 166 5 is_stmt 1
 1419              	.LBB282:
 1420 05ac 9307F0FF 		li	a5,-1
 1421 05b0 9397F703 		slli	a5,a5,63
 1422 05b4 93871700 		addi	a5,a5,1
 1423 05b8 630AF700 		beq	a4,a5,.L73
 1424              	.LVL83:
 1425              	.L69:
 1426              	.LBE282:
 182:src/riscv.cpp **** 
 1427              		.loc 1 182 1 is_stmt 0
 1428 05bc 83308103 		ld	ra,56(sp)
GAS LISTING /tmp/ccF98P1y.s 			page 39


 1429              		.cfi_remember_state
 1430              		.cfi_restore 1
 1431 05c0 03340103 		ld	s0,48(sp)
 1432              		.cfi_restore 8
 1433              		.cfi_def_cfa 2, 64
 1434 05c4 13010104 		addi	sp,sp,64
 1435              		.cfi_def_cfa_offset 0
 1436 05c8 67800000 		jr	ra
 1437              	.LVL84:
 1438              	.L73:
 1439              		.cfi_restore_state
 1440              	.LBB300:
 1441              	.LBB283:
 169:src/riscv.cpp **** 
 1442              		.loc 1 169 9 is_stmt 1
 169:src/riscv.cpp **** 
 1443              		.loc 1 169 27 is_stmt 0
 1444 05cc 97000000 		call	_ZN5Riscv18updateSleepingListEv
 1444      E7800000 
 1445              	.LVL85:
 171:src/riscv.cpp ****         if(TCB::timeSliceCounter>=TCB::running->getTimeSlice()){
 1446              		.loc 1 171 9 is_stmt 1
 171:src/riscv.cpp ****         if(TCB::timeSliceCounter>=TCB::running->getTimeSlice()){
 1447              		.loc 1 171 30 is_stmt 0
 1448 05d4 17070000 		la	a4,_ZN3TCB16timeSliceCounterE
 1448      03370700 
 1449 05dc 83370700 		ld	a5,0(a4)
 1450 05e0 93871700 		addi	a5,a5,1
 1451 05e4 2330F700 		sd	a5,0(a4)
 172:src/riscv.cpp ****             uint64 volatile sepc=r_sepc();
 1452              		.loc 1 172 9 is_stmt 1
 1453              	.LBB284:
 172:src/riscv.cpp ****             uint64 volatile sepc=r_sepc();
 1454              		.loc 1 172 61 is_stmt 0
 1455 05e8 17070000 		la	a4,_ZN3TCB7runningE
 1455      03370700 
 1456 05f0 03370700 		ld	a4,0(a4)
 1457              	.LVL86:
 1458              	.LBB285:
 1459              	.LBB286:
  33:src/../h/../h/TCB.hpp ****     }
 1460              		.loc 3 33 9 is_stmt 1
  33:src/../h/../h/TCB.hpp ****     }
 1461              		.loc 3 33 16 is_stmt 0
 1462 05f4 03378702 		ld	a4,40(a4)
 1463              	.LVL87:
 1464              	.LBE286:
 1465              	.LBE285:
 172:src/riscv.cpp ****             uint64 volatile sepc=r_sepc();
 1466              		.loc 1 172 9
 1467 05f8 63F8E700 		bgeu	a5,a4,.L74
 1468              	.L71:
 1469              	.LBE284:
 180:src/riscv.cpp ****     }
 1470              		.loc 1 180 9 is_stmt 1
 1471              	.LVL88:
 1472              	.LBB296:
GAS LISTING /tmp/ccF98P1y.s 			page 40


 1473              	.LBB297:
 111:src/../h/riscv.hpp **** }
 1474              		.loc 2 111 5
 111:src/../h/riscv.hpp **** }
 1475              		.loc 2 111 59 is_stmt 0
 1476 05fc 93072000 		li	a5,2
 1477              	#APP
 1478              	# 111 "src/../h/riscv.hpp" 1
 1479              		csrc sip, a5
 1480              	# 0 "" 2
 1481              	.LVL89:
 1482              	#NO_APP
 1483              	.LBE297:
 1484              	.LBE296:
 1485              	.LBE283:
 1486              	.LBE300:
 182:src/riscv.cpp **** 
 1487              		.loc 1 182 1
 1488 0604 6FF09FFB 		j	.L69
 1489              	.L74:
 1490              	.LBB301:
 1491              	.LBB299:
 1492              	.LBB298:
 1493              	.LBB287:
 173:src/riscv.cpp ****             uint64 volatile sstatus=r_sstatus();
 1494              		.loc 1 173 13 is_stmt 1
 1495              	.LBB288:
 1496              	.LBB289:
  83:src/../h/riscv.hpp ****     __asm__ volatile("csrr %[sepc], sepc":[sepc]"=r"(sepc));
 1497              		.loc 2 83 5
  84:src/../h/riscv.hpp ****     return sepc;
 1498              		.loc 2 84 5
  84:src/../h/riscv.hpp ****     return sepc;
 1499              		.loc 2 84 60 is_stmt 0
 1500              	#APP
 1501              	# 84 "src/../h/riscv.hpp" 1
 1502              		csrr a5, sepc
 1503              	# 0 "" 2
 1504              	#NO_APP
 1505 060c 2334F4FE 		sd	a5,-24(s0)
  85:src/../h/riscv.hpp **** }
 1506              		.loc 2 85 5 is_stmt 1
  85:src/../h/riscv.hpp **** }
 1507              		.loc 2 85 12 is_stmt 0
 1508 0610 833784FE 		ld	a5,-24(s0)
 1509              	.LBE289:
 1510              	.LBE288:
 173:src/riscv.cpp ****             uint64 volatile sstatus=r_sstatus();
 1511              		.loc 1 173 41
 1512 0614 2334F4FC 		sd	a5,-56(s0)
 174:src/riscv.cpp ****             TCB::timeSliceCounter=0;
 1513              		.loc 1 174 13 is_stmt 1
 1514              	.LBB290:
 1515              	.LBB291:
 129:src/../h/riscv.hpp ****     __asm__ volatile("csrr %[sstatus], sstatus":[sstatus]"=r"(sstatus));
 1516              		.loc 2 129 5
 130:src/../h/riscv.hpp ****     return sstatus;
GAS LISTING /tmp/ccF98P1y.s 			page 41


 1517              		.loc 2 130 5
 130:src/../h/riscv.hpp ****     return sstatus;
 1518              		.loc 2 130 72 is_stmt 0
 1519              	#APP
 1520              	# 130 "src/../h/riscv.hpp" 1
 1521              		csrr a5, sstatus
 1522              	# 0 "" 2
 1523              	#NO_APP
 1524 061c 2330F4FE 		sd	a5,-32(s0)
 131:src/../h/riscv.hpp **** }
 1525              		.loc 2 131 5 is_stmt 1
 131:src/../h/riscv.hpp **** }
 1526              		.loc 2 131 12 is_stmt 0
 1527 0620 833704FE 		ld	a5,-32(s0)
 1528              	.LBE291:
 1529              	.LBE290:
 174:src/riscv.cpp ****             TCB::timeSliceCounter=0;
 1530              		.loc 1 174 47
 1531 0624 2338F4FC 		sd	a5,-48(s0)
 175:src/riscv.cpp ****             TCB::dispatch();
 1532              		.loc 1 175 13 is_stmt 1
 175:src/riscv.cpp ****             TCB::dispatch();
 1533              		.loc 1 175 34 is_stmt 0
 1534 0628 97070000 		la	a5,_ZN3TCB16timeSliceCounterE
 1534      83B70700 
 1535 0630 23B00700 		sd	zero,0(a5)
 176:src/riscv.cpp ****             w_sstatus(sstatus);
 1536              		.loc 1 176 13 is_stmt 1
 176:src/riscv.cpp ****             w_sstatus(sstatus);
 1537              		.loc 1 176 26 is_stmt 0
 1538 0634 97000000 		call	_ZN3TCB8dispatchEv@plt
 1538      E7800000 
 1539              	.LVL90:
 177:src/riscv.cpp ****             w_sepc(sepc);
 1540              		.loc 1 177 13 is_stmt 1
 177:src/riscv.cpp ****             w_sepc(sepc);
 1541              		.loc 1 177 22 is_stmt 0
 1542 063c 833704FD 		ld	a5,-48(s0)
 1543              	.LVL91:
 1544              	.LBB292:
 1545              	.LBB293:
 134:src/../h/riscv.hpp **** }
 1546              		.loc 2 134 5 is_stmt 1
 134:src/../h/riscv.hpp **** }
 1547              		.loc 2 134 72 is_stmt 0
 1548              	#APP
 1549              	# 134 "src/../h/riscv.hpp" 1
 1550              		csrw sstatus, a5
 1551              	# 0 "" 2
 1552              	.LVL92:
 1553              	#NO_APP
 1554              	.LBE293:
 1555              	.LBE292:
 178:src/riscv.cpp ****         }
 1556              		.loc 1 178 13 is_stmt 1
 178:src/riscv.cpp ****         }
 1557              		.loc 1 178 19 is_stmt 0
GAS LISTING /tmp/ccF98P1y.s 			page 42


 1558 0644 833784FC 		ld	a5,-56(s0)
 1559              	.LVL93:
 1560              	.LBB294:
 1561              	.LBB295:
  88:src/../h/riscv.hpp **** }
 1562              		.loc 2 88 5 is_stmt 1
  88:src/../h/riscv.hpp **** }
 1563              		.loc 2 88 60 is_stmt 0
 1564              	#APP
 1565              	# 88 "src/../h/riscv.hpp" 1
  89:src/../h/riscv.hpp **** inline uint64 Riscv::r_stvec(){
 1566              		csrw sepc, a5
 1567              	# 0 "" 2
 1568              		.loc 2 89 1
 1569              	#NO_APP
 1570 064c 6FF01FFB 		j	.L71
 1571              	.LBE295:
 1572              	.LBE294:
 1573              	.LBE287:
 1574              	.LBE298:
 1575              	.LBE299:
 1576              	.LBE301:
 1577              		.cfi_endproc
 1578              	.LFE35:
 1580              		.globl	_ZN5Riscv12headSleepingE
 1581              		.bss
 1582              		.align	3
 1583              		.set	.LANCHOR0,. + 0
 1586              	_ZN5Riscv12headSleepingE:
 1587 0000 00000000 		.zero	8
 1587      00000000 
 1588              		.text
 1589              	.Letext0:
 1590              		.file 4 "src/../h/../lib/hw.h"
 1591              		.file 5 "src/../h/MemoryAllocator.hpp"
 1592              		.file 6 "src/../h/_sem.hpp"
 1593              		.file 7 "src/../h/../h/list.hpp"
 1594              		.file 8 "src/../h/Scheduler.hpp"
 1595              		.file 9 "src/../h/_console.hpp"
 1596              		.file 10 "src/../test/../h/syscall_c.hpp"
 1597              		.file 11 "src/../test/printing.hpp"
GAS LISTING /tmp/ccF98P1y.s 			page 43


DEFINED SYMBOLS
                            *ABS*:0000000000000000 riscv.cpp
     /tmp/ccF98P1y.s:9      .text:0000000000000000 _ZN5Riscv17hardwareInterruptEv
     /tmp/ccF98P1y.s:13     .text:0000000000000000 .L0 
     /tmp/ccF98P1y.s:14     .text:0000000000000000 .L0 
     /tmp/ccF98P1y.s:15     .text:0000000000000004 .L0 
     /tmp/ccF98P1y.s:19     .text:0000000000000010 .L0 
     /tmp/ccF98P1y.s:20     .text:0000000000000010 .L0 
     /tmp/ccF98P1y.s:21     .text:0000000000000010 .L0 
     /tmp/ccF98P1y.s:23     .text:0000000000000014 .L0 
     /tmp/ccF98P1y.s:28     .text:0000000000000014 .L0 
     /tmp/ccF98P1y.s:29     .text:0000000000000014 .L0 
     /tmp/ccF98P1y.s:30     .text:0000000000000014 .L0 
  src/../h/riscv.hpp:75     .text:0000000000000014 .L0 
     /tmp/ccF98P1y.s:38     .text:000000000000001c .L0 
     /tmp/ccF98P1y.s:39     .text:000000000000001c .L0 
     /tmp/ccF98P1y.s:45     .text:0000000000000020 .L0 
     /tmp/ccF98P1y.s:53     .text:0000000000000030 .L0 
     /tmp/ccF98P1y.s:54     .text:0000000000000034 .L0 
     /tmp/ccF98P1y.s:55     .text:0000000000000034 .L0 
     /tmp/ccF98P1y.s:57     .text:0000000000000038 .L0 
     /tmp/ccF98P1y.s:58     .text:0000000000000038 .L0 
     /tmp/ccF98P1y.s:60     .text:000000000000003c .L0 
     /tmp/ccF98P1y.s:62     .text:0000000000000040 .L0 
     /tmp/ccF98P1y.s:66     .text:0000000000000044 .L0 
     /tmp/ccF98P1y.s:70     .text:0000000000000044 .L0 
     /tmp/ccF98P1y.s:71     .text:0000000000000044 .L0 
     /tmp/ccF98P1y.s:77     .text:0000000000000050 .L0 
     /tmp/ccF98P1y.s:83     .text:0000000000000058 .L0 
     /tmp/ccF98P1y.s:84     .text:0000000000000058 .L0 
     /tmp/ccF98P1y.s:90     .text:0000000000000064 .L0 
     /tmp/ccF98P1y.s:97     .text:0000000000000068 .L0 
     /tmp/ccF98P1y.s:98     .text:0000000000000068 .L0 
     /tmp/ccF98P1y.s:99     .text:0000000000000068 .L0 
     /tmp/ccF98P1y.s:103    .text:0000000000000078 .L0 
     /tmp/ccF98P1y.s:107    .text:0000000000000080 .L0 
     /tmp/ccF98P1y.s:108    .text:0000000000000080 .L0 
     /tmp/ccF98P1y.s:112    .text:000000000000008c .L0 
     /tmp/ccF98P1y.s:113    .text:000000000000008c .L0 
     /tmp/ccF98P1y.s:118    .text:0000000000000098 .L0 
     /tmp/ccF98P1y.s:123    .text:000000000000009c .L0 
     /tmp/ccF98P1y.s:129    .text:000000000000009c _ZN5Riscv10popSppSpieEv
     /tmp/ccF98P1y.s:132    .text:000000000000009c .L0 
     /tmp/ccF98P1y.s:133    .text:000000000000009c .L0 
     /tmp/ccF98P1y.s:134    .text:00000000000000a0 .L0 
     /tmp/ccF98P1y.s:136    .text:00000000000000a4 .L0 
     /tmp/ccF98P1y.s:138    .text:00000000000000a8 .L0 
     /tmp/ccF98P1y.s:143    .text:00000000000000a8 .L0 
     /tmp/ccF98P1y.s:144    .text:00000000000000a8 .L0 
     /tmp/ccF98P1y.s:145    .text:00000000000000a8 .L0 
     /tmp/ccF98P1y.s:155    .text:00000000000000b0 .L0 
     /tmp/ccF98P1y.s:156    .text:00000000000000b0 .L0 
     /tmp/ccF98P1y.s:160    .text:00000000000000c0 .L0 
     /tmp/ccF98P1y.s:165    .text:00000000000000c4 .L0 
     /tmp/ccF98P1y.s:166    .text:00000000000000c4 .L0 
     /tmp/ccF98P1y.s:167    .text:00000000000000c4 .L0 
     /tmp/ccF98P1y.s:178    .text:00000000000000cc .L0 
GAS LISTING /tmp/ccF98P1y.s 			page 44


       src/riscv.cpp:216    .text:00000000000000cc .L0 
     /tmp/ccF98P1y.s:184    .text:00000000000000d0 .L0 
       src/riscv.cpp:217    .text:00000000000000d0 .L0 
     /tmp/ccF98P1y.s:190    .text:00000000000000d4 .L0 
     /tmp/ccF98P1y.s:191    .text:00000000000000d8 .L0 
     /tmp/ccF98P1y.s:192    .text:00000000000000d8 .L0 
     /tmp/ccF98P1y.s:193    .text:00000000000000d8 .L0 
     /tmp/ccF98P1y.s:195    .text:00000000000000dc .L0 
     /tmp/ccF98P1y.s:198    .text:00000000000000e0 .L0 
     /tmp/ccF98P1y.s:203    .text:00000000000000e0 .L0 
     /tmp/ccF98P1y.s:204    .text:00000000000000e0 .L0 
     /tmp/ccF98P1y.s:205    .text:00000000000000e0 .L0 
     /tmp/ccF98P1y.s:212    .text:00000000000000e8 .L0 
     /tmp/ccF98P1y.s:215    .text:00000000000000ec .L0 
     /tmp/ccF98P1y.s:221    .text:00000000000000ec _ZN5Riscv10putToSleepEm
     /tmp/ccF98P1y.s:224    .text:00000000000000ec .L0 
     /tmp/ccF98P1y.s:226    .text:00000000000000ec .L0 
     /tmp/ccF98P1y.s:227    .text:00000000000000ec .L0 
     /tmp/ccF98P1y.s:229    .text:00000000000000f0 .L0 
     /tmp/ccF98P1y.s:230    .text:00000000000000f4 .L0 
     /tmp/ccF98P1y.s:235    .text:0000000000000104 .L0 
     /tmp/ccF98P1y.s:236    .text:0000000000000104 .L0 
     /tmp/ccF98P1y.s:237    .text:0000000000000104 .L0 
     /tmp/ccF98P1y.s:238    .text:0000000000000104 .L0 
     /tmp/ccF98P1y.s:240    .text:0000000000000108 .L0 
     /tmp/ccF98P1y.s:243    .text:000000000000010c .L0 
     /tmp/ccF98P1y.s:244    .text:000000000000010c .L0 
     /tmp/ccF98P1y.s:251    .text:0000000000000118 .L0 
     /tmp/ccF98P1y.s:252    .text:0000000000000118 .L0 
     /tmp/ccF98P1y.s:258    .text:0000000000000120 .L0 
     /tmp/ccF98P1y.s:259    .text:0000000000000120 .L0 
     /tmp/ccF98P1y.s:264    .text:000000000000012c .L0 
     /tmp/ccF98P1y.s:265    .text:000000000000012c .L0 
     /tmp/ccF98P1y.s:269    .text:0000000000000134 .L0 
     /tmp/ccF98P1y.s:270    .text:0000000000000134 .L0 
     /tmp/ccF98P1y.s:272    .text:000000000000013c .L0 
     /tmp/ccF98P1y.s:277    .text:0000000000000140 .L0 
     /tmp/ccF98P1y.s:278    .text:0000000000000140 .L0 
     /tmp/ccF98P1y.s:280    .text:0000000000000144 .L0 
     /tmp/ccF98P1y.s:282    .text:0000000000000148 .L0 
     /tmp/ccF98P1y.s:283    .text:0000000000000148 .L0 
     /tmp/ccF98P1y.s:285    .text:000000000000014c .L0 
     /tmp/ccF98P1y.s:286    .text:000000000000014c .L0 
     /tmp/ccF98P1y.s:288    .text:0000000000000150 .L0 
     /tmp/ccF98P1y.s:289    .text:0000000000000150 .L0 
     /tmp/ccF98P1y.s:293    .text:000000000000015c .L0 
     /tmp/ccF98P1y.s:294    .text:000000000000015c .L0 
     /tmp/ccF98P1y.s:299    .text:0000000000000164 .L0 
     /tmp/ccF98P1y.s:300    .text:0000000000000164 .L0 
     /tmp/ccF98P1y.s:303    .text:0000000000000170 .L0 
     /tmp/ccF98P1y.s:304    .text:0000000000000170 .L0 
     /tmp/ccF98P1y.s:307    .text:0000000000000178 .L0 
     /tmp/ccF98P1y.s:308    .text:0000000000000178 .L0 
     /tmp/ccF98P1y.s:310    .text:000000000000017c .L0 
     /tmp/ccF98P1y.s:311    .text:0000000000000180 .L0 
     /tmp/ccF98P1y.s:312    .text:0000000000000180 .L0 
     /tmp/ccF98P1y.s:314    .text:0000000000000184 .L0 
GAS LISTING /tmp/ccF98P1y.s 			page 45


     /tmp/ccF98P1y.s:315    .text:0000000000000184 .L0 
     /tmp/ccF98P1y.s:317    .text:0000000000000188 .L0 
     /tmp/ccF98P1y.s:320    .text:000000000000018c .L0 
     /tmp/ccF98P1y.s:322    .text:0000000000000190 .L0 
     /tmp/ccF98P1y.s:326    .text:0000000000000194 .L0 
     /tmp/ccF98P1y.s:329    .text:0000000000000194 .L0 
     /tmp/ccF98P1y.s:330    .text:0000000000000194 .L0 
     /tmp/ccF98P1y.s:332    .text:0000000000000198 .L0 
     /tmp/ccF98P1y.s:333    .text:0000000000000198 .L0 
     /tmp/ccF98P1y.s:335    .text:000000000000019c .L0 
     /tmp/ccF98P1y.s:336    .text:000000000000019c .L0 
     /tmp/ccF98P1y.s:342    .text:00000000000001a8 .L0 
     /tmp/ccF98P1y.s:343    .text:00000000000001a8 .L0 
     /tmp/ccF98P1y.s:346    .text:00000000000001ac .L0 
     /tmp/ccF98P1y.s:347    .text:00000000000001ac .L0 
     /tmp/ccF98P1y.s:351    .text:00000000000001b0 .L0 
     /tmp/ccF98P1y.s:352    .text:00000000000001b0 .L0 
     /tmp/ccF98P1y.s:353    .text:00000000000001b0 .L0 
     /tmp/ccF98P1y.s:355    .text:00000000000001b4 .L0 
     /tmp/ccF98P1y.s:357    .text:00000000000001b8 .L0 
     /tmp/ccF98P1y.s:359    .text:00000000000001bc .L0 
     /tmp/ccF98P1y.s:360    .text:00000000000001bc .L0 
     /tmp/ccF98P1y.s:363    .text:00000000000001c0 .L0 
     /tmp/ccF98P1y.s:364    .text:00000000000001c0 .L0 
     /tmp/ccF98P1y.s:365    .text:00000000000001c0 .L0 
     /tmp/ccF98P1y.s:367    .text:00000000000001c4 .L0 
     /tmp/ccF98P1y.s:370    .text:00000000000001c8 .L0 
     /tmp/ccF98P1y.s:373    .text:00000000000001cc .L0 
     /tmp/ccF98P1y.s:375    .text:00000000000001d0 .L0 
     /tmp/ccF98P1y.s:376    .text:00000000000001d0 .L0 
     /tmp/ccF98P1y.s:378    .text:00000000000001d4 .L0 
     /tmp/ccF98P1y.s:379    .text:00000000000001d4 .L0 
     /tmp/ccF98P1y.s:384    .text:00000000000001e0 .L0 
     /tmp/ccF98P1y.s:385    .text:00000000000001e0 .L0 
     /tmp/ccF98P1y.s:387    .text:00000000000001e4 .L0 
     /tmp/ccF98P1y.s:388    .text:00000000000001e4 .L0 
     /tmp/ccF98P1y.s:392    .text:00000000000001ec .L0 
     /tmp/ccF98P1y.s:393    .text:00000000000001ec .L0 
     /tmp/ccF98P1y.s:397    .text:00000000000001f4 .L0 
     /tmp/ccF98P1y.s:398    .text:00000000000001f4 .L0 
     /tmp/ccF98P1y.s:399    .text:00000000000001f4 .L0 
     /tmp/ccF98P1y.s:400    .text:00000000000001f4 .L0 
     /tmp/ccF98P1y.s:401    .text:00000000000001f4 .L0 
     /tmp/ccF98P1y.s:406    .text:00000000000001f4 .L0 
     /tmp/ccF98P1y.s:409    .text:00000000000001f8 .L0 
     /tmp/ccF98P1y.s:410    .text:00000000000001fc .L0 
     /tmp/ccF98P1y.s:427    .text:00000000000001fc _ZN5Riscv20handleEcallExceptionEv
     /tmp/ccF98P1y.s:430    .text:00000000000001fc .L0 
     /tmp/ccF98P1y.s:431    .text:00000000000001fc .L0 
     /tmp/ccF98P1y.s:432    .text:0000000000000200 .L0 
     /tmp/ccF98P1y.s:436    .text:000000000000020c .L0 
     /tmp/ccF98P1y.s:437    .text:000000000000020c .L0 
     /tmp/ccF98P1y.s:438    .text:000000000000020c .L0 
     /tmp/ccF98P1y.s:440    .text:0000000000000210 .L0 
     /tmp/ccF98P1y.s:444    .text:0000000000000210 .L0 
     /tmp/ccF98P1y.s:445    .text:0000000000000210 .L0 
     /tmp/ccF98P1y.s:446    .text:0000000000000210 .L0 
GAS LISTING /tmp/ccF98P1y.s 			page 46


  src/../h/riscv.hpp:75     .text:0000000000000210 .L0 
     /tmp/ccF98P1y.s:454    .text:0000000000000218 .L0 
     /tmp/ccF98P1y.s:455    .text:0000000000000218 .L0 
     /tmp/ccF98P1y.s:460    .text:000000000000021c .L0 
     /tmp/ccF98P1y.s:461    .text:000000000000021c .L0 
       src/riscv.cpp:20     .text:000000000000021c .L0 
     /tmp/ccF98P1y.s:469    .text:0000000000000224 .L0 
     /tmp/ccF98P1y.s:470    .text:0000000000000224 .L0 
       src/riscv.cpp:22     .text:0000000000000224 .L0 
     /tmp/ccF98P1y.s:478    .text:000000000000022c .L0 
     /tmp/ccF98P1y.s:479    .text:000000000000022c .L0 
       src/riscv.cpp:24     .text:000000000000022c .L0 
     /tmp/ccF98P1y.s:487    .text:0000000000000234 .L0 
     /tmp/ccF98P1y.s:488    .text:0000000000000234 .L0 
       src/riscv.cpp:26     .text:0000000000000234 .L0 
     /tmp/ccF98P1y.s:496    .text:000000000000023c .L0 
     /tmp/ccF98P1y.s:497    .text:000000000000023c .L0 
       src/riscv.cpp:28     .text:000000000000023c .L0 
     /tmp/ccF98P1y.s:506    .text:0000000000000244 .L0 
     /tmp/ccF98P1y.s:507    .text:0000000000000244 .L0 
     /tmp/ccF98P1y.s:509    .text:0000000000000248 .L0 
     /tmp/ccF98P1y.s:515    .text:0000000000000250 .L0 
     /tmp/ccF98P1y.s:516    .text:0000000000000250 .L0 
     /tmp/ccF98P1y.s:517    .text:0000000000000250 .L0 
  src/../h/riscv.hpp:84     .text:0000000000000250 .L0 
     /tmp/ccF98P1y.s:525    .text:0000000000000258 .L0 
     /tmp/ccF98P1y.s:526    .text:0000000000000258 .L0 
     /tmp/ccF98P1y.s:530    .text:000000000000025c .L0 
     /tmp/ccF98P1y.s:532    .text:0000000000000260 .L0 
     /tmp/ccF98P1y.s:536    .text:0000000000000264 .L0 
     /tmp/ccF98P1y.s:537    .text:0000000000000264 .L0 
     /tmp/ccF98P1y.s:538    .text:0000000000000264 .L0 
  src/../h/riscv.hpp:130    .text:0000000000000264 .L0 
     /tmp/ccF98P1y.s:546    .text:000000000000026c .L0 
     /tmp/ccF98P1y.s:547    .text:000000000000026c .L0 
     /tmp/ccF98P1y.s:551    .text:0000000000000270 .L0 
     /tmp/ccF98P1y.s:554    .text:0000000000000274 .L0 
     /tmp/ccF98P1y.s:555    .text:0000000000000274 .L0 
     /tmp/ccF98P1y.s:557    .text:0000000000000278 .L0 
     /tmp/ccF98P1y.s:567    .text:0000000000000280 .L0 
     /tmp/ccF98P1y.s:568    .text:0000000000000280 .L0 
     /tmp/ccF98P1y.s:570    .text:0000000000000284 .L0 
     /tmp/ccF98P1y.s:582    .text:000000000000028c .L0 
     /tmp/ccF98P1y.s:583    .text:000000000000028c .L0 
     /tmp/ccF98P1y.s:585    .text:0000000000000290 .L0 
     /tmp/ccF98P1y.s:599    .text:0000000000000298 .L0 
     /tmp/ccF98P1y.s:600    .text:0000000000000298 .L0 
     /tmp/ccF98P1y.s:602    .text:000000000000029c .L0 
     /tmp/ccF98P1y.s:618    .text:00000000000002a4 .L0 
     /tmp/ccF98P1y.s:619    .text:00000000000002a4 .L0 
     /tmp/ccF98P1y.s:621    .text:00000000000002a8 .L0 
     /tmp/ccF98P1y.s:639    .text:00000000000002b0 .L0 
     /tmp/ccF98P1y.s:640    .text:00000000000002b0 .L0 
     /tmp/ccF98P1y.s:642    .text:00000000000002b4 .L0 
     /tmp/ccF98P1y.s:662    .text:00000000000002bc .L0 
     /tmp/ccF98P1y.s:663    .text:00000000000002bc .L0 
     /tmp/ccF98P1y.s:665    .text:00000000000002c0 .L0 
GAS LISTING /tmp/ccF98P1y.s 			page 47


     /tmp/ccF98P1y.s:687    .text:00000000000002c8 .L0 
     /tmp/ccF98P1y.s:688    .text:00000000000002c8 .L0 
     /tmp/ccF98P1y.s:690    .text:00000000000002cc .L0 
     /tmp/ccF98P1y.s:714    .text:00000000000002d4 .L0 
     /tmp/ccF98P1y.s:715    .text:00000000000002d4 .L0 
     /tmp/ccF98P1y.s:717    .text:00000000000002d8 .L0 
     /tmp/ccF98P1y.s:743    .text:00000000000002e0 .L0 
     /tmp/ccF98P1y.s:744    .text:00000000000002e0 .L0 
     /tmp/ccF98P1y.s:746    .text:00000000000002e4 .L0 
     /tmp/ccF98P1y.s:774    .text:00000000000002ec .L0 
     /tmp/ccF98P1y.s:775    .text:00000000000002ec .L0 
     /tmp/ccF98P1y.s:777    .text:00000000000002f0 .L0 
     /tmp/ccF98P1y.s:807    .text:00000000000002f8 .L0 
     /tmp/ccF98P1y.s:808    .text:00000000000002f8 .L0 
     /tmp/ccF98P1y.s:810    .text:00000000000002fc .L0 
     /tmp/ccF98P1y.s:842    .text:0000000000000304 .L0 
     /tmp/ccF98P1y.s:843    .text:0000000000000304 .L0 
     /tmp/ccF98P1y.s:845    .text:0000000000000308 .L0 
     /tmp/ccF98P1y.s:849    .text:0000000000000310 .L0 
     /tmp/ccF98P1y.s:850    .text:0000000000000310 .L0 
     /tmp/ccF98P1y.s:853    .text:0000000000000314 .L0 
     /tmp/ccF98P1y.s:854    .text:0000000000000314 .L0 
     /tmp/ccF98P1y.s:857    .text:000000000000031c .L0 
       src/riscv.cpp:143    .text:000000000000031c .L0 
     /tmp/ccF98P1y.s:881    .text:0000000000000324 .L0 
     /tmp/ccF98P1y.s:882    .text:0000000000000324 .L0 
     /tmp/ccF98P1y.s:886    .text:0000000000000330 .L0 
       src/riscv.cpp:38     .text:0000000000000330 .L0 
     /tmp/ccF98P1y.s:897    .text:0000000000000334 .L0 
     /tmp/ccF98P1y.s:898    .text:0000000000000334 .L0 
     /tmp/ccF98P1y.s:903    .text:0000000000000338 .L0 
  src/../h/riscv.hpp:134    .text:0000000000000338 .L0 
     /tmp/ccF98P1y.s:913    .text:000000000000033c .L0 
     /tmp/ccF98P1y.s:914    .text:000000000000033c .L0 
     /tmp/ccF98P1y.s:919    .text:0000000000000340 .L0 
  src/../h/riscv.hpp:88     .text:0000000000000340 .L0 
     /tmp/ccF98P1y.s:931    .text:0000000000000344 .L0 
     /tmp/ccF98P1y.s:932    .text:0000000000000348 .L0 
     /tmp/ccF98P1y.s:933    .text:0000000000000348 .L0 
     /tmp/ccF98P1y.s:935    .text:000000000000034c .L0 
     /tmp/ccF98P1y.s:936    .text:000000000000034c .L0 
     /tmp/ccF98P1y.s:938    .text:0000000000000350 .L0 
     /tmp/ccF98P1y.s:941    .text:0000000000000354 .L0 
     /tmp/ccF98P1y.s:945    .text:0000000000000358 .L0 
     /tmp/ccF98P1y.s:952    .text:0000000000000358 .L0 
     /tmp/ccF98P1y.s:953    .text:0000000000000358 .L0 
     /tmp/ccF98P1y.s:957    .text:0000000000000364 .L0 
       src/riscv.cpp:43     .text:0000000000000364 .L0 
     /tmp/ccF98P1y.s:970    .text:000000000000036c .L0 
     /tmp/ccF98P1y.s:971    .text:000000000000036c .L0 
     /tmp/ccF98P1y.s:978    .text:0000000000000380 .L0 
     /tmp/ccF98P1y.s:981    .text:0000000000000384 .L0 
     /tmp/ccF98P1y.s:982    .text:0000000000000384 .L0 
     /tmp/ccF98P1y.s:985    .text:0000000000000388 .L0 
     /tmp/ccF98P1y.s:986    .text:0000000000000388 .L0 
     /tmp/ccF98P1y.s:988    .text:000000000000038c .L0 
     /tmp/ccF98P1y.s:989    .text:000000000000038c .L0 
GAS LISTING /tmp/ccF98P1y.s 			page 48


     /tmp/ccF98P1y.s:1000   .text:0000000000000398 .L0 
     /tmp/ccF98P1y.s:1001   .text:0000000000000398 .L0 
     /tmp/ccF98P1y.s:1015   .text:00000000000003a4 .L0 
     /tmp/ccF98P1y.s:1016   .text:00000000000003a4 .L0 
     /tmp/ccF98P1y.s:1019   .text:00000000000003ac .L0 
       src/riscv.cpp:79     .text:00000000000003ac .L0 
     /tmp/ccF98P1y.s:1031   .text:00000000000003b4 .L0 
     /tmp/ccF98P1y.s:1032   .text:00000000000003b4 .L0 
     /tmp/ccF98P1y.s:1035   .text:00000000000003c0 .L0 
     /tmp/ccF98P1y.s:1036   .text:00000000000003c0 .L0 
     /tmp/ccF98P1y.s:1043   .text:00000000000003cc .L0 
     /tmp/ccF98P1y.s:1044   .text:00000000000003cc .L0 
     /tmp/ccF98P1y.s:1047   .text:00000000000003d4 .L0 
       src/riscv.cpp:90     .text:00000000000003d4 .L0 
     /tmp/ccF98P1y.s:1060   .text:00000000000003dc .L0 
     /tmp/ccF98P1y.s:1061   .text:00000000000003dc .L0 
     /tmp/ccF98P1y.s:1064   .text:00000000000003e0 .L0 
     /tmp/ccF98P1y.s:1065   .text:00000000000003e0 .L0 
     /tmp/ccF98P1y.s:1074   .text:00000000000003f0 .L0 
     /tmp/ccF98P1y.s:1075   .text:00000000000003f0 .L0 
     /tmp/ccF98P1y.s:1081   .text:0000000000000400 .L0 
     /tmp/ccF98P1y.s:1084   .text:0000000000000404 .L0 
     /tmp/ccF98P1y.s:1085   .text:0000000000000404 .L0 
     /tmp/ccF98P1y.s:1088   .text:0000000000000408 .L0 
     /tmp/ccF98P1y.s:1089   .text:0000000000000408 .L0 
     /tmp/ccF98P1y.s:1091   .text:000000000000040c .L0 
     /tmp/ccF98P1y.s:1092   .text:000000000000040c .L0 
     /tmp/ccF98P1y.s:1103   .text:0000000000000418 .L0 
     /tmp/ccF98P1y.s:1104   .text:0000000000000418 .L0 
     /tmp/ccF98P1y.s:1118   .text:0000000000000424 .L0 
     /tmp/ccF98P1y.s:1119   .text:0000000000000424 .L0 
     /tmp/ccF98P1y.s:1122   .text:0000000000000428 .L0 
     /tmp/ccF98P1y.s:1123   .text:0000000000000428 .L0 
     /tmp/ccF98P1y.s:1126   .text:0000000000000430 .L0 
       src/riscv.cpp:121    .text:0000000000000430 .L0 
     /tmp/ccF98P1y.s:1139   .text:0000000000000438 .L0 
     /tmp/ccF98P1y.s:1140   .text:0000000000000438 .L0 
     /tmp/ccF98P1y.s:1143   .text:000000000000043c .L0 
     /tmp/ccF98P1y.s:1144   .text:000000000000043c .L0 
     /tmp/ccF98P1y.s:1147   .text:0000000000000444 .L0 
       src/riscv.cpp:127    .text:0000000000000444 .L0 
     /tmp/ccF98P1y.s:1160   .text:000000000000044c .L0 
     /tmp/ccF98P1y.s:1161   .text:000000000000044c .L0 
     /tmp/ccF98P1y.s:1164   .text:0000000000000450 .L0 
     /tmp/ccF98P1y.s:1165   .text:0000000000000450 .L0 
     /tmp/ccF98P1y.s:1168   .text:0000000000000458 .L0 
       src/riscv.cpp:133    .text:0000000000000458 .L0 
     /tmp/ccF98P1y.s:1180   .text:0000000000000460 .L0 
     /tmp/ccF98P1y.s:1181   .text:0000000000000460 .L0 
     /tmp/ccF98P1y.s:1200   .text:0000000000000470 .L0 
     /tmp/ccF98P1y.s:1201   .text:0000000000000470 .L0 
     /tmp/ccF98P1y.s:1205   .text:0000000000000480 .L0 
     /tmp/ccF98P1y.s:1206   .text:0000000000000480 .L0 
     /tmp/ccF98P1y.s:1212   .text:0000000000000494 .L0 
     /tmp/ccF98P1y.s:1213   .text:0000000000000494 .L0 
     /tmp/ccF98P1y.s:1219   .text:00000000000004a4 .L0 
     /tmp/ccF98P1y.s:1220   .text:00000000000004a4 .L0 
GAS LISTING /tmp/ccF98P1y.s 			page 49


     /tmp/ccF98P1y.s:1221   .text:00000000000004a4 .L0 
  src/../h/riscv.hpp:84     .text:00000000000004a4 .L0 
     /tmp/ccF98P1y.s:1229   .text:00000000000004ac .L0 
     /tmp/ccF98P1y.s:1230   .text:00000000000004ac .L0 
     /tmp/ccF98P1y.s:1234   .text:00000000000004b0 .L0 
     /tmp/ccF98P1y.s:1240   .text:00000000000004c4 .L0 
     /tmp/ccF98P1y.s:1241   .text:00000000000004c4 .L0 
     /tmp/ccF98P1y.s:1246   .text:00000000000004d4 .L0 
     /tmp/ccF98P1y.s:1247   .text:00000000000004d4 .L0 
     /tmp/ccF98P1y.s:1249   .text:00000000000004d8 .L0 
     /tmp/ccF98P1y.s:1255   .text:00000000000004d8 _ZN5Riscv18updateSleepingListEv
     /tmp/ccF98P1y.s:1258   .text:00000000000004d8 .L0 
     /tmp/ccF98P1y.s:1259   .text:00000000000004d8 .L0 
     /tmp/ccF98P1y.s:1261   .text:00000000000004d8 .L0 
     /tmp/ccF98P1y.s:1262   .text:00000000000004d8 .L0 
     /tmp/ccF98P1y.s:1264   .text:00000000000004e0 .L0 
     /tmp/ccF98P1y.s:1269   .text:00000000000004e4 .L0 
     /tmp/ccF98P1y.s:1270   .text:00000000000004e4 .L0 
     /tmp/ccF98P1y.s:1272   .text:00000000000004e8 .L0 
     /tmp/ccF98P1y.s:1274   .text:00000000000004ec .L0 
     /tmp/ccF98P1y.s:1276   .text:00000000000004f0 .L0 
     /tmp/ccF98P1y.s:1283   .text:00000000000004f8 .L0 
     /tmp/ccF98P1y.s:1284   .text:00000000000004fc .L0 
     /tmp/ccF98P1y.s:1287   .text:0000000000000504 .L0 
     /tmp/ccF98P1y.s:1288   .text:0000000000000504 .L0 
     /tmp/ccF98P1y.s:1290   .text:0000000000000508 .L0 
     /tmp/ccF98P1y.s:1295   .text:0000000000000508 .L0 
     /tmp/ccF98P1y.s:1296   .text:0000000000000508 .L0 
     /tmp/ccF98P1y.s:1301   .text:000000000000050c .L0 
     /tmp/ccF98P1y.s:1302   .text:000000000000050c .L0 
     /tmp/ccF98P1y.s:1307   .text:0000000000000510 .L0 
     /tmp/ccF98P1y.s:1308   .text:0000000000000510 .L0 
     /tmp/ccF98P1y.s:1312   .text:000000000000051c .L0 
     /tmp/ccF98P1y.s:1313   .text:000000000000051c .L0 
     /tmp/ccF98P1y.s:1317   .text:0000000000000528 .L0 
     /tmp/ccF98P1y.s:1318   .text:0000000000000528 .L0 
     /tmp/ccF98P1y.s:1320   .text:000000000000052c .L0 
     /tmp/ccF98P1y.s:1322   .text:0000000000000530 .L0 
     /tmp/ccF98P1y.s:1323   .text:0000000000000530 .L0 
     /tmp/ccF98P1y.s:1327   .text:0000000000000538 .L0 
     /tmp/ccF98P1y.s:1328   .text:0000000000000538 .L0 
     /tmp/ccF98P1y.s:1329   .text:0000000000000538 .L0 
     /tmp/ccF98P1y.s:1331   .text:0000000000000540 .L0 
     /tmp/ccF98P1y.s:1333   .text:0000000000000544 .L0 
     /tmp/ccF98P1y.s:1335   .text:0000000000000548 .L0 
     /tmp/ccF98P1y.s:1337   .text:000000000000054c .L0 
     /tmp/ccF98P1y.s:1338   .text:000000000000054c .L0 
     /tmp/ccF98P1y.s:1343   .text:0000000000000550 .L0 
     /tmp/ccF98P1y.s:1344   .text:0000000000000550 .L0 
     /tmp/ccF98P1y.s:1349   .text:0000000000000554 .L0 
     /tmp/ccF98P1y.s:1350   .text:0000000000000554 .L0 
     /tmp/ccF98P1y.s:1354   .text:0000000000000560 .L0 
     /tmp/ccF98P1y.s:1355   .text:0000000000000560 .L0 
     /tmp/ccF98P1y.s:1359   .text:000000000000056c .L0 
     /tmp/ccF98P1y.s:1360   .text:000000000000056c .L0 
     /tmp/ccF98P1y.s:1362   .text:0000000000000570 .L0 
     /tmp/ccF98P1y.s:1364   .text:0000000000000574 .L0 
GAS LISTING /tmp/ccF98P1y.s 			page 50


     /tmp/ccF98P1y.s:1365   .text:0000000000000574 .L0 
     /tmp/ccF98P1y.s:1368   .text:000000000000057c .L0 
     /tmp/ccF98P1y.s:1374   .text:0000000000000580 .L0 
     /tmp/ccF98P1y.s:1375   .text:0000000000000584 .L0 
     /tmp/ccF98P1y.s:1377   .text:0000000000000588 .L0 
     /tmp/ccF98P1y.s:1378   .text:0000000000000588 .L0 
     /tmp/ccF98P1y.s:1380   .text:000000000000058c .L0 
     /tmp/ccF98P1y.s:1382   .text:0000000000000590 .L0 
     /tmp/ccF98P1y.s:1388   .text:0000000000000590 _ZN5Riscv14timerInterruptEv
     /tmp/ccF98P1y.s:1391   .text:0000000000000590 .L0 
     /tmp/ccF98P1y.s:1392   .text:0000000000000590 .L0 
     /tmp/ccF98P1y.s:1393   .text:0000000000000594 .L0 
     /tmp/ccF98P1y.s:1396   .text:000000000000059c .L0 
     /tmp/ccF98P1y.s:1397   .text:000000000000059c .L0 
     /tmp/ccF98P1y.s:1399   .text:00000000000005a0 .L0 
     /tmp/ccF98P1y.s:1403   .text:00000000000005a0 .L0 
     /tmp/ccF98P1y.s:1404   .text:00000000000005a0 .L0 
     /tmp/ccF98P1y.s:1405   .text:00000000000005a0 .L0 
  src/../h/riscv.hpp:75     .text:00000000000005a0 .L0 
     /tmp/ccF98P1y.s:1413   .text:00000000000005a8 .L0 
     /tmp/ccF98P1y.s:1414   .text:00000000000005a8 .L0 
     /tmp/ccF98P1y.s:1420   .text:00000000000005ac .L0 
     /tmp/ccF98P1y.s:1428   .text:00000000000005bc .L0 
     /tmp/ccF98P1y.s:1429   .text:00000000000005c0 .L0 
     /tmp/ccF98P1y.s:1430   .text:00000000000005c0 .L0 
     /tmp/ccF98P1y.s:1432   .text:00000000000005c4 .L0 
     /tmp/ccF98P1y.s:1433   .text:00000000000005c4 .L0 
     /tmp/ccF98P1y.s:1435   .text:00000000000005c8 .L0 
     /tmp/ccF98P1y.s:1439   .text:00000000000005cc .L0 
     /tmp/ccF98P1y.s:1443   .text:00000000000005cc .L0 
     /tmp/ccF98P1y.s:1444   .text:00000000000005cc .L0 
     /tmp/ccF98P1y.s:1447   .text:00000000000005d4 .L0 
     /tmp/ccF98P1y.s:1448   .text:00000000000005d4 .L0 
     /tmp/ccF98P1y.s:1454   .text:00000000000005e8 .L0 
     /tmp/ccF98P1y.s:1455   .text:00000000000005e8 .L0 
     /tmp/ccF98P1y.s:1461   .text:00000000000005f4 .L0 
     /tmp/ccF98P1y.s:1462   .text:00000000000005f4 .L0 
     /tmp/ccF98P1y.s:1467   .text:00000000000005f8 .L0 
     /tmp/ccF98P1y.s:1474   .text:00000000000005fc .L0 
     /tmp/ccF98P1y.s:1475   .text:00000000000005fc .L0 
     /tmp/ccF98P1y.s:1476   .text:00000000000005fc .L0 
     /tmp/ccF98P1y.s:1488   .text:0000000000000604 .L0 
     /tmp/ccF98P1y.s:1497   .text:0000000000000608 .L0 
     /tmp/ccF98P1y.s:1498   .text:0000000000000608 .L0 
     /tmp/ccF98P1y.s:1499   .text:0000000000000608 .L0 
  src/../h/riscv.hpp:84     .text:0000000000000608 .L0 
     /tmp/ccF98P1y.s:1507   .text:0000000000000610 .L0 
     /tmp/ccF98P1y.s:1508   .text:0000000000000610 .L0 
     /tmp/ccF98P1y.s:1512   .text:0000000000000614 .L0 
     /tmp/ccF98P1y.s:1516   .text:0000000000000618 .L0 
     /tmp/ccF98P1y.s:1517   .text:0000000000000618 .L0 
     /tmp/ccF98P1y.s:1518   .text:0000000000000618 .L0 
  src/../h/riscv.hpp:130    .text:0000000000000618 .L0 
     /tmp/ccF98P1y.s:1526   .text:0000000000000620 .L0 
     /tmp/ccF98P1y.s:1527   .text:0000000000000620 .L0 
     /tmp/ccF98P1y.s:1531   .text:0000000000000624 .L0 
     /tmp/ccF98P1y.s:1533   .text:0000000000000628 .L0 
GAS LISTING /tmp/ccF98P1y.s 			page 51


     /tmp/ccF98P1y.s:1534   .text:0000000000000628 .L0 
     /tmp/ccF98P1y.s:1537   .text:0000000000000634 .L0 
     /tmp/ccF98P1y.s:1538   .text:0000000000000634 .L0 
     /tmp/ccF98P1y.s:1541   .text:000000000000063c .L0 
     /tmp/ccF98P1y.s:1542   .text:000000000000063c .L0 
     /tmp/ccF98P1y.s:1547   .text:0000000000000640 .L0 
  src/../h/riscv.hpp:134    .text:0000000000000640 .L0 
     /tmp/ccF98P1y.s:1557   .text:0000000000000644 .L0 
     /tmp/ccF98P1y.s:1558   .text:0000000000000644 .L0 
     /tmp/ccF98P1y.s:1563   .text:0000000000000648 .L0 
  src/../h/riscv.hpp:88     .text:0000000000000648 .L0 
     /tmp/ccF98P1y.s:1570   .text:000000000000064c .L0 
     /tmp/ccF98P1y.s:1577   .text:0000000000000650 .L0 
     /tmp/ccF98P1y.s:1586   .bss:0000000000000000 _ZN5Riscv12headSleepingE
     /tmp/ccF98P1y.s:1583   .bss:0000000000000000 .LANCHOR0
     /tmp/ccF98P1y.s:1598   .text:0000000000000650 .L0 
     /tmp/ccF98P1y.s:99     .text:0000000000000068 .L0 
     /tmp/ccF98P1y.s:108    .text:0000000000000080 .L0 
     /tmp/ccF98P1y.s:156    .text:00000000000000b0 .L0 
     /tmp/ccF98P1y.s:244    .text:000000000000010c .L0 
     /tmp/ccF98P1y.s:270    .text:0000000000000134 .L0 
     /tmp/ccF98P1y.s:294    .text:000000000000015c .L0 
     /tmp/ccF98P1y.s:300    .text:0000000000000164 .L0 
     /tmp/ccF98P1y.s:336    .text:000000000000019c .L0 
     /tmp/ccF98P1y.s:1032   .text:00000000000003b4 .L0 
     /tmp/ccF98P1y.s:415    .rodata.str1.8:0000000000000000 .LC0
     /tmp/ccF98P1y.s:1201   .text:0000000000000470 .L0 
     /tmp/ccF98P1y.s:418    .rodata.str1.8:0000000000000008 .LC1
     /tmp/ccF98P1y.s:1213   .text:0000000000000494 .L0 
     /tmp/ccF98P1y.s:421    .rodata.str1.8:0000000000000010 .LC2
     /tmp/ccF98P1y.s:1241   .text:00000000000004c4 .L0 
     /tmp/ccF98P1y.s:1262   .text:00000000000004d8 .L0 
     /tmp/ccF98P1y.s:1313   .text:000000000000051c .L0 
     /tmp/ccF98P1y.s:1329   .text:0000000000000538 .L0 
     /tmp/ccF98P1y.s:1355   .text:0000000000000560 .L0 
     /tmp/ccF98P1y.s:1448   .text:00000000000005d4 .L0 
     /tmp/ccF98P1y.s:1455   .text:00000000000005e8 .L0 
     /tmp/ccF98P1y.s:1534   .text:0000000000000628 .L0 
     /tmp/ccF98P1y.s:65     .text:0000000000000044 .L6
     /tmp/ccF98P1y.s:91     .text:0000000000000068 .L4
     /tmp/ccF98P1y.s:50     .text:0000000000000030 .L1
     /tmp/ccF98P1y.s:80     .text:0000000000000058 .L3
     /tmp/ccF98P1y.s:197    .text:00000000000000e0 .L8
     /tmp/ccF98P1y.s:174    .text:00000000000000cc .L9
     /tmp/ccF98P1y.s:396    .text:00000000000001f4 .L20
     /tmp/ccF98P1y.s:325    .text:0000000000000194 .L25
     /tmp/ccF98P1y.s:338    .text:00000000000001a8 .L15
     /tmp/ccF98P1y.s:295    .text:0000000000000164 .L14
     /tmp/ccF98P1y.s:371    .text:00000000000001cc .L16
     /tmp/ccF98P1y.s:350    .text:00000000000001b0 .L17
     /tmp/ccF98P1y.s:390    .text:00000000000001ec .L26
     /tmp/ccF98P1y.s:382    .text:00000000000001e0 .L19
     /tmp/ccF98P1y.s:1185   .text:0000000000000470 .L28
     /tmp/ccF98P1y.s:866    .text:0000000000000324 .L47
     /tmp/ccF98P1y.s:944    .text:0000000000000358 .L48
     /tmp/ccF98P1y.s:966    .text:000000000000036c .L49
     /tmp/ccF98P1y.s:1009   .text:00000000000003a4 .L50
GAS LISTING /tmp/ccF98P1y.s 			page 52


     /tmp/ccF98P1y.s:1028   .text:00000000000003b4 .L51
     /tmp/ccF98P1y.s:1039   .text:00000000000003cc .L52
     /tmp/ccF98P1y.s:1056   .text:00000000000003dc .L53
     /tmp/ccF98P1y.s:1070   .text:00000000000003f0 .L54
     /tmp/ccF98P1y.s:1112   .text:0000000000000424 .L55
     /tmp/ccF98P1y.s:1135   .text:0000000000000438 .L56
     /tmp/ccF98P1y.s:1156   .text:000000000000044c .L57
     /tmp/ccF98P1y.s:1177   .text:0000000000000460 .L58
     /tmp/ccF98P1y.s:893    .text:0000000000000334 .L30
     /tmp/ccF98P1y.s:997    .text:0000000000000398 .L59
     /tmp/ccF98P1y.s:1100   .text:0000000000000418 .L60
     /tmp/ccF98P1y.s:1244   .text:00000000000004d4 .L44
     /tmp/ccF98P1y.s:1277   .text:00000000000004f4 .L65
     /tmp/ccF98P1y.s:1279   .text:00000000000004f8 .L68
     /tmp/ccF98P1y.s:1369   .text:0000000000000580 .L61
     /tmp/ccF98P1y.s:1325   .text:0000000000000538 .L63
     /tmp/ccF98P1y.s:1438   .text:00000000000005cc .L73
     /tmp/ccF98P1y.s:1489   .text:0000000000000608 .L74
     /tmp/ccF98P1y.s:1425   .text:00000000000005bc .L69
     /tmp/ccF98P1y.s:1468   .text:00000000000005fc .L71
     /tmp/ccF98P1y.s:3855   .debug_abbrev:0000000000000000 .Ldebug_abbrev0
     /tmp/ccF98P1y.s:5639   .debug_str:000000000000095e .LASF194
     /tmp/ccF98P1y.s:5689   .debug_str:0000000000000b5d .LASF195
     /tmp/ccF98P1y.s:5423   .debug_str:0000000000000326 .LASF196
     /tmp/ccF98P1y.s:5      .text:0000000000000000 .Ltext0
     /tmp/ccF98P1y.s:1589   .text:0000000000000650 .Letext0
     /tmp/ccF98P1y.s:5315   .debug_line:0000000000000000 .Ldebug_line0
     /tmp/ccF98P1y.s:5445   .debug_str:00000000000003e8 .LASF0
     /tmp/ccF98P1y.s:5473   .debug_str:00000000000004c4 .LASF1
     /tmp/ccF98P1y.s:5579   .debug_str:00000000000007d5 .LASF2
     /tmp/ccF98P1y.s:5587   .debug_str:000000000000081a .LASF4
     /tmp/ccF98P1y.s:5453   .debug_str:0000000000000431 .LASF3
     /tmp/ccF98P1y.s:5327   .debug_str:000000000000003e .LASF5
     /tmp/ccF98P1y.s:5553   .debug_str:00000000000006f6 .LASF6
     /tmp/ccF98P1y.s:5541   .debug_str:00000000000006a4 .LASF7
     /tmp/ccF98P1y.s:5465   .debug_str:0000000000000490 .LASF8
     /tmp/ccF98P1y.s:5421   .debug_str:0000000000000316 .LASF9
     /tmp/ccF98P1y.s:5429   .debug_str:000000000000036c .LASF10
     /tmp/ccF98P1y.s:5353   .debug_str:000000000000010f .LASF11
     /tmp/ccF98P1y.s:5409   .debug_str:00000000000002bb .LASF12
     /tmp/ccF98P1y.s:5369   .debug_str:0000000000000179 .LASF13
     /tmp/ccF98P1y.s:5351   .debug_str:00000000000000ff .LASF14
     /tmp/ccF98P1y.s:5621   .debug_str:000000000000091b .LASF15
     /tmp/ccF98P1y.s:5391   .debug_str:000000000000021e .LASF16
     /tmp/ccF98P1y.s:5605   .debug_str:000000000000089a .LASF17
     /tmp/ccF98P1y.s:5651   .debug_str:0000000000000a4e .LASF72
     /tmp/ccF98P1y.s:5519   .debug_str:00000000000005fe .LASF74
     /tmp/ccF98P1y.s:5475   .debug_str:00000000000004d7 .LASF95
     /tmp/ccF98P1y.s:5663   .debug_str:0000000000000aa9 .LASF96
     /tmp/ccF98P1y.s:5359   .debug_str:0000000000000136 .LASF18
     /tmp/ccF98P1y.s:5383   .debug_str:00000000000001ec .LASF20
     /tmp/ccF98P1y.s:5451   .debug_str:000000000000040f .LASF19
     /tmp/ccF98P1y.s:5619   .debug_str:000000000000090e .LASF21
     /tmp/ccF98P1y.s:5463   .debug_str:0000000000000481 .LASF22
     /tmp/ccF98P1y.s:5601   .debug_str:0000000000000876 .LASF23
     /tmp/ccF98P1y.s:5531   .debug_str:0000000000000660 .LASF24
     /tmp/ccF98P1y.s:5635   .debug_str:000000000000094c .LASF25
GAS LISTING /tmp/ccF98P1y.s 			page 53


     /tmp/ccF98P1y.s:5675   .debug_str:0000000000000b01 .LASF84
     /tmp/ccF98P1y.s:5697   .debug_str:0000000000000b91 .LASF29
     /tmp/ccF98P1y.s:5399   .debug_str:0000000000000261 .LASF26
     /tmp/ccF98P1y.s:5637   .debug_str:0000000000000951 .LASF27
     /tmp/ccF98P1y.s:5379   .debug_str:00000000000001ce .LASF28
     /tmp/ccF98P1y.s:5565   .debug_str:0000000000000748 .LASF30
     /tmp/ccF98P1y.s:5461   .debug_str:0000000000000478 .LASF31
     /tmp/ccF98P1y.s:5397   .debug_str:0000000000000258 .LASF32
     /tmp/ccF98P1y.s:5691   .debug_str:0000000000000b6b .LASF33
     /tmp/ccF98P1y.s:5539   .debug_str:0000000000000697 .LASF86
     /tmp/ccF98P1y.s:5683   .debug_str:0000000000000b3b .LASF34
     /tmp/ccF98P1y.s:5355   .debug_str:000000000000011e .LASF35
     /tmp/ccF98P1y.s:5433   .debug_str:000000000000038f .LASF68
     /tmp/ccF98P1y.s:5441   .debug_str:00000000000003ca .LASF70
     /tmp/ccF98P1y.s:5659   .debug_str:0000000000000a9b .LASF36
     /tmp/ccF98P1y.s:5655   .debug_str:0000000000000a65 .LASF38
     /tmp/ccF98P1y.s:5575   .debug_str:00000000000007c1 .LASF40
     /tmp/ccF98P1y.s:5523   .debug_str:0000000000000629 .LASF42
     /tmp/ccF98P1y.s:5557   .debug_str:0000000000000705 .LASF37
     /tmp/ccF98P1y.s:5559   .debug_str:000000000000070c .LASF39
     /tmp/ccF98P1y.s:5515   .debug_str:00000000000005f2 .LASF41
     /tmp/ccF98P1y.s:5467   .debug_str:00000000000004a3 .LASF43
     /tmp/ccF98P1y.s:5687   .debug_str:0000000000000b55 .LASF44
     /tmp/ccF98P1y.s:5647   .debug_str:0000000000000a34 .LASF45
     /tmp/ccF98P1y.s:5509   .debug_str:00000000000005d7 .LASF46
     /tmp/ccF98P1y.s:5521   .debug_str:0000000000000615 .LASF47
     /tmp/ccF98P1y.s:5481   .debug_str:00000000000004f8 .LASF48
     /tmp/ccF98P1y.s:5563   .debug_str:0000000000000734 .LASF49
     /tmp/ccF98P1y.s:5713   .debug_str:0000000000000c2b .LASF50
     /tmp/ccF98P1y.s:5449   .debug_str:00000000000003fb .LASF51
     /tmp/ccF98P1y.s:5329   .debug_str:0000000000000045 .LASF52
     /tmp/ccF98P1y.s:5583   .debug_str:00000000000007ed .LASF53
     /tmp/ccF98P1y.s:5577   .debug_str:00000000000007ca .LASF54
     /tmp/ccF98P1y.s:5707   .debug_str:0000000000000bf1 .LASF55
     /tmp/ccF98P1y.s:5679   .debug_str:0000000000000b29 .LASF56
     /tmp/ccF98P1y.s:5695   .debug_str:0000000000000b7b .LASF57
     /tmp/ccF98P1y.s:5669   .debug_str:0000000000000ad2 .LASF58
     /tmp/ccF98P1y.s:5495   .debug_str:0000000000000553 .LASF59
     /tmp/ccF98P1y.s:5615   .debug_str:00000000000008fd .LASF60
     /tmp/ccF98P1y.s:5589   .debug_str:0000000000000821 .LASF61
     /tmp/ccF98P1y.s:5591   .debug_str:0000000000000834 .LASF62
     /tmp/ccF98P1y.s:5357   .debug_str:0000000000000123 .LASF63
     /tmp/ccF98P1y.s:5387   .debug_str:00000000000001fa .LASF64
     /tmp/ccF98P1y.s:5439   .debug_str:00000000000003b8 .LASF65
     /tmp/ccF98P1y.s:5447   .debug_str:00000000000003f5 .LASF66
     /tmp/ccF98P1y.s:5381   .debug_str:00000000000001da .LASF67
     /tmp/ccF98P1y.s:5685   .debug_str:0000000000000b46 .LASF69
     /tmp/ccF98P1y.s:5427   .debug_str:0000000000000350 .LASF71
     /tmp/ccF98P1y.s:5667   .debug_str:0000000000000ac7 .LASF73
     /tmp/ccF98P1y.s:5401   .debug_str:000000000000026d .LASF75
     /tmp/ccF98P1y.s:5341   .debug_str:0000000000000098 .LASF76
     /tmp/ccF98P1y.s:5503   .debug_str:0000000000000590 .LASF77
     /tmp/ccF98P1y.s:5711   .debug_str:0000000000000c16 .LASF78
     /tmp/ccF98P1y.s:5677   .debug_str:0000000000000b07 .LASF80
     /tmp/ccF98P1y.s:5337   .debug_str:000000000000006c .LASF79
     /tmp/ccF98P1y.s:5485   .debug_str:000000000000050b .LASF81
     /tmp/ccF98P1y.s:5701   .debug_str:0000000000000bb0 .LASF82
GAS LISTING /tmp/ccF98P1y.s 			page 54


     /tmp/ccF98P1y.s:5603   .debug_str:000000000000087b .LASF83
     /tmp/ccF98P1y.s:5417   .debug_str:00000000000002ff .LASF98
     /tmp/ccF98P1y.s:5533   .debug_str:0000000000000671 .LASF85
     /tmp/ccF98P1y.s:5599   .debug_str:000000000000086f .LASF87
     /tmp/ccF98P1y.s:5471   .debug_str:00000000000004bf .LASF88
     /tmp/ccF98P1y.s:5649   .debug_str:0000000000000a48 .LASF89
     /tmp/ccF98P1y.s:5571   .debug_str:0000000000000786 .LASF90
     /tmp/ccF98P1y.s:5525   .debug_str:000000000000063e .LASF91
     /tmp/ccF98P1y.s:5455   .debug_str:0000000000000443 .LASF92
     /tmp/ccF98P1y.s:5597   .debug_str:0000000000000864 .LASF93
     /tmp/ccF98P1y.s:5611   .debug_str:00000000000008d5 .LASF94
     /tmp/ccF98P1y.s:5567   .debug_str:0000000000000753 .LASF97
     /tmp/ccF98P1y.s:5581   .debug_str:00000000000007e3 .LASF132
     /tmp/ccF98P1y.s:5377   .debug_str:00000000000001b2 .LASF133
     /tmp/ccF98P1y.s:5499   .debug_str:000000000000057b .LASF99
     /tmp/ccF98P1y.s:5631   .debug_str:0000000000000942 .LASF100
     /tmp/ccF98P1y.s:5529   .debug_str:0000000000000653 .LASF101
     /tmp/ccF98P1y.s:5517   .debug_str:00000000000005f9 .LASF102
     /tmp/ccF98P1y.s:5527   .debug_str:0000000000000643 .LASF103
     /tmp/ccF98P1y.s:5331   .debug_str:0000000000000050 .LASF104
     /tmp/ccF98P1y.s:5335   .debug_str:000000000000005b .LASF105
     /tmp/ccF98P1y.s:5385   .debug_str:00000000000001f5 .LASF106
     /tmp/ccF98P1y.s:5505   .debug_str:00000000000005b0 .LASF107
     /tmp/ccF98P1y.s:5623   .debug_str:0000000000000927 .LASF108
     /tmp/ccF98P1y.s:5609   .debug_str:00000000000008c3 .LASF109
     /tmp/ccF98P1y.s:5435   .debug_str:000000000000039a .LASF110
     /tmp/ccF98P1y.s:5497   .debug_str:0000000000000569 .LASF111
     /tmp/ccF98P1y.s:5709   .debug_str:0000000000000c09 .LASF112
     /tmp/ccF98P1y.s:5715   .debug_str:0000000000000c33 .LASF113
     /tmp/ccF98P1y.s:5321   .debug_str:0000000000000018 .LASF114
     /tmp/ccF98P1y.s:5407   .debug_str:00000000000002ad .LASF115
     /tmp/ccF98P1y.s:5349   .debug_str:00000000000000f6 .LASF116
     /tmp/ccF98P1y.s:5431   .debug_str:000000000000037a .LASF117
     /tmp/ccF98P1y.s:5363   .debug_str:000000000000014e .LASF118
     /tmp/ccF98P1y.s:5561   .debug_str:000000000000071f .LASF119
     /tmp/ccF98P1y.s:5443   .debug_str:00000000000003e2 .LASF120
     /tmp/ccF98P1y.s:5403   .debug_str:0000000000000285 .LASF121
     /tmp/ccF98P1y.s:5323   .debug_str:0000000000000028 .LASF122
     /tmp/ccF98P1y.s:5317   .debug_str:0000000000000000 .LASF123
     /tmp/ccF98P1y.s:5555   .debug_str:00000000000006fd .LASF124
     /tmp/ccF98P1y.s:5673   .debug_str:0000000000000afa .LASF125
     /tmp/ccF98P1y.s:5545   .debug_str:00000000000006c0 .LASF126
     /tmp/ccF98P1y.s:5661   .debug_str:0000000000000aa4 .LASF145
     /tmp/ccF98P1y.s:5613   .debug_str:00000000000008f8 .LASF127
     /tmp/ccF98P1y.s:5511   .debug_str:00000000000005df .LASF128
     /tmp/ccF98P1y.s:5645   .debug_str:0000000000000a2f .LASF129
     /tmp/ccF98P1y.s:5607   .debug_str:00000000000008b0 .LASF130
     /tmp/ccF98P1y.s:5405   .debug_str:0000000000000296 .LASF131
     /tmp/ccF98P1y.s:5569   .debug_str:000000000000076f .LASF134
     /tmp/ccF98P1y.s:5469   .debug_str:00000000000004b6 .LASF135
     /tmp/ccF98P1y.s:5339   .debug_str:000000000000007b .LASF136
     /tmp/ccF98P1y.s:5393   .debug_str:0000000000000234 .LASF137
     /tmp/ccF98P1y.s:5395   .debug_str:000000000000023c .LASF138
     /tmp/ccF98P1y.s:5535   .debug_str:0000000000000681 .LASF139
     /tmp/ccF98P1y.s:5671   .debug_str:0000000000000adc .LASF140
     /tmp/ccF98P1y.s:5717   .debug_str:0000000000000c40 .LASF141
     /tmp/ccF98P1y.s:5705   .debug_str:0000000000000bd6 .LASF142
GAS LISTING /tmp/ccF98P1y.s 			page 55


     /tmp/ccF98P1y.s:5489   .debug_str:0000000000000536 .LASF143
     /tmp/ccF98P1y.s:5419   .debug_str:000000000000030c .LASF144
     /tmp/ccF98P1y.s:5437   .debug_str:00000000000003a0 .LASF197
     /tmp/ccF98P1y.s:5703   .debug_str:0000000000000bc2 .LASF198
     /tmp/ccF98P1y.s:5347   .debug_str:00000000000000e1 .LASF146
     /tmp/ccF98P1y.s:5585   .debug_str:0000000000000805 .LASF147
     /tmp/ccF98P1y.s:5629   .debug_str:000000000000093c .LASF148
     /tmp/ccF98P1y.s:5479   .debug_str:00000000000004f3 .LASF149
     /tmp/ccF98P1y.s:5375   .debug_str:00000000000001a9 .LASF150
     /tmp/ccF98P1y.s:5365   .debug_str:0000000000000158 .LASF151
     /tmp/ccF98P1y.s:5507   .debug_str:00000000000005c0 .LASF152
     /tmp/ccF98P1y.s:5411   .debug_str:00000000000002ca .LASF153
     /tmp/ccF98P1y.s:5345   .debug_str:00000000000000ca .LASF154
     /tmp/ccF98P1y.s:5551   .debug_str:00000000000006dd .LASF199
     /tmp/ccF98P1y.s:5627   .debug_str:0000000000000937 .LASF155
     /tmp/ccF98P1y.s:5593   .debug_str:000000000000083b .LASF156
     /tmp/ccF98P1y.s:5415   .debug_str:00000000000002f8 .LASF157
     /tmp/ccF98P1y.s:5487   .debug_str:0000000000000527 .LASF158
     /tmp/ccF98P1y.s:5493   .debug_str:0000000000000545 .LASF159
     /tmp/ccF98P1y.s:5633   .debug_str:0000000000000947 .LASF160
     /tmp/ccF98P1y.s:5457   .debug_str:0000000000000460 .LASF161
     /tmp/ccF98P1y.s:5325   .debug_str:0000000000000030 .LASF162
     /tmp/ccF98P1y.s:5389   .debug_str:0000000000000200 .LASF163
     /tmp/ccF98P1y.s:5513   .debug_str:00000000000005e4 .LASF164
     /tmp/ccF98P1y.s:5573   .debug_str:00000000000007a3 .LASF165
     /tmp/ccF98P1y.s:5477   .debug_str:00000000000004e4 .LASF166
     /tmp/ccF98P1y.s:5343   .debug_str:00000000000000ab .LASF167
     /tmp/ccF98P1y.s:5459   .debug_str:0000000000000469 .LASF168
     /tmp/ccF98P1y.s:5413   .debug_str:00000000000002d9 .LASF169
     /tmp/ccF98P1y.s:5699   .debug_str:0000000000000ba0 .LASF170
     /tmp/ccF98P1y.s:5657   .debug_str:0000000000000a7a .LASF171
     /tmp/ccF98P1y.s:5653   .debug_str:0000000000000a5a .LASF172
     /tmp/ccF98P1y.s:5537   .debug_str:000000000000068d .LASF173
     /tmp/ccF98P1y.s:5373   .debug_str:0000000000000190 .LASF200
     /tmp/ccF98P1y.s:1256   .text:00000000000004d8 .LFB39
     /tmp/ccF98P1y.s:1383   .text:0000000000000590 .LFE39
     /tmp/ccF98P1y.s:1293   .text:0000000000000508 .LBB272
     /tmp/ccF98P1y.s:1370   .text:0000000000000580 .LBE272
     /tmp/ccF98P1y.s:4905   .debug_loc:0000000000000000 .LLST32
     /tmp/ccF98P1y.s:1298   .text:000000000000050c .LBB273
     /tmp/ccF98P1y.s:1305   .text:0000000000000510 .LBE273
     /tmp/ccF98P1y.s:4916   .debug_loc:0000000000000036 .LLST33
     /tmp/ccF98P1y.s:4924   .debug_loc:000000000000005a .LLST34
     /tmp/ccF98P1y.s:1340   .text:0000000000000550 .LBB275
     /tmp/ccF98P1y.s:1347   .text:0000000000000554 .LBE275
     /tmp/ccF98P1y.s:4931   .debug_loc:000000000000007d .LLST35
     /tmp/ccF98P1y.s:4939   .debug_loc:00000000000000a1 .LLST36
     /tmp/ccF98P1y.s:1310   .text:000000000000051c .LVL74
     /tmp/ccF98P1y.s:1324   .text:0000000000000538 .LVL76
     /tmp/ccF98P1y.s:1352   .text:0000000000000560 .LVL79
     /tmp/ccF98P1y.s:1366   .text:000000000000057c .LVL81
     /tmp/ccF98P1y.s:222    .text:00000000000000ec .LFB38
     /tmp/ccF98P1y.s:411    .text:00000000000001fc .LFE38
     /tmp/ccF98P1y.s:5547   .debug_str:00000000000006ca .LASF184
     /tmp/ccF98P1y.s:4946   .debug_loc:00000000000000c4 .LLST5
     /tmp/ccF98P1y.s:5501   .debug_str:0000000000000588 .LASF174
     /tmp/ccF98P1y.s:4979   .debug_loc:000000000000014c .LLST6
GAS LISTING /tmp/ccF98P1y.s 			page 56


     /tmp/ccF98P1y.s:340    .text:00000000000001a8 .LBB108
     /tmp/ccF98P1y.s:402    .text:00000000000001f4 .LBE108
     /tmp/ccF98P1y.s:5641   .debug_str:0000000000000a22 .LASF175
     /tmp/ccF98P1y.s:4990   .debug_loc:0000000000000182 .LLST9
     /tmp/ccF98P1y.s:4997   .debug_loc:00000000000001a5 .LLST10
     /tmp/ccF98P1y.s:5333   .debug_str:0000000000000056 .LASF176
     /tmp/ccF98P1y.s:5013   .debug_loc:00000000000001ef .LLST11
     /tmp/ccF98P1y.s:247    .text:0000000000000118 .LBB104
     /tmp/ccF98P1y.s:256    .text:0000000000000120 .LBE104
     /tmp/ccF98P1y.s:5028   .debug_loc:0000000000000238 .LLST7
     /tmp/ccF98P1y.s:5036   .debug_loc:000000000000025c .LLST8
     /tmp/ccF98P1y.s:262    .text:000000000000012c .LVL18
     /tmp/ccF98P1y.s:305    .text:0000000000000178 .LVL19
     /tmp/ccF98P1y.s:130    .text:000000000000009c .LFB37
     /tmp/ccF98P1y.s:216    .text:00000000000000ec .LFE37
     /tmp/ccF98P1y.s:141    .text:00000000000000a8 .LBB98
     /tmp/ccF98P1y.s:153    .text:00000000000000b0 .LBE98
     /tmp/ccF98P1y.s:5043   .debug_loc:000000000000027f .LLST3
     /tmp/ccF98P1y.s:163    .text:00000000000000c4 .LBB100
     /tmp/ccF98P1y.s:176    .text:00000000000000cc .LBE100
     /tmp/ccF98P1y.s:5052   .debug_loc:00000000000002a4 .LLST4
     /tmp/ccF98P1y.s:201    .text:00000000000000e0 .LBB102
     /tmp/ccF98P1y.s:214    .text:00000000000000ec .LBE102
     /tmp/ccF98P1y.s:10     .text:0000000000000000 .LFB36
     /tmp/ccF98P1y.s:124    .text:000000000000009c .LFE36
     /tmp/ccF98P1y.s:5371   .debug_str:0000000000000189 .LASF177
     /tmp/ccF98P1y.s:5061   .debug_loc:00000000000002ca .LLST0
     /tmp/ccF98P1y.s:5277   .debug_ranges:0000000000000000 .Ldebug_ranges0
     /tmp/ccF98P1y.s:5491   .debug_str:000000000000053b .LASF178
     /tmp/ccF98P1y.s:5072   .debug_loc:0000000000000300 .LLST1
     /tmp/ccF98P1y.s:105    .text:0000000000000080 .LBB93
     /tmp/ccF98P1y.s:116    .text:0000000000000098 .LBE93
     /tmp/ccF98P1y.s:5079   .debug_loc:0000000000000323 .LLST2
     /tmp/ccF98P1y.s:115    .text:0000000000000098 .LVL8
     /tmp/ccF98P1y.s:72     .text:000000000000004c .LVL3
     /tmp/ccF98P1y.s:86     .text:0000000000000064 .LVL6
     /tmp/ccF98P1y.s:25     .text:0000000000000014 .LBB87
     /tmp/ccF98P1y.s:42     .text:0000000000000020 .LBE87
     /tmp/ccF98P1y.s:1389   .text:0000000000000590 .LFB35
     /tmp/ccF98P1y.s:1578   .text:0000000000000650 .LFE35
     /tmp/ccF98P1y.s:5087   .debug_loc:0000000000000347 .LLST37
     /tmp/ccF98P1y.s:1493   .text:0000000000000608 .LBB287
     /tmp/ccF98P1y.s:1573   .text:0000000000000650 .LBE287
     /tmp/ccF98P1y.s:5643   .debug_str:0000000000000a2a .LASF179
     /tmp/ccF98P1y.s:5681   .debug_str:0000000000000b33 .LASF180
     /tmp/ccF98P1y.s:1495   .text:0000000000000608 .LBB288
     /tmp/ccF98P1y.s:1510   .text:0000000000000614 .LBE288
     /tmp/ccF98P1y.s:1514   .text:0000000000000618 .LBB290
     /tmp/ccF98P1y.s:1529   .text:0000000000000624 .LBE290
     /tmp/ccF98P1y.s:1544   .text:0000000000000640 .LBB292
     /tmp/ccF98P1y.s:1555   .text:0000000000000644 .LBE292
     /tmp/ccF98P1y.s:5098   .debug_loc:000000000000037d .LLST39
     /tmp/ccF98P1y.s:1560   .text:0000000000000648 .LBB294
     /tmp/ccF98P1y.s:1572   .text:0000000000000650 .LBE294
     /tmp/ccF98P1y.s:1539   .text:000000000000063c .LVL90
     /tmp/ccF98P1y.s:1401   .text:00000000000005a0 .LBB280
     /tmp/ccF98P1y.s:1417   .text:00000000000005ac .LBE280
GAS LISTING /tmp/ccF98P1y.s 			page 57


     /tmp/ccF98P1y.s:1458   .text:00000000000005f4 .LBB285
     /tmp/ccF98P1y.s:1465   .text:00000000000005f8 .LBE285
     /tmp/ccF98P1y.s:5105   .debug_loc:00000000000003a0 .LLST38
     /tmp/ccF98P1y.s:1472   .text:00000000000005fc .LBB296
     /tmp/ccF98P1y.s:1484   .text:0000000000000604 .LBE296
     /tmp/ccF98P1y.s:5112   .debug_loc:00000000000003c3 .LLST40
     /tmp/ccF98P1y.s:1445   .text:00000000000005d4 .LVL85
     /tmp/ccF98P1y.s:428    .text:00000000000001fc .LFB34
     /tmp/ccF98P1y.s:1250   .text:00000000000004d8 .LFE34
     /tmp/ccF98P1y.s:5120   .debug_loc:00000000000003e7 .LLST12
     /tmp/ccF98P1y.s:879    .text:0000000000000324 .LBB223
     /tmp/ccF98P1y.s:894    .text:0000000000000334 .LBE223
     /tmp/ccF98P1y.s:5131   .debug_loc:000000000000041d .LLST29
     /tmp/ccF98P1y.s:884    .text:0000000000000330 .LVL32
     /tmp/ccF98P1y.s:950    .text:0000000000000358 .LBB210
     /tmp/ccF98P1y.s:963    .text:0000000000000368 .LBE210
     /tmp/ccF98P1y.s:5361   .debug_str:0000000000000149 .LASF181
     /tmp/ccF98P1y.s:5138   .debug_loc:0000000000000440 .LLST28
     /tmp/ccF98P1y.s:955    .text:0000000000000364 .LVL40
     /tmp/ccF98P1y.s:968    .text:000000000000036c .LBB196
     /tmp/ccF98P1y.s:1011   .text:00000000000003a4 .LBE196
     /tmp/ccF98P1y.s:5693   .debug_str:0000000000000b74 .LASF182
     /tmp/ccF98P1y.s:5145   .debug_loc:0000000000000463 .LLST26
     /tmp/ccF98P1y.s:979    .text:0000000000000384 .LBB198
     /tmp/ccF98P1y.s:998    .text:0000000000000398 .LBE198
     /tmp/ccF98P1y.s:5617   .debug_str:0000000000000904 .LASF183
     /tmp/ccF98P1y.s:5152   .debug_loc:0000000000000486 .LLST27
     /tmp/ccF98P1y.s:975    .text:0000000000000380 .LVL42
     /tmp/ccF98P1y.s:1013   .text:00000000000003a4 .LBB185
     /tmp/ccF98P1y.s:1025   .text:00000000000003b0 .LBE185
     /tmp/ccF98P1y.s:5159   .debug_loc:00000000000004a9 .LLST25
     /tmp/ccF98P1y.s:1017   .text:00000000000003ac .LVL46
     /tmp/ccF98P1y.s:1041   .text:00000000000003cc .LBB167
     /tmp/ccF98P1y.s:1053   .text:00000000000003d8 .LBE167
     /tmp/ccF98P1y.s:5166   .debug_loc:00000000000004cc .LLST24
     /tmp/ccF98P1y.s:1045   .text:00000000000003d4 .LVL49
     /tmp/ccF98P1y.s:1058   .text:00000000000003dc .LBB159
     /tmp/ccF98P1y.s:1068   .text:00000000000003ec .LBE159
     /tmp/ccF98P1y.s:5173   .debug_loc:00000000000004ef .LLST23
     /tmp/ccF98P1y.s:1067   .text:00000000000003ec .LVL52
     /tmp/ccF98P1y.s:1072   .text:00000000000003f0 .LBB150
     /tmp/ccF98P1y.s:1114   .text:0000000000000424 .LBE150
     /tmp/ccF98P1y.s:5180   .debug_loc:0000000000000512 .LLST21
     /tmp/ccF98P1y.s:1082   .text:0000000000000404 .LBB152
     /tmp/ccF98P1y.s:1101   .text:0000000000000418 .LBE152
     /tmp/ccF98P1y.s:5187   .debug_loc:0000000000000535 .LLST22
     /tmp/ccF98P1y.s:1078   .text:0000000000000400 .LVL53
     /tmp/ccF98P1y.s:1116   .text:0000000000000424 .LBB144
     /tmp/ccF98P1y.s:1132   .text:0000000000000434 .LBE144
     /tmp/ccF98P1y.s:5194   .debug_loc:0000000000000558 .LLST19
     /tmp/ccF98P1y.s:5201   .debug_loc:000000000000057b .LLST20
     /tmp/ccF98P1y.s:1124   .text:0000000000000430 .LVL58
     /tmp/ccF98P1y.s:1137   .text:0000000000000438 .LBB139
     /tmp/ccF98P1y.s:1153   .text:0000000000000448 .LBE139
     /tmp/ccF98P1y.s:5208   .debug_loc:000000000000059e .LLST17
     /tmp/ccF98P1y.s:5215   .debug_loc:00000000000005c1 .LLST18
     /tmp/ccF98P1y.s:1145   .text:0000000000000444 .LVL61
GAS LISTING /tmp/ccF98P1y.s 			page 58


     /tmp/ccF98P1y.s:1158   .text:000000000000044c .LBB135
     /tmp/ccF98P1y.s:1174   .text:000000000000045c .LBE135
     /tmp/ccF98P1y.s:5222   .debug_loc:00000000000005e4 .LLST15
     /tmp/ccF98P1y.s:5229   .debug_loc:0000000000000607 .LLST16
     /tmp/ccF98P1y.s:1166   .text:0000000000000458 .LVL64
     /tmp/ccF98P1y.s:847    .text:0000000000000310 .LBB133
     /tmp/ccF98P1y.s:863    .text:0000000000000320 .LBE133
     /tmp/ccF98P1y.s:5236   .debug_loc:000000000000062a .LLST13
     /tmp/ccF98P1y.s:5243   .debug_loc:000000000000064d .LLST14
     /tmp/ccF98P1y.s:855    .text:000000000000031c .LVL30
     /tmp/ccF98P1y.s:513    .text:0000000000000250 .LBB116
     /tmp/ccF98P1y.s:528    .text:000000000000025c .LBE116
     /tmp/ccF98P1y.s:534    .text:0000000000000264 .LBB118
     /tmp/ccF98P1y.s:549    .text:0000000000000270 .LBE118
     /tmp/ccF98P1y.s:900    .text:0000000000000338 .LBB237
     /tmp/ccF98P1y.s:911    .text:000000000000033c .LBE237
     /tmp/ccF98P1y.s:5250   .debug_loc:0000000000000670 .LLST30
     /tmp/ccF98P1y.s:916    .text:0000000000000340 .LBB239
     /tmp/ccF98P1y.s:927    .text:0000000000000344 .LBE239
     /tmp/ccF98P1y.s:5257   .debug_loc:0000000000000693 .LLST31
     /tmp/ccF98P1y.s:1037   .text:00000000000003c8 .LVL48
     /tmp/ccF98P1y.s:1183   .text:000000000000046c .LVL66
     /tmp/ccF98P1y.s:442    .text:0000000000000210 .LBB112
     /tmp/ccF98P1y.s:458    .text:000000000000021c .LBE112
     /tmp/ccF98P1y.s:1217   .text:00000000000004a4 .LBB255
     /tmp/ccF98P1y.s:1232   .text:00000000000004b0 .LBE255
     /tmp/ccF98P1y.s:1203   .text:0000000000000480 .LVL67
     /tmp/ccF98P1y.s:1210   .text:0000000000000494 .LVL68
     /tmp/ccF98P1y.s:1215   .text:00000000000004a4 .LVL69
     /tmp/ccF98P1y.s:1238   .text:00000000000004c4 .LVL70
     /tmp/ccF98P1y.s:1243   .text:00000000000004d4 .LVL71
     /tmp/ccF98P1y.s:5665   .debug_str:0000000000000ac2 .LASF185
     /tmp/ccF98P1y.s:5319   .debug_str:0000000000000013 .LASF187
     /tmp/ccF98P1y.s:5625   .debug_str:000000000000092e .LASF186
     /tmp/ccF98P1y.s:5483   .debug_str:0000000000000500 .LASF188
     /tmp/ccF98P1y.s:5549   .debug_str:00000000000006cf .LASF189
     /tmp/ccF98P1y.s:5367   .debug_str:0000000000000166 .LASF190
     /tmp/ccF98P1y.s:5425   .debug_str:0000000000000344 .LASF191
     /tmp/ccF98P1y.s:5595   .debug_str:0000000000000855 .LASF192
     /tmp/ccF98P1y.s:5543   .debug_str:00000000000006b7 .LASF193
     /tmp/ccF98P1y.s:1315   .text:0000000000000528 .LVL75
     /tmp/ccF98P1y.s:1357   .text:000000000000056c .LVL80
     /tmp/ccF98P1y.s:1297   .text:000000000000050c .LVL72
     /tmp/ccF98P1y.s:1303   .text:0000000000000510 .LVL73
     /tmp/ccF98P1y.s:1339   .text:0000000000000550 .LVL77
     /tmp/ccF98P1y.s:1345   .text:0000000000000554 .LVL78
     /tmp/ccF98P1y.s:225    .text:00000000000000ec .LVL14
     /tmp/ccF98P1y.s:260    .text:0000000000000124 .LVL17
     /tmp/ccF98P1y.s:318    .text:0000000000000188 .LVL20
     /tmp/ccF98P1y.s:324    .text:0000000000000194 .LVL21
     /tmp/ccF98P1y.s:395    .text:00000000000001f4 .LVL26
     /tmp/ccF98P1y.s:407    .text:00000000000001f8 .LVL27
     /tmp/ccF98P1y.s:344    .text:00000000000001ac .LVL22
     /tmp/ccF98P1y.s:348    .text:00000000000001b0 .LVL23
     /tmp/ccF98P1y.s:361    .text:00000000000001c0 .LVL24
     /tmp/ccF98P1y.s:368    .text:00000000000001c8 .LVL25
     /tmp/ccF98P1y.s:246    .text:0000000000000118 .LVL15
GAS LISTING /tmp/ccF98P1y.s 			page 59


     /tmp/ccF98P1y.s:254    .text:0000000000000120 .LVL16
     /tmp/ccF98P1y.s:140    .text:00000000000000a8 .LVL9
     /tmp/ccF98P1y.s:150    .text:00000000000000b0 .LVL10
     /tmp/ccF98P1y.s:162    .text:00000000000000c4 .LVL11
     /tmp/ccF98P1y.s:172    .text:00000000000000cc .LVL12
     /tmp/ccF98P1y.s:40     .text:0000000000000020 .LVL0
     /tmp/ccF98P1y.s:49     .text:0000000000000030 .LVL1
     /tmp/ccF98P1y.s:64     .text:0000000000000044 .LVL2
     /tmp/ccF98P1y.s:74     .text:0000000000000050 .LVL4
     /tmp/ccF98P1y.s:79     .text:0000000000000058 .LVL5
     /tmp/ccF98P1y.s:110    .text:000000000000008c .LVL7
     /tmp/ccF98P1y.s:1415   .text:00000000000005ac .LVL82
     /tmp/ccF98P1y.s:1424   .text:00000000000005bc .LVL83
     /tmp/ccF98P1y.s:1437   .text:00000000000005cc .LVL84
     /tmp/ccF98P1y.s:1543   .text:0000000000000640 .LVL91
     /tmp/ccF98P1y.s:1552   .text:0000000000000644 .LVL92
     /tmp/ccF98P1y.s:1457   .text:00000000000005f4 .LVL86
     /tmp/ccF98P1y.s:1463   .text:00000000000005f8 .LVL87
     /tmp/ccF98P1y.s:1471   .text:00000000000005fc .LVL88
     /tmp/ccF98P1y.s:1481   .text:0000000000000604 .LVL89
     /tmp/ccF98P1y.s:456    .text:000000000000021c .LVL28
     /tmp/ccF98P1y.s:939    .text:0000000000000350 .LVL38
     /tmp/ccF98P1y.s:943    .text:0000000000000358 .LVL39
     /tmp/ccF98P1y.s:891    .text:0000000000000334 .LVL33
     /tmp/ccF98P1y.s:965    .text:000000000000036c .LVL41
     /tmp/ccF98P1y.s:1008   .text:00000000000003a4 .LVL45
     /tmp/ccF98P1y.s:983    .text:0000000000000388 .LVL43
     /tmp/ccF98P1y.s:996    .text:0000000000000398 .LVL44
     /tmp/ccF98P1y.s:1027   .text:00000000000003b4 .LVL47
     /tmp/ccF98P1y.s:1055   .text:00000000000003dc .LVL50
     /tmp/ccF98P1y.s:1062   .text:00000000000003e0 .LVL51
     /tmp/ccF98P1y.s:1111   .text:0000000000000424 .LVL56
     /tmp/ccF98P1y.s:1086   .text:0000000000000408 .LVL54
     /tmp/ccF98P1y.s:1099   .text:0000000000000418 .LVL55
     /tmp/ccF98P1y.s:1120   .text:0000000000000428 .LVL57
     /tmp/ccF98P1y.s:1134   .text:0000000000000438 .LVL59
     /tmp/ccF98P1y.s:1141   .text:000000000000043c .LVL60
     /tmp/ccF98P1y.s:1155   .text:000000000000044c .LVL62
     /tmp/ccF98P1y.s:1162   .text:0000000000000450 .LVL63
     /tmp/ccF98P1y.s:1176   .text:0000000000000460 .LVL65
     /tmp/ccF98P1y.s:851    .text:0000000000000314 .LVL29
     /tmp/ccF98P1y.s:865    .text:0000000000000324 .LVL31
     /tmp/ccF98P1y.s:899    .text:0000000000000338 .LVL34
     /tmp/ccF98P1y.s:908    .text:000000000000033c .LVL35
     /tmp/ccF98P1y.s:915    .text:0000000000000340 .LVL36
     /tmp/ccF98P1y.s:924    .text:0000000000000344 .LVL37
     /tmp/ccF98P1y.s:1599   .debug_info:0000000000000000 .Ldebug_info0
     /tmp/ccF98P1y.s:68     .text:0000000000000044 .LBB90
     /tmp/ccF98P1y.s:87     .text:0000000000000064 .LBE90
     /tmp/ccF98P1y.s:93     .text:0000000000000068 .LBB95
     /tmp/ccF98P1y.s:121    .text:000000000000009c .LBE95
     /tmp/ccF98P1y.s:511    .text:0000000000000250 .LBB115
     /tmp/ccF98P1y.s:560    .text:0000000000000280 .LBE115
     /tmp/ccF98P1y.s:564    .text:0000000000000280 .LBB242
     /tmp/ccF98P1y.s:574    .text:000000000000028c .LBE242
     /tmp/ccF98P1y.s:578    .text:000000000000028c .LBB243
     /tmp/ccF98P1y.s:590    .text:0000000000000298 .LBE243
GAS LISTING /tmp/ccF98P1y.s 			page 60


     /tmp/ccF98P1y.s:594    .text:0000000000000298 .LBB244
     /tmp/ccF98P1y.s:608    .text:00000000000002a4 .LBE244
     /tmp/ccF98P1y.s:612    .text:00000000000002a4 .LBB245
     /tmp/ccF98P1y.s:628    .text:00000000000002b0 .LBE245
     /tmp/ccF98P1y.s:632    .text:00000000000002b0 .LBB246
     /tmp/ccF98P1y.s:650    .text:00000000000002bc .LBE246
     /tmp/ccF98P1y.s:654    .text:00000000000002bc .LBB247
     /tmp/ccF98P1y.s:674    .text:00000000000002c8 .LBE247
     /tmp/ccF98P1y.s:678    .text:00000000000002c8 .LBB248
     /tmp/ccF98P1y.s:700    .text:00000000000002d4 .LBE248
     /tmp/ccF98P1y.s:704    .text:00000000000002d4 .LBB249
     /tmp/ccF98P1y.s:728    .text:00000000000002e0 .LBE249
     /tmp/ccF98P1y.s:732    .text:00000000000002e0 .LBB250
     /tmp/ccF98P1y.s:758    .text:00000000000002ec .LBE250
     /tmp/ccF98P1y.s:762    .text:00000000000002ec .LBB251
     /tmp/ccF98P1y.s:790    .text:00000000000002f8 .LBE251
     /tmp/ccF98P1y.s:794    .text:00000000000002f8 .LBB252
     /tmp/ccF98P1y.s:824    .text:0000000000000304 .LBE252
     /tmp/ccF98P1y.s:828    .text:0000000000000304 .LBB253
     /tmp/ccF98P1y.s:928    .text:0000000000000344 .LBE253
     /tmp/ccF98P1y.s:947    .text:0000000000000358 .LBB254
     /tmp/ccF98P1y.s:1198   .text:0000000000000470 .LBE254

UNDEFINED SYMBOLS
plic_claim
plic_complete
CONSOLE_STATUS
CONSOLE_RX_DATA
_ZN8_console13inputBuff_putEc
_ZN3TCB7runningE
_ZN15MemoryAllocator5allocEm
_ZN3TCB16timeSliceCounterE
_ZN3TCB8dispatchEv
_ZN15MemoryAllocator4freeEPv
_ZN3TCB12createThreadEPFvPvEPcS0_
_ZN3TCB4exitEv
_ZN8_console13inputBuff_getEv
_ZN8_console14outputBuff_putEc
_ZN4_sem4openEi
_ZN4_sem4waitEv
_ZN4_sem5closeEv
_ZN4_sem6signalEv
_ZN3TCB4joinEPS_
_Z11printStringPKc
_Z8printIntiii
_ZN9Scheduler3putEP3TCB
