GAS LISTING /tmp/ccwPpNaf.s 			page 1


   1              		.file	"riscv.cpp"
   2              		.option pic
   3              		.option norelax
   4              		.text
   5              	.Ltext0:
   6              		.align	2
   7              		.globl	_ZN5Riscv17hardwareInterruptEv
   9              	_ZN5Riscv17hardwareInterruptEv:
  10              	.LFB36:
  11              		.file 1 "src/riscv.cpp"
   1:src/riscv.cpp **** //
   2:src/riscv.cpp **** // Created by os on 7/24/23.
   3:src/riscv.cpp **** //
   4:src/riscv.cpp **** //sa vezbi 7
   5:src/riscv.cpp **** #include "../h/riscv.hpp"
   6:src/riscv.cpp **** #include "../lib/console.h"
   7:src/riscv.cpp **** #include "../h/TCB.hpp"
   8:src/riscv.cpp **** #include "../h/MemoryAllocator.hpp"
   9:src/riscv.cpp **** #include "../test/printing.hpp"
  10:src/riscv.cpp **** #include "../h/_sem.hpp"
  11:src/riscv.cpp **** #include "../h/Scheduler.hpp"
  12:src/riscv.cpp **** 
  13:src/riscv.cpp **** Riscv::SleepingElem* Riscv::headSleeping=nullptr;
  14:src/riscv.cpp **** 
  15:src/riscv.cpp **** void Riscv::handleEcallException(){
  16:src/riscv.cpp ****     uint64 scause=r_scause();
  17:src/riscv.cpp **** 
  18:src/riscv.cpp ****     uint64 volatile a0;
  19:src/riscv.cpp ****     __asm__ volatile("ld %0, 0x50(fp)": "=r"(a0));
  20:src/riscv.cpp ****     uint64 volatile a1;
  21:src/riscv.cpp ****     __asm__ volatile("ld %0, 0x58(fp)": "=r"(a1));
  22:src/riscv.cpp ****     uint64 volatile a2;
  23:src/riscv.cpp ****     __asm__ volatile("ld %0, 0x60(fp)": "=r"(a2));
  24:src/riscv.cpp ****     uint64 volatile a3;
  25:src/riscv.cpp ****     __asm__ volatile("ld %0, 0x68(fp)": "=r"(a3));
  26:src/riscv.cpp ****     uint64 volatile a4;
  27:src/riscv.cpp ****     __asm__ volatile("ld %0, 0x70(fp)": "=r"(a4));
  28:src/riscv.cpp **** 
  29:src/riscv.cpp ****     if(scause==0x09UL || scause==0x08UL){
  30:src/riscv.cpp ****         //09 iz sist rezima, 08 iz korisnickog
  31:src/riscv.cpp ****         uint64 volatile sepc=r_sepc()+4;
  32:src/riscv.cpp ****         uint64 volatile sstatus=r_sstatus();
  33:src/riscv.cpp **** 
  34:src/riscv.cpp ****         if(a0==0x01){
  35:src/riscv.cpp ****             //mem_alloc
  36:src/riscv.cpp ****             void *ptr=MemoryAllocator::alloc(a1);
  37:src/riscv.cpp ****             __asm__ volatile("sd %0, 0x50(fp)": : "r"((uint64)ptr));
  38:src/riscv.cpp ****         }
  39:src/riscv.cpp ****         else if(a0==0x02){
  40:src/riscv.cpp ****             //mem_free
  41:src/riscv.cpp ****             int stat=MemoryAllocator::free((void*)a1);
  42:src/riscv.cpp ****             __asm__ volatile("sd %0, 0x50(fp)": : "r"(stat));
  43:src/riscv.cpp ****         }
  44:src/riscv.cpp **** 
  45:src/riscv.cpp ****         else if(a0==0x11){
  46:src/riscv.cpp ****             /*thread_create
  47:src/riscv.cpp ****             a1- thread_t* handle
GAS LISTING /tmp/ccwPpNaf.s 			page 2


  48:src/riscv.cpp ****              a2- *start_routine
  49:src/riscv.cpp ****              a3- void* arg
  50:src/riscv.cpp ****              a4- uint64* stack
  51:src/riscv.cpp ****             */
  52:src/riscv.cpp **** 
  53:src/riscv.cpp ****             TCB* handle= TCB::createThread((TCB::Body)a2, (uint64*)a4, (void*)a3);
  54:src/riscv.cpp **** 
  55:src/riscv.cpp ****             if(!handle){
  56:src/riscv.cpp ****                 __asm__ volatile("sd %0, 0x50(fp)": : "r"(-1));
  57:src/riscv.cpp ****             }
  58:src/riscv.cpp ****             else{
  59:src/riscv.cpp ****                 //*han=(thread_t)handle;
  60:src/riscv.cpp ****                 TCB** retHandle=(TCB**)a1;
  61:src/riscv.cpp ****                 *retHandle=handle;
  62:src/riscv.cpp ****                 __asm__ volatile("sd %0, 0x50(fp)": : "r"(0));
  63:src/riscv.cpp ****             }
  64:src/riscv.cpp **** 
  65:src/riscv.cpp ****         }
  66:src/riscv.cpp ****         else if(a0==0x12){
  67:src/riscv.cpp ****             //thread_exit()
  68:src/riscv.cpp ****             /*if(TCB::running->isFinished()){
  69:src/riscv.cpp ****                 __asm__ volatile("sd %0, 0x50(fp)": : "r"(-1));
  70:src/riscv.cpp ****             }
  71:src/riscv.cpp ****             else{
  72:src/riscv.cpp ****                 //TCB* exited=TCB::running;
  73:src/riscv.cpp ****                 TCB::running->setFinished(true);
  74:src/riscv.cpp ****                 TCB::dispatch();
  75:src/riscv.cpp ****                 //delete exited; ovde se nikad ne vraca
  76:src/riscv.cpp ****             }*/
  77:src/riscv.cpp ****             int stat=TCB::exit();
  78:src/riscv.cpp ****             __asm__ volatile("sd %0, 0x50(fp)": : "r"(stat));
  79:src/riscv.cpp ****         }
  80:src/riscv.cpp ****         else if(a0==0x13){
  81:src/riscv.cpp ****             //thread_dispatch()
  82:src/riscv.cpp ****             TCB::timeSliceCounter=0;
  83:src/riscv.cpp ****             TCB::dispatch();
  84:src/riscv.cpp ****         }
  85:src/riscv.cpp ****         else if(a0==0x41){
  86:src/riscv.cpp ****             //char getc();
  87:src/riscv.cpp ****             char c=__getc();
  88:src/riscv.cpp ****             __asm__ volatile("sd %0, 0x50(fp)": : "r"(c));
  89:src/riscv.cpp ****         }
  90:src/riscv.cpp ****         else if(a0==0x42){
  91:src/riscv.cpp ****             //void putc()
  92:src/riscv.cpp **** 
  93:src/riscv.cpp ****             __putc((char)a1);
  94:src/riscv.cpp ****         }
  95:src/riscv.cpp ****         else if(a0==0x21){
  96:src/riscv.cpp ****             //sem_open
  97:src/riscv.cpp ****             //a1 - sem_t* handle
  98:src/riscv.cpp ****             //a2 - unsigned int init
  99:src/riscv.cpp ****             _sem* handle=_sem::open((int)a2);
 100:src/riscv.cpp ****             if(!handle){
 101:src/riscv.cpp ****                 __asm__ volatile("sd %0, 0x50(fp)": : "r"(-1));
 102:src/riscv.cpp ****             }
 103:src/riscv.cpp ****             else{
 104:src/riscv.cpp ****                 _sem** retHandle=(_sem**)a1;
GAS LISTING /tmp/ccwPpNaf.s 			page 3


 105:src/riscv.cpp ****                 *retHandle=handle;
 106:src/riscv.cpp ****                 __asm__ volatile("sd %0, 0x50(fp)": : "r"(0));
 107:src/riscv.cpp ****             }
 108:src/riscv.cpp ****         }
 109:src/riscv.cpp ****         else if(a0==0x23){
 110:src/riscv.cpp ****             //sem_wait(sem_t id)
 111:src/riscv.cpp ****             _sem* handle=(_sem*) a1;
 112:src/riscv.cpp ****             int stat=handle->wait();
 113:src/riscv.cpp ****             __asm__ volatile("sd %0, 0x50(fp)": : "r"(stat));
 114:src/riscv.cpp ****         }
 115:src/riscv.cpp ****         else if(a0==0x22){
 116:src/riscv.cpp ****             //sem_close(sem_t handle)
 117:src/riscv.cpp ****             _sem* handle=(_sem*) a1;
 118:src/riscv.cpp ****             int stat=handle->close();
 119:src/riscv.cpp ****             __asm__ volatile("sd %0, 0x50(fp)": : "r"(stat));
 120:src/riscv.cpp ****         }
 121:src/riscv.cpp ****         else if(a0==0x24){
 122:src/riscv.cpp ****             //sem_signal(sem_t id)
 123:src/riscv.cpp ****             _sem* handle=(_sem*) a1;
 124:src/riscv.cpp ****             int stat=handle->signal();
 125:src/riscv.cpp ****             __asm__ volatile("sd %0, 0x50(fp)": : "r"(stat));
 126:src/riscv.cpp ****         }
 127:src/riscv.cpp ****         else if(a0==0x14){
 128:src/riscv.cpp ****             //thread_join(thread_t)
 129:src/riscv.cpp ****             TCB::join((TCB*)a1);
 130:src/riscv.cpp ****         }
 131:src/riscv.cpp ****         else if(a0==0x31){
 132:src/riscv.cpp ****             //time_sleep(time_t)
 133:src/riscv.cpp ****             time_t time=(time_t)a1;
 134:src/riscv.cpp ****             int stat=Riscv::putToSleep(time);
 135:src/riscv.cpp ****             __asm__ volatile("sd %0, 0x50(fp)": : "r"(stat));
 136:src/riscv.cpp ****         }
 137:src/riscv.cpp **** 
 138:src/riscv.cpp ****         w_sstatus(sstatus);
 139:src/riscv.cpp ****         w_sepc(sepc);
 140:src/riscv.cpp ****     }
 141:src/riscv.cpp **** 
 142:src/riscv.cpp ****     else{
 143:src/riscv.cpp ****         printString("GRESKA:");
 144:src/riscv.cpp ****         printInt(scause);
 145:src/riscv.cpp ****         printString("\n");
 146:src/riscv.cpp ****         while(true);
 147:src/riscv.cpp ****     }
 148:src/riscv.cpp **** 
 149:src/riscv.cpp **** }
 150:src/riscv.cpp **** 
 151:src/riscv.cpp **** void Riscv::timerInterrupt() {
 152:src/riscv.cpp ****     uint64 scause=r_scause();
 153:src/riscv.cpp ****     if(scause==0x8000000000000001UL){
 154:src/riscv.cpp ****         //prekid od tajmera, softverski prekid
 155:src/riscv.cpp **** 
 156:src/riscv.cpp ****         updateSleepingList();
 157:src/riscv.cpp **** 
 158:src/riscv.cpp ****         TCB::timeSliceCounter++;
 159:src/riscv.cpp ****         if(TCB::timeSliceCounter>=TCB::running->getTimeSlice()){
 160:src/riscv.cpp ****             uint64 volatile sepc=r_sepc();
 161:src/riscv.cpp ****             uint64 volatile sstatus=r_sstatus();
GAS LISTING /tmp/ccwPpNaf.s 			page 4


 162:src/riscv.cpp ****             TCB::timeSliceCounter=0;
 163:src/riscv.cpp ****             TCB::dispatch();
 164:src/riscv.cpp ****             w_sstatus(sstatus);
 165:src/riscv.cpp ****             w_sepc(sepc);
 166:src/riscv.cpp ****         }
 167:src/riscv.cpp ****         mc_sip(SIP_SSIP);
 168:src/riscv.cpp ****     }
 169:src/riscv.cpp **** }
 170:src/riscv.cpp **** 
 171:src/riscv.cpp **** void Riscv::hardwareInterrupt() {
  12              		.loc 1 171 33
  13              		.cfi_startproc
  14 0000 130101FE 		addi	sp,sp,-32
  15              		.cfi_def_cfa_offset 32
  16 0004 233C1100 		sd	ra,24(sp)
  17 0008 23388100 		sd	s0,16(sp)
  18              		.cfi_offset 1, -8
  19              		.cfi_offset 8, -16
  20 000c 13040102 		addi	s0,sp,32
  21              		.cfi_def_cfa 8, 0
 172:src/riscv.cpp ****     uint64 scause=r_scause();
  22              		.loc 1 172 5
  23              	.LBB79:
  24              	.LBB80:
  25              		.file 2 "src/../h/riscv.hpp"
   1:src/../h/riscv.hpp **** //
   2:src/../h/riscv.hpp **** // Created by os on 7/24/23.
   3:src/../h/riscv.hpp **** //
   4:src/../h/riscv.hpp **** 
   5:src/../h/riscv.hpp **** #ifndef PROJECT_BASE_RISCV_HPP
   6:src/../h/riscv.hpp **** #define PROJECT_BASE_RISCV_HPP
   7:src/../h/riscv.hpp **** 
   8:src/../h/riscv.hpp **** #include "../lib/hw.h"
   9:src/../h/riscv.hpp **** #include "../h/TCB.hpp"
  10:src/../h/riscv.hpp **** //sa vezbi 7
  11:src/../h/riscv.hpp **** 
  12:src/../h/riscv.hpp **** class Riscv{
  13:src/../h/riscv.hpp **** 
  14:src/../h/riscv.hpp **** public:
  15:src/../h/riscv.hpp **** 
  16:src/../h/riscv.hpp ****     //supervisor previous privileged, previousInterruptEnable
  17:src/../h/riscv.hpp ****     //mora da bude ne inline da se poziva
  18:src/../h/riscv.hpp ****     static void popSppSpie();
  19:src/../h/riscv.hpp **** 
  20:src/../h/riscv.hpp ****     static uint64 r_scause();
  21:src/../h/riscv.hpp ****     static void w_scause(uint64 scause);
  22:src/../h/riscv.hpp ****     static uint64 r_sepc();
  23:src/../h/riscv.hpp ****     static void w_sepc(uint64 sepc);
  24:src/../h/riscv.hpp ****     static uint64 r_stvec();
  25:src/../h/riscv.hpp ****     static void w_stvec(uint64 stvec);
  26:src/../h/riscv.hpp ****     static uint64 r_stval();
  27:src/../h/riscv.hpp ****     static void w_stval(uint64 stval);
  28:src/../h/riscv.hpp **** 
  29:src/../h/riscv.hpp ****     enum BitMaskSStatus{
  30:src/../h/riscv.hpp ****         SSTATUS_SIE=(1<<1),
  31:src/../h/riscv.hpp ****         SSTATUS_SPIE=(1<<5),
  32:src/../h/riscv.hpp ****         SSTATUS_SPP=(1<<8)
GAS LISTING /tmp/ccwPpNaf.s 			page 5


  33:src/../h/riscv.hpp ****     };
  34:src/../h/riscv.hpp **** 
  35:src/../h/riscv.hpp ****     static void ms_sstatus(uint64 mask);
  36:src/../h/riscv.hpp ****     static void mc_sstatus(uint64 mask);
  37:src/../h/riscv.hpp ****     static uint64 r_sstatus();
  38:src/../h/riscv.hpp ****     static void w_sstatus(uint64 sstatus);
  39:src/../h/riscv.hpp **** 
  40:src/../h/riscv.hpp **** 
  41:src/../h/riscv.hpp ****     enum BitMaskSip{
  42:src/../h/riscv.hpp ****         SIP_SSIP=(1<<1),//software interrupt pending
  43:src/../h/riscv.hpp ****         SIP_STIP=(1 << 5),
  44:src/../h/riscv.hpp ****         SIP_SEIP=(1 << 9)
  45:src/../h/riscv.hpp ****     };
  46:src/../h/riscv.hpp **** 
  47:src/../h/riscv.hpp ****     static void ms_sip(uint64 mask);
  48:src/../h/riscv.hpp ****     static void mc_sip(uint64 mask);
  49:src/../h/riscv.hpp ****     static uint64 r_sip();
  50:src/../h/riscv.hpp ****     static void w_sip(uint64 sip);
  51:src/../h/riscv.hpp **** 
  52:src/../h/riscv.hpp ****     static void supervisorTrap();
  53:src/../h/riscv.hpp **** 
  54:src/../h/riscv.hpp ****     struct SleepingElem{
  55:src/../h/riscv.hpp ****         TCB* thr;
  56:src/../h/riscv.hpp ****         time_t toSleepRel;
  57:src/../h/riscv.hpp ****         SleepingElem* next;
  58:src/../h/riscv.hpp ****     };
  59:src/../h/riscv.hpp **** 
  60:src/../h/riscv.hpp ****     static int putToSleep(time_t);
  61:src/../h/riscv.hpp ****     static void updateSleepingList();
  62:src/../h/riscv.hpp **** 
  63:src/../h/riscv.hpp **** private:
  64:src/../h/riscv.hpp **** 
  65:src/../h/riscv.hpp ****     static void handleEcallException();
  66:src/../h/riscv.hpp ****     static void timerInterrupt();
  67:src/../h/riscv.hpp ****     static void hardwareInterrupt();
  68:src/../h/riscv.hpp **** 
  69:src/../h/riscv.hpp ****     static SleepingElem* headSleeping;
  70:src/../h/riscv.hpp **** 
  71:src/../h/riscv.hpp **** };
  72:src/../h/riscv.hpp **** 
  73:src/../h/riscv.hpp **** inline uint64 Riscv::r_scause() {
  74:src/../h/riscv.hpp ****     uint64 volatile scause;
  26              		.loc 2 74 5
  75:src/../h/riscv.hpp ****     __asm__ volatile("csrr %[scause], scause":[scause]"=r"(scause));
  27              		.loc 2 75 5
  28              		.loc 2 75 68 is_stmt 0
  29              	#APP
  30              	# 75 "src/../h/riscv.hpp" 1
  76              	    return scause;
  31              		csrr a5, scause
  32              	# 0 "" 2
  33              	#NO_APP
  34 0014 2334F4FE 		sd	a5,-24(s0)
  35              		.loc 2 76 5 is_stmt 1
  36              		.loc 2 76 12 is_stmt 0
  37 0018 033784FE 		ld	a4,-24(s0)
  38              	.LVL0:
GAS LISTING /tmp/ccwPpNaf.s 			page 6


  39              	.LBE80:
  40              	.LBE79:
 173:src/riscv.cpp ****     if(scause==0x8000000000000009UL){
  41              		.loc 1 173 5 is_stmt 1
  42 001c 9307F0FF 		li	a5,-1
  43 0020 9397F703 		slli	a5,a5,63
  44 0024 93879700 		addi	a5,a5,9
  45 0028 630AF700 		beq	a4,a5,.L4
  46              	.LVL1:
  47              	.L1:
 174:src/riscv.cpp ****         //prekid konzola
 175:src/riscv.cpp ****         console_handler();
 176:src/riscv.cpp ****     }
 177:src/riscv.cpp **** }
  48              		.loc 1 177 1 is_stmt 0
  49 002c 83308101 		ld	ra,24(sp)
  50              		.cfi_remember_state
  51              		.cfi_restore 1
  52 0030 03340101 		ld	s0,16(sp)
  53              		.cfi_restore 8
  54              		.cfi_def_cfa 2, 32
  55 0034 13010102 		addi	sp,sp,32
  56              		.cfi_def_cfa_offset 0
  57 0038 67800000 		jr	ra
  58              	.LVL2:
  59              	.L4:
  60              		.cfi_restore_state
 175:src/riscv.cpp ****     }
  61              		.loc 1 175 9 is_stmt 1
 175:src/riscv.cpp ****     }
  62              		.loc 1 175 24 is_stmt 0
  63 003c 97000000 		call	console_handler@plt
  63      E7800000 
  64              	.LVL3:
  65              		.loc 1 177 1
  66 0044 6FF09FFE 		j	.L1
  67              		.cfi_endproc
  68              	.LFE36:
  70              		.align	2
  71              		.globl	_ZN5Riscv10popSppSpieEv
  73              	_ZN5Riscv10popSppSpieEv:
  74              	.LFB37:
 178:src/riscv.cpp **** 
 179:src/riscv.cpp **** 
 180:src/riscv.cpp **** 
 181:src/riscv.cpp **** void Riscv::popSppSpie() {
  75              		.loc 1 181 26 is_stmt 1
  76              		.cfi_startproc
  77 0048 130101FF 		addi	sp,sp,-16
  78              		.cfi_def_cfa_offset 16
  79 004c 23348100 		sd	s0,8(sp)
  80              		.cfi_offset 8, -8
  81 0050 13040101 		addi	s0,sp,16
  82              		.cfi_def_cfa 8, 0
 182:src/riscv.cpp **** 
 183:src/riscv.cpp **** 
 184:src/riscv.cpp ****     //Riscv::mc_sstatus(SSTATUS_SPIE);
GAS LISTING /tmp/ccwPpNaf.s 			page 7


 185:src/riscv.cpp ****     /*if(TCB::newThrUserMode){
 186:src/riscv.cpp ****         Riscv::mc_sstatus(SSTATUS_SPP);
 187:src/riscv.cpp ****     }
 188:src/riscv.cpp ****     else{
 189:src/riscv.cpp ****         Riscv::ms_sstatus(SSTATUS_SPP);
 190:src/riscv.cpp ****     }*/
 191:src/riscv.cpp ****     Riscv::ms_sstatus(SSTATUS_SPIE);
  83              		.loc 1 191 5
  84              	.LVL4:
  85              	.LBB81:
  86              	.LBB82:
  77:src/../h/riscv.hpp **** }
  78:src/../h/riscv.hpp **** inline void Riscv::w_scause(uint64 scause) {
  79:src/../h/riscv.hpp ****     __asm__ volatile("csrw scause, %[scause]"::[scause]"r"(scause));
  80:src/../h/riscv.hpp **** }
  81:src/../h/riscv.hpp **** 
  82:src/../h/riscv.hpp **** inline uint64 Riscv::r_sepc(){
  83:src/../h/riscv.hpp ****     uint64 volatile sepc;
  84:src/../h/riscv.hpp ****     __asm__ volatile("csrr %[sepc], sepc":[sepc]"=r"(sepc));
  85:src/../h/riscv.hpp ****     return sepc;
  86:src/../h/riscv.hpp **** }
  87:src/../h/riscv.hpp **** inline void Riscv::w_sepc(uint64 sepc) {
  88:src/../h/riscv.hpp ****     __asm__ volatile("csrw sepc, %[sepc]"::[sepc]"r"(sepc));
  89:src/../h/riscv.hpp **** }
  90:src/../h/riscv.hpp **** inline uint64 Riscv::r_stvec(){
  91:src/../h/riscv.hpp ****     uint64 volatile stvec;
  92:src/../h/riscv.hpp ****     __asm__ volatile("csrr %[stvec], stvec":[stvec]"=r"(stvec));
  93:src/../h/riscv.hpp ****     return stvec;
  94:src/../h/riscv.hpp **** }
  95:src/../h/riscv.hpp **** inline void Riscv::w_stvec(uint64 stvec) {
  96:src/../h/riscv.hpp ****     __asm__ volatile("csrw stvec, %[stvec]"::[stvec]"r"(stvec));
  97:src/../h/riscv.hpp **** }
  98:src/../h/riscv.hpp **** inline uint64 Riscv::r_stval(){
  99:src/../h/riscv.hpp ****     uint64 volatile stval;
 100:src/../h/riscv.hpp ****     __asm__ volatile("csrr %[stval], stval":[stval]"=r"(stval));
 101:src/../h/riscv.hpp ****     return stval;
 102:src/../h/riscv.hpp **** }
 103:src/../h/riscv.hpp **** inline void Riscv::w_stval(uint64 stval) {
 104:src/../h/riscv.hpp ****     __asm__ volatile("csrw stval, %[stval]"::[stval]"r"(stval));
 105:src/../h/riscv.hpp **** }
 106:src/../h/riscv.hpp **** 
 107:src/../h/riscv.hpp **** inline void Riscv::ms_sip(uint64 mask) {
 108:src/../h/riscv.hpp ****     __asm__ volatile("csrs sip, %[mask]"::[mask]"r"(mask));
 109:src/../h/riscv.hpp **** }
 110:src/../h/riscv.hpp **** inline void Riscv::mc_sip(uint64 mask) {
 111:src/../h/riscv.hpp ****     __asm__ volatile("csrc sip, %[mask]"::[mask]"r"(mask));
 112:src/../h/riscv.hpp **** }
 113:src/../h/riscv.hpp **** 
 114:src/../h/riscv.hpp **** 
 115:src/../h/riscv.hpp **** inline uint64 Riscv::r_sip(){
 116:src/../h/riscv.hpp ****     uint64 volatile sip;
 117:src/../h/riscv.hpp ****     __asm__ volatile("csrr %[sip], sip":[sip]"=r"(sip));
 118:src/../h/riscv.hpp ****     return sip;
 119:src/../h/riscv.hpp **** }
 120:src/../h/riscv.hpp **** inline void Riscv::w_sip(uint64 sip) {
 121:src/../h/riscv.hpp ****     __asm__ volatile("csrw sip, %[sip]"::[sip]"r"(sip));
 122:src/../h/riscv.hpp **** }
GAS LISTING /tmp/ccwPpNaf.s 			page 8


 123:src/../h/riscv.hpp **** 
 124:src/../h/riscv.hpp **** inline void Riscv::ms_sstatus(uint64 mask) {
 125:src/../h/riscv.hpp ****     __asm__ volatile("csrs sstatus, %[mask]"::[mask]"r"(mask));
  87              		.loc 2 125 5
  88              		.loc 2 125 63 is_stmt 0
  89 0054 93070002 		li	a5,32
  90              	#APP
  91              	# 125 "src/../h/riscv.hpp" 1
 126              	}
  92              		csrs sstatus, a5
  93              	# 0 "" 2
  94              	.LVL5:
  95              	#NO_APP
  96              	.LBE82:
  97              	.LBE81:
 192:src/riscv.cpp ****     if(TCB::running->userMode){
  98              		.loc 1 192 5 is_stmt 1
  99              		.loc 1 192 22 is_stmt 0
 100 005c 97070000 		la	a5,_ZN3TCB7runningE
 100      83B70700 
 101 0064 83B70700 		ld	a5,0(a5)
 102 0068 83C72704 		lbu	a5,66(a5)
 103              		.loc 1 192 5
 104 006c 63800702 		beqz	a5,.L6
 193:src/riscv.cpp ****         Riscv::mc_sstatus(SSTATUS_SPP);
 105              		.loc 1 193 9 is_stmt 1
 106              	.LVL6:
 107              	.LBB83:
 108              	.LBB84:
 127:src/../h/riscv.hpp **** 
 128:src/../h/riscv.hpp **** inline uint64 Riscv::r_sstatus(){
 129:src/../h/riscv.hpp ****     uint64 volatile sstatus;
 130:src/../h/riscv.hpp ****     __asm__ volatile("csrr %[sstatus], sstatus":[sstatus]"=r"(sstatus));
 131:src/../h/riscv.hpp ****     return sstatus;
 132:src/../h/riscv.hpp **** }
 133:src/../h/riscv.hpp **** inline void Riscv::w_sstatus(uint64 sstatus) {
 134:src/../h/riscv.hpp ****     __asm__ volatile("csrw sstatus, %[sstatus]"::[sstatus]"r"(sstatus));
 135:src/../h/riscv.hpp **** }
 136:src/../h/riscv.hpp **** 
 137:src/../h/riscv.hpp **** inline void Riscv::mc_sstatus(uint64 mask) {
 138:src/../h/riscv.hpp ****     __asm__ volatile("csrc sstatus, %[mask]"::[mask]"r"(mask));
 109              		.loc 2 138 5
 110              		.loc 2 138 63 is_stmt 0
 111 0070 93070010 		li	a5,256
 112              	#APP
 113              	# 138 "src/../h/riscv.hpp" 1
 139              	}
 114              		csrc sstatus, a5
 115              	# 0 "" 2
 116              	.LVL7:
 117              	#NO_APP
 118              	.L7:
 119              	.LBE84:
 120              	.LBE83:
 194:src/riscv.cpp ****     }
 195:src/riscv.cpp ****     else{
 196:src/riscv.cpp ****         Riscv::ms_sstatus(SSTATUS_SPP);
GAS LISTING /tmp/ccwPpNaf.s 			page 9


 197:src/riscv.cpp ****     }
 198:src/riscv.cpp ****     __asm__ volatile("csrw sepc, ra");
 121              		.loc 1 198 5 is_stmt 1
 122              		.loc 1 198 38 is_stmt 0
 123              	#APP
 124              	# 198 "src/riscv.cpp" 1
 199              	    __asm__ volatile("sret");
 125              		csrw sepc, ra
 126              	# 0 "" 2
 127              		.loc 1 199 5 is_stmt 1
 128              		.loc 1 199 29 is_stmt 0
 129              	# 199 "src/riscv.cpp" 1
 200              	}
 130              		sret
 131              	# 0 "" 2
 132              		.loc 1 200 1
 133              	#NO_APP
 134 0080 03348100 		ld	s0,8(sp)
 135              		.cfi_remember_state
 136              		.cfi_restore 8
 137              		.cfi_def_cfa 2, 16
 138 0084 13010101 		addi	sp,sp,16
 139              		.cfi_def_cfa_offset 0
 140 0088 67800000 		jr	ra
 141              	.L6:
 142              		.cfi_restore_state
 196:src/riscv.cpp ****     }
 143              		.loc 1 196 9 is_stmt 1
 144              	.LVL8:
 145              	.LBB85:
 146              	.LBB86:
 125:src/../h/riscv.hpp **** }
 147              		.loc 2 125 5
 125:src/../h/riscv.hpp **** }
 148              		.loc 2 125 63 is_stmt 0
 149 008c 93070010 		li	a5,256
 150              	#APP
 151              	# 125 "src/../h/riscv.hpp" 1
 126:src/../h/riscv.hpp **** 
 152              		csrs sstatus, a5
 153              	# 0 "" 2
 154              		.loc 2 126 1
 155              	#NO_APP
 156 0094 6FF05FFE 		j	.L7
 157              	.LBE86:
 158              	.LBE85:
 159              		.cfi_endproc
 160              	.LFE37:
 162              		.align	2
 163              		.globl	_ZN5Riscv10putToSleepEm
 165              	_ZN5Riscv10putToSleepEm:
 166              	.LFB38:
 201:src/riscv.cpp **** 
 202:src/riscv.cpp **** 
 203:src/riscv.cpp **** int Riscv::putToSleep(time_t time) {
 167              		.loc 1 203 36 is_stmt 1
 168              		.cfi_startproc
GAS LISTING /tmp/ccwPpNaf.s 			page 10


 169              	.LVL9:
 204:src/riscv.cpp ****     if(time<=0)return -1;
 170              		.loc 1 204 5
 171 0098 63040510 		beqz	a0,.L18
 203:src/riscv.cpp ****     if(time<=0)return -1;
 172              		.loc 1 203 36 is_stmt 0
 173 009c 130101FE 		addi	sp,sp,-32
 174              		.cfi_def_cfa_offset 32
 175 00a0 233C1100 		sd	ra,24(sp)
 176 00a4 23388100 		sd	s0,16(sp)
 177 00a8 23349100 		sd	s1,8(sp)
 178 00ac 23302101 		sd	s2,0(sp)
 179              		.cfi_offset 1, -8
 180              		.cfi_offset 8, -16
 181              		.cfi_offset 9, -24
 182              		.cfi_offset 18, -32
 183 00b0 13040102 		addi	s0,sp,32
 184              		.cfi_def_cfa 8, 0
 185 00b4 93040500 		mv	s1,a0
 205:src/riscv.cpp ****     TCB::running->setSleeping(true);
 186              		.loc 1 205 5 is_stmt 1
 187              		.loc 1 205 30 is_stmt 0
 188 00b8 17090000 		la	s2,_ZN3TCB7runningE
 188      03390900 
 189 00c0 83370900 		ld	a5,0(s2)
 190              	.LVL10:
 191              	.LBB87:
 192              	.LBB88:
 193              		.file 3 "src/../h/../h/TCB.hpp"
   1:src/../h/../h/TCB.hpp **** //
   2:src/../h/../h/TCB.hpp **** // Created by os on 7/18/23.
   3:src/../h/../h/TCB.hpp **** //
   4:src/../h/../h/TCB.hpp **** 
   5:src/../h/../h/TCB.hpp **** //sa vezbi 7
   6:src/../h/../h/TCB.hpp **** 
   7:src/../h/../h/TCB.hpp **** #ifndef PROJECT_BASE_TCB_HPP
   8:src/../h/../h/TCB.hpp **** #define PROJECT_BASE_TCB_HPP
   9:src/../h/../h/TCB.hpp **** 
  10:src/../h/../h/TCB.hpp **** #include "../lib/hw.h"
  11:src/../h/../h/TCB.hpp **** 
  12:src/../h/../h/TCB.hpp **** class TCB{
  13:src/../h/../h/TCB.hpp **** public:
  14:src/../h/../h/TCB.hpp ****     virtual ~TCB();
  15:src/../h/../h/TCB.hpp **** 
  16:src/../h/../h/TCB.hpp ****     bool isBlocked() const {
  17:src/../h/../h/TCB.hpp ****         return blocked;
  18:src/../h/../h/TCB.hpp ****     }
  19:src/../h/../h/TCB.hpp **** 
  20:src/../h/../h/TCB.hpp ****     void setBlocked(bool blocked) {
  21:src/../h/../h/TCB.hpp ****         TCB::blocked = blocked;
  22:src/../h/../h/TCB.hpp ****     }
  23:src/../h/../h/TCB.hpp **** 
  24:src/../h/../h/TCB.hpp ****     bool isFinished() const{
  25:src/../h/../h/TCB.hpp ****         return finished;
  26:src/../h/../h/TCB.hpp ****     }
  27:src/../h/../h/TCB.hpp **** 
  28:src/../h/../h/TCB.hpp ****     void setFinished(bool finished){
GAS LISTING /tmp/ccwPpNaf.s 			page 11


  29:src/../h/../h/TCB.hpp ****         TCB::finished = finished;
  30:src/../h/../h/TCB.hpp ****     }
  31:src/../h/../h/TCB.hpp **** 
  32:src/../h/../h/TCB.hpp ****     uint64 getTimeSlice() const{
  33:src/../h/../h/TCB.hpp ****         return timeSlice;
  34:src/../h/../h/TCB.hpp ****     }
  35:src/../h/../h/TCB.hpp **** 
  36:src/../h/../h/TCB.hpp ****     bool isSleeping() const {
  37:src/../h/../h/TCB.hpp ****         return sleeping;
  38:src/../h/../h/TCB.hpp ****     }
  39:src/../h/../h/TCB.hpp **** 
  40:src/../h/../h/TCB.hpp ****     void setSleeping(bool sleeping) {
  41:src/../h/../h/TCB.hpp ****         TCB::sleeping = sleeping;
 194              		.loc 3 41 9 is_stmt 1
 195              		.loc 3 41 23 is_stmt 0
 196 00c4 13071000 		li	a4,1
 197 00c8 A380E704 		sb	a4,65(a5)
 198              	.LVL11:
 199              	.LBE88:
 200              	.LBE87:
 206:src/riscv.cpp **** 
 207:src/riscv.cpp ****     SleepingElem* newElem=(SleepingElem*)MemoryAllocator::alloc((sizeof(SleepingElem)+MEM_BLOCK_SIZ
 201              		.loc 1 207 5 is_stmt 1
 202              		.loc 1 207 64 is_stmt 0
 203 00cc 13051000 		li	a0,1
 204              	.LVL12:
 205 00d0 97000000 		call	_ZN15MemoryAllocator5allocEm@plt
 205      E7800000 
 206              	.LVL13:
 208:src/riscv.cpp ****     newElem->thr=TCB::running;
 207              		.loc 1 208 5 is_stmt 1
 208              		.loc 1 208 17 is_stmt 0
 209 00d8 83370900 		ld	a5,0(s2)
 210 00dc 2330F500 		sd	a5,0(a0)
 209:src/riscv.cpp **** 
 210:src/riscv.cpp ****     if(!Riscv::headSleeping){
 211              		.loc 1 210 5 is_stmt 1
 212              	.LBB89:
 213              		.loc 1 210 8 is_stmt 0
 214 00e0 17060000 		ld	a2,.LANCHOR0
 214      03360600 
 215              		.loc 1 210 5
 216 00e8 630C0604 		beqz	a2,.L23
 217              	.LBE89:
 211:src/riscv.cpp ****         newElem->toSleepRel=time;
 212:src/riscv.cpp ****         newElem->next=nullptr;
 213:src/riscv.cpp ****         headSleeping=newElem;
 214:src/riscv.cpp ****     }
 215:src/riscv.cpp ****     else{
 216:src/riscv.cpp ****         if(time<=Riscv::headSleeping->toSleepRel){
 218              		.loc 1 216 9 is_stmt 1
 219              	.LBB93:
 220              	.LBB90:
 221              		.loc 1 216 39 is_stmt 0
 222 00ec 03378600 		ld	a4,8(a2)
 223              		.loc 1 216 9
 224 00f0 63629706 		bltu	a4,s1,.L13
GAS LISTING /tmp/ccwPpNaf.s 			page 12


 217:src/riscv.cpp ****             newElem->toSleepRel=time;
 225              		.loc 1 217 13 is_stmt 1
 226              		.loc 1 217 32 is_stmt 0
 227 00f4 23349500 		sd	s1,8(a0)
 218:src/riscv.cpp ****             newElem->next=Riscv::headSleeping;
 228              		.loc 1 218 13 is_stmt 1
 229              		.loc 1 218 26 is_stmt 0
 230 00f8 2338C500 		sd	a2,16(a0)
 219:src/riscv.cpp ****             headSleeping->toSleepRel-=time;
 231              		.loc 1 219 13 is_stmt 1
 232              		.loc 1 219 37 is_stmt 0
 233 00fc 03378600 		ld	a4,8(a2)
 234 0100 33079740 		sub	a4,a4,s1
 235 0104 2334E600 		sd	a4,8(a2)
 220:src/riscv.cpp ****             headSleeping=newElem;
 236              		.loc 1 220 13 is_stmt 1
 237              		.loc 1 220 25 is_stmt 0
 238 0108 97070000 		sd	a0,.LANCHOR0,a5
 238      23B0A700 
 239              	.L12:
 240              	.LBE90:
 241              	.LBE93:
 221:src/riscv.cpp ****         }
 222:src/riscv.cpp ****         else{
 223:src/riscv.cpp ****             time_t relTime=time-Riscv::headSleeping->toSleepRel;
 224:src/riscv.cpp ****             SleepingElem* pom=headSleeping->next;
 225:src/riscv.cpp ****             SleepingElem* prev=headSleeping;
 226:src/riscv.cpp ****             while(pom!=nullptr && relTime>pom->toSleepRel){
 227:src/riscv.cpp ****                 relTime-=pom->toSleepRel;
 228:src/riscv.cpp ****                 prev=pom;
 229:src/riscv.cpp ****                 pom=pom->next;
 230:src/riscv.cpp ****             }
 231:src/riscv.cpp ****             if(pom==nullptr){
 232:src/riscv.cpp ****                 newElem->next= nullptr;
 233:src/riscv.cpp ****             }
 234:src/riscv.cpp ****             else{
 235:src/riscv.cpp ****                 newElem->next=pom;
 236:src/riscv.cpp ****                 pom->toSleepRel-=relTime;
 237:src/riscv.cpp ****             }
 238:src/riscv.cpp ****             newElem->toSleepRel=relTime;
 239:src/riscv.cpp ****             prev->next=newElem;
 240:src/riscv.cpp ****         }
 241:src/riscv.cpp ****     }
 242:src/riscv.cpp **** 
 243:src/riscv.cpp ****     TCB::timeSliceCounter=0;
 242              		.loc 1 243 5 is_stmt 1
 243              		.loc 1 243 26 is_stmt 0
 244 0110 97070000 		la	a5,_ZN3TCB16timeSliceCounterE
 244      83B70700 
 245 0118 23B00700 		sd	zero,0(a5)
 244:src/riscv.cpp ****     TCB::dispatch();
 246              		.loc 1 244 5 is_stmt 1
 247              		.loc 1 244 18 is_stmt 0
 248 011c 97000000 		call	_ZN3TCB8dispatchEv@plt
 248      E7800000 
 249              	.LVL14:
 245:src/riscv.cpp ****     return 0;
GAS LISTING /tmp/ccwPpNaf.s 			page 13


 250              		.loc 1 245 5 is_stmt 1
 251              		.loc 1 245 12 is_stmt 0
 252 0124 13050000 		li	a0,0
 246:src/riscv.cpp **** }
 253              		.loc 1 246 1
 254 0128 83308101 		ld	ra,24(sp)
 255              		.cfi_remember_state
 256              		.cfi_restore 1
 257 012c 03340101 		ld	s0,16(sp)
 258              		.cfi_restore 8
 259              		.cfi_def_cfa 2, 32
 260 0130 83348100 		ld	s1,8(sp)
 261              		.cfi_restore 9
 262              	.LVL15:
 263 0134 03390100 		ld	s2,0(sp)
 264              		.cfi_restore 18
 265 0138 13010102 		addi	sp,sp,32
 266              		.cfi_def_cfa_offset 0
 267 013c 67800000 		jr	ra
 268              	.LVL16:
 269              	.L23:
 270              		.cfi_restore_state
 271              	.LBB94:
 211:src/riscv.cpp ****         newElem->next=nullptr;
 272              		.loc 1 211 9 is_stmt 1
 211:src/riscv.cpp ****         newElem->next=nullptr;
 273              		.loc 1 211 28 is_stmt 0
 274 0140 23349500 		sd	s1,8(a0)
 212:src/riscv.cpp ****         headSleeping=newElem;
 275              		.loc 1 212 9 is_stmt 1
 212:src/riscv.cpp ****         headSleeping=newElem;
 276              		.loc 1 212 22 is_stmt 0
 277 0144 23380500 		sd	zero,16(a0)
 213:src/riscv.cpp ****     }
 278              		.loc 1 213 9 is_stmt 1
 213:src/riscv.cpp ****     }
 279              		.loc 1 213 21 is_stmt 0
 280 0148 97070000 		sd	a0,.LANCHOR0,a5
 280      23B0A700 
 281 0150 6FF01FFC 		j	.L12
 282              	.L13:
 283              	.LBB92:
 284              	.LBB91:
 223:src/riscv.cpp ****             SleepingElem* pom=headSleeping->next;
 285              		.loc 1 223 13 is_stmt 1
 223:src/riscv.cpp ****             SleepingElem* pom=headSleeping->next;
 286              		.loc 1 223 20 is_stmt 0
 287 0154 3387E440 		sub	a4,s1,a4
 288              	.LVL17:
 224:src/riscv.cpp ****             SleepingElem* prev=headSleeping;
 289              		.loc 1 224 13 is_stmt 1
 224:src/riscv.cpp ****             SleepingElem* prev=headSleeping;
 290              		.loc 1 224 27 is_stmt 0
 291 0158 83370601 		ld	a5,16(a2)
 292              	.LVL18:
 225:src/riscv.cpp ****             while(pom!=nullptr && relTime>pom->toSleepRel){
 293              		.loc 1 225 13 is_stmt 1
GAS LISTING /tmp/ccwPpNaf.s 			page 14


 294              	.L15:
 226:src/riscv.cpp ****                 relTime-=pom->toSleepRel;
 295              		.loc 1 226 13
 226:src/riscv.cpp ****                 relTime-=pom->toSleepRel;
 296              		.loc 1 226 32
 297 015c 638E0700 		beqz	a5,.L14
 226:src/riscv.cpp ****                 relTime-=pom->toSleepRel;
 298              		.loc 1 226 48 is_stmt 0 discriminator 1
 299 0160 83B68700 		ld	a3,8(a5)
 226:src/riscv.cpp ****                 relTime-=pom->toSleepRel;
 300              		.loc 1 226 32 discriminator 1
 301 0164 63FAE600 		bgeu	a3,a4,.L14
 227:src/riscv.cpp ****                 prev=pom;
 302              		.loc 1 227 17 is_stmt 1
 227:src/riscv.cpp ****                 prev=pom;
 303              		.loc 1 227 24 is_stmt 0
 304 0168 3307D740 		sub	a4,a4,a3
 305              	.LVL19:
 228:src/riscv.cpp ****                 pom=pom->next;
 306              		.loc 1 228 17 is_stmt 1
 229:src/riscv.cpp ****             }
 307              		.loc 1 229 17
 228:src/riscv.cpp ****                 pom=pom->next;
 308              		.loc 1 228 21 is_stmt 0
 309 016c 13860700 		mv	a2,a5
 229:src/riscv.cpp ****             }
 310              		.loc 1 229 20
 311 0170 83B70701 		ld	a5,16(a5)
 312              	.LVL20:
 226:src/riscv.cpp ****                 relTime-=pom->toSleepRel;
 313              		.loc 1 226 13
 314 0174 6FF09FFE 		j	.L15
 315              	.L14:
 231:src/riscv.cpp ****                 newElem->next= nullptr;
 316              		.loc 1 231 13 is_stmt 1
 317 0178 63800702 		beqz	a5,.L24
 235:src/riscv.cpp ****                 pom->toSleepRel-=relTime;
 318              		.loc 1 235 17
 235:src/riscv.cpp ****                 pom->toSleepRel-=relTime;
 319              		.loc 1 235 30 is_stmt 0
 320 017c 2338F500 		sd	a5,16(a0)
 236:src/riscv.cpp ****             }
 321              		.loc 1 236 17 is_stmt 1
 236:src/riscv.cpp ****             }
 322              		.loc 1 236 32 is_stmt 0
 323 0180 83B68700 		ld	a3,8(a5)
 324 0184 B386E640 		sub	a3,a3,a4
 325 0188 23B4D700 		sd	a3,8(a5)
 326              	.L17:
 238:src/riscv.cpp ****             prev->next=newElem;
 327              		.loc 1 238 13 is_stmt 1
 238:src/riscv.cpp ****             prev->next=newElem;
 328              		.loc 1 238 32 is_stmt 0
 329 018c 2334E500 		sd	a4,8(a0)
 239:src/riscv.cpp ****         }
 330              		.loc 1 239 13 is_stmt 1
 239:src/riscv.cpp ****         }
GAS LISTING /tmp/ccwPpNaf.s 			page 15


 331              		.loc 1 239 23 is_stmt 0
 332 0190 2338A600 		sd	a0,16(a2)
 333 0194 6FF0DFF7 		j	.L12
 334              	.L24:
 232:src/riscv.cpp ****             }
 335              		.loc 1 232 17 is_stmt 1
 232:src/riscv.cpp ****             }
 336              		.loc 1 232 30 is_stmt 0
 337 0198 23380500 		sd	zero,16(a0)
 338 019c 6FF01FFF 		j	.L17
 339              	.LVL21:
 340              	.L18:
 341              		.cfi_def_cfa_register 2
 342              		.cfi_restore 1
 343              		.cfi_restore 8
 344              		.cfi_restore 9
 345              		.cfi_restore 18
 346              	.LBE91:
 347              	.LBE92:
 348              	.LBE94:
 204:src/riscv.cpp ****     TCB::running->setSleeping(true);
 349              		.loc 1 204 24
 350 01a0 1305F0FF 		li	a0,-1
 351              	.LVL22:
 352              		.loc 1 246 1
 353 01a4 67800000 		ret
 354              		.cfi_endproc
 355              	.LFE38:
 357              		.section	.rodata.str1.8,"aMS",@progbits,1
 358              		.align	3
 359              	.LC0:
 360 0000 47524553 		.string	"GRESKA:"
 360      4B413A00 
 361              		.align	3
 362              	.LC1:
 363 0008 0A00     		.string	"\n"
 364              		.text
 365              		.align	2
 366              		.globl	_ZN5Riscv20handleEcallExceptionEv
 368              	_ZN5Riscv20handleEcallExceptionEv:
 369              	.LFB34:
  15:src/riscv.cpp ****     uint64 scause=r_scause();
 370              		.loc 1 15 35 is_stmt 1
 371              		.cfi_startproc
 372 01a8 130101F9 		addi	sp,sp,-112
 373              		.cfi_def_cfa_offset 112
 374 01ac 23341106 		sd	ra,104(sp)
 375 01b0 23308106 		sd	s0,96(sp)
 376 01b4 233C9104 		sd	s1,88(sp)
 377              		.cfi_offset 1, -8
 378              		.cfi_offset 8, -16
 379              		.cfi_offset 9, -24
 380 01b8 13040107 		addi	s0,sp,112
 381              		.cfi_def_cfa 8, 0
  16:src/riscv.cpp **** 
 382              		.loc 1 16 5
 383              	.LBB95:
GAS LISTING /tmp/ccwPpNaf.s 			page 16


 384              	.LBB96:
  74:src/../h/riscv.hpp ****     __asm__ volatile("csrr %[scause], scause":[scause]"=r"(scause));
 385              		.loc 2 74 5
  75:src/../h/riscv.hpp ****     return scause;
 386              		.loc 2 75 5
  75:src/../h/riscv.hpp ****     return scause;
 387              		.loc 2 75 68 is_stmt 0
 388              	#APP
 389              	# 75 "src/../h/riscv.hpp" 1
 390              		csrr a5, scause
 391              	# 0 "" 2
 392              	#NO_APP
 393 01c0 2330F4FA 		sd	a5,-96(s0)
  76:src/../h/riscv.hpp **** }
 394              		.loc 2 76 5 is_stmt 1
  76:src/../h/riscv.hpp **** }
 395              		.loc 2 76 12 is_stmt 0
 396 01c4 833404FA 		ld	s1,-96(s0)
 397              	.LVL23:
 398              	.LBE96:
 399              	.LBE95:
  18:src/riscv.cpp ****     __asm__ volatile("ld %0, 0x50(fp)": "=r"(a0));
 400              		.loc 1 18 5 is_stmt 1
  19:src/riscv.cpp ****     uint64 volatile a1;
 401              		.loc 1 19 5
  19:src/riscv.cpp ****     uint64 volatile a1;
 402              		.loc 1 19 50 is_stmt 0
 403              	#APP
 404              	# 19 "src/riscv.cpp" 1
 405              		ld a5, 0x50(fp)
 406              	# 0 "" 2
 407              	#NO_APP
 408 01cc 233CF4FC 		sd	a5,-40(s0)
  20:src/riscv.cpp ****     __asm__ volatile("ld %0, 0x58(fp)": "=r"(a1));
 409              		.loc 1 20 5 is_stmt 1
  21:src/riscv.cpp ****     uint64 volatile a2;
 410              		.loc 1 21 5
  21:src/riscv.cpp ****     uint64 volatile a2;
 411              		.loc 1 21 50 is_stmt 0
 412              	#APP
 413              	# 21 "src/riscv.cpp" 1
 414              		ld a5, 0x58(fp)
 415              	# 0 "" 2
 416              	#NO_APP
 417 01d4 2338F4FC 		sd	a5,-48(s0)
  22:src/riscv.cpp ****     __asm__ volatile("ld %0, 0x60(fp)": "=r"(a2));
 418              		.loc 1 22 5 is_stmt 1
  23:src/riscv.cpp ****     uint64 volatile a3;
 419              		.loc 1 23 5
  23:src/riscv.cpp ****     uint64 volatile a3;
 420              		.loc 1 23 50 is_stmt 0
 421              	#APP
 422              	# 23 "src/riscv.cpp" 1
 423              		ld a5, 0x60(fp)
 424              	# 0 "" 2
 425              	#NO_APP
 426 01dc 2334F4FC 		sd	a5,-56(s0)
GAS LISTING /tmp/ccwPpNaf.s 			page 17


  24:src/riscv.cpp ****     __asm__ volatile("ld %0, 0x68(fp)": "=r"(a3));
 427              		.loc 1 24 5 is_stmt 1
  25:src/riscv.cpp ****     uint64 volatile a4;
 428              		.loc 1 25 5
  25:src/riscv.cpp ****     uint64 volatile a4;
 429              		.loc 1 25 50 is_stmt 0
 430              	#APP
 431              	# 25 "src/riscv.cpp" 1
 432              		ld a5, 0x68(fp)
 433              	# 0 "" 2
 434              	#NO_APP
 435 01e4 2330F4FC 		sd	a5,-64(s0)
  26:src/riscv.cpp ****     __asm__ volatile("ld %0, 0x70(fp)": "=r"(a4));
 436              		.loc 1 26 5 is_stmt 1
  27:src/riscv.cpp **** 
 437              		.loc 1 27 5
  27:src/riscv.cpp **** 
 438              		.loc 1 27 50 is_stmt 0
 439              	#APP
 440              	# 27 "src/riscv.cpp" 1
 441              		ld a5, 0x70(fp)
 442              	# 0 "" 2
 443              	#NO_APP
 444 01ec 233CF4FA 		sd	a5,-72(s0)
  29:src/riscv.cpp ****         //09 iz sist rezima, 08 iz korisnickog
 445              		.loc 1 29 5 is_stmt 1
 446              	.LBB97:
  29:src/riscv.cpp ****         //09 iz sist rezima, 08 iz korisnickog
 447              		.loc 1 29 23 is_stmt 0
 448 01f0 138784FF 		addi	a4,s1,-8
  29:src/riscv.cpp ****         //09 iz sist rezima, 08 iz korisnickog
 449              		.loc 1 29 5
 450 01f4 93071000 		li	a5,1
 451 01f8 63E2E722 		bgtu	a4,a5,.L26
 452              	.LBB98:
  31:src/riscv.cpp ****         uint64 volatile sstatus=r_sstatus();
 453              		.loc 1 31 9 is_stmt 1
 454              	.LBB99:
 455              	.LBB100:
  83:src/../h/riscv.hpp ****     __asm__ volatile("csrr %[sepc], sepc":[sepc]"=r"(sepc));
 456              		.loc 2 83 5
  84:src/../h/riscv.hpp ****     return sepc;
 457              		.loc 2 84 5
  84:src/../h/riscv.hpp ****     return sepc;
 458              		.loc 2 84 60 is_stmt 0
 459              	#APP
 460              	# 84 "src/../h/riscv.hpp" 1
 461              		csrr a5, sepc
 462              	# 0 "" 2
 463              	#NO_APP
 464 0200 2338F4FA 		sd	a5,-80(s0)
  85:src/../h/riscv.hpp **** }
 465              		.loc 2 85 5 is_stmt 1
  85:src/../h/riscv.hpp **** }
 466              		.loc 2 85 12 is_stmt 0
 467 0204 833704FB 		ld	a5,-80(s0)
 468              	.LBE100:
GAS LISTING /tmp/ccwPpNaf.s 			page 18


 469              	.LBE99:
  31:src/riscv.cpp ****         uint64 volatile sstatus=r_sstatus();
 470              		.loc 1 31 38
 471 0208 93874700 		addi	a5,a5,4
  31:src/riscv.cpp ****         uint64 volatile sstatus=r_sstatus();
 472              		.loc 1 31 39
 473 020c 2338F4F8 		sd	a5,-112(s0)
  32:src/riscv.cpp **** 
 474              		.loc 1 32 9 is_stmt 1
 475              	.LBB101:
 476              	.LBB102:
 129:src/../h/riscv.hpp ****     __asm__ volatile("csrr %[sstatus], sstatus":[sstatus]"=r"(sstatus));
 477              		.loc 2 129 5
 130:src/../h/riscv.hpp ****     return sstatus;
 478              		.loc 2 130 5
 130:src/../h/riscv.hpp ****     return sstatus;
 479              		.loc 2 130 72 is_stmt 0
 480              	#APP
 481              	# 130 "src/../h/riscv.hpp" 1
 482              		csrr a5, sstatus
 483              	# 0 "" 2
 484              	#NO_APP
 485 0214 2334F4FA 		sd	a5,-88(s0)
 131:src/../h/riscv.hpp **** }
 486              		.loc 2 131 5 is_stmt 1
 131:src/../h/riscv.hpp **** }
 487              		.loc 2 131 12 is_stmt 0
 488 0218 833784FA 		ld	a5,-88(s0)
 489              	.LBE102:
 490              	.LBE101:
  32:src/riscv.cpp **** 
 491              		.loc 1 32 43
 492 021c 233CF4F8 		sd	a5,-104(s0)
  34:src/riscv.cpp ****             //mem_alloc
 493              		.loc 1 34 9 is_stmt 1
 494              	.LBB103:
  34:src/riscv.cpp ****             //mem_alloc
 495              		.loc 1 34 14 is_stmt 0
 496 0220 033784FD 		ld	a4,-40(s0)
  34:src/riscv.cpp ****             //mem_alloc
 497              		.loc 1 34 9
 498 0224 93071000 		li	a5,1
 499 0228 6304F70A 		beq	a4,a5,.L45
 500              	.LBE103:
 501              	.LBE98:
 502              	.LBE97:
  39:src/riscv.cpp ****             //mem_free
 503              		.loc 1 39 14 is_stmt 1
 504              	.LBB237:
 505              	.LBB224:
 506              	.LBB207:
 507              	.LBB104:
  39:src/riscv.cpp ****             //mem_free
 508              		.loc 1 39 19 is_stmt 0
 509 022c 033784FD 		ld	a4,-40(s0)
  39:src/riscv.cpp ****             //mem_free
 510              		.loc 1 39 14
GAS LISTING /tmp/ccwPpNaf.s 			page 19


 511 0230 93072000 		li	a5,2
 512 0234 6308F70C 		beq	a4,a5,.L46
 513              	.LBE104:
 514              	.LBE207:
 515              	.LBE224:
 516              	.LBE237:
  45:src/riscv.cpp ****             /*thread_create
 517              		.loc 1 45 14 is_stmt 1
 518              	.LBB238:
 519              	.LBB225:
 520              	.LBB208:
 521              	.LBB194:
 522              	.LBB105:
  45:src/riscv.cpp ****             /*thread_create
 523              		.loc 1 45 19 is_stmt 0
 524 0238 033784FD 		ld	a4,-40(s0)
  45:src/riscv.cpp ****             /*thread_create
 525              		.loc 1 45 14
 526 023c 93071001 		li	a5,17
 527 0240 630CF70C 		beq	a4,a5,.L47
 528              	.LBE105:
 529              	.LBE194:
 530              	.LBE208:
 531              	.LBE225:
 532              	.LBE238:
  66:src/riscv.cpp ****             //thread_exit()
 533              		.loc 1 66 14 is_stmt 1
 534              	.LBB239:
 535              	.LBB226:
 536              	.LBB209:
 537              	.LBB195:
 538              	.LBB182:
 539              	.LBB106:
  66:src/riscv.cpp ****             //thread_exit()
 540              		.loc 1 66 19 is_stmt 0
 541 0244 033784FD 		ld	a4,-40(s0)
  66:src/riscv.cpp ****             //thread_exit()
 542              		.loc 1 66 14
 543 0248 93072001 		li	a5,18
 544 024c 6302F710 		beq	a4,a5,.L48
 545              	.LBE106:
 546              	.LBE182:
 547              	.LBE195:
 548              	.LBE209:
 549              	.LBE226:
 550              	.LBE239:
  80:src/riscv.cpp ****             //thread_dispatch()
 551              		.loc 1 80 14 is_stmt 1
 552              	.LBB240:
 553              	.LBB227:
 554              	.LBB210:
 555              	.LBB196:
 556              	.LBB183:
 557              	.LBB169:
 558              	.LBB107:
  80:src/riscv.cpp ****             //thread_dispatch()
 559              		.loc 1 80 19 is_stmt 0
GAS LISTING /tmp/ccwPpNaf.s 			page 20


 560 0250 033784FD 		ld	a4,-40(s0)
  80:src/riscv.cpp ****             //thread_dispatch()
 561              		.loc 1 80 14
 562 0254 93073001 		li	a5,19
 563 0258 6304F710 		beq	a4,a5,.L49
 564              	.LBE107:
 565              	.LBE169:
 566              	.LBE183:
 567              	.LBE196:
 568              	.LBE210:
 569              	.LBE227:
 570              	.LBE240:
  85:src/riscv.cpp ****             //char getc();
 571              		.loc 1 85 14 is_stmt 1
 572              	.LBB241:
 573              	.LBB228:
 574              	.LBB211:
 575              	.LBB197:
 576              	.LBB184:
 577              	.LBB170:
 578              	.LBB159:
 579              	.LBB108:
  85:src/riscv.cpp ****             //char getc();
 580              		.loc 1 85 19 is_stmt 0
 581 025c 033784FD 		ld	a4,-40(s0)
  85:src/riscv.cpp ****             //char getc();
 582              		.loc 1 85 14
 583 0260 93071004 		li	a5,65
 584 0264 630AF710 		beq	a4,a5,.L50
 585              	.LBE108:
 586              	.LBE159:
 587              	.LBE170:
 588              	.LBE184:
 589              	.LBE197:
 590              	.LBE211:
 591              	.LBE228:
 592              	.LBE241:
  90:src/riscv.cpp ****             //void putc()
 593              		.loc 1 90 14 is_stmt 1
 594              	.LBB242:
 595              	.LBB229:
 596              	.LBB212:
 597              	.LBB198:
 598              	.LBB185:
 599              	.LBB171:
 600              	.LBB160:
 601              	.LBB151:
 602              	.LBB109:
  90:src/riscv.cpp ****             //void putc()
 603              		.loc 1 90 19 is_stmt 0
 604 0268 033784FD 		ld	a4,-40(s0)
  90:src/riscv.cpp ****             //void putc()
 605              		.loc 1 90 14
 606 026c 93072004 		li	a5,66
 607 0270 630CF710 		beq	a4,a5,.L51
 608              	.LBE109:
 609              	.LBE151:
GAS LISTING /tmp/ccwPpNaf.s 			page 21


 610              	.LBE160:
 611              	.LBE171:
 612              	.LBE185:
 613              	.LBE198:
 614              	.LBE212:
 615              	.LBE229:
 616              	.LBE242:
  95:src/riscv.cpp ****             //sem_open
 617              		.loc 1 95 14 is_stmt 1
 618              	.LBB243:
 619              	.LBB230:
 620              	.LBB213:
 621              	.LBB199:
 622              	.LBB186:
 623              	.LBB172:
 624              	.LBB161:
 625              	.LBB152:
 626              	.LBB143:
 627              	.LBB110:
  95:src/riscv.cpp ****             //sem_open
 628              		.loc 1 95 19 is_stmt 0
 629 0274 033784FD 		ld	a4,-40(s0)
  95:src/riscv.cpp ****             //sem_open
 630              		.loc 1 95 14
 631 0278 93071002 		li	a5,33
 632 027c 6300F712 		beq	a4,a5,.L52
 633              	.LBE110:
 634              	.LBE143:
 635              	.LBE152:
 636              	.LBE161:
 637              	.LBE172:
 638              	.LBE186:
 639              	.LBE199:
 640              	.LBE213:
 641              	.LBE230:
 642              	.LBE243:
 109:src/riscv.cpp ****             //sem_wait(sem_t id)
 643              		.loc 1 109 14 is_stmt 1
 644              	.LBB244:
 645              	.LBB231:
 646              	.LBB214:
 647              	.LBB200:
 648              	.LBB187:
 649              	.LBB173:
 650              	.LBB162:
 651              	.LBB153:
 652              	.LBB144:
 653              	.LBB137:
 654              	.LBB111:
 109:src/riscv.cpp ****             //sem_wait(sem_t id)
 655              		.loc 1 109 19 is_stmt 0
 656 0280 033784FD 		ld	a4,-40(s0)
 109:src/riscv.cpp ****             //sem_wait(sem_t id)
 657              		.loc 1 109 14
 658 0284 93073002 		li	a5,35
 659 0288 6304F714 		beq	a4,a5,.L53
 660              	.LBE111:
GAS LISTING /tmp/ccwPpNaf.s 			page 22


 661              	.LBE137:
 662              	.LBE144:
 663              	.LBE153:
 664              	.LBE162:
 665              	.LBE173:
 666              	.LBE187:
 667              	.LBE200:
 668              	.LBE214:
 669              	.LBE231:
 670              	.LBE244:
 115:src/riscv.cpp ****             //sem_close(sem_t handle)
 671              		.loc 1 115 14 is_stmt 1
 672              	.LBB245:
 673              	.LBB232:
 674              	.LBB215:
 675              	.LBB201:
 676              	.LBB188:
 677              	.LBB174:
 678              	.LBB163:
 679              	.LBB154:
 680              	.LBB145:
 681              	.LBB138:
 682              	.LBB129:
 683              	.LBB112:
 115:src/riscv.cpp ****             //sem_close(sem_t handle)
 684              		.loc 1 115 19 is_stmt 0
 685 028c 033784FD 		ld	a4,-40(s0)
 115:src/riscv.cpp ****             //sem_close(sem_t handle)
 686              		.loc 1 115 14
 687 0290 93072002 		li	a5,34
 688 0294 6308F714 		beq	a4,a5,.L54
 689              	.LBE112:
 690              	.LBE129:
 691              	.LBE138:
 692              	.LBE145:
 693              	.LBE154:
 694              	.LBE163:
 695              	.LBE174:
 696              	.LBE188:
 697              	.LBE201:
 698              	.LBE215:
 699              	.LBE232:
 700              	.LBE245:
 121:src/riscv.cpp ****             //sem_signal(sem_t id)
 701              		.loc 1 121 14 is_stmt 1
 702              	.LBB246:
 703              	.LBB233:
 704              	.LBB216:
 705              	.LBB202:
 706              	.LBB189:
 707              	.LBB175:
 708              	.LBB164:
 709              	.LBB155:
 710              	.LBB146:
 711              	.LBB139:
 712              	.LBB130:
 713              	.LBB124:
GAS LISTING /tmp/ccwPpNaf.s 			page 23


 714              	.LBB113:
 121:src/riscv.cpp ****             //sem_signal(sem_t id)
 715              		.loc 1 121 19 is_stmt 0
 716 0298 033784FD 		ld	a4,-40(s0)
 121:src/riscv.cpp ****             //sem_signal(sem_t id)
 717              		.loc 1 121 14
 718 029c 93074002 		li	a5,36
 719 02a0 630CF714 		beq	a4,a5,.L55
 720              	.LBE113:
 721              	.LBE124:
 722              	.LBE130:
 723              	.LBE139:
 724              	.LBE146:
 725              	.LBE155:
 726              	.LBE164:
 727              	.LBE175:
 728              	.LBE189:
 729              	.LBE202:
 730              	.LBE216:
 731              	.LBE233:
 732              	.LBE246:
 127:src/riscv.cpp ****             //thread_join(thread_t)
 733              		.loc 1 127 14 is_stmt 1
 734              	.LBB247:
 735              	.LBB234:
 736              	.LBB217:
 737              	.LBB203:
 738              	.LBB190:
 739              	.LBB176:
 740              	.LBB165:
 741              	.LBB156:
 742              	.LBB147:
 743              	.LBB140:
 744              	.LBB131:
 745              	.LBB125:
 746              	.LBB120:
 747              	.LBB114:
 127:src/riscv.cpp ****             //thread_join(thread_t)
 748              		.loc 1 127 19 is_stmt 0
 749 02a4 033784FD 		ld	a4,-40(s0)
 127:src/riscv.cpp ****             //thread_join(thread_t)
 750              		.loc 1 127 14
 751 02a8 93074001 		li	a5,20
 752 02ac 6300F716 		beq	a4,a5,.L56
 753              	.LBE114:
 754              	.LBE120:
 755              	.LBE125:
 756              	.LBE131:
 757              	.LBE140:
 758              	.LBE147:
 759              	.LBE156:
 760              	.LBE165:
 761              	.LBE176:
 762              	.LBE190:
 763              	.LBE203:
 764              	.LBE217:
 765              	.LBE234:
GAS LISTING /tmp/ccwPpNaf.s 			page 24


 766              	.LBE247:
 131:src/riscv.cpp ****             //time_sleep(time_t)
 767              		.loc 1 131 14 is_stmt 1
 768              	.LBB248:
 769              	.LBB235:
 770              	.LBB218:
 771              	.LBB204:
 772              	.LBB191:
 773              	.LBB177:
 774              	.LBB166:
 775              	.LBB157:
 776              	.LBB148:
 777              	.LBB141:
 778              	.LBB132:
 779              	.LBB126:
 780              	.LBB121:
 781              	.LBB117:
 782              	.LBB115:
 131:src/riscv.cpp ****             //time_sleep(time_t)
 783              		.loc 1 131 19 is_stmt 0
 784 02b0 033784FD 		ld	a4,-40(s0)
 131:src/riscv.cpp ****             //time_sleep(time_t)
 785              		.loc 1 131 14
 786 02b4 93071003 		li	a5,49
 787 02b8 6314F702 		bne	a4,a5,.L28
 788              	.LBB116:
 133:src/riscv.cpp ****             int stat=Riscv::putToSleep(time);
 789              		.loc 1 133 13 is_stmt 1
 133:src/riscv.cpp ****             int stat=Riscv::putToSleep(time);
 790              		.loc 1 133 33 is_stmt 0
 791 02bc 033504FD 		ld	a0,-48(s0)
 792              	.LVL24:
 134:src/riscv.cpp ****             __asm__ volatile("sd %0, 0x50(fp)": : "r"(stat));
 793              		.loc 1 134 13 is_stmt 1
 134:src/riscv.cpp ****             __asm__ volatile("sd %0, 0x50(fp)": : "r"(stat));
 794              		.loc 1 134 39 is_stmt 0
 795 02c0 97000000 		call	_ZN5Riscv10putToSleepEm
 795      E7800000 
 796              	.LVL25:
 135:src/riscv.cpp ****         }
 797              		.loc 1 135 13 is_stmt 1
 135:src/riscv.cpp ****         }
 798              		.loc 1 135 61 is_stmt 0
 799              	#APP
 800              	# 135 "src/riscv.cpp" 1
 801              		sd a0, 0x50(fp)
 802              	# 0 "" 2
 803              	#NO_APP
 804              	.LBE116:
 805 02cc 6F004001 		j	.L28
 806              	.LVL26:
 807              	.L45:
 808              	.LBE115:
 809              	.LBE117:
 810              	.LBE121:
 811              	.LBE126:
 812              	.LBE132:
GAS LISTING /tmp/ccwPpNaf.s 			page 25


 813              	.LBE141:
 814              	.LBE148:
 815              	.LBE157:
 816              	.LBE166:
 817              	.LBE177:
 818              	.LBE191:
 819              	.LBE204:
 820              	.LBB205:
  36:src/riscv.cpp ****             __asm__ volatile("sd %0, 0x50(fp)": : "r"((uint64)ptr));
 821              		.loc 1 36 13 is_stmt 1
  36:src/riscv.cpp ****             __asm__ volatile("sd %0, 0x50(fp)": : "r"((uint64)ptr));
 822              		.loc 1 36 45 is_stmt 0
 823 02d0 033504FD 		ld	a0,-48(s0)
 824 02d4 97000000 		call	_ZN15MemoryAllocator5allocEm@plt
 824      E7800000 
 825              	.LVL27:
  37:src/riscv.cpp ****         }
 826              		.loc 1 37 13 is_stmt 1
  37:src/riscv.cpp ****         }
 827              		.loc 1 37 68 is_stmt 0
 828              	#APP
 829              	# 37 "src/riscv.cpp" 1
 830              		sd a0, 0x50(fp)
 831              	# 0 "" 2
 832              	.LVL28:
 833              	#NO_APP
 834              	.L28:
 835              	.LBE205:
 836              	.LBE218:
 138:src/riscv.cpp ****         w_sepc(sepc);
 837              		.loc 1 138 9 is_stmt 1
 138:src/riscv.cpp ****         w_sepc(sepc);
 838              		.loc 1 138 18 is_stmt 0
 839 02e0 833784F9 		ld	a5,-104(s0)
 840              	.LVL29:
 841              	.LBB219:
 842              	.LBB220:
 134:src/../h/riscv.hpp **** }
 843              		.loc 2 134 5 is_stmt 1
 134:src/../h/riscv.hpp **** }
 844              		.loc 2 134 72 is_stmt 0
 845              	#APP
 846              	# 134 "src/../h/riscv.hpp" 1
 847              		csrw sstatus, a5
 848              	# 0 "" 2
 849              	.LVL30:
 850              	#NO_APP
 851              	.LBE220:
 852              	.LBE219:
 139:src/riscv.cpp ****     }
 853              		.loc 1 139 9 is_stmt 1
 139:src/riscv.cpp ****     }
 854              		.loc 1 139 15 is_stmt 0
 855 02e8 833704F9 		ld	a5,-112(s0)
 856              	.LVL31:
 857              	.LBB221:
 858              	.LBB222:
GAS LISTING /tmp/ccwPpNaf.s 			page 26


  88:src/../h/riscv.hpp **** }
 859              		.loc 2 88 5 is_stmt 1
  88:src/../h/riscv.hpp **** }
 860              		.loc 2 88 60 is_stmt 0
 861              	#APP
 862              	# 88 "src/../h/riscv.hpp" 1
 863              		csrw sepc, a5
 864              	# 0 "" 2
 865              	.LVL32:
 866              	#NO_APP
 867              	.LBE222:
 868              	.LBE221:
 869              	.LBE235:
 870              	.LBE248:
 149:src/riscv.cpp **** 
 871              		.loc 1 149 1
 872 02f0 83308106 		ld	ra,104(sp)
 873              		.cfi_remember_state
 874              		.cfi_restore 1
 875 02f4 03340106 		ld	s0,96(sp)
 876              		.cfi_restore 8
 877              		.cfi_def_cfa 2, 112
 878 02f8 83348105 		ld	s1,88(sp)
 879              		.cfi_restore 9
 880              	.LVL33:
 881 02fc 13010107 		addi	sp,sp,112
 882              		.cfi_def_cfa_offset 0
 883 0300 67800000 		jr	ra
 884              	.LVL34:
 885              	.L46:
 886              		.cfi_restore_state
 887              	.LBB249:
 888              	.LBB236:
 889              	.LBB223:
 890              	.LBB206:
 891              	.LBB192:
  41:src/riscv.cpp ****             __asm__ volatile("sd %0, 0x50(fp)": : "r"(stat));
 892              		.loc 1 41 13 is_stmt 1
  41:src/riscv.cpp ****             __asm__ volatile("sd %0, 0x50(fp)": : "r"(stat));
 893              		.loc 1 41 43 is_stmt 0
 894 0304 033504FD 		ld	a0,-48(s0)
 895 0308 97000000 		call	_ZN15MemoryAllocator4freeEPv@plt
 895      E7800000 
 896              	.LVL35:
  42:src/riscv.cpp ****         }
 897              		.loc 1 42 13 is_stmt 1
  42:src/riscv.cpp ****         }
 898              		.loc 1 42 61 is_stmt 0
 899              	#APP
 900              	# 42 "src/riscv.cpp" 1
 901              		sd a0, 0x50(fp)
 902              	# 0 "" 2
 903              	#NO_APP
 904              	.LBE192:
 905 0314 6FF0DFFC 		j	.L28
 906              	.LVL36:
 907              	.L47:
GAS LISTING /tmp/ccwPpNaf.s 			page 27


 908              	.LBB193:
 909              	.LBB178:
  53:src/riscv.cpp **** 
 910              		.loc 1 53 13 is_stmt 1
  53:src/riscv.cpp **** 
 911              		.loc 1 53 43 is_stmt 0
 912 0318 033584FC 		ld	a0,-56(s0)
 913 031c 833584FB 		ld	a1,-72(s0)
 914 0320 033604FC 		ld	a2,-64(s0)
 915 0324 97000000 		call	_ZN3TCB12createThreadEPFvPvEPmS0_@plt
 915      E7800000 
 916              	.LVL37:
  55:src/riscv.cpp ****                 __asm__ volatile("sd %0, 0x50(fp)": : "r"(-1));
 917              		.loc 1 55 13 is_stmt 1
 918              	.LBB179:
 919 032c 630C0500 		beqz	a0,.L57
 920              	.LBB180:
  60:src/riscv.cpp ****                 *retHandle=handle;
 921              		.loc 1 60 17
  60:src/riscv.cpp ****                 *retHandle=handle;
 922              		.loc 1 60 40 is_stmt 0
 923 0330 033704FD 		ld	a4,-48(s0)
 924              	.LVL38:
  61:src/riscv.cpp ****                 __asm__ volatile("sd %0, 0x50(fp)": : "r"(0));
 925              		.loc 1 61 17 is_stmt 1
  61:src/riscv.cpp ****                 __asm__ volatile("sd %0, 0x50(fp)": : "r"(0));
 926              		.loc 1 61 27 is_stmt 0
 927 0334 2330A700 		sd	a0,0(a4)
  62:src/riscv.cpp ****             }
 928              		.loc 1 62 17 is_stmt 1
  62:src/riscv.cpp ****             }
 929              		.loc 1 62 62 is_stmt 0
 930 0338 93070000 		li	a5,0
 931              	#APP
 932              	# 62 "src/riscv.cpp" 1
 933              		sd a5, 0x50(fp)
 934              	# 0 "" 2
 935              	#NO_APP
 936 0340 6FF01FFA 		j	.L28
 937              	.LVL39:
 938              	.L57:
 939              	.LBE180:
  56:src/riscv.cpp ****             }
 940              		.loc 1 56 17 is_stmt 1
  56:src/riscv.cpp ****             }
 941              		.loc 1 56 63 is_stmt 0
 942 0344 9307F0FF 		li	a5,-1
 943              	#APP
 944              	# 56 "src/riscv.cpp" 1
 945              		sd a5, 0x50(fp)
 946              	# 0 "" 2
 947              	#NO_APP
 948 034c 6FF05FF9 		j	.L28
 949              	.LVL40:
 950              	.L48:
 951              	.LBE179:
 952              	.LBE178:
GAS LISTING /tmp/ccwPpNaf.s 			page 28


 953              	.LBB181:
 954              	.LBB167:
  77:src/riscv.cpp ****             __asm__ volatile("sd %0, 0x50(fp)": : "r"(stat));
 955              		.loc 1 77 13 is_stmt 1
  77:src/riscv.cpp ****             __asm__ volatile("sd %0, 0x50(fp)": : "r"(stat));
 956              		.loc 1 77 31 is_stmt 0
 957 0350 97000000 		call	_ZN3TCB4exitEv@plt
 957      E7800000 
 958              	.LVL41:
  78:src/riscv.cpp ****         }
 959              		.loc 1 78 13 is_stmt 1
  78:src/riscv.cpp ****         }
 960              		.loc 1 78 61 is_stmt 0
 961              	#APP
 962              	# 78 "src/riscv.cpp" 1
 963              		sd a0, 0x50(fp)
 964              	# 0 "" 2
 965              	#NO_APP
 966              	.LBE167:
 967 035c 6FF05FF8 		j	.L28
 968              	.LVL42:
 969              	.L49:
 970              	.LBB168:
  82:src/riscv.cpp ****             TCB::dispatch();
 971              		.loc 1 82 13 is_stmt 1
  82:src/riscv.cpp ****             TCB::dispatch();
 972              		.loc 1 82 34 is_stmt 0
 973 0360 97070000 		la	a5,_ZN3TCB16timeSliceCounterE
 973      83B70700 
 974 0368 23B00700 		sd	zero,0(a5)
  83:src/riscv.cpp ****         }
 975              		.loc 1 83 13 is_stmt 1
  83:src/riscv.cpp ****         }
 976              		.loc 1 83 26 is_stmt 0
 977 036c 97000000 		call	_ZN3TCB8dispatchEv@plt
 977      E7800000 
 978              	.LVL43:
 979 0374 6FF0DFF6 		j	.L28
 980              	.L50:
 981              	.LBB158:
 982              	.LBB149:
  87:src/riscv.cpp ****             __asm__ volatile("sd %0, 0x50(fp)": : "r"(c));
 983              		.loc 1 87 13 is_stmt 1
  87:src/riscv.cpp ****             __asm__ volatile("sd %0, 0x50(fp)": : "r"(c));
 984              		.loc 1 87 26 is_stmt 0
 985 0378 97000000 		call	__getc@plt
 985      E7800000 
 986              	.LVL44:
  88:src/riscv.cpp ****         }
 987              		.loc 1 88 13 is_stmt 1
  88:src/riscv.cpp ****         }
 988              		.loc 1 88 58 is_stmt 0
 989              	#APP
 990              	# 88 "src/riscv.cpp" 1
 991              		sd a0, 0x50(fp)
 992              	# 0 "" 2
 993              	#NO_APP
GAS LISTING /tmp/ccwPpNaf.s 			page 29


 994              	.LBE149:
 995 0384 6FF0DFF5 		j	.L28
 996              	.LVL45:
 997              	.L51:
 998              	.LBB150:
  93:src/riscv.cpp ****         }
 999              		.loc 1 93 13 is_stmt 1
  93:src/riscv.cpp ****         }
 1000              		.loc 1 93 19 is_stmt 0
 1001 0388 033504FD 		ld	a0,-48(s0)
 1002 038c 1375F50F 		andi	a0,a0,0xff
 1003 0390 97000000 		call	__putc@plt
 1003      E7800000 
 1004              	.LVL46:
 1005 0398 6FF09FF4 		j	.L28
 1006              	.L52:
 1007              	.LBB142:
 1008              	.LBB133:
  99:src/riscv.cpp ****             if(!handle){
 1009              		.loc 1 99 13 is_stmt 1
  99:src/riscv.cpp ****             if(!handle){
 1010              		.loc 1 99 36 is_stmt 0
 1011 039c 033584FC 		ld	a0,-56(s0)
 1012 03a0 1B050500 		sext.w	a0,a0
 1013 03a4 97000000 		call	_ZN4_sem4openEi@plt
 1013      E7800000 
 1014              	.LVL47:
 100:src/riscv.cpp ****                 __asm__ volatile("sd %0, 0x50(fp)": : "r"(-1));
 1015              		.loc 1 100 13 is_stmt 1
 1016              	.LBB134:
 1017 03ac 630C0500 		beqz	a0,.L58
 1018              	.LBB135:
 104:src/riscv.cpp ****                 *retHandle=handle;
 1019              		.loc 1 104 17
 104:src/riscv.cpp ****                 *retHandle=handle;
 1020              		.loc 1 104 42 is_stmt 0
 1021 03b0 033704FD 		ld	a4,-48(s0)
 1022              	.LVL48:
 105:src/riscv.cpp ****                 __asm__ volatile("sd %0, 0x50(fp)": : "r"(0));
 1023              		.loc 1 105 17 is_stmt 1
 105:src/riscv.cpp ****                 __asm__ volatile("sd %0, 0x50(fp)": : "r"(0));
 1024              		.loc 1 105 27 is_stmt 0
 1025 03b4 2330A700 		sd	a0,0(a4)
 106:src/riscv.cpp ****             }
 1026              		.loc 1 106 17 is_stmt 1
 106:src/riscv.cpp ****             }
 1027              		.loc 1 106 62 is_stmt 0
 1028 03b8 93070000 		li	a5,0
 1029              	#APP
 1030              	# 106 "src/riscv.cpp" 1
 1031              		sd a5, 0x50(fp)
 1032              	# 0 "" 2
 1033              	#NO_APP
 1034 03c0 6FF01FF2 		j	.L28
 1035              	.LVL49:
 1036              	.L58:
 1037              	.LBE135:
GAS LISTING /tmp/ccwPpNaf.s 			page 30


 101:src/riscv.cpp ****             }
 1038              		.loc 1 101 17 is_stmt 1
 101:src/riscv.cpp ****             }
 1039              		.loc 1 101 63 is_stmt 0
 1040 03c4 9307F0FF 		li	a5,-1
 1041              	#APP
 1042              	# 101 "src/riscv.cpp" 1
 1043              		sd a5, 0x50(fp)
 1044              	# 0 "" 2
 1045              	#NO_APP
 1046 03cc 6FF05FF1 		j	.L28
 1047              	.LVL50:
 1048              	.L53:
 1049              	.LBE134:
 1050              	.LBE133:
 1051              	.LBB136:
 1052              	.LBB127:
 111:src/riscv.cpp ****             int stat=handle->wait();
 1053              		.loc 1 111 13 is_stmt 1
 111:src/riscv.cpp ****             int stat=handle->wait();
 1054              		.loc 1 111 34 is_stmt 0
 1055 03d0 033504FD 		ld	a0,-48(s0)
 1056              	.LVL51:
 112:src/riscv.cpp ****             __asm__ volatile("sd %0, 0x50(fp)": : "r"(stat));
 1057              		.loc 1 112 13 is_stmt 1
 112:src/riscv.cpp ****             __asm__ volatile("sd %0, 0x50(fp)": : "r"(stat));
 1058              		.loc 1 112 34 is_stmt 0
 1059 03d4 97000000 		call	_ZN4_sem4waitEv@plt
 1059      E7800000 
 1060              	.LVL52:
 113:src/riscv.cpp ****         }
 1061              		.loc 1 113 13 is_stmt 1
 113:src/riscv.cpp ****         }
 1062              		.loc 1 113 61 is_stmt 0
 1063              	#APP
 1064              	# 113 "src/riscv.cpp" 1
 1065              		sd a0, 0x50(fp)
 1066              	# 0 "" 2
 1067              	#NO_APP
 1068              	.LBE127:
 1069 03e0 6FF01FF0 		j	.L28
 1070              	.LVL53:
 1071              	.L54:
 1072              	.LBB128:
 1073              	.LBB122:
 117:src/riscv.cpp ****             int stat=handle->close();
 1074              		.loc 1 117 13 is_stmt 1
 117:src/riscv.cpp ****             int stat=handle->close();
 1075              		.loc 1 117 34 is_stmt 0
 1076 03e4 033504FD 		ld	a0,-48(s0)
 1077              	.LVL54:
 118:src/riscv.cpp ****             __asm__ volatile("sd %0, 0x50(fp)": : "r"(stat));
 1078              		.loc 1 118 13 is_stmt 1
 118:src/riscv.cpp ****             __asm__ volatile("sd %0, 0x50(fp)": : "r"(stat));
 1079              		.loc 1 118 35 is_stmt 0
 1080 03e8 97000000 		call	_ZN4_sem5closeEv@plt
 1080      E7800000 
GAS LISTING /tmp/ccwPpNaf.s 			page 31


 1081              	.LVL55:
 119:src/riscv.cpp ****         }
 1082              		.loc 1 119 13 is_stmt 1
 119:src/riscv.cpp ****         }
 1083              		.loc 1 119 61 is_stmt 0
 1084              	#APP
 1085              	# 119 "src/riscv.cpp" 1
 1086              		sd a0, 0x50(fp)
 1087              	# 0 "" 2
 1088              	#NO_APP
 1089              	.LBE122:
 1090 03f4 6FF0DFEE 		j	.L28
 1091              	.LVL56:
 1092              	.L55:
 1093              	.LBB123:
 1094              	.LBB118:
 123:src/riscv.cpp ****             int stat=handle->signal();
 1095              		.loc 1 123 13 is_stmt 1
 123:src/riscv.cpp ****             int stat=handle->signal();
 1096              		.loc 1 123 34 is_stmt 0
 1097 03f8 033504FD 		ld	a0,-48(s0)
 1098              	.LVL57:
 124:src/riscv.cpp ****             __asm__ volatile("sd %0, 0x50(fp)": : "r"(stat));
 1099              		.loc 1 124 13 is_stmt 1
 124:src/riscv.cpp ****             __asm__ volatile("sd %0, 0x50(fp)": : "r"(stat));
 1100              		.loc 1 124 36 is_stmt 0
 1101 03fc 97000000 		call	_ZN4_sem6signalEv@plt
 1101      E7800000 
 1102              	.LVL58:
 125:src/riscv.cpp ****         }
 1103              		.loc 1 125 13 is_stmt 1
 125:src/riscv.cpp ****         }
 1104              		.loc 1 125 61 is_stmt 0
 1105              	#APP
 1106              	# 125 "src/riscv.cpp" 1
 1107              		sd a0, 0x50(fp)
 1108              	# 0 "" 2
 1109              	#NO_APP
 1110              	.LBE118:
 1111 0408 6FF09FED 		j	.L28
 1112              	.LVL59:
 1113              	.L56:
 1114              	.LBB119:
 129:src/riscv.cpp ****         }
 1115              		.loc 1 129 13 is_stmt 1
 129:src/riscv.cpp ****         }
 1116              		.loc 1 129 22 is_stmt 0
 1117 040c 033504FD 		ld	a0,-48(s0)
 1118 0410 97000000 		call	_ZN3TCB4joinEPS_@plt
 1118      E7800000 
 1119              	.LVL60:
 1120 0418 6FF09FEC 		j	.L28
 1121              	.L26:
 1122              	.LBE119:
 1123              	.LBE123:
 1124              	.LBE128:
 1125              	.LBE136:
GAS LISTING /tmp/ccwPpNaf.s 			page 32


 1126              	.LBE142:
 1127              	.LBE150:
 1128              	.LBE158:
 1129              	.LBE168:
 1130              	.LBE181:
 1131              	.LBE193:
 1132              	.LBE206:
 1133              	.LBE223:
 1134              	.LBE236:
 143:src/riscv.cpp ****         printInt(scause);
 1135              		.loc 1 143 9 is_stmt 1
 143:src/riscv.cpp ****         printInt(scause);
 1136              		.loc 1 143 20 is_stmt 0
 1137 041c 17050000 		lla	a0,.LC0
 1137      13050500 
 1138 0424 97000000 		call	_Z11printStringPKc@plt
 1138      E7800000 
 1139              	.LVL61:
 144:src/riscv.cpp ****         printString("\n");
 1140              		.loc 1 144 9 is_stmt 1
 144:src/riscv.cpp ****         printString("\n");
 1141              		.loc 1 144 17 is_stmt 0
 1142 042c 13060000 		li	a2,0
 1143 0430 9305A000 		li	a1,10
 1144 0434 1B850400 		sext.w	a0,s1
 1145 0438 97000000 		call	_Z8printIntiii@plt
 1145      E7800000 
 1146              	.LVL62:
 145:src/riscv.cpp ****         while(true);
 1147              		.loc 1 145 9 is_stmt 1
 145:src/riscv.cpp ****         while(true);
 1148              		.loc 1 145 20 is_stmt 0
 1149 0440 17050000 		lla	a0,.LC1
 1149      13050500 
 1150 0448 97000000 		call	_Z11printStringPKc@plt
 1150      E7800000 
 1151              	.LVL63:
 1152              	.L42:
 146:src/riscv.cpp ****     }
 1153              		.loc 1 146 9 is_stmt 1 discriminator 1
 146:src/riscv.cpp ****     }
 1154              		.loc 1 146 9 discriminator 1
 1155 0450 6F000000 		j	.L42
 1156              	.LBE249:
 1157              		.cfi_endproc
 1158              	.LFE34:
 1160              		.align	2
 1161              		.globl	_ZN5Riscv18updateSleepingListEv
 1163              	_ZN5Riscv18updateSleepingListEv:
 1164              	.LFB39:
 247:src/riscv.cpp **** 
 248:src/riscv.cpp **** void Riscv::updateSleepingList() {
 1165              		.loc 1 248 34
 1166              		.cfi_startproc
 249:src/riscv.cpp ****     if(headSleeping!=nullptr){
 1167              		.loc 1 249 5
 1168              	.LBB250:
GAS LISTING /tmp/ccwPpNaf.s 			page 33


 1169              		.loc 1 249 20 is_stmt 0
 1170 0454 97070000 		ld	a5,.LANCHOR0
 1170      83B70700 
 1171              		.loc 1 249 5
 1172 045c 638A0700 		beqz	a5,.L63
 1173              	.LBE250:
 250:src/riscv.cpp ****         if(--headSleeping->toSleepRel==0){
 1174              		.loc 1 250 9 is_stmt 1
 1175              	.LBB258:
 1176              	.LBB251:
 1177              		.loc 1 250 28 is_stmt 0
 1178 0460 03B78700 		ld	a4,8(a5)
 1179              		.loc 1 250 12
 1180 0464 1307F7FF 		addi	a4,a4,-1
 1181              		.loc 1 250 38
 1182 0468 23B4E700 		sd	a4,8(a5)
 1183              		.loc 1 250 9
 1184 046c 63040700 		beqz	a4,.L66
 1185              	.L63:
 1186 0470 67800000 		ret
 1187              	.L66:
 1188              	.LBE251:
 1189              	.LBE258:
 248:src/riscv.cpp ****     if(headSleeping!=nullptr){
 1190              		.loc 1 248 34
 1191 0474 130101FF 		addi	sp,sp,-16
 1192              		.cfi_def_cfa_offset 16
 1193 0478 23341100 		sd	ra,8(sp)
 1194 047c 23308100 		sd	s0,0(sp)
 1195              		.cfi_offset 1, -8
 1196              		.cfi_offset 8, -16
 1197 0480 13040101 		addi	s0,sp,16
 1198              		.cfi_def_cfa 8, 0
 1199              	.LBB259:
 1200              	.LBB257:
 1201              	.LBB252:
 251:src/riscv.cpp ****             headSleeping->thr->setSleeping(false);
 1202              		.loc 1 251 13 is_stmt 1
 1203              		.loc 1 251 27 is_stmt 0
 1204 0484 03B70700 		ld	a4,0(a5)
 1205              	.LVL64:
 1206              	.LBB253:
 1207              	.LBB254:
 1208              		.loc 3 41 9 is_stmt 1
 1209              		.loc 3 41 23 is_stmt 0
 1210 0488 A3000704 		sb	zero,65(a4)
 1211              	.LVL65:
 1212              	.LBE254:
 1213              	.LBE253:
 252:src/riscv.cpp ****             Scheduler::put(headSleeping->thr);
 1214              		.loc 1 252 13 is_stmt 1
 1215              		.loc 1 252 27 is_stmt 0
 1216 048c 03B50700 		ld	a0,0(a5)
 1217 0490 97000000 		call	_ZN9Scheduler3putEP3TCB@plt
 1217      E7800000 
 1218              	.LVL66:
 253:src/riscv.cpp ****             SleepingElem* old=headSleeping;
GAS LISTING /tmp/ccwPpNaf.s 			page 34


 1219              		.loc 1 253 13 is_stmt 1
 1220              		.loc 1 253 27 is_stmt 0
 1221 0498 97070000 		lla	a5,.LANCHOR0
 1221      93870700 
 1222 04a0 03B50700 		ld	a0,0(a5)
 1223              	.LVL67:
 254:src/riscv.cpp ****             headSleeping=headSleeping->next;
 1224              		.loc 1 254 13 is_stmt 1
 1225              		.loc 1 254 40 is_stmt 0
 1226 04a4 03370501 		ld	a4,16(a0)
 1227              		.loc 1 254 25
 1228 04a8 23B0E700 		sd	a4,0(a5)
 255:src/riscv.cpp ****             MemoryAllocator::free(old);
 1229              		.loc 1 255 13 is_stmt 1
 1230              		.loc 1 255 34 is_stmt 0
 1231 04ac 97000000 		call	_ZN15MemoryAllocator4freeEPv@plt
 1231      E7800000 
 1232              	.LVL68:
 1233              	.L61:
 256:src/riscv.cpp ****             while(headSleeping!=nullptr && headSleeping->toSleepRel==0){
 1234              		.loc 1 256 13 is_stmt 1
 1235              		.loc 1 256 41
 1236              		.loc 1 256 31 is_stmt 0
 1237 04b4 97070000 		ld	a5,.LANCHOR0
 1237      83B70700 
 1238              		.loc 1 256 41
 1239 04bc 63800704 		beqz	a5,.L59
 1240              		.loc 1 256 58 discriminator 1
 1241 04c0 03B78700 		ld	a4,8(a5)
 1242              		.loc 1 256 41 discriminator 1
 1243 04c4 631C0702 		bnez	a4,.L59
 257:src/riscv.cpp ****                 headSleeping->thr->setSleeping(false);
 1244              		.loc 1 257 17 is_stmt 1
 1245              		.loc 1 257 31 is_stmt 0
 1246 04c8 03B70700 		ld	a4,0(a5)
 1247              	.LVL69:
 1248              	.LBB255:
 1249              	.LBB256:
 1250              		.loc 3 41 9 is_stmt 1
 1251              		.loc 3 41 23 is_stmt 0
 1252 04cc A3000704 		sb	zero,65(a4)
 1253              	.LVL70:
 1254              	.LBE256:
 1255              	.LBE255:
 258:src/riscv.cpp ****                 Scheduler::put(headSleeping->thr);
 1256              		.loc 1 258 17 is_stmt 1
 1257              		.loc 1 258 31 is_stmt 0
 1258 04d0 03B50700 		ld	a0,0(a5)
 1259 04d4 97000000 		call	_ZN9Scheduler3putEP3TCB@plt
 1259      E7800000 
 1260              	.LVL71:
 259:src/riscv.cpp ****                 old=headSleeping;
 1261              		.loc 1 259 17 is_stmt 1
 1262              		.loc 1 259 20 is_stmt 0
 1263 04dc 97070000 		lla	a5,.LANCHOR0
 1263      93870700 
 1264 04e4 03B50700 		ld	a0,0(a5)
GAS LISTING /tmp/ccwPpNaf.s 			page 35


 1265              	.LVL72:
 260:src/riscv.cpp ****                 headSleeping=headSleeping->next;
 1266              		.loc 1 260 17 is_stmt 1
 1267              		.loc 1 260 44 is_stmt 0
 1268 04e8 03370501 		ld	a4,16(a0)
 1269              		.loc 1 260 29
 1270 04ec 23B0E700 		sd	a4,0(a5)
 261:src/riscv.cpp ****                 MemoryAllocator::free(old);
 1271              		.loc 1 261 17 is_stmt 1
 1272              		.loc 1 261 38 is_stmt 0
 1273 04f0 97000000 		call	_ZN15MemoryAllocator4freeEPv@plt
 1273      E7800000 
 1274              	.LVL73:
 256:src/riscv.cpp ****                 headSleeping->thr->setSleeping(false);
 1275              		.loc 1 256 13
 1276 04f8 6FF0DFFB 		j	.L61
 1277              	.L59:
 1278              	.LBE252:
 1279              	.LBE257:
 1280              	.LBE259:
 262:src/riscv.cpp ****             }
 263:src/riscv.cpp ****         }
 264:src/riscv.cpp ****     }
 265:src/riscv.cpp **** }
 1281              		.loc 1 265 1
 1282 04fc 83308100 		ld	ra,8(sp)
 1283              		.cfi_restore 1
 1284 0500 03340100 		ld	s0,0(sp)
 1285              		.cfi_restore 8
 1286              		.cfi_def_cfa 2, 16
 1287 0504 13010101 		addi	sp,sp,16
 1288              		.cfi_def_cfa_offset 0
 1289 0508 67800000 		jr	ra
 1290              		.cfi_endproc
 1291              	.LFE39:
 1293              		.align	2
 1294              		.globl	_ZN5Riscv14timerInterruptEv
 1296              	_ZN5Riscv14timerInterruptEv:
 1297              	.LFB35:
 151:src/riscv.cpp ****     uint64 scause=r_scause();
 1298              		.loc 1 151 30 is_stmt 1
 1299              		.cfi_startproc
 1300 050c 130101FC 		addi	sp,sp,-64
 1301              		.cfi_def_cfa_offset 64
 1302 0510 233C1102 		sd	ra,56(sp)
 1303 0514 23388102 		sd	s0,48(sp)
 1304              		.cfi_offset 1, -8
 1305              		.cfi_offset 8, -16
 1306 0518 13040104 		addi	s0,sp,64
 1307              		.cfi_def_cfa 8, 0
 152:src/riscv.cpp ****     if(scause==0x8000000000000001UL){
 1308              		.loc 1 152 5
 1309              	.LBB260:
 1310              	.LBB261:
  74:src/../h/riscv.hpp ****     __asm__ volatile("csrr %[scause], scause":[scause]"=r"(scause));
 1311              		.loc 2 74 5
  75:src/../h/riscv.hpp ****     return scause;
GAS LISTING /tmp/ccwPpNaf.s 			page 36


 1312              		.loc 2 75 5
  75:src/../h/riscv.hpp ****     return scause;
 1313              		.loc 2 75 68 is_stmt 0
 1314              	#APP
 1315              	# 75 "src/../h/riscv.hpp" 1
 1316              		csrr a5, scause
 1317              	# 0 "" 2
 1318              	#NO_APP
 1319 0520 233CF4FC 		sd	a5,-40(s0)
  76:src/../h/riscv.hpp **** }
 1320              		.loc 2 76 5 is_stmt 1
  76:src/../h/riscv.hpp **** }
 1321              		.loc 2 76 12 is_stmt 0
 1322 0524 033784FD 		ld	a4,-40(s0)
 1323              	.LVL74:
 1324              	.LBE261:
 1325              	.LBE260:
 153:src/riscv.cpp ****         //prekid od tajmera, softverski prekid
 1326              		.loc 1 153 5 is_stmt 1
 1327              	.LBB262:
 1328 0528 9307F0FF 		li	a5,-1
 1329 052c 9397F703 		slli	a5,a5,63
 1330 0530 93871700 		addi	a5,a5,1
 1331 0534 630AF700 		beq	a4,a5,.L71
 1332              	.LVL75:
 1333              	.L67:
 1334              	.LBE262:
 169:src/riscv.cpp **** 
 1335              		.loc 1 169 1 is_stmt 0
 1336 0538 83308103 		ld	ra,56(sp)
 1337              		.cfi_remember_state
 1338              		.cfi_restore 1
 1339 053c 03340103 		ld	s0,48(sp)
 1340              		.cfi_restore 8
 1341              		.cfi_def_cfa 2, 64
 1342 0540 13010104 		addi	sp,sp,64
 1343              		.cfi_def_cfa_offset 0
 1344 0544 67800000 		jr	ra
 1345              	.LVL76:
 1346              	.L71:
 1347              		.cfi_restore_state
 1348              	.LBB280:
 1349              	.LBB263:
 156:src/riscv.cpp **** 
 1350              		.loc 1 156 9 is_stmt 1
 156:src/riscv.cpp **** 
 1351              		.loc 1 156 27 is_stmt 0
 1352 0548 97000000 		call	_ZN5Riscv18updateSleepingListEv
 1352      E7800000 
 1353              	.LVL77:
 158:src/riscv.cpp ****         if(TCB::timeSliceCounter>=TCB::running->getTimeSlice()){
 1354              		.loc 1 158 9 is_stmt 1
 158:src/riscv.cpp ****         if(TCB::timeSliceCounter>=TCB::running->getTimeSlice()){
 1355              		.loc 1 158 30 is_stmt 0
 1356 0550 17070000 		la	a4,_ZN3TCB16timeSliceCounterE
 1356      03370700 
 1357 0558 83370700 		ld	a5,0(a4)
GAS LISTING /tmp/ccwPpNaf.s 			page 37


 1358 055c 93871700 		addi	a5,a5,1
 1359 0560 2330F700 		sd	a5,0(a4)
 159:src/riscv.cpp ****             uint64 volatile sepc=r_sepc();
 1360              		.loc 1 159 9 is_stmt 1
 1361              	.LBB264:
 159:src/riscv.cpp ****             uint64 volatile sepc=r_sepc();
 1362              		.loc 1 159 61 is_stmt 0
 1363 0564 17070000 		la	a4,_ZN3TCB7runningE
 1363      03370700 
 1364 056c 03370700 		ld	a4,0(a4)
 1365              	.LVL78:
 1366              	.LBB265:
 1367              	.LBB266:
  33:src/../h/../h/TCB.hpp ****     }
 1368              		.loc 3 33 9 is_stmt 1
  33:src/../h/../h/TCB.hpp ****     }
 1369              		.loc 3 33 16 is_stmt 0
 1370 0570 03378702 		ld	a4,40(a4)
 1371              	.LVL79:
 1372              	.LBE266:
 1373              	.LBE265:
 159:src/riscv.cpp ****             uint64 volatile sepc=r_sepc();
 1374              		.loc 1 159 9
 1375 0574 63F8E700 		bgeu	a5,a4,.L72
 1376              	.L69:
 1377              	.LBE264:
 167:src/riscv.cpp ****     }
 1378              		.loc 1 167 9 is_stmt 1
 1379              	.LVL80:
 1380              	.LBB276:
 1381              	.LBB277:
 111:src/../h/riscv.hpp **** }
 1382              		.loc 2 111 5
 111:src/../h/riscv.hpp **** }
 1383              		.loc 2 111 59 is_stmt 0
 1384 0578 93072000 		li	a5,2
 1385              	#APP
 1386              	# 111 "src/../h/riscv.hpp" 1
 1387              		csrc sip, a5
 1388              	# 0 "" 2
 1389              	.LVL81:
 1390              	#NO_APP
 1391              	.LBE277:
 1392              	.LBE276:
 1393              	.LBE263:
 1394              	.LBE280:
 169:src/riscv.cpp **** 
 1395              		.loc 1 169 1
 1396 0580 6FF09FFB 		j	.L67
 1397              	.L72:
 1398              	.LBB281:
 1399              	.LBB279:
 1400              	.LBB278:
 1401              	.LBB267:
 160:src/riscv.cpp ****             uint64 volatile sstatus=r_sstatus();
 1402              		.loc 1 160 13 is_stmt 1
 1403              	.LBB268:
GAS LISTING /tmp/ccwPpNaf.s 			page 38


 1404              	.LBB269:
  83:src/../h/riscv.hpp ****     __asm__ volatile("csrr %[sepc], sepc":[sepc]"=r"(sepc));
 1405              		.loc 2 83 5
  84:src/../h/riscv.hpp ****     return sepc;
 1406              		.loc 2 84 5
  84:src/../h/riscv.hpp ****     return sepc;
 1407              		.loc 2 84 60 is_stmt 0
 1408              	#APP
 1409              	# 84 "src/../h/riscv.hpp" 1
 1410              		csrr a5, sepc
 1411              	# 0 "" 2
 1412              	#NO_APP
 1413 0588 2334F4FE 		sd	a5,-24(s0)
  85:src/../h/riscv.hpp **** }
 1414              		.loc 2 85 5 is_stmt 1
  85:src/../h/riscv.hpp **** }
 1415              		.loc 2 85 12 is_stmt 0
 1416 058c 833784FE 		ld	a5,-24(s0)
 1417              	.LBE269:
 1418              	.LBE268:
 160:src/riscv.cpp ****             uint64 volatile sstatus=r_sstatus();
 1419              		.loc 1 160 41
 1420 0590 2334F4FC 		sd	a5,-56(s0)
 161:src/riscv.cpp ****             TCB::timeSliceCounter=0;
 1421              		.loc 1 161 13 is_stmt 1
 1422              	.LBB270:
 1423              	.LBB271:
 129:src/../h/riscv.hpp ****     __asm__ volatile("csrr %[sstatus], sstatus":[sstatus]"=r"(sstatus));
 1424              		.loc 2 129 5
 130:src/../h/riscv.hpp ****     return sstatus;
 1425              		.loc 2 130 5
 130:src/../h/riscv.hpp ****     return sstatus;
 1426              		.loc 2 130 72 is_stmt 0
 1427              	#APP
 1428              	# 130 "src/../h/riscv.hpp" 1
 1429              		csrr a5, sstatus
 1430              	# 0 "" 2
 1431              	#NO_APP
 1432 0598 2330F4FE 		sd	a5,-32(s0)
 131:src/../h/riscv.hpp **** }
 1433              		.loc 2 131 5 is_stmt 1
 131:src/../h/riscv.hpp **** }
 1434              		.loc 2 131 12 is_stmt 0
 1435 059c 833704FE 		ld	a5,-32(s0)
 1436              	.LBE271:
 1437              	.LBE270:
 161:src/riscv.cpp ****             TCB::timeSliceCounter=0;
 1438              		.loc 1 161 47
 1439 05a0 2338F4FC 		sd	a5,-48(s0)
 162:src/riscv.cpp ****             TCB::dispatch();
 1440              		.loc 1 162 13 is_stmt 1
 162:src/riscv.cpp ****             TCB::dispatch();
 1441              		.loc 1 162 34 is_stmt 0
 1442 05a4 97070000 		la	a5,_ZN3TCB16timeSliceCounterE
 1442      83B70700 
 1443 05ac 23B00700 		sd	zero,0(a5)
 163:src/riscv.cpp ****             w_sstatus(sstatus);
GAS LISTING /tmp/ccwPpNaf.s 			page 39


 1444              		.loc 1 163 13 is_stmt 1
 163:src/riscv.cpp ****             w_sstatus(sstatus);
 1445              		.loc 1 163 26 is_stmt 0
 1446 05b0 97000000 		call	_ZN3TCB8dispatchEv@plt
 1446      E7800000 
 1447              	.LVL82:
 164:src/riscv.cpp ****             w_sepc(sepc);
 1448              		.loc 1 164 13 is_stmt 1
 164:src/riscv.cpp ****             w_sepc(sepc);
 1449              		.loc 1 164 22 is_stmt 0
 1450 05b8 833704FD 		ld	a5,-48(s0)
 1451              	.LVL83:
 1452              	.LBB272:
 1453              	.LBB273:
 134:src/../h/riscv.hpp **** }
 1454              		.loc 2 134 5 is_stmt 1
 134:src/../h/riscv.hpp **** }
 1455              		.loc 2 134 72 is_stmt 0
 1456              	#APP
 1457              	# 134 "src/../h/riscv.hpp" 1
 1458              		csrw sstatus, a5
 1459              	# 0 "" 2
 1460              	.LVL84:
 1461              	#NO_APP
 1462              	.LBE273:
 1463              	.LBE272:
 165:src/riscv.cpp ****         }
 1464              		.loc 1 165 13 is_stmt 1
 165:src/riscv.cpp ****         }
 1465              		.loc 1 165 19 is_stmt 0
 1466 05c0 833784FC 		ld	a5,-56(s0)
 1467              	.LVL85:
 1468              	.LBB274:
 1469              	.LBB275:
  88:src/../h/riscv.hpp **** }
 1470              		.loc 2 88 5 is_stmt 1
  88:src/../h/riscv.hpp **** }
 1471              		.loc 2 88 60 is_stmt 0
 1472              	#APP
 1473              	# 88 "src/../h/riscv.hpp" 1
  89:src/../h/riscv.hpp **** inline uint64 Riscv::r_stvec(){
 1474              		csrw sepc, a5
 1475              	# 0 "" 2
 1476              		.loc 2 89 1
 1477              	#NO_APP
 1478 05c8 6FF01FFB 		j	.L69
 1479              	.LBE275:
 1480              	.LBE274:
 1481              	.LBE267:
 1482              	.LBE278:
 1483              	.LBE279:
 1484              	.LBE281:
 1485              		.cfi_endproc
 1486              	.LFE35:
 1488              		.globl	_ZN5Riscv12headSleepingE
 1489              		.bss
 1490              		.align	3
GAS LISTING /tmp/ccwPpNaf.s 			page 40


 1491              		.set	.LANCHOR0,. + 0
 1494              	_ZN5Riscv12headSleepingE:
 1495 0000 00000000 		.zero	8
 1495      00000000 
 1496              		.text
 1497              	.Letext0:
 1498              		.file 4 "src/../h/../lib/hw.h"
 1499              		.file 5 "src/../h/MemoryAllocator.hpp"
 1500              		.file 6 "src/../h/_sem.hpp"
 1501              		.file 7 "src/../h/../h/list.hpp"
 1502              		.file 8 "src/../h/Scheduler.hpp"
 1503              		.file 9 "src/../test/../h/syscall_c.hpp"
 1504              		.file 10 "src/../lib/console.h"
 1505              		.file 11 "src/../test/printing.hpp"
GAS LISTING /tmp/ccwPpNaf.s 			page 41


DEFINED SYMBOLS
                            *ABS*:0000000000000000 riscv.cpp
     /tmp/ccwPpNaf.s:9      .text:0000000000000000 _ZN5Riscv17hardwareInterruptEv
     /tmp/ccwPpNaf.s:13     .text:0000000000000000 .L0 
     /tmp/ccwPpNaf.s:14     .text:0000000000000000 .L0 
     /tmp/ccwPpNaf.s:15     .text:0000000000000004 .L0 
     /tmp/ccwPpNaf.s:18     .text:000000000000000c .L0 
     /tmp/ccwPpNaf.s:19     .text:000000000000000c .L0 
     /tmp/ccwPpNaf.s:21     .text:0000000000000010 .L0 
     /tmp/ccwPpNaf.s:26     .text:0000000000000010 .L0 
     /tmp/ccwPpNaf.s:27     .text:0000000000000010 .L0 
     /tmp/ccwPpNaf.s:28     .text:0000000000000010 .L0 
  src/../h/riscv.hpp:75     .text:0000000000000010 .L0 
     /tmp/ccwPpNaf.s:36     .text:0000000000000018 .L0 
     /tmp/ccwPpNaf.s:37     .text:0000000000000018 .L0 
     /tmp/ccwPpNaf.s:42     .text:000000000000001c .L0 
     /tmp/ccwPpNaf.s:49     .text:000000000000002c .L0 
     /tmp/ccwPpNaf.s:50     .text:0000000000000030 .L0 
     /tmp/ccwPpNaf.s:51     .text:0000000000000030 .L0 
     /tmp/ccwPpNaf.s:53     .text:0000000000000034 .L0 
     /tmp/ccwPpNaf.s:54     .text:0000000000000034 .L0 
     /tmp/ccwPpNaf.s:56     .text:0000000000000038 .L0 
     /tmp/ccwPpNaf.s:60     .text:000000000000003c .L0 
     /tmp/ccwPpNaf.s:62     .text:000000000000003c .L0 
     /tmp/ccwPpNaf.s:63     .text:000000000000003c .L0 
     /tmp/ccwPpNaf.s:66     .text:0000000000000044 .L0 
     /tmp/ccwPpNaf.s:67     .text:0000000000000048 .L0 
     /tmp/ccwPpNaf.s:73     .text:0000000000000048 _ZN5Riscv10popSppSpieEv
     /tmp/ccwPpNaf.s:76     .text:0000000000000048 .L0 
     /tmp/ccwPpNaf.s:77     .text:0000000000000048 .L0 
     /tmp/ccwPpNaf.s:78     .text:000000000000004c .L0 
     /tmp/ccwPpNaf.s:80     .text:0000000000000050 .L0 
     /tmp/ccwPpNaf.s:82     .text:0000000000000054 .L0 
     /tmp/ccwPpNaf.s:87     .text:0000000000000054 .L0 
     /tmp/ccwPpNaf.s:88     .text:0000000000000054 .L0 
     /tmp/ccwPpNaf.s:89     .text:0000000000000054 .L0 
     /tmp/ccwPpNaf.s:99     .text:000000000000005c .L0 
     /tmp/ccwPpNaf.s:100    .text:000000000000005c .L0 
     /tmp/ccwPpNaf.s:104    .text:000000000000006c .L0 
     /tmp/ccwPpNaf.s:109    .text:0000000000000070 .L0 
     /tmp/ccwPpNaf.s:110    .text:0000000000000070 .L0 
     /tmp/ccwPpNaf.s:111    .text:0000000000000070 .L0 
     /tmp/ccwPpNaf.s:122    .text:0000000000000078 .L0 
       src/riscv.cpp:198    .text:0000000000000078 .L0 
     /tmp/ccwPpNaf.s:128    .text:000000000000007c .L0 
       src/riscv.cpp:199    .text:000000000000007c .L0 
     /tmp/ccwPpNaf.s:134    .text:0000000000000080 .L0 
     /tmp/ccwPpNaf.s:135    .text:0000000000000084 .L0 
     /tmp/ccwPpNaf.s:136    .text:0000000000000084 .L0 
     /tmp/ccwPpNaf.s:137    .text:0000000000000084 .L0 
     /tmp/ccwPpNaf.s:139    .text:0000000000000088 .L0 
     /tmp/ccwPpNaf.s:142    .text:000000000000008c .L0 
     /tmp/ccwPpNaf.s:147    .text:000000000000008c .L0 
     /tmp/ccwPpNaf.s:148    .text:000000000000008c .L0 
     /tmp/ccwPpNaf.s:149    .text:000000000000008c .L0 
     /tmp/ccwPpNaf.s:156    .text:0000000000000094 .L0 
     /tmp/ccwPpNaf.s:159    .text:0000000000000098 .L0 
GAS LISTING /tmp/ccwPpNaf.s 			page 42


     /tmp/ccwPpNaf.s:165    .text:0000000000000098 _ZN5Riscv10putToSleepEm
     /tmp/ccwPpNaf.s:168    .text:0000000000000098 .L0 
     /tmp/ccwPpNaf.s:170    .text:0000000000000098 .L0 
     /tmp/ccwPpNaf.s:171    .text:0000000000000098 .L0 
     /tmp/ccwPpNaf.s:173    .text:000000000000009c .L0 
     /tmp/ccwPpNaf.s:174    .text:00000000000000a0 .L0 
     /tmp/ccwPpNaf.s:179    .text:00000000000000b0 .L0 
     /tmp/ccwPpNaf.s:180    .text:00000000000000b0 .L0 
     /tmp/ccwPpNaf.s:181    .text:00000000000000b0 .L0 
     /tmp/ccwPpNaf.s:182    .text:00000000000000b0 .L0 
     /tmp/ccwPpNaf.s:184    .text:00000000000000b4 .L0 
     /tmp/ccwPpNaf.s:187    .text:00000000000000b8 .L0 
     /tmp/ccwPpNaf.s:188    .text:00000000000000b8 .L0 
     /tmp/ccwPpNaf.s:195    .text:00000000000000c4 .L0 
     /tmp/ccwPpNaf.s:196    .text:00000000000000c4 .L0 
     /tmp/ccwPpNaf.s:202    .text:00000000000000cc .L0 
     /tmp/ccwPpNaf.s:203    .text:00000000000000cc .L0 
     /tmp/ccwPpNaf.s:208    .text:00000000000000d8 .L0 
     /tmp/ccwPpNaf.s:209    .text:00000000000000d8 .L0 
     /tmp/ccwPpNaf.s:213    .text:00000000000000e0 .L0 
     /tmp/ccwPpNaf.s:214    .text:00000000000000e0 .L0 
     /tmp/ccwPpNaf.s:216    .text:00000000000000e8 .L0 
     /tmp/ccwPpNaf.s:221    .text:00000000000000ec .L0 
     /tmp/ccwPpNaf.s:222    .text:00000000000000ec .L0 
     /tmp/ccwPpNaf.s:224    .text:00000000000000f0 .L0 
     /tmp/ccwPpNaf.s:226    .text:00000000000000f4 .L0 
     /tmp/ccwPpNaf.s:227    .text:00000000000000f4 .L0 
     /tmp/ccwPpNaf.s:229    .text:00000000000000f8 .L0 
     /tmp/ccwPpNaf.s:230    .text:00000000000000f8 .L0 
     /tmp/ccwPpNaf.s:232    .text:00000000000000fc .L0 
     /tmp/ccwPpNaf.s:233    .text:00000000000000fc .L0 
     /tmp/ccwPpNaf.s:237    .text:0000000000000108 .L0 
     /tmp/ccwPpNaf.s:238    .text:0000000000000108 .L0 
     /tmp/ccwPpNaf.s:243    .text:0000000000000110 .L0 
     /tmp/ccwPpNaf.s:244    .text:0000000000000110 .L0 
     /tmp/ccwPpNaf.s:247    .text:000000000000011c .L0 
     /tmp/ccwPpNaf.s:248    .text:000000000000011c .L0 
     /tmp/ccwPpNaf.s:251    .text:0000000000000124 .L0 
     /tmp/ccwPpNaf.s:252    .text:0000000000000124 .L0 
     /tmp/ccwPpNaf.s:254    .text:0000000000000128 .L0 
     /tmp/ccwPpNaf.s:255    .text:000000000000012c .L0 
     /tmp/ccwPpNaf.s:256    .text:000000000000012c .L0 
     /tmp/ccwPpNaf.s:258    .text:0000000000000130 .L0 
     /tmp/ccwPpNaf.s:259    .text:0000000000000130 .L0 
     /tmp/ccwPpNaf.s:261    .text:0000000000000134 .L0 
     /tmp/ccwPpNaf.s:264    .text:0000000000000138 .L0 
     /tmp/ccwPpNaf.s:266    .text:000000000000013c .L0 
     /tmp/ccwPpNaf.s:270    .text:0000000000000140 .L0 
     /tmp/ccwPpNaf.s:273    .text:0000000000000140 .L0 
     /tmp/ccwPpNaf.s:274    .text:0000000000000140 .L0 
     /tmp/ccwPpNaf.s:276    .text:0000000000000144 .L0 
     /tmp/ccwPpNaf.s:277    .text:0000000000000144 .L0 
     /tmp/ccwPpNaf.s:279    .text:0000000000000148 .L0 
     /tmp/ccwPpNaf.s:280    .text:0000000000000148 .L0 
     /tmp/ccwPpNaf.s:286    .text:0000000000000154 .L0 
     /tmp/ccwPpNaf.s:287    .text:0000000000000154 .L0 
     /tmp/ccwPpNaf.s:290    .text:0000000000000158 .L0 
GAS LISTING /tmp/ccwPpNaf.s 			page 43


     /tmp/ccwPpNaf.s:291    .text:0000000000000158 .L0 
     /tmp/ccwPpNaf.s:295    .text:000000000000015c .L0 
     /tmp/ccwPpNaf.s:296    .text:000000000000015c .L0 
     /tmp/ccwPpNaf.s:297    .text:000000000000015c .L0 
     /tmp/ccwPpNaf.s:299    .text:0000000000000160 .L0 
     /tmp/ccwPpNaf.s:301    .text:0000000000000164 .L0 
     /tmp/ccwPpNaf.s:303    .text:0000000000000168 .L0 
     /tmp/ccwPpNaf.s:304    .text:0000000000000168 .L0 
     /tmp/ccwPpNaf.s:307    .text:000000000000016c .L0 
     /tmp/ccwPpNaf.s:308    .text:000000000000016c .L0 
     /tmp/ccwPpNaf.s:309    .text:000000000000016c .L0 
     /tmp/ccwPpNaf.s:311    .text:0000000000000170 .L0 
     /tmp/ccwPpNaf.s:314    .text:0000000000000174 .L0 
     /tmp/ccwPpNaf.s:317    .text:0000000000000178 .L0 
     /tmp/ccwPpNaf.s:319    .text:000000000000017c .L0 
     /tmp/ccwPpNaf.s:320    .text:000000000000017c .L0 
     /tmp/ccwPpNaf.s:322    .text:0000000000000180 .L0 
     /tmp/ccwPpNaf.s:323    .text:0000000000000180 .L0 
     /tmp/ccwPpNaf.s:328    .text:000000000000018c .L0 
     /tmp/ccwPpNaf.s:329    .text:000000000000018c .L0 
     /tmp/ccwPpNaf.s:331    .text:0000000000000190 .L0 
     /tmp/ccwPpNaf.s:332    .text:0000000000000190 .L0 
     /tmp/ccwPpNaf.s:336    .text:0000000000000198 .L0 
     /tmp/ccwPpNaf.s:337    .text:0000000000000198 .L0 
     /tmp/ccwPpNaf.s:341    .text:00000000000001a0 .L0 
     /tmp/ccwPpNaf.s:342    .text:00000000000001a0 .L0 
     /tmp/ccwPpNaf.s:343    .text:00000000000001a0 .L0 
     /tmp/ccwPpNaf.s:344    .text:00000000000001a0 .L0 
     /tmp/ccwPpNaf.s:345    .text:00000000000001a0 .L0 
     /tmp/ccwPpNaf.s:350    .text:00000000000001a0 .L0 
     /tmp/ccwPpNaf.s:353    .text:00000000000001a4 .L0 
     /tmp/ccwPpNaf.s:354    .text:00000000000001a8 .L0 
     /tmp/ccwPpNaf.s:368    .text:00000000000001a8 _ZN5Riscv20handleEcallExceptionEv
     /tmp/ccwPpNaf.s:371    .text:00000000000001a8 .L0 
     /tmp/ccwPpNaf.s:372    .text:00000000000001a8 .L0 
     /tmp/ccwPpNaf.s:373    .text:00000000000001ac .L0 
     /tmp/ccwPpNaf.s:377    .text:00000000000001b8 .L0 
     /tmp/ccwPpNaf.s:378    .text:00000000000001b8 .L0 
     /tmp/ccwPpNaf.s:379    .text:00000000000001b8 .L0 
     /tmp/ccwPpNaf.s:381    .text:00000000000001bc .L0 
     /tmp/ccwPpNaf.s:385    .text:00000000000001bc .L0 
     /tmp/ccwPpNaf.s:386    .text:00000000000001bc .L0 
     /tmp/ccwPpNaf.s:387    .text:00000000000001bc .L0 
  src/../h/riscv.hpp:75     .text:00000000000001bc .L0 
     /tmp/ccwPpNaf.s:395    .text:00000000000001c4 .L0 
     /tmp/ccwPpNaf.s:396    .text:00000000000001c4 .L0 
     /tmp/ccwPpNaf.s:401    .text:00000000000001c8 .L0 
     /tmp/ccwPpNaf.s:402    .text:00000000000001c8 .L0 
       src/riscv.cpp:19     .text:00000000000001c8 .L0 
     /tmp/ccwPpNaf.s:410    .text:00000000000001d0 .L0 
     /tmp/ccwPpNaf.s:411    .text:00000000000001d0 .L0 
       src/riscv.cpp:21     .text:00000000000001d0 .L0 
     /tmp/ccwPpNaf.s:419    .text:00000000000001d8 .L0 
     /tmp/ccwPpNaf.s:420    .text:00000000000001d8 .L0 
       src/riscv.cpp:23     .text:00000000000001d8 .L0 
     /tmp/ccwPpNaf.s:428    .text:00000000000001e0 .L0 
     /tmp/ccwPpNaf.s:429    .text:00000000000001e0 .L0 
GAS LISTING /tmp/ccwPpNaf.s 			page 44


       src/riscv.cpp:25     .text:00000000000001e0 .L0 
     /tmp/ccwPpNaf.s:437    .text:00000000000001e8 .L0 
     /tmp/ccwPpNaf.s:438    .text:00000000000001e8 .L0 
       src/riscv.cpp:27     .text:00000000000001e8 .L0 
     /tmp/ccwPpNaf.s:447    .text:00000000000001f0 .L0 
     /tmp/ccwPpNaf.s:448    .text:00000000000001f0 .L0 
     /tmp/ccwPpNaf.s:450    .text:00000000000001f4 .L0 
     /tmp/ccwPpNaf.s:456    .text:00000000000001fc .L0 
     /tmp/ccwPpNaf.s:457    .text:00000000000001fc .L0 
     /tmp/ccwPpNaf.s:458    .text:00000000000001fc .L0 
  src/../h/riscv.hpp:84     .text:00000000000001fc .L0 
     /tmp/ccwPpNaf.s:466    .text:0000000000000204 .L0 
     /tmp/ccwPpNaf.s:467    .text:0000000000000204 .L0 
     /tmp/ccwPpNaf.s:471    .text:0000000000000208 .L0 
     /tmp/ccwPpNaf.s:473    .text:000000000000020c .L0 
     /tmp/ccwPpNaf.s:477    .text:0000000000000210 .L0 
     /tmp/ccwPpNaf.s:478    .text:0000000000000210 .L0 
     /tmp/ccwPpNaf.s:479    .text:0000000000000210 .L0 
  src/../h/riscv.hpp:130    .text:0000000000000210 .L0 
     /tmp/ccwPpNaf.s:487    .text:0000000000000218 .L0 
     /tmp/ccwPpNaf.s:488    .text:0000000000000218 .L0 
     /tmp/ccwPpNaf.s:492    .text:000000000000021c .L0 
     /tmp/ccwPpNaf.s:495    .text:0000000000000220 .L0 
     /tmp/ccwPpNaf.s:496    .text:0000000000000220 .L0 
     /tmp/ccwPpNaf.s:498    .text:0000000000000224 .L0 
     /tmp/ccwPpNaf.s:508    .text:000000000000022c .L0 
     /tmp/ccwPpNaf.s:509    .text:000000000000022c .L0 
     /tmp/ccwPpNaf.s:511    .text:0000000000000230 .L0 
     /tmp/ccwPpNaf.s:523    .text:0000000000000238 .L0 
     /tmp/ccwPpNaf.s:524    .text:0000000000000238 .L0 
     /tmp/ccwPpNaf.s:526    .text:000000000000023c .L0 
     /tmp/ccwPpNaf.s:540    .text:0000000000000244 .L0 
     /tmp/ccwPpNaf.s:541    .text:0000000000000244 .L0 
     /tmp/ccwPpNaf.s:543    .text:0000000000000248 .L0 
     /tmp/ccwPpNaf.s:559    .text:0000000000000250 .L0 
     /tmp/ccwPpNaf.s:560    .text:0000000000000250 .L0 
     /tmp/ccwPpNaf.s:562    .text:0000000000000254 .L0 
     /tmp/ccwPpNaf.s:580    .text:000000000000025c .L0 
     /tmp/ccwPpNaf.s:581    .text:000000000000025c .L0 
     /tmp/ccwPpNaf.s:583    .text:0000000000000260 .L0 
     /tmp/ccwPpNaf.s:603    .text:0000000000000268 .L0 
     /tmp/ccwPpNaf.s:604    .text:0000000000000268 .L0 
     /tmp/ccwPpNaf.s:606    .text:000000000000026c .L0 
     /tmp/ccwPpNaf.s:628    .text:0000000000000274 .L0 
     /tmp/ccwPpNaf.s:629    .text:0000000000000274 .L0 
     /tmp/ccwPpNaf.s:631    .text:0000000000000278 .L0 
     /tmp/ccwPpNaf.s:655    .text:0000000000000280 .L0 
     /tmp/ccwPpNaf.s:656    .text:0000000000000280 .L0 
     /tmp/ccwPpNaf.s:658    .text:0000000000000284 .L0 
     /tmp/ccwPpNaf.s:684    .text:000000000000028c .L0 
     /tmp/ccwPpNaf.s:685    .text:000000000000028c .L0 
     /tmp/ccwPpNaf.s:687    .text:0000000000000290 .L0 
     /tmp/ccwPpNaf.s:715    .text:0000000000000298 .L0 
     /tmp/ccwPpNaf.s:716    .text:0000000000000298 .L0 
     /tmp/ccwPpNaf.s:718    .text:000000000000029c .L0 
     /tmp/ccwPpNaf.s:748    .text:00000000000002a4 .L0 
     /tmp/ccwPpNaf.s:749    .text:00000000000002a4 .L0 
GAS LISTING /tmp/ccwPpNaf.s 			page 45


     /tmp/ccwPpNaf.s:751    .text:00000000000002a8 .L0 
     /tmp/ccwPpNaf.s:783    .text:00000000000002b0 .L0 
     /tmp/ccwPpNaf.s:784    .text:00000000000002b0 .L0 
     /tmp/ccwPpNaf.s:786    .text:00000000000002b4 .L0 
     /tmp/ccwPpNaf.s:790    .text:00000000000002bc .L0 
     /tmp/ccwPpNaf.s:791    .text:00000000000002bc .L0 
     /tmp/ccwPpNaf.s:794    .text:00000000000002c0 .L0 
     /tmp/ccwPpNaf.s:795    .text:00000000000002c0 .L0 
     /tmp/ccwPpNaf.s:798    .text:00000000000002c8 .L0 
       src/riscv.cpp:135    .text:00000000000002c8 .L0 
     /tmp/ccwPpNaf.s:822    .text:00000000000002d0 .L0 
     /tmp/ccwPpNaf.s:823    .text:00000000000002d0 .L0 
     /tmp/ccwPpNaf.s:827    .text:00000000000002dc .L0 
       src/riscv.cpp:37     .text:00000000000002dc .L0 
     /tmp/ccwPpNaf.s:838    .text:00000000000002e0 .L0 
     /tmp/ccwPpNaf.s:839    .text:00000000000002e0 .L0 
     /tmp/ccwPpNaf.s:844    .text:00000000000002e4 .L0 
  src/../h/riscv.hpp:134    .text:00000000000002e4 .L0 
     /tmp/ccwPpNaf.s:854    .text:00000000000002e8 .L0 
     /tmp/ccwPpNaf.s:855    .text:00000000000002e8 .L0 
     /tmp/ccwPpNaf.s:860    .text:00000000000002ec .L0 
  src/../h/riscv.hpp:88     .text:00000000000002ec .L0 
     /tmp/ccwPpNaf.s:872    .text:00000000000002f0 .L0 
     /tmp/ccwPpNaf.s:873    .text:00000000000002f4 .L0 
     /tmp/ccwPpNaf.s:874    .text:00000000000002f4 .L0 
     /tmp/ccwPpNaf.s:876    .text:00000000000002f8 .L0 
     /tmp/ccwPpNaf.s:877    .text:00000000000002f8 .L0 
     /tmp/ccwPpNaf.s:879    .text:00000000000002fc .L0 
     /tmp/ccwPpNaf.s:882    .text:0000000000000300 .L0 
     /tmp/ccwPpNaf.s:886    .text:0000000000000304 .L0 
     /tmp/ccwPpNaf.s:893    .text:0000000000000304 .L0 
     /tmp/ccwPpNaf.s:894    .text:0000000000000304 .L0 
     /tmp/ccwPpNaf.s:898    .text:0000000000000310 .L0 
       src/riscv.cpp:42     .text:0000000000000310 .L0 
     /tmp/ccwPpNaf.s:911    .text:0000000000000318 .L0 
     /tmp/ccwPpNaf.s:912    .text:0000000000000318 .L0 
     /tmp/ccwPpNaf.s:919    .text:000000000000032c .L0 
     /tmp/ccwPpNaf.s:922    .text:0000000000000330 .L0 
     /tmp/ccwPpNaf.s:923    .text:0000000000000330 .L0 
     /tmp/ccwPpNaf.s:926    .text:0000000000000334 .L0 
     /tmp/ccwPpNaf.s:927    .text:0000000000000334 .L0 
     /tmp/ccwPpNaf.s:929    .text:0000000000000338 .L0 
     /tmp/ccwPpNaf.s:930    .text:0000000000000338 .L0 
     /tmp/ccwPpNaf.s:941    .text:0000000000000344 .L0 
     /tmp/ccwPpNaf.s:942    .text:0000000000000344 .L0 
     /tmp/ccwPpNaf.s:956    .text:0000000000000350 .L0 
     /tmp/ccwPpNaf.s:957    .text:0000000000000350 .L0 
     /tmp/ccwPpNaf.s:960    .text:0000000000000358 .L0 
       src/riscv.cpp:78     .text:0000000000000358 .L0 
     /tmp/ccwPpNaf.s:972    .text:0000000000000360 .L0 
     /tmp/ccwPpNaf.s:973    .text:0000000000000360 .L0 
     /tmp/ccwPpNaf.s:976    .text:000000000000036c .L0 
     /tmp/ccwPpNaf.s:977    .text:000000000000036c .L0 
     /tmp/ccwPpNaf.s:984    .text:0000000000000378 .L0 
     /tmp/ccwPpNaf.s:985    .text:0000000000000378 .L0 
     /tmp/ccwPpNaf.s:988    .text:0000000000000380 .L0 
       src/riscv.cpp:88     .text:0000000000000380 .L0 
GAS LISTING /tmp/ccwPpNaf.s 			page 46


     /tmp/ccwPpNaf.s:1000   .text:0000000000000388 .L0 
     /tmp/ccwPpNaf.s:1001   .text:0000000000000388 .L0 
     /tmp/ccwPpNaf.s:1010   .text:000000000000039c .L0 
     /tmp/ccwPpNaf.s:1011   .text:000000000000039c .L0 
     /tmp/ccwPpNaf.s:1017   .text:00000000000003ac .L0 
     /tmp/ccwPpNaf.s:1020   .text:00000000000003b0 .L0 
     /tmp/ccwPpNaf.s:1021   .text:00000000000003b0 .L0 
     /tmp/ccwPpNaf.s:1024   .text:00000000000003b4 .L0 
     /tmp/ccwPpNaf.s:1025   .text:00000000000003b4 .L0 
     /tmp/ccwPpNaf.s:1027   .text:00000000000003b8 .L0 
     /tmp/ccwPpNaf.s:1028   .text:00000000000003b8 .L0 
     /tmp/ccwPpNaf.s:1039   .text:00000000000003c4 .L0 
     /tmp/ccwPpNaf.s:1040   .text:00000000000003c4 .L0 
     /tmp/ccwPpNaf.s:1054   .text:00000000000003d0 .L0 
     /tmp/ccwPpNaf.s:1055   .text:00000000000003d0 .L0 
     /tmp/ccwPpNaf.s:1058   .text:00000000000003d4 .L0 
     /tmp/ccwPpNaf.s:1059   .text:00000000000003d4 .L0 
     /tmp/ccwPpNaf.s:1062   .text:00000000000003dc .L0 
       src/riscv.cpp:113    .text:00000000000003dc .L0 
     /tmp/ccwPpNaf.s:1075   .text:00000000000003e4 .L0 
     /tmp/ccwPpNaf.s:1076   .text:00000000000003e4 .L0 
     /tmp/ccwPpNaf.s:1079   .text:00000000000003e8 .L0 
     /tmp/ccwPpNaf.s:1080   .text:00000000000003e8 .L0 
     /tmp/ccwPpNaf.s:1083   .text:00000000000003f0 .L0 
       src/riscv.cpp:119    .text:00000000000003f0 .L0 
     /tmp/ccwPpNaf.s:1096   .text:00000000000003f8 .L0 
     /tmp/ccwPpNaf.s:1097   .text:00000000000003f8 .L0 
     /tmp/ccwPpNaf.s:1100   .text:00000000000003fc .L0 
     /tmp/ccwPpNaf.s:1101   .text:00000000000003fc .L0 
     /tmp/ccwPpNaf.s:1104   .text:0000000000000404 .L0 
       src/riscv.cpp:125    .text:0000000000000404 .L0 
     /tmp/ccwPpNaf.s:1116   .text:000000000000040c .L0 
     /tmp/ccwPpNaf.s:1117   .text:000000000000040c .L0 
     /tmp/ccwPpNaf.s:1136   .text:000000000000041c .L0 
     /tmp/ccwPpNaf.s:1137   .text:000000000000041c .L0 
     /tmp/ccwPpNaf.s:1141   .text:000000000000042c .L0 
     /tmp/ccwPpNaf.s:1142   .text:000000000000042c .L0 
     /tmp/ccwPpNaf.s:1148   .text:0000000000000440 .L0 
     /tmp/ccwPpNaf.s:1149   .text:0000000000000440 .L0 
     /tmp/ccwPpNaf.s:1154   .text:0000000000000450 .L0 
     /tmp/ccwPpNaf.s:1155   .text:0000000000000450 .L0 
     /tmp/ccwPpNaf.s:1157   .text:0000000000000454 .L0 
     /tmp/ccwPpNaf.s:1163   .text:0000000000000454 _ZN5Riscv18updateSleepingListEv
     /tmp/ccwPpNaf.s:1166   .text:0000000000000454 .L0 
     /tmp/ccwPpNaf.s:1167   .text:0000000000000454 .L0 
     /tmp/ccwPpNaf.s:1169   .text:0000000000000454 .L0 
     /tmp/ccwPpNaf.s:1170   .text:0000000000000454 .L0 
     /tmp/ccwPpNaf.s:1172   .text:000000000000045c .L0 
     /tmp/ccwPpNaf.s:1177   .text:0000000000000460 .L0 
     /tmp/ccwPpNaf.s:1178   .text:0000000000000460 .L0 
     /tmp/ccwPpNaf.s:1180   .text:0000000000000464 .L0 
     /tmp/ccwPpNaf.s:1182   .text:0000000000000468 .L0 
     /tmp/ccwPpNaf.s:1184   .text:000000000000046c .L0 
     /tmp/ccwPpNaf.s:1191   .text:0000000000000474 .L0 
     /tmp/ccwPpNaf.s:1192   .text:0000000000000478 .L0 
     /tmp/ccwPpNaf.s:1195   .text:0000000000000480 .L0 
     /tmp/ccwPpNaf.s:1196   .text:0000000000000480 .L0 
GAS LISTING /tmp/ccwPpNaf.s 			page 47


     /tmp/ccwPpNaf.s:1198   .text:0000000000000484 .L0 
     /tmp/ccwPpNaf.s:1203   .text:0000000000000484 .L0 
     /tmp/ccwPpNaf.s:1204   .text:0000000000000484 .L0 
     /tmp/ccwPpNaf.s:1209   .text:0000000000000488 .L0 
     /tmp/ccwPpNaf.s:1210   .text:0000000000000488 .L0 
     /tmp/ccwPpNaf.s:1215   .text:000000000000048c .L0 
     /tmp/ccwPpNaf.s:1216   .text:000000000000048c .L0 
     /tmp/ccwPpNaf.s:1220   .text:0000000000000498 .L0 
     /tmp/ccwPpNaf.s:1221   .text:0000000000000498 .L0 
     /tmp/ccwPpNaf.s:1225   .text:00000000000004a4 .L0 
     /tmp/ccwPpNaf.s:1226   .text:00000000000004a4 .L0 
     /tmp/ccwPpNaf.s:1228   .text:00000000000004a8 .L0 
     /tmp/ccwPpNaf.s:1230   .text:00000000000004ac .L0 
     /tmp/ccwPpNaf.s:1231   .text:00000000000004ac .L0 
     /tmp/ccwPpNaf.s:1235   .text:00000000000004b4 .L0 
     /tmp/ccwPpNaf.s:1236   .text:00000000000004b4 .L0 
     /tmp/ccwPpNaf.s:1237   .text:00000000000004b4 .L0 
     /tmp/ccwPpNaf.s:1239   .text:00000000000004bc .L0 
     /tmp/ccwPpNaf.s:1241   .text:00000000000004c0 .L0 
     /tmp/ccwPpNaf.s:1243   .text:00000000000004c4 .L0 
     /tmp/ccwPpNaf.s:1245   .text:00000000000004c8 .L0 
     /tmp/ccwPpNaf.s:1246   .text:00000000000004c8 .L0 
     /tmp/ccwPpNaf.s:1251   .text:00000000000004cc .L0 
     /tmp/ccwPpNaf.s:1252   .text:00000000000004cc .L0 
     /tmp/ccwPpNaf.s:1257   .text:00000000000004d0 .L0 
     /tmp/ccwPpNaf.s:1258   .text:00000000000004d0 .L0 
     /tmp/ccwPpNaf.s:1262   .text:00000000000004dc .L0 
     /tmp/ccwPpNaf.s:1263   .text:00000000000004dc .L0 
     /tmp/ccwPpNaf.s:1267   .text:00000000000004e8 .L0 
     /tmp/ccwPpNaf.s:1268   .text:00000000000004e8 .L0 
     /tmp/ccwPpNaf.s:1270   .text:00000000000004ec .L0 
     /tmp/ccwPpNaf.s:1272   .text:00000000000004f0 .L0 
     /tmp/ccwPpNaf.s:1273   .text:00000000000004f0 .L0 
     /tmp/ccwPpNaf.s:1276   .text:00000000000004f8 .L0 
     /tmp/ccwPpNaf.s:1282   .text:00000000000004fc .L0 
     /tmp/ccwPpNaf.s:1283   .text:0000000000000500 .L0 
     /tmp/ccwPpNaf.s:1285   .text:0000000000000504 .L0 
     /tmp/ccwPpNaf.s:1286   .text:0000000000000504 .L0 
     /tmp/ccwPpNaf.s:1288   .text:0000000000000508 .L0 
     /tmp/ccwPpNaf.s:1290   .text:000000000000050c .L0 
     /tmp/ccwPpNaf.s:1296   .text:000000000000050c _ZN5Riscv14timerInterruptEv
     /tmp/ccwPpNaf.s:1299   .text:000000000000050c .L0 
     /tmp/ccwPpNaf.s:1300   .text:000000000000050c .L0 
     /tmp/ccwPpNaf.s:1301   .text:0000000000000510 .L0 
     /tmp/ccwPpNaf.s:1304   .text:0000000000000518 .L0 
     /tmp/ccwPpNaf.s:1305   .text:0000000000000518 .L0 
     /tmp/ccwPpNaf.s:1307   .text:000000000000051c .L0 
     /tmp/ccwPpNaf.s:1311   .text:000000000000051c .L0 
     /tmp/ccwPpNaf.s:1312   .text:000000000000051c .L0 
     /tmp/ccwPpNaf.s:1313   .text:000000000000051c .L0 
  src/../h/riscv.hpp:75     .text:000000000000051c .L0 
     /tmp/ccwPpNaf.s:1321   .text:0000000000000524 .L0 
     /tmp/ccwPpNaf.s:1322   .text:0000000000000524 .L0 
     /tmp/ccwPpNaf.s:1328   .text:0000000000000528 .L0 
     /tmp/ccwPpNaf.s:1336   .text:0000000000000538 .L0 
     /tmp/ccwPpNaf.s:1337   .text:000000000000053c .L0 
     /tmp/ccwPpNaf.s:1338   .text:000000000000053c .L0 
GAS LISTING /tmp/ccwPpNaf.s 			page 48


     /tmp/ccwPpNaf.s:1340   .text:0000000000000540 .L0 
     /tmp/ccwPpNaf.s:1341   .text:0000000000000540 .L0 
     /tmp/ccwPpNaf.s:1343   .text:0000000000000544 .L0 
     /tmp/ccwPpNaf.s:1347   .text:0000000000000548 .L0 
     /tmp/ccwPpNaf.s:1351   .text:0000000000000548 .L0 
     /tmp/ccwPpNaf.s:1352   .text:0000000000000548 .L0 
     /tmp/ccwPpNaf.s:1355   .text:0000000000000550 .L0 
     /tmp/ccwPpNaf.s:1356   .text:0000000000000550 .L0 
     /tmp/ccwPpNaf.s:1362   .text:0000000000000564 .L0 
     /tmp/ccwPpNaf.s:1363   .text:0000000000000564 .L0 
     /tmp/ccwPpNaf.s:1369   .text:0000000000000570 .L0 
     /tmp/ccwPpNaf.s:1370   .text:0000000000000570 .L0 
     /tmp/ccwPpNaf.s:1375   .text:0000000000000574 .L0 
     /tmp/ccwPpNaf.s:1382   .text:0000000000000578 .L0 
     /tmp/ccwPpNaf.s:1383   .text:0000000000000578 .L0 
     /tmp/ccwPpNaf.s:1384   .text:0000000000000578 .L0 
     /tmp/ccwPpNaf.s:1396   .text:0000000000000580 .L0 
     /tmp/ccwPpNaf.s:1405   .text:0000000000000584 .L0 
     /tmp/ccwPpNaf.s:1406   .text:0000000000000584 .L0 
     /tmp/ccwPpNaf.s:1407   .text:0000000000000584 .L0 
  src/../h/riscv.hpp:84     .text:0000000000000584 .L0 
     /tmp/ccwPpNaf.s:1415   .text:000000000000058c .L0 
     /tmp/ccwPpNaf.s:1416   .text:000000000000058c .L0 
     /tmp/ccwPpNaf.s:1420   .text:0000000000000590 .L0 
     /tmp/ccwPpNaf.s:1424   .text:0000000000000594 .L0 
     /tmp/ccwPpNaf.s:1425   .text:0000000000000594 .L0 
     /tmp/ccwPpNaf.s:1426   .text:0000000000000594 .L0 
  src/../h/riscv.hpp:130    .text:0000000000000594 .L0 
     /tmp/ccwPpNaf.s:1434   .text:000000000000059c .L0 
     /tmp/ccwPpNaf.s:1435   .text:000000000000059c .L0 
     /tmp/ccwPpNaf.s:1439   .text:00000000000005a0 .L0 
     /tmp/ccwPpNaf.s:1441   .text:00000000000005a4 .L0 
     /tmp/ccwPpNaf.s:1442   .text:00000000000005a4 .L0 
     /tmp/ccwPpNaf.s:1445   .text:00000000000005b0 .L0 
     /tmp/ccwPpNaf.s:1446   .text:00000000000005b0 .L0 
     /tmp/ccwPpNaf.s:1449   .text:00000000000005b8 .L0 
     /tmp/ccwPpNaf.s:1450   .text:00000000000005b8 .L0 
     /tmp/ccwPpNaf.s:1455   .text:00000000000005bc .L0 
  src/../h/riscv.hpp:134    .text:00000000000005bc .L0 
     /tmp/ccwPpNaf.s:1465   .text:00000000000005c0 .L0 
     /tmp/ccwPpNaf.s:1466   .text:00000000000005c0 .L0 
     /tmp/ccwPpNaf.s:1471   .text:00000000000005c4 .L0 
  src/../h/riscv.hpp:88     .text:00000000000005c4 .L0 
     /tmp/ccwPpNaf.s:1478   .text:00000000000005c8 .L0 
     /tmp/ccwPpNaf.s:1485   .text:00000000000005cc .L0 
     /tmp/ccwPpNaf.s:1494   .bss:0000000000000000 _ZN5Riscv12headSleepingE
     /tmp/ccwPpNaf.s:1491   .bss:0000000000000000 .LANCHOR0
     /tmp/ccwPpNaf.s:1506   .text:00000000000005cc .L0 
     /tmp/ccwPpNaf.s:100    .text:000000000000005c .L0 
     /tmp/ccwPpNaf.s:188    .text:00000000000000b8 .L0 
     /tmp/ccwPpNaf.s:214    .text:00000000000000e0 .L0 
     /tmp/ccwPpNaf.s:238    .text:0000000000000108 .L0 
     /tmp/ccwPpNaf.s:244    .text:0000000000000110 .L0 
     /tmp/ccwPpNaf.s:280    .text:0000000000000148 .L0 
     /tmp/ccwPpNaf.s:973    .text:0000000000000360 .L0 
     /tmp/ccwPpNaf.s:359    .rodata.str1.8:0000000000000000 .LC0
     /tmp/ccwPpNaf.s:1137   .text:000000000000041c .L0 
GAS LISTING /tmp/ccwPpNaf.s 			page 49


     /tmp/ccwPpNaf.s:362    .rodata.str1.8:0000000000000008 .LC1
     /tmp/ccwPpNaf.s:1149   .text:0000000000000440 .L0 
     /tmp/ccwPpNaf.s:1170   .text:0000000000000454 .L0 
     /tmp/ccwPpNaf.s:1221   .text:0000000000000498 .L0 
     /tmp/ccwPpNaf.s:1237   .text:00000000000004b4 .L0 
     /tmp/ccwPpNaf.s:1263   .text:00000000000004dc .L0 
     /tmp/ccwPpNaf.s:1356   .text:0000000000000550 .L0 
     /tmp/ccwPpNaf.s:1363   .text:0000000000000564 .L0 
     /tmp/ccwPpNaf.s:1442   .text:00000000000005a4 .L0 
     /tmp/ccwPpNaf.s:59     .text:000000000000003c .L4
     /tmp/ccwPpNaf.s:47     .text:000000000000002c .L1
     /tmp/ccwPpNaf.s:141    .text:000000000000008c .L6
     /tmp/ccwPpNaf.s:118    .text:0000000000000078 .L7
     /tmp/ccwPpNaf.s:340    .text:00000000000001a0 .L18
     /tmp/ccwPpNaf.s:269    .text:0000000000000140 .L23
     /tmp/ccwPpNaf.s:282    .text:0000000000000154 .L13
     /tmp/ccwPpNaf.s:239    .text:0000000000000110 .L12
     /tmp/ccwPpNaf.s:315    .text:0000000000000178 .L14
     /tmp/ccwPpNaf.s:294    .text:000000000000015c .L15
     /tmp/ccwPpNaf.s:334    .text:0000000000000198 .L24
     /tmp/ccwPpNaf.s:326    .text:000000000000018c .L17
     /tmp/ccwPpNaf.s:1121   .text:000000000000041c .L26
     /tmp/ccwPpNaf.s:807    .text:00000000000002d0 .L45
     /tmp/ccwPpNaf.s:885    .text:0000000000000304 .L46
     /tmp/ccwPpNaf.s:907    .text:0000000000000318 .L47
     /tmp/ccwPpNaf.s:950    .text:0000000000000350 .L48
     /tmp/ccwPpNaf.s:969    .text:0000000000000360 .L49
     /tmp/ccwPpNaf.s:980    .text:0000000000000378 .L50
     /tmp/ccwPpNaf.s:997    .text:0000000000000388 .L51
     /tmp/ccwPpNaf.s:1006   .text:000000000000039c .L52
     /tmp/ccwPpNaf.s:1048   .text:00000000000003d0 .L53
     /tmp/ccwPpNaf.s:1071   .text:00000000000003e4 .L54
     /tmp/ccwPpNaf.s:1092   .text:00000000000003f8 .L55
     /tmp/ccwPpNaf.s:1113   .text:000000000000040c .L56
     /tmp/ccwPpNaf.s:834    .text:00000000000002e0 .L28
     /tmp/ccwPpNaf.s:938    .text:0000000000000344 .L57
     /tmp/ccwPpNaf.s:1036   .text:00000000000003c4 .L58
     /tmp/ccwPpNaf.s:1152   .text:0000000000000450 .L42
     /tmp/ccwPpNaf.s:1185   .text:0000000000000470 .L63
     /tmp/ccwPpNaf.s:1187   .text:0000000000000474 .L66
     /tmp/ccwPpNaf.s:1277   .text:00000000000004fc .L59
     /tmp/ccwPpNaf.s:1233   .text:00000000000004b4 .L61
     /tmp/ccwPpNaf.s:1346   .text:0000000000000548 .L71
     /tmp/ccwPpNaf.s:1397   .text:0000000000000584 .L72
     /tmp/ccwPpNaf.s:1333   .text:0000000000000538 .L67
     /tmp/ccwPpNaf.s:1376   .text:0000000000000578 .L69
     /tmp/ccwPpNaf.s:3504   .debug_abbrev:0000000000000000 .Ldebug_abbrev0
     /tmp/ccwPpNaf.s:5149   .debug_str:00000000000007b0 .LASF171
     /tmp/ccwPpNaf.s:5199   .debug_str:00000000000009b5 .LASF172
     /tmp/ccwPpNaf.s:4963   .debug_str:0000000000000289 .LASF173
     /tmp/ccwPpNaf.s:5      .text:0000000000000000 .Ltext0
     /tmp/ccwPpNaf.s:1497   .text:00000000000005cc .Letext0
     /tmp/ccwPpNaf.s:4871   .debug_line:0000000000000000 .Ldebug_line0
     /tmp/ccwPpNaf.s:4987   .debug_str:0000000000000352 .LASF0
     /tmp/ccwPpNaf.s:5009   .debug_str:00000000000003f4 .LASF1
     /tmp/ccwPpNaf.s:5093   .debug_str:0000000000000646 .LASF2
     /tmp/ccwPpNaf.s:5101   .debug_str:000000000000068b .LASF4
GAS LISTING /tmp/ccwPpNaf.s 			page 50


     /tmp/ccwPpNaf.s:4993   .debug_str:0000000000000379 .LASF3
     /tmp/ccwPpNaf.s:4881   .debug_str:0000000000000030 .LASF5
     /tmp/ccwPpNaf.s:5069   .debug_str:0000000000000585 .LASF6
     /tmp/ccwPpNaf.s:5061   .debug_str:000000000000055a .LASF7
     /tmp/ccwPpNaf.s:5001   .debug_str:00000000000003c0 .LASF8
     /tmp/ccwPpNaf.s:4961   .debug_str:0000000000000279 .LASF9
     /tmp/ccwPpNaf.s:4969   .debug_str:00000000000002cf .LASF10
     /tmp/ccwPpNaf.s:4903   .debug_str:00000000000000cb .LASF11
     /tmp/ccwPpNaf.s:4953   .debug_str:0000000000000242 .LASF12
     /tmp/ccwPpNaf.s:4917   .debug_str:0000000000000127 .LASF13
     /tmp/ccwPpNaf.s:4901   .debug_str:00000000000000bb .LASF14
     /tmp/ccwPpNaf.s:5133   .debug_str:0000000000000772 .LASF15
     /tmp/ccwPpNaf.s:4935   .debug_str:00000000000001a5 .LASF16
     /tmp/ccwPpNaf.s:5117   .debug_str:00000000000006f1 .LASF17
     /tmp/ccwPpNaf.s:5161   .debug_str:00000000000008a0 .LASF72
     /tmp/ccwPpNaf.s:5043   .debug_str:00000000000004cf .LASF74
     /tmp/ccwPpNaf.s:5011   .debug_str:0000000000000407 .LASF95
     /tmp/ccwPpNaf.s:5173   .debug_str:0000000000000901 .LASF96
     /tmp/ccwPpNaf.s:4909   .debug_str:00000000000000f2 .LASF18
     /tmp/ccwPpNaf.s:4929   .debug_str:0000000000000191 .LASF20
     /tmp/ccwPpNaf.s:5171   .debug_str:00000000000008df .LASF19
     /tmp/ccwPpNaf.s:5131   .debug_str:0000000000000765 .LASF21
     /tmp/ccwPpNaf.s:4999   .debug_str:00000000000003b1 .LASF22
     /tmp/ccwPpNaf.s:5113   .debug_str:00000000000006cd .LASF23
     /tmp/ccwPpNaf.s:4955   .debug_str:0000000000000251 .LASF24
     /tmp/ccwPpNaf.s:5145   .debug_str:000000000000079e .LASF25
     /tmp/ccwPpNaf.s:5185   .debug_str:0000000000000959 .LASF84
     /tmp/ccwPpNaf.s:5207   .debug_str:00000000000009e9 .LASF29
     /tmp/ccwPpNaf.s:4943   .debug_str:00000000000001e8 .LASF26
     /tmp/ccwPpNaf.s:5147   .debug_str:00000000000007a3 .LASF27
     /tmp/ccwPpNaf.s:4925   .debug_str:0000000000000173 .LASF28
     /tmp/ccwPpNaf.s:5081   .debug_str:00000000000005d7 .LASF30
     /tmp/ccwPpNaf.s:4997   .debug_str:00000000000003a8 .LASF31
     /tmp/ccwPpNaf.s:4941   .debug_str:00000000000001df .LASF32
     /tmp/ccwPpNaf.s:5201   .debug_str:00000000000009c3 .LASF33
     /tmp/ccwPpNaf.s:5059   .debug_str:000000000000054d .LASF86
     /tmp/ccwPpNaf.s:5193   .debug_str:0000000000000993 .LASF34
     /tmp/ccwPpNaf.s:4905   .debug_str:00000000000000da .LASF35
     /tmp/ccwPpNaf.s:4973   .debug_str:00000000000002f2 .LASF68
     /tmp/ccwPpNaf.s:4983   .debug_str:0000000000000334 .LASF70
     /tmp/ccwPpNaf.s:5167   .debug_str:00000000000008d1 .LASF36
     /tmp/ccwPpNaf.s:5165   .debug_str:00000000000008bc .LASF38
     /tmp/ccwPpNaf.s:5089   .debug_str:0000000000000632 .LASF40
     /tmp/ccwPpNaf.s:5047   .debug_str:00000000000004fa .LASF42
     /tmp/ccwPpNaf.s:5073   .debug_str:0000000000000594 .LASF37
     /tmp/ccwPpNaf.s:5075   .debug_str:000000000000059b .LASF39
     /tmp/ccwPpNaf.s:5039   .debug_str:00000000000004c3 .LASF41
     /tmp/ccwPpNaf.s:5003   .debug_str:00000000000003d3 .LASF43
     /tmp/ccwPpNaf.s:5197   .debug_str:00000000000009ad .LASF44
     /tmp/ccwPpNaf.s:5157   .debug_str:0000000000000886 .LASF45
     /tmp/ccwPpNaf.s:5035   .debug_str:00000000000004b6 .LASF46
     /tmp/ccwPpNaf.s:5045   .debug_str:00000000000004e6 .LASF47
     /tmp/ccwPpNaf.s:5015   .debug_str:0000000000000419 .LASF48
     /tmp/ccwPpNaf.s:5079   .debug_str:00000000000005c3 .LASF49
     /tmp/ccwPpNaf.s:5221   .debug_str:0000000000000a73 .LASF50
     /tmp/ccwPpNaf.s:4991   .debug_str:0000000000000365 .LASF51
     /tmp/ccwPpNaf.s:4883   .debug_str:0000000000000037 .LASF52
GAS LISTING /tmp/ccwPpNaf.s 			page 51


     /tmp/ccwPpNaf.s:5097   .debug_str:000000000000065e .LASF53
     /tmp/ccwPpNaf.s:5091   .debug_str:000000000000063b .LASF54
     /tmp/ccwPpNaf.s:5215   .debug_str:0000000000000a39 .LASF55
     /tmp/ccwPpNaf.s:5189   .debug_str:0000000000000981 .LASF56
     /tmp/ccwPpNaf.s:5205   .debug_str:00000000000009d3 .LASF57
     /tmp/ccwPpNaf.s:5179   .debug_str:000000000000092a .LASF58
     /tmp/ccwPpNaf.s:5023   .debug_str:0000000000000449 .LASF59
     /tmp/ccwPpNaf.s:5127   .debug_str:0000000000000754 .LASF60
     /tmp/ccwPpNaf.s:5103   .debug_str:0000000000000692 .LASF61
     /tmp/ccwPpNaf.s:5105   .debug_str:00000000000006a5 .LASF62
     /tmp/ccwPpNaf.s:4907   .debug_str:00000000000000df .LASF63
     /tmp/ccwPpNaf.s:4933   .debug_str:000000000000019f .LASF64
     /tmp/ccwPpNaf.s:4981   .debug_str:0000000000000322 .LASF65
     /tmp/ccwPpNaf.s:4989   .debug_str:000000000000035f .LASF66
     /tmp/ccwPpNaf.s:4927   .debug_str:000000000000017f .LASF67
     /tmp/ccwPpNaf.s:5195   .debug_str:000000000000099e .LASF69
     /tmp/ccwPpNaf.s:4967   .debug_str:00000000000002b3 .LASF71
     /tmp/ccwPpNaf.s:5177   .debug_str:000000000000091f .LASF73
     /tmp/ccwPpNaf.s:4945   .debug_str:00000000000001f4 .LASF75
     /tmp/ccwPpNaf.s:4895   .debug_str:000000000000008a .LASF76
     /tmp/ccwPpNaf.s:5031   .debug_str:0000000000000486 .LASF77
     /tmp/ccwPpNaf.s:5219   .debug_str:0000000000000a5e .LASF78
     /tmp/ccwPpNaf.s:5187   .debug_str:000000000000095f .LASF80
     /tmp/ccwPpNaf.s:4891   .debug_str:000000000000005e .LASF79
     /tmp/ccwPpNaf.s:5017   .debug_str:0000000000000421 .LASF81
     /tmp/ccwPpNaf.s:5209   .debug_str:00000000000009f8 .LASF82
     /tmp/ccwPpNaf.s:5115   .debug_str:00000000000006d2 .LASF83
     /tmp/ccwPpNaf.s:4957   .debug_str:0000000000000262 .LASF98
     /tmp/ccwPpNaf.s:5055   .debug_str:0000000000000531 .LASF85
     /tmp/ccwPpNaf.s:5111   .debug_str:00000000000006c6 .LASF87
     /tmp/ccwPpNaf.s:5007   .debug_str:00000000000003ef .LASF88
     /tmp/ccwPpNaf.s:5159   .debug_str:000000000000089a .LASF89
     /tmp/ccwPpNaf.s:5087   .debug_str:0000000000000615 .LASF90
     /tmp/ccwPpNaf.s:5049   .debug_str:000000000000050f .LASF91
     /tmp/ccwPpNaf.s:4995   .debug_str:000000000000038b .LASF92
     /tmp/ccwPpNaf.s:5109   .debug_str:00000000000006bb .LASF93
     /tmp/ccwPpNaf.s:5123   .debug_str:000000000000072c .LASF94
     /tmp/ccwPpNaf.s:5083   .debug_str:00000000000005e2 .LASF97
     /tmp/ccwPpNaf.s:5095   .debug_str:0000000000000654 .LASF132
     /tmp/ccwPpNaf.s:4923   .debug_str:0000000000000157 .LASF133
     /tmp/ccwPpNaf.s:5027   .debug_str:0000000000000471 .LASF99
     /tmp/ccwPpNaf.s:5141   .debug_str:0000000000000794 .LASF100
     /tmp/ccwPpNaf.s:5053   .debug_str:0000000000000524 .LASF101
     /tmp/ccwPpNaf.s:5041   .debug_str:00000000000004ca .LASF102
     /tmp/ccwPpNaf.s:5051   .debug_str:0000000000000514 .LASF103
     /tmp/ccwPpNaf.s:4885   .debug_str:0000000000000042 .LASF104
     /tmp/ccwPpNaf.s:4889   .debug_str:000000000000004d .LASF105
     /tmp/ccwPpNaf.s:4931   .debug_str:000000000000019a .LASF106
     /tmp/ccwPpNaf.s:5033   .debug_str:00000000000004a6 .LASF107
     /tmp/ccwPpNaf.s:5135   .debug_str:000000000000077e .LASF108
     /tmp/ccwPpNaf.s:5121   .debug_str:000000000000071a .LASF109
     /tmp/ccwPpNaf.s:4975   .debug_str:00000000000002fd .LASF110
     /tmp/ccwPpNaf.s:5025   .debug_str:000000000000045f .LASF111
     /tmp/ccwPpNaf.s:5217   .debug_str:0000000000000a51 .LASF112
     /tmp/ccwPpNaf.s:5223   .debug_str:0000000000000a7b .LASF113
     /tmp/ccwPpNaf.s:4877   .debug_str:0000000000000018 .LASF114
     /tmp/ccwPpNaf.s:4951   .debug_str:0000000000000234 .LASF115
GAS LISTING /tmp/ccwPpNaf.s 			page 52


     /tmp/ccwPpNaf.s:4899   .debug_str:00000000000000b2 .LASF116
     /tmp/ccwPpNaf.s:4971   .debug_str:00000000000002dd .LASF117
     /tmp/ccwPpNaf.s:4913   .debug_str:000000000000010a .LASF118
     /tmp/ccwPpNaf.s:5077   .debug_str:00000000000005ae .LASF119
     /tmp/ccwPpNaf.s:4985   .debug_str:000000000000034c .LASF120
     /tmp/ccwPpNaf.s:4947   .debug_str:000000000000020c .LASF121
     /tmp/ccwPpNaf.s:4879   .debug_str:0000000000000028 .LASF122
     /tmp/ccwPpNaf.s:4873   .debug_str:0000000000000000 .LASF123
     /tmp/ccwPpNaf.s:5071   .debug_str:000000000000058c .LASF124
     /tmp/ccwPpNaf.s:5183   .debug_str:0000000000000952 .LASF125
     /tmp/ccwPpNaf.s:5065   .debug_str:0000000000000576 .LASF126
     /tmp/ccwPpNaf.s:5169   .debug_str:00000000000008da .LASF145
     /tmp/ccwPpNaf.s:5125   .debug_str:000000000000074f .LASF127
     /tmp/ccwPpNaf.s:5037   .debug_str:00000000000004be .LASF128
     /tmp/ccwPpNaf.s:5155   .debug_str:0000000000000881 .LASF129
     /tmp/ccwPpNaf.s:5119   .debug_str:0000000000000707 .LASF130
     /tmp/ccwPpNaf.s:4949   .debug_str:000000000000021d .LASF131
     /tmp/ccwPpNaf.s:5085   .debug_str:00000000000005fe .LASF134
     /tmp/ccwPpNaf.s:5005   .debug_str:00000000000003e6 .LASF135
     /tmp/ccwPpNaf.s:4893   .debug_str:000000000000006d .LASF136
     /tmp/ccwPpNaf.s:4937   .debug_str:00000000000001bb .LASF137
     /tmp/ccwPpNaf.s:4939   .debug_str:00000000000001c3 .LASF138
     /tmp/ccwPpNaf.s:5057   .debug_str:0000000000000541 .LASF139
     /tmp/ccwPpNaf.s:5181   .debug_str:0000000000000934 .LASF140
     /tmp/ccwPpNaf.s:5225   .debug_str:0000000000000a88 .LASF141
     /tmp/ccwPpNaf.s:5213   .debug_str:0000000000000a1e .LASF142
     /tmp/ccwPpNaf.s:5021   .debug_str:0000000000000444 .LASF143
     /tmp/ccwPpNaf.s:4959   .debug_str:000000000000026f .LASF144
     /tmp/ccwPpNaf.s:4979   .debug_str:000000000000030a .LASF174
     /tmp/ccwPpNaf.s:5211   .debug_str:0000000000000a0a .LASF175
     /tmp/ccwPpNaf.s:4897   .debug_str:000000000000009d .LASF146
     /tmp/ccwPpNaf.s:5099   .debug_str:0000000000000676 .LASF147
     /tmp/ccwPpNaf.s:5139   .debug_str:000000000000078e .LASF148
     /tmp/ccwPpNaf.s:5013   .debug_str:0000000000000414 .LASF149
     /tmp/ccwPpNaf.s:4921   .debug_str:000000000000013e .LASF176
     /tmp/ccwPpNaf.s:1164   .text:0000000000000454 .LFB39
     /tmp/ccwPpNaf.s:1291   .text:000000000000050c .LFE39
     /tmp/ccwPpNaf.s:1201   .text:0000000000000484 .LBB252
     /tmp/ccwPpNaf.s:1278   .text:00000000000004fc .LBE252
     /tmp/ccwPpNaf.s:4489   .debug_loc:0000000000000000 .LLST29
     /tmp/ccwPpNaf.s:1206   .text:0000000000000488 .LBB253
     /tmp/ccwPpNaf.s:1213   .text:000000000000048c .LBE253
     /tmp/ccwPpNaf.s:4500   .debug_loc:0000000000000036 .LLST30
     /tmp/ccwPpNaf.s:4508   .debug_loc:000000000000005a .LLST31
     /tmp/ccwPpNaf.s:1248   .text:00000000000004cc .LBB255
     /tmp/ccwPpNaf.s:1255   .text:00000000000004d0 .LBE255
     /tmp/ccwPpNaf.s:4515   .debug_loc:000000000000007d .LLST32
     /tmp/ccwPpNaf.s:4523   .debug_loc:00000000000000a1 .LLST33
     /tmp/ccwPpNaf.s:1218   .text:0000000000000498 .LVL66
     /tmp/ccwPpNaf.s:1232   .text:00000000000004b4 .LVL68
     /tmp/ccwPpNaf.s:1260   .text:00000000000004dc .LVL71
     /tmp/ccwPpNaf.s:1274   .text:00000000000004f8 .LVL73
     /tmp/ccwPpNaf.s:166    .text:0000000000000098 .LFB38
     /tmp/ccwPpNaf.s:355    .text:00000000000001a8 .LFE38
     /tmp/ccwPpNaf.s:5067   .debug_str:0000000000000580 .LASF159
     /tmp/ccwPpNaf.s:4530   .debug_loc:00000000000000c4 .LLST3
     /tmp/ccwPpNaf.s:5029   .debug_str:000000000000047e .LASF150
GAS LISTING /tmp/ccwPpNaf.s 			page 53


     /tmp/ccwPpNaf.s:4563   .debug_loc:000000000000014c .LLST4
     /tmp/ccwPpNaf.s:284    .text:0000000000000154 .LBB91
     /tmp/ccwPpNaf.s:346    .text:00000000000001a0 .LBE91
     /tmp/ccwPpNaf.s:5151   .debug_str:0000000000000874 .LASF151
     /tmp/ccwPpNaf.s:4574   .debug_loc:0000000000000182 .LLST7
     /tmp/ccwPpNaf.s:4581   .debug_loc:00000000000001a5 .LLST8
     /tmp/ccwPpNaf.s:4887   .debug_str:0000000000000048 .LASF152
     /tmp/ccwPpNaf.s:4597   .debug_loc:00000000000001ef .LLST9
     /tmp/ccwPpNaf.s:191    .text:00000000000000c4 .LBB87
     /tmp/ccwPpNaf.s:200    .text:00000000000000cc .LBE87
     /tmp/ccwPpNaf.s:4612   .debug_loc:0000000000000238 .LLST5
     /tmp/ccwPpNaf.s:4620   .debug_loc:000000000000025c .LLST6
     /tmp/ccwPpNaf.s:206    .text:00000000000000d8 .LVL13
     /tmp/ccwPpNaf.s:249    .text:0000000000000124 .LVL14
     /tmp/ccwPpNaf.s:74     .text:0000000000000048 .LFB37
     /tmp/ccwPpNaf.s:160    .text:0000000000000098 .LFE37
     /tmp/ccwPpNaf.s:85     .text:0000000000000054 .LBB81
     /tmp/ccwPpNaf.s:97     .text:000000000000005c .LBE81
     /tmp/ccwPpNaf.s:4627   .debug_loc:000000000000027f .LLST1
     /tmp/ccwPpNaf.s:107    .text:0000000000000070 .LBB83
     /tmp/ccwPpNaf.s:120    .text:0000000000000078 .LBE83
     /tmp/ccwPpNaf.s:4636   .debug_loc:00000000000002a4 .LLST2
     /tmp/ccwPpNaf.s:145    .text:000000000000008c .LBB85
     /tmp/ccwPpNaf.s:158    .text:0000000000000098 .LBE85
     /tmp/ccwPpNaf.s:10     .text:0000000000000000 .LFB36
     /tmp/ccwPpNaf.s:68     .text:0000000000000048 .LFE36
     /tmp/ccwPpNaf.s:4919   .debug_str:0000000000000137 .LASF153
     /tmp/ccwPpNaf.s:4645   .debug_loc:00000000000002ca .LLST0
     /tmp/ccwPpNaf.s:23     .text:0000000000000010 .LBB79
     /tmp/ccwPpNaf.s:40     .text:000000000000001c .LBE79
     /tmp/ccwPpNaf.s:64     .text:0000000000000044 .LVL3
     /tmp/ccwPpNaf.s:1297   .text:000000000000050c .LFB35
     /tmp/ccwPpNaf.s:1486   .text:00000000000005cc .LFE35
     /tmp/ccwPpNaf.s:4656   .debug_loc:0000000000000300 .LLST34
     /tmp/ccwPpNaf.s:1401   .text:0000000000000584 .LBB267
     /tmp/ccwPpNaf.s:1481   .text:00000000000005cc .LBE267
     /tmp/ccwPpNaf.s:5153   .debug_str:000000000000087c .LASF154
     /tmp/ccwPpNaf.s:5191   .debug_str:000000000000098b .LASF155
     /tmp/ccwPpNaf.s:1403   .text:0000000000000584 .LBB268
     /tmp/ccwPpNaf.s:1418   .text:0000000000000590 .LBE268
     /tmp/ccwPpNaf.s:1422   .text:0000000000000594 .LBB270
     /tmp/ccwPpNaf.s:1437   .text:00000000000005a0 .LBE270
     /tmp/ccwPpNaf.s:1452   .text:00000000000005bc .LBB272
     /tmp/ccwPpNaf.s:1463   .text:00000000000005c0 .LBE272
     /tmp/ccwPpNaf.s:4667   .debug_loc:0000000000000336 .LLST36
     /tmp/ccwPpNaf.s:1468   .text:00000000000005c4 .LBB274
     /tmp/ccwPpNaf.s:1480   .text:00000000000005cc .LBE274
     /tmp/ccwPpNaf.s:1447   .text:00000000000005b8 .LVL82
     /tmp/ccwPpNaf.s:1309   .text:000000000000051c .LBB260
     /tmp/ccwPpNaf.s:1325   .text:0000000000000528 .LBE260
     /tmp/ccwPpNaf.s:1366   .text:0000000000000570 .LBB265
     /tmp/ccwPpNaf.s:1373   .text:0000000000000574 .LBE265
     /tmp/ccwPpNaf.s:4674   .debug_loc:0000000000000359 .LLST35
     /tmp/ccwPpNaf.s:1380   .text:0000000000000578 .LBB276
     /tmp/ccwPpNaf.s:1392   .text:0000000000000580 .LBE276
     /tmp/ccwPpNaf.s:4681   .debug_loc:000000000000037c .LLST37
     /tmp/ccwPpNaf.s:1353   .text:0000000000000550 .LVL77
GAS LISTING /tmp/ccwPpNaf.s 			page 54


     /tmp/ccwPpNaf.s:369    .text:00000000000001a8 .LFB34
     /tmp/ccwPpNaf.s:1158   .text:0000000000000454 .LFE34
     /tmp/ccwPpNaf.s:4689   .debug_loc:00000000000003a0 .LLST10
     /tmp/ccwPpNaf.s:4839   .debug_ranges:0000000000000000 .Ldebug_ranges0
     /tmp/ccwPpNaf.s:820    .text:00000000000002d0 .LBB205
     /tmp/ccwPpNaf.s:835    .text:00000000000002e0 .LBE205
     /tmp/ccwPpNaf.s:4700   .debug_loc:00000000000003d6 .LLST26
     /tmp/ccwPpNaf.s:825    .text:00000000000002dc .LVL27
     /tmp/ccwPpNaf.s:891    .text:0000000000000304 .LBB192
     /tmp/ccwPpNaf.s:904    .text:0000000000000314 .LBE192
     /tmp/ccwPpNaf.s:4911   .debug_str:0000000000000105 .LASF156
     /tmp/ccwPpNaf.s:4707   .debug_loc:00000000000003f9 .LLST25
     /tmp/ccwPpNaf.s:896    .text:0000000000000310 .LVL35
     /tmp/ccwPpNaf.s:909    .text:0000000000000318 .LBB178
     /tmp/ccwPpNaf.s:952    .text:0000000000000350 .LBE178
     /tmp/ccwPpNaf.s:5203   .debug_str:00000000000009cc .LASF157
     /tmp/ccwPpNaf.s:4714   .debug_loc:000000000000041c .LLST23
     /tmp/ccwPpNaf.s:920    .text:0000000000000330 .LBB180
     /tmp/ccwPpNaf.s:939    .text:0000000000000344 .LBE180
     /tmp/ccwPpNaf.s:5129   .debug_str:000000000000075b .LASF158
     /tmp/ccwPpNaf.s:4721   .debug_loc:000000000000043f .LLST24
     /tmp/ccwPpNaf.s:916    .text:000000000000032c .LVL37
     /tmp/ccwPpNaf.s:954    .text:0000000000000350 .LBB167
     /tmp/ccwPpNaf.s:966    .text:000000000000035c .LBE167
     /tmp/ccwPpNaf.s:4728   .debug_loc:0000000000000462 .LLST22
     /tmp/ccwPpNaf.s:958    .text:0000000000000358 .LVL41
     /tmp/ccwPpNaf.s:982    .text:0000000000000378 .LBB149
     /tmp/ccwPpNaf.s:994    .text:0000000000000384 .LBE149
     /tmp/ccwPpNaf.s:4735   .debug_loc:0000000000000485 .LLST21
     /tmp/ccwPpNaf.s:986    .text:0000000000000380 .LVL44
     /tmp/ccwPpNaf.s:1008   .text:000000000000039c .LBB133
     /tmp/ccwPpNaf.s:1050   .text:00000000000003d0 .LBE133
     /tmp/ccwPpNaf.s:4742   .debug_loc:00000000000004a8 .LLST19
     /tmp/ccwPpNaf.s:1018   .text:00000000000003b0 .LBB135
     /tmp/ccwPpNaf.s:1037   .text:00000000000003c4 .LBE135
     /tmp/ccwPpNaf.s:4749   .debug_loc:00000000000004cb .LLST20
     /tmp/ccwPpNaf.s:1014   .text:00000000000003ac .LVL47
     /tmp/ccwPpNaf.s:1052   .text:00000000000003d0 .LBB127
     /tmp/ccwPpNaf.s:1068   .text:00000000000003e0 .LBE127
     /tmp/ccwPpNaf.s:4756   .debug_loc:00000000000004ee .LLST17
     /tmp/ccwPpNaf.s:4763   .debug_loc:0000000000000511 .LLST18
     /tmp/ccwPpNaf.s:1060   .text:00000000000003dc .LVL52
     /tmp/ccwPpNaf.s:1073   .text:00000000000003e4 .LBB122
     /tmp/ccwPpNaf.s:1089   .text:00000000000003f4 .LBE122
     /tmp/ccwPpNaf.s:4770   .debug_loc:0000000000000534 .LLST15
     /tmp/ccwPpNaf.s:4777   .debug_loc:0000000000000557 .LLST16
     /tmp/ccwPpNaf.s:1081   .text:00000000000003f0 .LVL55
     /tmp/ccwPpNaf.s:1094   .text:00000000000003f8 .LBB118
     /tmp/ccwPpNaf.s:1110   .text:0000000000000408 .LBE118
     /tmp/ccwPpNaf.s:4784   .debug_loc:000000000000057a .LLST13
     /tmp/ccwPpNaf.s:4791   .debug_loc:000000000000059d .LLST14
     /tmp/ccwPpNaf.s:1102   .text:0000000000000404 .LVL58
     /tmp/ccwPpNaf.s:788    .text:00000000000002bc .LBB116
     /tmp/ccwPpNaf.s:804    .text:00000000000002cc .LBE116
     /tmp/ccwPpNaf.s:4798   .debug_loc:00000000000005c0 .LLST11
     /tmp/ccwPpNaf.s:4805   .debug_loc:00000000000005e3 .LLST12
     /tmp/ccwPpNaf.s:796    .text:00000000000002c8 .LVL25
GAS LISTING /tmp/ccwPpNaf.s 			page 55


     /tmp/ccwPpNaf.s:454    .text:00000000000001fc .LBB99
     /tmp/ccwPpNaf.s:469    .text:0000000000000208 .LBE99
     /tmp/ccwPpNaf.s:475    .text:0000000000000210 .LBB101
     /tmp/ccwPpNaf.s:490    .text:000000000000021c .LBE101
     /tmp/ccwPpNaf.s:841    .text:00000000000002e4 .LBB219
     /tmp/ccwPpNaf.s:852    .text:00000000000002e8 .LBE219
     /tmp/ccwPpNaf.s:4812   .debug_loc:0000000000000606 .LLST27
     /tmp/ccwPpNaf.s:857    .text:00000000000002ec .LBB221
     /tmp/ccwPpNaf.s:868    .text:00000000000002f0 .LBE221
     /tmp/ccwPpNaf.s:4819   .debug_loc:0000000000000629 .LLST28
     /tmp/ccwPpNaf.s:978    .text:0000000000000374 .LVL43
     /tmp/ccwPpNaf.s:1004   .text:0000000000000398 .LVL46
     /tmp/ccwPpNaf.s:1119   .text:0000000000000418 .LVL60
     /tmp/ccwPpNaf.s:383    .text:00000000000001bc .LBB95
     /tmp/ccwPpNaf.s:399    .text:00000000000001c8 .LBE95
     /tmp/ccwPpNaf.s:1139   .text:000000000000042c .LVL61
     /tmp/ccwPpNaf.s:1146   .text:0000000000000440 .LVL62
     /tmp/ccwPpNaf.s:1151   .text:0000000000000450 .LVL63
     /tmp/ccwPpNaf.s:5143   .debug_str:0000000000000799 .LASF160
     /tmp/ccwPpNaf.s:5175   .debug_str:000000000000091a .LASF161
     /tmp/ccwPpNaf.s:4875   .debug_str:0000000000000013 .LASF163
     /tmp/ccwPpNaf.s:5137   .debug_str:0000000000000785 .LASF162
     /tmp/ccwPpNaf.s:5163   .debug_str:00000000000008ac .LASF164
     /tmp/ccwPpNaf.s:4977   .debug_str:0000000000000303 .LASF165
     /tmp/ccwPpNaf.s:5019   .debug_str:000000000000043d .LASF166
     /tmp/ccwPpNaf.s:4915   .debug_str:0000000000000114 .LASF167
     /tmp/ccwPpNaf.s:4965   .debug_str:00000000000002a7 .LASF168
     /tmp/ccwPpNaf.s:5107   .debug_str:00000000000006ac .LASF169
     /tmp/ccwPpNaf.s:5063   .debug_str:000000000000056d .LASF170
     /tmp/ccwPpNaf.s:1223   .text:00000000000004a4 .LVL67
     /tmp/ccwPpNaf.s:1265   .text:00000000000004e8 .LVL72
     /tmp/ccwPpNaf.s:1205   .text:0000000000000488 .LVL64
     /tmp/ccwPpNaf.s:1211   .text:000000000000048c .LVL65
     /tmp/ccwPpNaf.s:1247   .text:00000000000004cc .LVL69
     /tmp/ccwPpNaf.s:1253   .text:00000000000004d0 .LVL70
     /tmp/ccwPpNaf.s:169    .text:0000000000000098 .LVL9
     /tmp/ccwPpNaf.s:204    .text:00000000000000d0 .LVL12
     /tmp/ccwPpNaf.s:262    .text:0000000000000134 .LVL15
     /tmp/ccwPpNaf.s:268    .text:0000000000000140 .LVL16
     /tmp/ccwPpNaf.s:339    .text:00000000000001a0 .LVL21
     /tmp/ccwPpNaf.s:351    .text:00000000000001a4 .LVL22
     /tmp/ccwPpNaf.s:288    .text:0000000000000158 .LVL17
     /tmp/ccwPpNaf.s:292    .text:000000000000015c .LVL18
     /tmp/ccwPpNaf.s:305    .text:000000000000016c .LVL19
     /tmp/ccwPpNaf.s:312    .text:0000000000000174 .LVL20
     /tmp/ccwPpNaf.s:190    .text:00000000000000c4 .LVL10
     /tmp/ccwPpNaf.s:198    .text:00000000000000cc .LVL11
     /tmp/ccwPpNaf.s:84     .text:0000000000000054 .LVL4
     /tmp/ccwPpNaf.s:94     .text:000000000000005c .LVL5
     /tmp/ccwPpNaf.s:106    .text:0000000000000070 .LVL6
     /tmp/ccwPpNaf.s:116    .text:0000000000000078 .LVL7
     /tmp/ccwPpNaf.s:38     .text:000000000000001c .LVL0
     /tmp/ccwPpNaf.s:46     .text:000000000000002c .LVL1
     /tmp/ccwPpNaf.s:58     .text:000000000000003c .LVL2
     /tmp/ccwPpNaf.s:1323   .text:0000000000000528 .LVL74
     /tmp/ccwPpNaf.s:1332   .text:0000000000000538 .LVL75
     /tmp/ccwPpNaf.s:1345   .text:0000000000000548 .LVL76
GAS LISTING /tmp/ccwPpNaf.s 			page 56


     /tmp/ccwPpNaf.s:1451   .text:00000000000005bc .LVL83
     /tmp/ccwPpNaf.s:1460   .text:00000000000005c0 .LVL84
     /tmp/ccwPpNaf.s:1365   .text:0000000000000570 .LVL78
     /tmp/ccwPpNaf.s:1371   .text:0000000000000574 .LVL79
     /tmp/ccwPpNaf.s:1379   .text:0000000000000578 .LVL80
     /tmp/ccwPpNaf.s:1389   .text:0000000000000580 .LVL81
     /tmp/ccwPpNaf.s:397    .text:00000000000001c8 .LVL23
     /tmp/ccwPpNaf.s:880    .text:00000000000002fc .LVL33
     /tmp/ccwPpNaf.s:884    .text:0000000000000304 .LVL34
     /tmp/ccwPpNaf.s:832    .text:00000000000002e0 .LVL28
     /tmp/ccwPpNaf.s:906    .text:0000000000000318 .LVL36
     /tmp/ccwPpNaf.s:949    .text:0000000000000350 .LVL40
     /tmp/ccwPpNaf.s:924    .text:0000000000000334 .LVL38
     /tmp/ccwPpNaf.s:937    .text:0000000000000344 .LVL39
     /tmp/ccwPpNaf.s:968    .text:0000000000000360 .LVL42
     /tmp/ccwPpNaf.s:996    .text:0000000000000388 .LVL45
     /tmp/ccwPpNaf.s:1047   .text:00000000000003d0 .LVL50
     /tmp/ccwPpNaf.s:1022   .text:00000000000003b4 .LVL48
     /tmp/ccwPpNaf.s:1035   .text:00000000000003c4 .LVL49
     /tmp/ccwPpNaf.s:1056   .text:00000000000003d4 .LVL51
     /tmp/ccwPpNaf.s:1070   .text:00000000000003e4 .LVL53
     /tmp/ccwPpNaf.s:1077   .text:00000000000003e8 .LVL54
     /tmp/ccwPpNaf.s:1091   .text:00000000000003f8 .LVL56
     /tmp/ccwPpNaf.s:1098   .text:00000000000003fc .LVL57
     /tmp/ccwPpNaf.s:1112   .text:000000000000040c .LVL59
     /tmp/ccwPpNaf.s:792    .text:00000000000002c0 .LVL24
     /tmp/ccwPpNaf.s:806    .text:00000000000002d0 .LVL26
     /tmp/ccwPpNaf.s:840    .text:00000000000002e4 .LVL29
     /tmp/ccwPpNaf.s:849    .text:00000000000002e8 .LVL30
     /tmp/ccwPpNaf.s:856    .text:00000000000002ec .LVL31
     /tmp/ccwPpNaf.s:865    .text:00000000000002f0 .LVL32
     /tmp/ccwPpNaf.s:1507   .debug_info:0000000000000000 .Ldebug_info0
     /tmp/ccwPpNaf.s:452    .text:00000000000001fc .LBB98
     /tmp/ccwPpNaf.s:501    .text:000000000000022c .LBE98
     /tmp/ccwPpNaf.s:505    .text:000000000000022c .LBB224
     /tmp/ccwPpNaf.s:515    .text:0000000000000238 .LBE224
     /tmp/ccwPpNaf.s:519    .text:0000000000000238 .LBB225
     /tmp/ccwPpNaf.s:531    .text:0000000000000244 .LBE225
     /tmp/ccwPpNaf.s:535    .text:0000000000000244 .LBB226
     /tmp/ccwPpNaf.s:549    .text:0000000000000250 .LBE226
     /tmp/ccwPpNaf.s:553    .text:0000000000000250 .LBB227
     /tmp/ccwPpNaf.s:569    .text:000000000000025c .LBE227
     /tmp/ccwPpNaf.s:573    .text:000000000000025c .LBB228
     /tmp/ccwPpNaf.s:591    .text:0000000000000268 .LBE228
     /tmp/ccwPpNaf.s:595    .text:0000000000000268 .LBB229
     /tmp/ccwPpNaf.s:615    .text:0000000000000274 .LBE229
     /tmp/ccwPpNaf.s:619    .text:0000000000000274 .LBB230
     /tmp/ccwPpNaf.s:641    .text:0000000000000280 .LBE230
     /tmp/ccwPpNaf.s:645    .text:0000000000000280 .LBB231
     /tmp/ccwPpNaf.s:669    .text:000000000000028c .LBE231
     /tmp/ccwPpNaf.s:673    .text:000000000000028c .LBB232
     /tmp/ccwPpNaf.s:699    .text:0000000000000298 .LBE232
     /tmp/ccwPpNaf.s:703    .text:0000000000000298 .LBB233
     /tmp/ccwPpNaf.s:731    .text:00000000000002a4 .LBE233
     /tmp/ccwPpNaf.s:735    .text:00000000000002a4 .LBB234
     /tmp/ccwPpNaf.s:765    .text:00000000000002b0 .LBE234
     /tmp/ccwPpNaf.s:769    .text:00000000000002b0 .LBB235
GAS LISTING /tmp/ccwPpNaf.s 			page 57


     /tmp/ccwPpNaf.s:869    .text:00000000000002f0 .LBE235
     /tmp/ccwPpNaf.s:888    .text:0000000000000304 .LBB236
     /tmp/ccwPpNaf.s:1134   .text:000000000000041c .LBE236

UNDEFINED SYMBOLS
console_handler
_ZN3TCB7runningE
_ZN15MemoryAllocator5allocEm
_ZN3TCB16timeSliceCounterE
_ZN3TCB8dispatchEv
_ZN15MemoryAllocator4freeEPv
_ZN3TCB12createThreadEPFvPvEPmS0_
_ZN3TCB4exitEv
__getc
__putc
_ZN4_sem4openEi
_ZN4_sem4waitEv
_ZN4_sem5closeEv
_ZN4_sem6signalEv
_ZN3TCB4joinEPS_
_Z11printStringPKc
_Z8printIntiii
_ZN9Scheduler3putEP3TCB
