GAS LISTING /tmp/ccthbQZE.s 			page 1


   1              		.file	"riscv.cpp"
   2              		.option pic
   3              		.option norelax
   4              		.text
   5              	.Ltext0:
   6              		.align	2
   7              		.globl	_ZN5Riscv17hardwareInterruptEv
   9              	_ZN5Riscv17hardwareInterruptEv:
  10              	.LFB36:
  11              		.file 1 "src/riscv.cpp"
   1:src/riscv.cpp **** //
   2:src/riscv.cpp **** // Created by os on 7/24/23.
   3:src/riscv.cpp **** //
   4:src/riscv.cpp **** 
   5:src/riscv.cpp **** #include "../h/riscv.hpp"
   6:src/riscv.cpp **** #include "../h/MemoryAllocator.hpp"
   7:src/riscv.cpp **** #include "../test/printing.hpp"
   8:src/riscv.cpp **** #include "../h/_sem.hpp"
   9:src/riscv.cpp **** #include "../h/Scheduler.hpp"
  10:src/riscv.cpp **** #include "../h/_console.hpp"
  11:src/riscv.cpp **** 
  12:src/riscv.cpp **** Riscv::SleepingElem* Riscv::headSleeping=nullptr;
  13:src/riscv.cpp **** 
  14:src/riscv.cpp **** void Riscv::handleEcallException(){
  15:src/riscv.cpp ****     uint64 scause=r_scause();
  16:src/riscv.cpp **** 
  17:src/riscv.cpp ****     uint64 volatile a0;
  18:src/riscv.cpp ****     __asm__ volatile("ld %0, 0x50(fp)": "=r"(a0));
  19:src/riscv.cpp ****     uint64 volatile a1;
  20:src/riscv.cpp ****     __asm__ volatile("ld %0, 0x58(fp)": "=r"(a1));
  21:src/riscv.cpp ****     uint64 volatile a2;
  22:src/riscv.cpp ****     __asm__ volatile("ld %0, 0x60(fp)": "=r"(a2));
  23:src/riscv.cpp ****     uint64 volatile a3;
  24:src/riscv.cpp ****     __asm__ volatile("ld %0, 0x68(fp)": "=r"(a3));
  25:src/riscv.cpp ****     uint64 volatile a4;
  26:src/riscv.cpp ****     __asm__ volatile("ld %0, 0x70(fp)": "=r"(a4));
  27:src/riscv.cpp **** 
  28:src/riscv.cpp ****     if(scause==0x09UL || scause==0x08UL){
  29:src/riscv.cpp ****         //09 iz sist rezima, 08 iz korisnickog
  30:src/riscv.cpp ****         uint64 volatile sepc=r_sepc()+4;
  31:src/riscv.cpp ****         uint64 volatile sstatus=r_sstatus();
  32:src/riscv.cpp **** 
  33:src/riscv.cpp ****         if(a0==0x01){
  34:src/riscv.cpp ****             //mem_alloc
  35:src/riscv.cpp ****             void *ptr=MemoryAllocator::alloc(a1);
  36:src/riscv.cpp ****             __asm__ volatile("sd %0, 0x50(fp)": : "r"((uint64)ptr));
  37:src/riscv.cpp ****         }
  38:src/riscv.cpp ****         else if(a0==0x02){
  39:src/riscv.cpp ****             //mem_free
  40:src/riscv.cpp ****             int stat=MemoryAllocator::free((void*)a1);
  41:src/riscv.cpp ****             __asm__ volatile("sd %0, 0x50(fp)": : "r"(stat));
  42:src/riscv.cpp ****         }
  43:src/riscv.cpp **** 
  44:src/riscv.cpp ****         else if(a0==0x11){
  45:src/riscv.cpp ****             /*thread_create
  46:src/riscv.cpp ****             a1- thread_t* handle
  47:src/riscv.cpp ****              a2- *start_routine
GAS LISTING /tmp/ccthbQZE.s 			page 2


  48:src/riscv.cpp ****              a3- void* arg
  49:src/riscv.cpp ****              a4- char* stack
  50:src/riscv.cpp ****             */
  51:src/riscv.cpp **** 
  52:src/riscv.cpp ****             TCB* handle= TCB::createThread((TCB::Body)a2, (char*)a4, (void*)a3);
  53:src/riscv.cpp **** 
  54:src/riscv.cpp ****             if(!handle){
  55:src/riscv.cpp ****                 __asm__ volatile("sd %0, 0x50(fp)": : "r"(-1));
  56:src/riscv.cpp ****             }
  57:src/riscv.cpp ****             else{
  58:src/riscv.cpp ****                 TCB** retHandle=(TCB**)a1;
  59:src/riscv.cpp ****                 *retHandle=handle;
  60:src/riscv.cpp ****                 __asm__ volatile("sd %0, 0x50(fp)": : "r"(0));
  61:src/riscv.cpp ****             }
  62:src/riscv.cpp **** 
  63:src/riscv.cpp ****         }
  64:src/riscv.cpp ****         else if(a0==0x12){
  65:src/riscv.cpp ****             //thread_exit()
  66:src/riscv.cpp ****             int stat=TCB::exit();
  67:src/riscv.cpp ****             __asm__ volatile("sd %0, 0x50(fp)": : "r"(stat));
  68:src/riscv.cpp ****         }
  69:src/riscv.cpp ****         else if(a0==0x13){
  70:src/riscv.cpp ****             //thread_dispatch()
  71:src/riscv.cpp ****             TCB::timeSliceCounter=0;
  72:src/riscv.cpp ****             TCB::dispatch();
  73:src/riscv.cpp ****         }
  74:src/riscv.cpp ****         else if(a0==0x41){
  75:src/riscv.cpp ****             //char getc();
  76:src/riscv.cpp **** 
  77:src/riscv.cpp ****             char c= _console::inputBuff_take();
  78:src/riscv.cpp ****             __asm__ volatile("sd %0, 0x50(fp)": : "r"(c));
  79:src/riscv.cpp **** 
  80:src/riscv.cpp ****             /*char c=__getc();
  81:src/riscv.cpp ****             __asm__ volatile("sd %0, 0x50(fp)": : "r"(c));*/
  82:src/riscv.cpp ****         }
  83:src/riscv.cpp ****         else if(a0==0x42){
  84:src/riscv.cpp ****             //void putc(c)
  85:src/riscv.cpp **** 
  86:src/riscv.cpp ****             char c=(char)a1;
  87:src/riscv.cpp ****             _console::outputBuff_put(c);
  88:src/riscv.cpp **** 
  89:src/riscv.cpp ****             //__putc((char)a1);
  90:src/riscv.cpp ****         }
  91:src/riscv.cpp ****         else if(a0==0x21){
  92:src/riscv.cpp ****             //sem_open
  93:src/riscv.cpp ****             //a1 - sem_t* handle
  94:src/riscv.cpp ****             //a2 - unsigned int init
  95:src/riscv.cpp ****             _sem* handle=_sem::open((int)a2);
  96:src/riscv.cpp ****             if(!handle){
  97:src/riscv.cpp ****                 __asm__ volatile("sd %0, 0x50(fp)": : "r"(-1));
  98:src/riscv.cpp ****             }
  99:src/riscv.cpp ****             else{
 100:src/riscv.cpp ****                 _sem** retHandle=(_sem**)a1;
 101:src/riscv.cpp ****                 *retHandle=handle;
 102:src/riscv.cpp ****                 __asm__ volatile("sd %0, 0x50(fp)": : "r"(0));
 103:src/riscv.cpp ****             }
 104:src/riscv.cpp ****         }
GAS LISTING /tmp/ccthbQZE.s 			page 3


 105:src/riscv.cpp ****         else if(a0==0x23){
 106:src/riscv.cpp ****             //sem_wait(sem_t id)
 107:src/riscv.cpp ****             _sem* handle=(_sem*) a1;
 108:src/riscv.cpp ****             int stat=handle->wait();
 109:src/riscv.cpp ****             __asm__ volatile("sd %0, 0x50(fp)": : "r"(stat));
 110:src/riscv.cpp ****         }
 111:src/riscv.cpp ****         else if(a0==0x22){
 112:src/riscv.cpp ****             //sem_close(sem_t handle)
 113:src/riscv.cpp ****             _sem* handle=(_sem*) a1;
 114:src/riscv.cpp ****             int stat=handle->close();
 115:src/riscv.cpp ****             __asm__ volatile("sd %0, 0x50(fp)": : "r"(stat));
 116:src/riscv.cpp ****         }
 117:src/riscv.cpp ****         else if(a0==0x24){
 118:src/riscv.cpp ****             //sem_signal(sem_t id)
 119:src/riscv.cpp ****             _sem* handle=(_sem*) a1;
 120:src/riscv.cpp ****             int stat=handle->signal();
 121:src/riscv.cpp ****             __asm__ volatile("sd %0, 0x50(fp)": : "r"(stat));
 122:src/riscv.cpp ****         }
 123:src/riscv.cpp ****         else if(a0==0x14){
 124:src/riscv.cpp ****             //thread_join(thread_t)
 125:src/riscv.cpp ****             TCB::join((TCB*)a1);
 126:src/riscv.cpp ****         }
 127:src/riscv.cpp ****         else if(a0==0x31){
 128:src/riscv.cpp ****             //time_sleep(time_t)
 129:src/riscv.cpp ****             time_t time=(time_t)a1;
 130:src/riscv.cpp ****             int stat=Riscv::putToSleep(time);
 131:src/riscv.cpp ****             __asm__ volatile("sd %0, 0x50(fp)": : "r"(stat));
 132:src/riscv.cpp ****         }
 133:src/riscv.cpp **** 
 134:src/riscv.cpp ****         w_sstatus(sstatus);
 135:src/riscv.cpp ****         w_sepc(sepc);
 136:src/riscv.cpp ****     }
 137:src/riscv.cpp **** 
 138:src/riscv.cpp ****     else{
 139:src/riscv.cpp ****         printString("GRESKA:");
 140:src/riscv.cpp ****         printInt(scause);
 141:src/riscv.cpp ****         printString("\nsepc:");
 142:src/riscv.cpp ****         printInt(r_sepc());
 143:src/riscv.cpp ****         printString("\n");
 144:src/riscv.cpp **** 
 145:src/riscv.cpp ****         while(true){
 146:src/riscv.cpp ****             //TCB::dispatch();
 147:src/riscv.cpp ****         }
 148:src/riscv.cpp ****     }
 149:src/riscv.cpp **** 
 150:src/riscv.cpp **** }
 151:src/riscv.cpp **** 
 152:src/riscv.cpp **** void Riscv::timerInterrupt() {
 153:src/riscv.cpp ****     uint64 scause=r_scause();
 154:src/riscv.cpp ****     if(scause==0x8000000000000001UL){
 155:src/riscv.cpp ****         //prekid od tajmera, softverski prekid
 156:src/riscv.cpp **** 
 157:src/riscv.cpp ****         updateSleepingList();
 158:src/riscv.cpp **** 
 159:src/riscv.cpp ****         TCB::timeSliceCounter++;
 160:src/riscv.cpp ****         if(TCB::timeSliceCounter>=TCB::running->getTimeSlice()){
 161:src/riscv.cpp ****             uint64 volatile sepc=r_sepc();
GAS LISTING /tmp/ccthbQZE.s 			page 4


 162:src/riscv.cpp ****             uint64 volatile sstatus=r_sstatus();
 163:src/riscv.cpp ****             TCB::timeSliceCounter=0;
 164:src/riscv.cpp ****             TCB::dispatch();
 165:src/riscv.cpp ****             w_sstatus(sstatus);
 166:src/riscv.cpp ****             w_sepc(sepc);
 167:src/riscv.cpp ****         }
 168:src/riscv.cpp ****         mc_sip(SIP_SSIP);
 169:src/riscv.cpp ****     }
 170:src/riscv.cpp **** }
 171:src/riscv.cpp **** 
 172:src/riscv.cpp **** void Riscv::hardwareInterrupt() {
  12              		.loc 1 172 33
  13              		.cfi_startproc
  14 0000 130101FD 		addi	sp,sp,-48
  15              		.cfi_def_cfa_offset 48
  16 0004 23341102 		sd	ra,40(sp)
  17 0008 23308102 		sd	s0,32(sp)
  18 000c 233C9100 		sd	s1,24(sp)
  19              		.cfi_offset 1, -8
  20              		.cfi_offset 8, -16
  21              		.cfi_offset 9, -24
  22 0010 13040103 		addi	s0,sp,48
  23              		.cfi_def_cfa 8, 0
 173:src/riscv.cpp **** 
 174:src/riscv.cpp ****     uint64 scause=r_scause();
  24              		.loc 1 174 5
  25              	.LBB87:
  26              	.LBB88:
  27              		.file 2 "src/../h/riscv.hpp"
   1:src/../h/riscv.hpp **** //
   2:src/../h/riscv.hpp **** // Created by os on 7/24/23.
   3:src/../h/riscv.hpp **** //
   4:src/../h/riscv.hpp **** 
   5:src/../h/riscv.hpp **** #ifndef PROJECT_BASE_RISCV_HPP
   6:src/../h/riscv.hpp **** #define PROJECT_BASE_RISCV_HPP
   7:src/../h/riscv.hpp **** 
   8:src/../h/riscv.hpp **** #include "../lib/hw.h"
   9:src/../h/riscv.hpp **** #include "../h/TCB.hpp"
  10:src/../h/riscv.hpp **** 
  11:src/../h/riscv.hpp **** //sa vezbi 7
  12:src/../h/riscv.hpp **** class Riscv{
  13:src/../h/riscv.hpp **** 
  14:src/../h/riscv.hpp **** public:
  15:src/../h/riscv.hpp **** 
  16:src/../h/riscv.hpp ****     //mora da bude ne inline da bi se u ra upisalo mesto povratka
  17:src/../h/riscv.hpp ****     static void popSppSpie();
  18:src/../h/riscv.hpp **** 
  19:src/../h/riscv.hpp ****     static uint64 r_scause();
  20:src/../h/riscv.hpp ****     static void w_scause(uint64 scause);
  21:src/../h/riscv.hpp ****     static uint64 r_sepc();
  22:src/../h/riscv.hpp ****     static void w_sepc(uint64 sepc);
  23:src/../h/riscv.hpp ****     static uint64 r_stvec();
  24:src/../h/riscv.hpp ****     static void w_stvec(uint64 stvec);
  25:src/../h/riscv.hpp ****     static uint64 r_stval();
  26:src/../h/riscv.hpp ****     static void w_stval(uint64 stval);
  27:src/../h/riscv.hpp **** 
  28:src/../h/riscv.hpp ****     enum BitMaskSStatus{
GAS LISTING /tmp/ccthbQZE.s 			page 5


  29:src/../h/riscv.hpp ****         SSTATUS_SIE=(1<<1),
  30:src/../h/riscv.hpp ****         SSTATUS_SPIE=(1<<5),
  31:src/../h/riscv.hpp ****         SSTATUS_SPP=(1<<8)
  32:src/../h/riscv.hpp ****     };
  33:src/../h/riscv.hpp **** 
  34:src/../h/riscv.hpp ****     static void ms_sstatus(uint64 mask);
  35:src/../h/riscv.hpp ****     static void mc_sstatus(uint64 mask);
  36:src/../h/riscv.hpp ****     static uint64 r_sstatus();
  37:src/../h/riscv.hpp ****     static void w_sstatus(uint64 sstatus);
  38:src/../h/riscv.hpp **** 
  39:src/../h/riscv.hpp **** 
  40:src/../h/riscv.hpp ****     enum BitMaskSip{
  41:src/../h/riscv.hpp ****         SIP_SSIP=(1<<1),//software interrupt pending
  42:src/../h/riscv.hpp ****         SIP_STIP=(1 << 5),
  43:src/../h/riscv.hpp ****         SIP_SEIP=(1 << 9)
  44:src/../h/riscv.hpp ****     };
  45:src/../h/riscv.hpp **** 
  46:src/../h/riscv.hpp ****     static void ms_sip(uint64 mask);
  47:src/../h/riscv.hpp ****     static void mc_sip(uint64 mask);
  48:src/../h/riscv.hpp ****     static uint64 r_sip();
  49:src/../h/riscv.hpp ****     static void w_sip(uint64 sip);
  50:src/../h/riscv.hpp **** 
  51:src/../h/riscv.hpp ****     static void supervisorTrap();
  52:src/../h/riscv.hpp **** 
  53:src/../h/riscv.hpp ****     struct SleepingElem{
  54:src/../h/riscv.hpp ****         TCB* thr;
  55:src/../h/riscv.hpp ****         time_t toSleepRel;
  56:src/../h/riscv.hpp ****         SleepingElem* next;
  57:src/../h/riscv.hpp ****     };
  58:src/../h/riscv.hpp **** 
  59:src/../h/riscv.hpp ****     static int putToSleep(time_t);
  60:src/../h/riscv.hpp ****     static void updateSleepingList();
  61:src/../h/riscv.hpp **** 
  62:src/../h/riscv.hpp **** private:
  63:src/../h/riscv.hpp **** 
  64:src/../h/riscv.hpp ****     static void handleEcallException();
  65:src/../h/riscv.hpp ****     static void timerInterrupt();
  66:src/../h/riscv.hpp ****     static void hardwareInterrupt();
  67:src/../h/riscv.hpp **** 
  68:src/../h/riscv.hpp ****     static SleepingElem* headSleeping;
  69:src/../h/riscv.hpp **** 
  70:src/../h/riscv.hpp ****     friend int main();
  71:src/../h/riscv.hpp **** 
  72:src/../h/riscv.hpp **** };
  73:src/../h/riscv.hpp **** 
  74:src/../h/riscv.hpp **** inline uint64 Riscv::r_scause() {
  75:src/../h/riscv.hpp ****     uint64 volatile scause;
  28              		.loc 2 75 5
  76:src/../h/riscv.hpp ****     __asm__ volatile("csrr %[scause], scause":[scause]"=r"(scause));
  29              		.loc 2 76 5
  30              		.loc 2 76 68 is_stmt 0
  31              	#APP
  32              	# 76 "src/../h/riscv.hpp" 1
  77              	    return scause;
  33              		csrr a5, scause
  34              	# 0 "" 2
  35              	#NO_APP
GAS LISTING /tmp/ccthbQZE.s 			page 6


  36 0018 233CF4FC 		sd	a5,-40(s0)
  37              		.loc 2 77 5 is_stmt 1
  38              		.loc 2 77 12 is_stmt 0
  39 001c 033784FD 		ld	a4,-40(s0)
  40              	.LVL0:
  41              	.LBE88:
  42              	.LBE87:
 175:src/riscv.cpp ****     if(scause==0x8000000000000009UL){
  43              		.loc 1 175 5 is_stmt 1
  44              	.LBB89:
  45 0020 9307F0FF 		li	a5,-1
  46 0024 9397F703 		slli	a5,a5,63
  47 0028 93879700 		addi	a5,a5,9
  48 002c 630CF700 		beq	a4,a5,.L6
  49              	.LVL1:
  50              	.L1:
  51              	.LBE89:
 176:src/riscv.cpp ****         int intNumber=plic_claim();
 177:src/riscv.cpp **** 
 178:src/riscv.cpp ****         if(intNumber==CONSOLE_IRQ){
 179:src/riscv.cpp ****             //za getc
 180:src/riscv.cpp ****             while((!_console::inputBuff_full()) && ((*(char*)CONSOLE_STATUS) & CONSOLE_RX_STATUS_BI
 181:src/riscv.cpp ****                 char c= *(char*)CONSOLE_RX_DATA;
 182:src/riscv.cpp ****                 _console::inputBuff_put(c);
 183:src/riscv.cpp ****             }
 184:src/riscv.cpp ****         }
 185:src/riscv.cpp **** 
 186:src/riscv.cpp ****         plic_complete(intNumber);
 187:src/riscv.cpp ****     }
 188:src/riscv.cpp **** 
 189:src/riscv.cpp ****     /*uint64 scause=r_scause();
 190:src/riscv.cpp ****     if(scause==0x8000000000000009UL){
 191:src/riscv.cpp ****         //prekid konzola
 192:src/riscv.cpp ****         console_handler();
 193:src/riscv.cpp ****     }*/
 194:src/riscv.cpp **** }
  52              		.loc 1 194 1 is_stmt 0
  53 0030 83308102 		ld	ra,40(sp)
  54              		.cfi_remember_state
  55              		.cfi_restore 1
  56 0034 03340102 		ld	s0,32(sp)
  57              		.cfi_restore 8
  58              		.cfi_def_cfa 2, 48
  59 0038 83348101 		ld	s1,24(sp)
  60              		.cfi_restore 9
  61 003c 13010103 		addi	sp,sp,48
  62              		.cfi_def_cfa_offset 0
  63 0040 67800000 		jr	ra
  64              	.LVL2:
  65              	.L6:
  66              		.cfi_restore_state
  67              	.LBB96:
  68              	.LBB90:
 176:src/riscv.cpp ****         int intNumber=plic_claim();
  69              		.loc 1 176 9 is_stmt 1
 176:src/riscv.cpp ****         int intNumber=plic_claim();
  70              		.loc 1 176 33 is_stmt 0
GAS LISTING /tmp/ccthbQZE.s 			page 7


  71 0044 97000000 		call	plic_claim@plt
  71      E7800000 
  72              	.LVL3:
  73 004c 93040500 		mv	s1,a0
  74              	.LVL4:
 178:src/riscv.cpp ****             //za getc
  75              		.loc 1 178 9 is_stmt 1
  76              	.LBB91:
  77 0050 9307A000 		li	a5,10
  78 0054 630AF500 		beq	a0,a5,.L4
  79              	.LVL5:
  80              	.L3:
  81              	.LBE91:
 186:src/riscv.cpp ****     }
  82              		.loc 1 186 9
 186:src/riscv.cpp ****     }
  83              		.loc 1 186 22 is_stmt 0
  84 0058 13850400 		mv	a0,s1
  85 005c 97000000 		call	plic_complete@plt
  85      E7800000 
  86              	.LVL6:
  87              	.LBE90:
  88              	.LBE96:
  89              		.loc 1 194 1
  90 0064 6FF0DFFC 		j	.L1
  91              	.L4:
  92              	.LBB97:
  93              	.LBB95:
  94              	.LBB94:
  95              	.LBB92:
 180:src/riscv.cpp ****                 char c= *(char*)CONSOLE_RX_DATA;
  96              		.loc 1 180 13 is_stmt 1
 180:src/riscv.cpp ****                 char c= *(char*)CONSOLE_RX_DATA;
  97              		.loc 1 180 49
 180:src/riscv.cpp ****                 char c= *(char*)CONSOLE_RX_DATA;
  98              		.loc 1 180 45 is_stmt 0
  99 0068 97000000 		call	_ZN8_console14inputBuff_fullEv@plt
  99      E7800000 
 100              	.LVL7:
 180:src/riscv.cpp ****                 char c= *(char*)CONSOLE_RX_DATA;
 101              		.loc 1 180 49
 102 0070 E31405FE 		bnez	a0,.L3
 180:src/riscv.cpp ****                 char c= *(char*)CONSOLE_RX_DATA;
 103              		.loc 1 180 54 discriminator 1
 104 0074 97070000 		la	a5,CONSOLE_STATUS
 104      83B70700 
 105 007c 83B70700 		ld	a5,0(a5)
 106 0080 83C70700 		lbu	a5,0(a5)
 180:src/riscv.cpp ****                 char c= *(char*)CONSOLE_RX_DATA;
 107              		.loc 1 180 49 discriminator 1
 108 0084 93F71700 		andi	a5,a5,1
 109 0088 E38807FC 		beqz	a5,.L3
 110              	.LBB93:
 181:src/riscv.cpp ****                 _console::inputBuff_put(c);
 111              		.loc 1 181 17 is_stmt 1
 181:src/riscv.cpp ****                 _console::inputBuff_put(c);
 112              		.loc 1 181 25 is_stmt 0
GAS LISTING /tmp/ccthbQZE.s 			page 8


 113 008c 97070000 		la	a5,CONSOLE_RX_DATA
 113      83B70700 
 114 0094 83B70700 		ld	a5,0(a5)
 115              	.LVL8:
 182:src/riscv.cpp ****             }
 116              		.loc 1 182 17 is_stmt 1
 182:src/riscv.cpp ****             }
 117              		.loc 1 182 40 is_stmt 0
 118 0098 03C50700 		lbu	a0,0(a5)
 119 009c 97000000 		call	_ZN8_console13inputBuff_putEc@plt
 119      E7800000 
 120              	.LVL9:
 121              	.LBE93:
 180:src/riscv.cpp ****                 char c= *(char*)CONSOLE_RX_DATA;
 122              		.loc 1 180 13
 123 00a4 6FF05FFC 		j	.L4
 124              	.LBE92:
 125              	.LBE94:
 126              	.LBE95:
 127              	.LBE97:
 128              		.cfi_endproc
 129              	.LFE36:
 131              		.align	2
 132              		.globl	_ZN5Riscv10popSppSpieEv
 134              	_ZN5Riscv10popSppSpieEv:
 135              	.LFB37:
 195:src/riscv.cpp **** 
 196:src/riscv.cpp **** 
 197:src/riscv.cpp **** 
 198:src/riscv.cpp **** void Riscv::popSppSpie() {
 136              		.loc 1 198 26 is_stmt 1
 137              		.cfi_startproc
 138 00a8 130101FF 		addi	sp,sp,-16
 139              		.cfi_def_cfa_offset 16
 140 00ac 23348100 		sd	s0,8(sp)
 141              		.cfi_offset 8, -8
 142 00b0 13040101 		addi	s0,sp,16
 143              		.cfi_def_cfa 8, 0
 199:src/riscv.cpp ****     Riscv::ms_sstatus(SSTATUS_SPIE);
 144              		.loc 1 199 5
 145              	.LVL10:
 146              	.LBB98:
 147              	.LBB99:
  78:src/../h/riscv.hpp **** }
  79:src/../h/riscv.hpp **** inline void Riscv::w_scause(uint64 scause) {
  80:src/../h/riscv.hpp ****     __asm__ volatile("csrw scause, %[scause]"::[scause]"r"(scause));
  81:src/../h/riscv.hpp **** }
  82:src/../h/riscv.hpp **** 
  83:src/../h/riscv.hpp **** inline uint64 Riscv::r_sepc(){
  84:src/../h/riscv.hpp ****     uint64 volatile sepc;
  85:src/../h/riscv.hpp ****     __asm__ volatile("csrr %[sepc], sepc":[sepc]"=r"(sepc));
  86:src/../h/riscv.hpp ****     return sepc;
  87:src/../h/riscv.hpp **** }
  88:src/../h/riscv.hpp **** inline void Riscv::w_sepc(uint64 sepc) {
  89:src/../h/riscv.hpp ****     __asm__ volatile("csrw sepc, %[sepc]"::[sepc]"r"(sepc));
  90:src/../h/riscv.hpp **** }
  91:src/../h/riscv.hpp **** inline uint64 Riscv::r_stvec(){
GAS LISTING /tmp/ccthbQZE.s 			page 9


  92:src/../h/riscv.hpp ****     uint64 volatile stvec;
  93:src/../h/riscv.hpp ****     __asm__ volatile("csrr %[stvec], stvec":[stvec]"=r"(stvec));
  94:src/../h/riscv.hpp ****     return stvec;
  95:src/../h/riscv.hpp **** }
  96:src/../h/riscv.hpp **** inline void Riscv::w_stvec(uint64 stvec) {
  97:src/../h/riscv.hpp ****     __asm__ volatile("csrw stvec, %[stvec]"::[stvec]"r"(stvec));
  98:src/../h/riscv.hpp **** }
  99:src/../h/riscv.hpp **** inline uint64 Riscv::r_stval(){
 100:src/../h/riscv.hpp ****     uint64 volatile stval;
 101:src/../h/riscv.hpp ****     __asm__ volatile("csrr %[stval], stval":[stval]"=r"(stval));
 102:src/../h/riscv.hpp ****     return stval;
 103:src/../h/riscv.hpp **** }
 104:src/../h/riscv.hpp **** inline void Riscv::w_stval(uint64 stval) {
 105:src/../h/riscv.hpp ****     __asm__ volatile("csrw stval, %[stval]"::[stval]"r"(stval));
 106:src/../h/riscv.hpp **** }
 107:src/../h/riscv.hpp **** 
 108:src/../h/riscv.hpp **** inline void Riscv::ms_sip(uint64 mask) {
 109:src/../h/riscv.hpp ****     __asm__ volatile("csrs sip, %[mask]"::[mask]"r"(mask));
 110:src/../h/riscv.hpp **** }
 111:src/../h/riscv.hpp **** inline void Riscv::mc_sip(uint64 mask) {
 112:src/../h/riscv.hpp ****     __asm__ volatile("csrc sip, %[mask]"::[mask]"r"(mask));
 113:src/../h/riscv.hpp **** }
 114:src/../h/riscv.hpp **** 
 115:src/../h/riscv.hpp **** 
 116:src/../h/riscv.hpp **** inline uint64 Riscv::r_sip(){
 117:src/../h/riscv.hpp ****     uint64 volatile sip;
 118:src/../h/riscv.hpp ****     __asm__ volatile("csrr %[sip], sip":[sip]"=r"(sip));
 119:src/../h/riscv.hpp ****     return sip;
 120:src/../h/riscv.hpp **** }
 121:src/../h/riscv.hpp **** inline void Riscv::w_sip(uint64 sip) {
 122:src/../h/riscv.hpp ****     __asm__ volatile("csrw sip, %[sip]"::[sip]"r"(sip));
 123:src/../h/riscv.hpp **** }
 124:src/../h/riscv.hpp **** 
 125:src/../h/riscv.hpp **** inline void Riscv::ms_sstatus(uint64 mask) {
 126:src/../h/riscv.hpp ****     __asm__ volatile("csrs sstatus, %[mask]"::[mask]"r"(mask));
 148              		.loc 2 126 5
 149              		.loc 2 126 63 is_stmt 0
 150 00b4 93070002 		li	a5,32
 151              	#APP
 152              	# 126 "src/../h/riscv.hpp" 1
 127              	}
 153              		csrs sstatus, a5
 154              	# 0 "" 2
 155              	.LVL11:
 156              	#NO_APP
 157              	.LBE99:
 158              	.LBE98:
 200:src/riscv.cpp ****     if(TCB::newThrUserMode){
 159              		.loc 1 200 5 is_stmt 1
 160 00bc 97070000 		la	a5,_ZN3TCB14newThrUserModeE
 160      83B70700 
 161 00c4 83C70700 		lbu	a5,0(a5)
 162 00c8 63800702 		beqz	a5,.L8
 201:src/riscv.cpp ****         Riscv::mc_sstatus(SSTATUS_SPP);
 163              		.loc 1 201 9
 164              	.LVL12:
 165              	.LBB100:
GAS LISTING /tmp/ccthbQZE.s 			page 10


 166              	.LBB101:
 128:src/../h/riscv.hpp **** 
 129:src/../h/riscv.hpp **** inline uint64 Riscv::r_sstatus(){
 130:src/../h/riscv.hpp ****     uint64 volatile sstatus;
 131:src/../h/riscv.hpp ****     __asm__ volatile("csrr %[sstatus], sstatus":[sstatus]"=r"(sstatus));
 132:src/../h/riscv.hpp ****     return sstatus;
 133:src/../h/riscv.hpp **** }
 134:src/../h/riscv.hpp **** inline void Riscv::w_sstatus(uint64 sstatus) {
 135:src/../h/riscv.hpp ****     __asm__ volatile("csrw sstatus, %[sstatus]"::[sstatus]"r"(sstatus));
 136:src/../h/riscv.hpp **** }
 137:src/../h/riscv.hpp **** 
 138:src/../h/riscv.hpp **** inline void Riscv::mc_sstatus(uint64 mask) {
 139:src/../h/riscv.hpp ****     __asm__ volatile("csrc sstatus, %[mask]"::[mask]"r"(mask));
 167              		.loc 2 139 5
 168              		.loc 2 139 63 is_stmt 0
 169 00cc 93070010 		li	a5,256
 170              	#APP
 171              	# 139 "src/../h/riscv.hpp" 1
 140              	}
 172              		csrc sstatus, a5
 173              	# 0 "" 2
 174              	.LVL13:
 175              	#NO_APP
 176              	.L9:
 177              	.LBE101:
 178              	.LBE100:
 202:src/riscv.cpp ****     }
 203:src/riscv.cpp ****     else{
 204:src/riscv.cpp ****         Riscv::ms_sstatus(SSTATUS_SPP);
 205:src/riscv.cpp ****     }
 206:src/riscv.cpp ****     __asm__ volatile("csrw sepc, ra");
 179              		.loc 1 206 5 is_stmt 1
 180              		.loc 1 206 38 is_stmt 0
 181              	#APP
 182              	# 206 "src/riscv.cpp" 1
 207              	    __asm__ volatile("sret");
 183              		csrw sepc, ra
 184              	# 0 "" 2
 185              		.loc 1 207 5 is_stmt 1
 186              		.loc 1 207 29 is_stmt 0
 187              	# 207 "src/riscv.cpp" 1
 208              	}
 188              		sret
 189              	# 0 "" 2
 190              		.loc 1 208 1
 191              	#NO_APP
 192 00dc 03348100 		ld	s0,8(sp)
 193              		.cfi_remember_state
 194              		.cfi_restore 8
 195              		.cfi_def_cfa 2, 16
 196 00e0 13010101 		addi	sp,sp,16
 197              		.cfi_def_cfa_offset 0
 198 00e4 67800000 		jr	ra
 199              	.L8:
 200              		.cfi_restore_state
 204:src/riscv.cpp ****     }
 201              		.loc 1 204 9 is_stmt 1
GAS LISTING /tmp/ccthbQZE.s 			page 11


 202              	.LVL14:
 203              	.LBB102:
 204              	.LBB103:
 126:src/../h/riscv.hpp **** }
 205              		.loc 2 126 5
 126:src/../h/riscv.hpp **** }
 206              		.loc 2 126 63 is_stmt 0
 207 00e8 93070010 		li	a5,256
 208              	#APP
 209              	# 126 "src/../h/riscv.hpp" 1
 127:src/../h/riscv.hpp **** 
 210              		csrs sstatus, a5
 211              	# 0 "" 2
 212              		.loc 2 127 1
 213              	#NO_APP
 214 00f0 6FF05FFE 		j	.L9
 215              	.LBE103:
 216              	.LBE102:
 217              		.cfi_endproc
 218              	.LFE37:
 220              		.align	2
 221              		.globl	_ZN5Riscv10putToSleepEm
 223              	_ZN5Riscv10putToSleepEm:
 224              	.LFB38:
 209:src/riscv.cpp **** 
 210:src/riscv.cpp **** 
 211:src/riscv.cpp **** int Riscv::putToSleep(time_t time) {
 225              		.loc 1 211 36 is_stmt 1
 226              		.cfi_startproc
 227              	.LVL15:
 212:src/riscv.cpp ****     if(time<=0)return -1;
 228              		.loc 1 212 5
 229 00f4 63040510 		beqz	a0,.L20
 211:src/riscv.cpp ****     if(time<=0)return -1;
 230              		.loc 1 211 36 is_stmt 0
 231 00f8 130101FE 		addi	sp,sp,-32
 232              		.cfi_def_cfa_offset 32
 233 00fc 233C1100 		sd	ra,24(sp)
 234 0100 23388100 		sd	s0,16(sp)
 235 0104 23349100 		sd	s1,8(sp)
 236 0108 23302101 		sd	s2,0(sp)
 237              		.cfi_offset 1, -8
 238              		.cfi_offset 8, -16
 239              		.cfi_offset 9, -24
 240              		.cfi_offset 18, -32
 241 010c 13040102 		addi	s0,sp,32
 242              		.cfi_def_cfa 8, 0
 243 0110 93040500 		mv	s1,a0
 213:src/riscv.cpp ****     TCB::running->setSleeping(true);
 244              		.loc 1 213 5 is_stmt 1
 245              		.loc 1 213 30 is_stmt 0
 246 0114 17090000 		la	s2,_ZN3TCB7runningE
 246      03390900 
 247 011c 83370900 		ld	a5,0(s2)
 248              	.LVL16:
 249              	.LBB104:
 250              	.LBB105:
GAS LISTING /tmp/ccthbQZE.s 			page 12


 251              		.file 3 "src/../h/../h/TCB.hpp"
   1:src/../h/../h/TCB.hpp **** //
   2:src/../h/../h/TCB.hpp **** // Created by os on 7/18/23.
   3:src/../h/../h/TCB.hpp **** //
   4:src/../h/../h/TCB.hpp **** 
   5:src/../h/../h/TCB.hpp **** //sa vezbi 6 i 7 iskoriscen deo
   6:src/../h/../h/TCB.hpp **** 
   7:src/../h/../h/TCB.hpp **** #ifndef PROJECT_BASE_TCB_HPP
   8:src/../h/../h/TCB.hpp **** #define PROJECT_BASE_TCB_HPP
   9:src/../h/../h/TCB.hpp **** 
  10:src/../h/../h/TCB.hpp **** #include "../lib/hw.h"
  11:src/../h/../h/TCB.hpp **** 
  12:src/../h/../h/TCB.hpp **** class TCB{
  13:src/../h/../h/TCB.hpp **** public:
  14:src/../h/../h/TCB.hpp ****     virtual ~TCB();
  15:src/../h/../h/TCB.hpp **** 
  16:src/../h/../h/TCB.hpp ****     bool isBlocked() const {
  17:src/../h/../h/TCB.hpp ****         return blocked;
  18:src/../h/../h/TCB.hpp ****     }
  19:src/../h/../h/TCB.hpp **** 
  20:src/../h/../h/TCB.hpp ****     void setBlocked(bool blocked) {
  21:src/../h/../h/TCB.hpp ****         TCB::blocked = blocked;
  22:src/../h/../h/TCB.hpp ****     }
  23:src/../h/../h/TCB.hpp **** 
  24:src/../h/../h/TCB.hpp ****     bool isFinished() const{
  25:src/../h/../h/TCB.hpp ****         return finished;
  26:src/../h/../h/TCB.hpp ****     }
  27:src/../h/../h/TCB.hpp **** 
  28:src/../h/../h/TCB.hpp ****     void setFinished(bool finished){
  29:src/../h/../h/TCB.hpp ****         TCB::finished = finished;
  30:src/../h/../h/TCB.hpp ****     }
  31:src/../h/../h/TCB.hpp **** 
  32:src/../h/../h/TCB.hpp ****     uint64 getTimeSlice() const{
  33:src/../h/../h/TCB.hpp ****         return timeSlice;
  34:src/../h/../h/TCB.hpp ****     }
  35:src/../h/../h/TCB.hpp **** 
  36:src/../h/../h/TCB.hpp ****     bool isSleeping() const {
  37:src/../h/../h/TCB.hpp ****         return sleeping;
  38:src/../h/../h/TCB.hpp ****     }
  39:src/../h/../h/TCB.hpp **** 
  40:src/../h/../h/TCB.hpp ****     void setSleeping(bool sleeping) {
  41:src/../h/../h/TCB.hpp ****         TCB::sleeping = sleeping;
 252              		.loc 3 41 9 is_stmt 1
 253              		.loc 3 41 23 is_stmt 0
 254 0120 13071000 		li	a4,1
 255 0124 A380E704 		sb	a4,65(a5)
 256              	.LVL17:
 257              	.LBE105:
 258              	.LBE104:
 214:src/riscv.cpp **** 
 215:src/riscv.cpp ****     SleepingElem* newElem=(SleepingElem*)MemoryAllocator::alloc((sizeof(SleepingElem)+MEM_BLOCK_SIZ
 259              		.loc 1 215 5 is_stmt 1
 260              		.loc 1 215 64 is_stmt 0
 261 0128 13051000 		li	a0,1
 262              	.LVL18:
 263 012c 97000000 		call	_ZN15MemoryAllocator5allocEm@plt
 263      E7800000 
GAS LISTING /tmp/ccthbQZE.s 			page 13


 264              	.LVL19:
 216:src/riscv.cpp ****     newElem->thr=TCB::running;
 265              		.loc 1 216 5 is_stmt 1
 266              		.loc 1 216 17 is_stmt 0
 267 0134 83370900 		ld	a5,0(s2)
 268 0138 2330F500 		sd	a5,0(a0)
 217:src/riscv.cpp **** 
 218:src/riscv.cpp ****     if(!Riscv::headSleeping){
 269              		.loc 1 218 5 is_stmt 1
 270              	.LBB106:
 271              		.loc 1 218 8 is_stmt 0
 272 013c 17060000 		ld	a2,.LANCHOR0
 272      03360600 
 273              		.loc 1 218 5
 274 0144 630C0604 		beqz	a2,.L25
 275              	.LBE106:
 219:src/riscv.cpp ****         newElem->toSleepRel=time;
 220:src/riscv.cpp ****         newElem->next=nullptr;
 221:src/riscv.cpp ****         headSleeping=newElem;
 222:src/riscv.cpp ****     }
 223:src/riscv.cpp ****     else{
 224:src/riscv.cpp ****         if(time<=Riscv::headSleeping->toSleepRel){
 276              		.loc 1 224 9 is_stmt 1
 277              	.LBB110:
 278              	.LBB107:
 279              		.loc 1 224 39 is_stmt 0
 280 0148 03378600 		ld	a4,8(a2)
 281              		.loc 1 224 9
 282 014c 63629706 		bltu	a4,s1,.L15
 225:src/riscv.cpp ****             newElem->toSleepRel=time;
 283              		.loc 1 225 13 is_stmt 1
 284              		.loc 1 225 32 is_stmt 0
 285 0150 23349500 		sd	s1,8(a0)
 226:src/riscv.cpp ****             newElem->next=Riscv::headSleeping;
 286              		.loc 1 226 13 is_stmt 1
 287              		.loc 1 226 26 is_stmt 0
 288 0154 2338C500 		sd	a2,16(a0)
 227:src/riscv.cpp ****             headSleeping->toSleepRel-=time;
 289              		.loc 1 227 13 is_stmt 1
 290              		.loc 1 227 37 is_stmt 0
 291 0158 03378600 		ld	a4,8(a2)
 292 015c 33079740 		sub	a4,a4,s1
 293 0160 2334E600 		sd	a4,8(a2)
 228:src/riscv.cpp ****             headSleeping=newElem;
 294              		.loc 1 228 13 is_stmt 1
 295              		.loc 1 228 25 is_stmt 0
 296 0164 97070000 		sd	a0,.LANCHOR0,a5
 296      23B0A700 
 297              	.L14:
 298              	.LBE107:
 299              	.LBE110:
 229:src/riscv.cpp ****         }
 230:src/riscv.cpp ****         else{
 231:src/riscv.cpp ****             time_t relTime=time-Riscv::headSleeping->toSleepRel;
 232:src/riscv.cpp ****             SleepingElem* pom=headSleeping->next;
 233:src/riscv.cpp ****             SleepingElem* prev=headSleeping;
 234:src/riscv.cpp ****             while(pom!=nullptr && relTime>pom->toSleepRel){
GAS LISTING /tmp/ccthbQZE.s 			page 14


 235:src/riscv.cpp ****                 relTime-=pom->toSleepRel;
 236:src/riscv.cpp ****                 prev=pom;
 237:src/riscv.cpp ****                 pom=pom->next;
 238:src/riscv.cpp ****             }
 239:src/riscv.cpp ****             if(pom==nullptr){
 240:src/riscv.cpp ****                 newElem->next= nullptr;
 241:src/riscv.cpp ****             }
 242:src/riscv.cpp ****             else{
 243:src/riscv.cpp ****                 newElem->next=pom;
 244:src/riscv.cpp ****                 pom->toSleepRel-=relTime;
 245:src/riscv.cpp ****             }
 246:src/riscv.cpp ****             newElem->toSleepRel=relTime;
 247:src/riscv.cpp ****             prev->next=newElem;
 248:src/riscv.cpp ****         }
 249:src/riscv.cpp ****     }
 250:src/riscv.cpp **** 
 251:src/riscv.cpp ****     TCB::timeSliceCounter=0;
 300              		.loc 1 251 5 is_stmt 1
 301              		.loc 1 251 26 is_stmt 0
 302 016c 97070000 		la	a5,_ZN3TCB16timeSliceCounterE
 302      83B70700 
 303 0174 23B00700 		sd	zero,0(a5)
 252:src/riscv.cpp ****     TCB::dispatch();
 304              		.loc 1 252 5 is_stmt 1
 305              		.loc 1 252 18 is_stmt 0
 306 0178 97000000 		call	_ZN3TCB8dispatchEv@plt
 306      E7800000 
 307              	.LVL20:
 253:src/riscv.cpp ****     return 0;
 308              		.loc 1 253 5 is_stmt 1
 309              		.loc 1 253 12 is_stmt 0
 310 0180 13050000 		li	a0,0
 254:src/riscv.cpp **** }
 311              		.loc 1 254 1
 312 0184 83308101 		ld	ra,24(sp)
 313              		.cfi_remember_state
 314              		.cfi_restore 1
 315 0188 03340101 		ld	s0,16(sp)
 316              		.cfi_restore 8
 317              		.cfi_def_cfa 2, 32
 318 018c 83348100 		ld	s1,8(sp)
 319              		.cfi_restore 9
 320              	.LVL21:
 321 0190 03390100 		ld	s2,0(sp)
 322              		.cfi_restore 18
 323 0194 13010102 		addi	sp,sp,32
 324              		.cfi_def_cfa_offset 0
 325 0198 67800000 		jr	ra
 326              	.LVL22:
 327              	.L25:
 328              		.cfi_restore_state
 329              	.LBB111:
 219:src/riscv.cpp ****         newElem->next=nullptr;
 330              		.loc 1 219 9 is_stmt 1
 219:src/riscv.cpp ****         newElem->next=nullptr;
 331              		.loc 1 219 28 is_stmt 0
 332 019c 23349500 		sd	s1,8(a0)
GAS LISTING /tmp/ccthbQZE.s 			page 15


 220:src/riscv.cpp ****         headSleeping=newElem;
 333              		.loc 1 220 9 is_stmt 1
 220:src/riscv.cpp ****         headSleeping=newElem;
 334              		.loc 1 220 22 is_stmt 0
 335 01a0 23380500 		sd	zero,16(a0)
 221:src/riscv.cpp ****     }
 336              		.loc 1 221 9 is_stmt 1
 221:src/riscv.cpp ****     }
 337              		.loc 1 221 21 is_stmt 0
 338 01a4 97070000 		sd	a0,.LANCHOR0,a5
 338      23B0A700 
 339 01ac 6FF01FFC 		j	.L14
 340              	.L15:
 341              	.LBB109:
 342              	.LBB108:
 231:src/riscv.cpp ****             SleepingElem* pom=headSleeping->next;
 343              		.loc 1 231 13 is_stmt 1
 231:src/riscv.cpp ****             SleepingElem* pom=headSleeping->next;
 344              		.loc 1 231 20 is_stmt 0
 345 01b0 3387E440 		sub	a4,s1,a4
 346              	.LVL23:
 232:src/riscv.cpp ****             SleepingElem* prev=headSleeping;
 347              		.loc 1 232 13 is_stmt 1
 232:src/riscv.cpp ****             SleepingElem* prev=headSleeping;
 348              		.loc 1 232 27 is_stmt 0
 349 01b4 83370601 		ld	a5,16(a2)
 350              	.LVL24:
 233:src/riscv.cpp ****             while(pom!=nullptr && relTime>pom->toSleepRel){
 351              		.loc 1 233 13 is_stmt 1
 352              	.L17:
 234:src/riscv.cpp ****                 relTime-=pom->toSleepRel;
 353              		.loc 1 234 13
 234:src/riscv.cpp ****                 relTime-=pom->toSleepRel;
 354              		.loc 1 234 32
 355 01b8 638E0700 		beqz	a5,.L16
 234:src/riscv.cpp ****                 relTime-=pom->toSleepRel;
 356              		.loc 1 234 48 is_stmt 0 discriminator 1
 357 01bc 83B68700 		ld	a3,8(a5)
 234:src/riscv.cpp ****                 relTime-=pom->toSleepRel;
 358              		.loc 1 234 32 discriminator 1
 359 01c0 63FAE600 		bgeu	a3,a4,.L16
 235:src/riscv.cpp ****                 prev=pom;
 360              		.loc 1 235 17 is_stmt 1
 235:src/riscv.cpp ****                 prev=pom;
 361              		.loc 1 235 24 is_stmt 0
 362 01c4 3307D740 		sub	a4,a4,a3
 363              	.LVL25:
 236:src/riscv.cpp ****                 pom=pom->next;
 364              		.loc 1 236 17 is_stmt 1
 237:src/riscv.cpp ****             }
 365              		.loc 1 237 17
 236:src/riscv.cpp ****                 pom=pom->next;
 366              		.loc 1 236 21 is_stmt 0
 367 01c8 13860700 		mv	a2,a5
 237:src/riscv.cpp ****             }
 368              		.loc 1 237 20
 369 01cc 83B70701 		ld	a5,16(a5)
GAS LISTING /tmp/ccthbQZE.s 			page 16


 370              	.LVL26:
 234:src/riscv.cpp ****                 relTime-=pom->toSleepRel;
 371              		.loc 1 234 13
 372 01d0 6FF09FFE 		j	.L17
 373              	.L16:
 239:src/riscv.cpp ****                 newElem->next= nullptr;
 374              		.loc 1 239 13 is_stmt 1
 375 01d4 63800702 		beqz	a5,.L26
 243:src/riscv.cpp ****                 pom->toSleepRel-=relTime;
 376              		.loc 1 243 17
 243:src/riscv.cpp ****                 pom->toSleepRel-=relTime;
 377              		.loc 1 243 30 is_stmt 0
 378 01d8 2338F500 		sd	a5,16(a0)
 244:src/riscv.cpp ****             }
 379              		.loc 1 244 17 is_stmt 1
 244:src/riscv.cpp ****             }
 380              		.loc 1 244 32 is_stmt 0
 381 01dc 83B68700 		ld	a3,8(a5)
 382 01e0 B386E640 		sub	a3,a3,a4
 383 01e4 23B4D700 		sd	a3,8(a5)
 384              	.L19:
 246:src/riscv.cpp ****             prev->next=newElem;
 385              		.loc 1 246 13 is_stmt 1
 246:src/riscv.cpp ****             prev->next=newElem;
 386              		.loc 1 246 32 is_stmt 0
 387 01e8 2334E500 		sd	a4,8(a0)
 247:src/riscv.cpp ****         }
 388              		.loc 1 247 13 is_stmt 1
 247:src/riscv.cpp ****         }
 389              		.loc 1 247 23 is_stmt 0
 390 01ec 2338A600 		sd	a0,16(a2)
 391 01f0 6FF0DFF7 		j	.L14
 392              	.L26:
 240:src/riscv.cpp ****             }
 393              		.loc 1 240 17 is_stmt 1
 240:src/riscv.cpp ****             }
 394              		.loc 1 240 30 is_stmt 0
 395 01f4 23380500 		sd	zero,16(a0)
 396 01f8 6FF01FFF 		j	.L19
 397              	.LVL27:
 398              	.L20:
 399              		.cfi_def_cfa_register 2
 400              		.cfi_restore 1
 401              		.cfi_restore 8
 402              		.cfi_restore 9
 403              		.cfi_restore 18
 404              	.LBE108:
 405              	.LBE109:
 406              	.LBE111:
 212:src/riscv.cpp ****     TCB::running->setSleeping(true);
 407              		.loc 1 212 24
 408 01fc 1305F0FF 		li	a0,-1
 409              	.LVL28:
 410              		.loc 1 254 1
 411 0200 67800000 		ret
 412              		.cfi_endproc
 413              	.LFE38:
GAS LISTING /tmp/ccthbQZE.s 			page 17


 415              		.section	.rodata.str1.8,"aMS",@progbits,1
 416              		.align	3
 417              	.LC0:
 418 0000 47524553 		.string	"GRESKA:"
 418      4B413A00 
 419              		.align	3
 420              	.LC1:
 421 0008 0A736570 		.string	"\nsepc:"
 421      633A00
 422 000f 00       		.align	3
 423              	.LC2:
 424 0010 0A00     		.string	"\n"
 425              		.text
 426              		.align	2
 427              		.globl	_ZN5Riscv20handleEcallExceptionEv
 429              	_ZN5Riscv20handleEcallExceptionEv:
 430              	.LFB34:
  14:src/riscv.cpp ****     uint64 scause=r_scause();
 431              		.loc 1 14 35 is_stmt 1
 432              		.cfi_startproc
 433 0204 130101F9 		addi	sp,sp,-112
 434              		.cfi_def_cfa_offset 112
 435 0208 23341106 		sd	ra,104(sp)
 436 020c 23308106 		sd	s0,96(sp)
 437 0210 233C9104 		sd	s1,88(sp)
 438              		.cfi_offset 1, -8
 439              		.cfi_offset 8, -16
 440              		.cfi_offset 9, -24
 441 0214 13040107 		addi	s0,sp,112
 442              		.cfi_def_cfa 8, 0
  15:src/riscv.cpp **** 
 443              		.loc 1 15 5
 444              	.LBB112:
 445              	.LBB113:
  75:src/../h/riscv.hpp ****     __asm__ volatile("csrr %[scause], scause":[scause]"=r"(scause));
 446              		.loc 2 75 5
  76:src/../h/riscv.hpp ****     return scause;
 447              		.loc 2 76 5
  76:src/../h/riscv.hpp ****     return scause;
 448              		.loc 2 76 68 is_stmt 0
 449              	#APP
 450              	# 76 "src/../h/riscv.hpp" 1
 451              		csrr a5, scause
 452              	# 0 "" 2
 453              	#NO_APP
 454 021c 2330F4FA 		sd	a5,-96(s0)
  77:src/../h/riscv.hpp **** }
 455              		.loc 2 77 5 is_stmt 1
  77:src/../h/riscv.hpp **** }
 456              		.loc 2 77 12 is_stmt 0
 457 0220 833404FA 		ld	s1,-96(s0)
 458              	.LVL29:
 459              	.LBE113:
 460              	.LBE112:
  17:src/riscv.cpp ****     __asm__ volatile("ld %0, 0x50(fp)": "=r"(a0));
 461              		.loc 1 17 5 is_stmt 1
  18:src/riscv.cpp ****     uint64 volatile a1;
GAS LISTING /tmp/ccthbQZE.s 			page 18


 462              		.loc 1 18 5
  18:src/riscv.cpp ****     uint64 volatile a1;
 463              		.loc 1 18 50 is_stmt 0
 464              	#APP
 465              	# 18 "src/riscv.cpp" 1
 466              		ld a5, 0x50(fp)
 467              	# 0 "" 2
 468              	#NO_APP
 469 0228 233CF4FC 		sd	a5,-40(s0)
  19:src/riscv.cpp ****     __asm__ volatile("ld %0, 0x58(fp)": "=r"(a1));
 470              		.loc 1 19 5 is_stmt 1
  20:src/riscv.cpp ****     uint64 volatile a2;
 471              		.loc 1 20 5
  20:src/riscv.cpp ****     uint64 volatile a2;
 472              		.loc 1 20 50 is_stmt 0
 473              	#APP
 474              	# 20 "src/riscv.cpp" 1
 475              		ld a5, 0x58(fp)
 476              	# 0 "" 2
 477              	#NO_APP
 478 0230 2338F4FC 		sd	a5,-48(s0)
  21:src/riscv.cpp ****     __asm__ volatile("ld %0, 0x60(fp)": "=r"(a2));
 479              		.loc 1 21 5 is_stmt 1
  22:src/riscv.cpp ****     uint64 volatile a3;
 480              		.loc 1 22 5
  22:src/riscv.cpp ****     uint64 volatile a3;
 481              		.loc 1 22 50 is_stmt 0
 482              	#APP
 483              	# 22 "src/riscv.cpp" 1
 484              		ld a5, 0x60(fp)
 485              	# 0 "" 2
 486              	#NO_APP
 487 0238 2334F4FC 		sd	a5,-56(s0)
  23:src/riscv.cpp ****     __asm__ volatile("ld %0, 0x68(fp)": "=r"(a3));
 488              		.loc 1 23 5 is_stmt 1
  24:src/riscv.cpp ****     uint64 volatile a4;
 489              		.loc 1 24 5
  24:src/riscv.cpp ****     uint64 volatile a4;
 490              		.loc 1 24 50 is_stmt 0
 491              	#APP
 492              	# 24 "src/riscv.cpp" 1
 493              		ld a5, 0x68(fp)
 494              	# 0 "" 2
 495              	#NO_APP
 496 0240 2330F4FC 		sd	a5,-64(s0)
  25:src/riscv.cpp ****     __asm__ volatile("ld %0, 0x70(fp)": "=r"(a4));
 497              		.loc 1 25 5 is_stmt 1
  26:src/riscv.cpp **** 
 498              		.loc 1 26 5
  26:src/riscv.cpp **** 
 499              		.loc 1 26 50 is_stmt 0
 500              	#APP
 501              	# 26 "src/riscv.cpp" 1
 502              		ld a5, 0x70(fp)
 503              	# 0 "" 2
 504              	#NO_APP
 505 0248 233CF4FA 		sd	a5,-72(s0)
GAS LISTING /tmp/ccthbQZE.s 			page 19


  28:src/riscv.cpp ****         //09 iz sist rezima, 08 iz korisnickog
 506              		.loc 1 28 5 is_stmt 1
 507              	.LBB114:
  28:src/riscv.cpp ****         //09 iz sist rezima, 08 iz korisnickog
 508              		.loc 1 28 23 is_stmt 0
 509 024c 138784FF 		addi	a4,s1,-8
  28:src/riscv.cpp ****         //09 iz sist rezima, 08 iz korisnickog
 510              		.loc 1 28 5
 511 0250 93071000 		li	a5,1
 512 0254 63E2E722 		bgtu	a4,a5,.L28
 513              	.LBB115:
  30:src/riscv.cpp ****         uint64 volatile sstatus=r_sstatus();
 514              		.loc 1 30 9 is_stmt 1
 515              	.LBB116:
 516              	.LBB117:
  84:src/../h/riscv.hpp ****     __asm__ volatile("csrr %[sepc], sepc":[sepc]"=r"(sepc));
 517              		.loc 2 84 5
  85:src/../h/riscv.hpp ****     return sepc;
 518              		.loc 2 85 5
  85:src/../h/riscv.hpp ****     return sepc;
 519              		.loc 2 85 60 is_stmt 0
 520              	#APP
 521              	# 85 "src/../h/riscv.hpp" 1
 522              		csrr a5, sepc
 523              	# 0 "" 2
 524              	#NO_APP
 525 025c 2338F4FA 		sd	a5,-80(s0)
  86:src/../h/riscv.hpp **** }
 526              		.loc 2 86 5 is_stmt 1
  86:src/../h/riscv.hpp **** }
 527              		.loc 2 86 12 is_stmt 0
 528 0260 833704FB 		ld	a5,-80(s0)
 529              	.LBE117:
 530              	.LBE116:
  30:src/riscv.cpp ****         uint64 volatile sstatus=r_sstatus();
 531              		.loc 1 30 38
 532 0264 93874700 		addi	a5,a5,4
  30:src/riscv.cpp ****         uint64 volatile sstatus=r_sstatus();
 533              		.loc 1 30 39
 534 0268 2338F4F8 		sd	a5,-112(s0)
  31:src/riscv.cpp **** 
 535              		.loc 1 31 9 is_stmt 1
 536              	.LBB118:
 537              	.LBB119:
 130:src/../h/riscv.hpp ****     __asm__ volatile("csrr %[sstatus], sstatus":[sstatus]"=r"(sstatus));
 538              		.loc 2 130 5
 131:src/../h/riscv.hpp ****     return sstatus;
 539              		.loc 2 131 5
 131:src/../h/riscv.hpp ****     return sstatus;
 540              		.loc 2 131 72 is_stmt 0
 541              	#APP
 542              	# 131 "src/../h/riscv.hpp" 1
 543              		csrr a5, sstatus
 544              	# 0 "" 2
 545              	#NO_APP
 546 0270 2334F4FA 		sd	a5,-88(s0)
 132:src/../h/riscv.hpp **** }
GAS LISTING /tmp/ccthbQZE.s 			page 20


 547              		.loc 2 132 5 is_stmt 1
 132:src/../h/riscv.hpp **** }
 548              		.loc 2 132 12 is_stmt 0
 549 0274 833784FA 		ld	a5,-88(s0)
 550              	.LBE119:
 551              	.LBE118:
  31:src/riscv.cpp **** 
 552              		.loc 1 31 43
 553 0278 233CF4F8 		sd	a5,-104(s0)
  33:src/riscv.cpp ****             //mem_alloc
 554              		.loc 1 33 9 is_stmt 1
 555              	.LBB120:
  33:src/riscv.cpp ****             //mem_alloc
 556              		.loc 1 33 14 is_stmt 0
 557 027c 033784FD 		ld	a4,-40(s0)
  33:src/riscv.cpp ****             //mem_alloc
 558              		.loc 1 33 9
 559 0280 93071000 		li	a5,1
 560 0284 6304F70A 		beq	a4,a5,.L47
 561              	.LBE120:
 562              	.LBE115:
 563              	.LBE114:
  38:src/riscv.cpp ****             //mem_free
 564              		.loc 1 38 14 is_stmt 1
 565              	.LBB257:
 566              	.LBB242:
 567              	.LBB225:
 568              	.LBB121:
  38:src/riscv.cpp ****             //mem_free
 569              		.loc 1 38 19 is_stmt 0
 570 0288 033784FD 		ld	a4,-40(s0)
  38:src/riscv.cpp ****             //mem_free
 571              		.loc 1 38 14
 572 028c 93072000 		li	a5,2
 573 0290 6308F70C 		beq	a4,a5,.L48
 574              	.LBE121:
 575              	.LBE225:
 576              	.LBE242:
 577              	.LBE257:
  44:src/riscv.cpp ****             /*thread_create
 578              		.loc 1 44 14 is_stmt 1
 579              	.LBB258:
 580              	.LBB243:
 581              	.LBB226:
 582              	.LBB212:
 583              	.LBB122:
  44:src/riscv.cpp ****             /*thread_create
 584              		.loc 1 44 19 is_stmt 0
 585 0294 033784FD 		ld	a4,-40(s0)
  44:src/riscv.cpp ****             /*thread_create
 586              		.loc 1 44 14
 587 0298 93071001 		li	a5,17
 588 029c 630CF70C 		beq	a4,a5,.L49
 589              	.LBE122:
 590              	.LBE212:
 591              	.LBE226:
 592              	.LBE243:
GAS LISTING /tmp/ccthbQZE.s 			page 21


 593              	.LBE258:
  64:src/riscv.cpp ****             //thread_exit()
 594              		.loc 1 64 14 is_stmt 1
 595              	.LBB259:
 596              	.LBB244:
 597              	.LBB227:
 598              	.LBB213:
 599              	.LBB200:
 600              	.LBB123:
  64:src/riscv.cpp ****             //thread_exit()
 601              		.loc 1 64 19 is_stmt 0
 602 02a0 033784FD 		ld	a4,-40(s0)
  64:src/riscv.cpp ****             //thread_exit()
 603              		.loc 1 64 14
 604 02a4 93072001 		li	a5,18
 605 02a8 6302F710 		beq	a4,a5,.L50
 606              	.LBE123:
 607              	.LBE200:
 608              	.LBE213:
 609              	.LBE227:
 610              	.LBE244:
 611              	.LBE259:
  69:src/riscv.cpp ****             //thread_dispatch()
 612              		.loc 1 69 14 is_stmt 1
 613              	.LBB260:
 614              	.LBB245:
 615              	.LBB228:
 616              	.LBB214:
 617              	.LBB201:
 618              	.LBB187:
 619              	.LBB124:
  69:src/riscv.cpp ****             //thread_dispatch()
 620              		.loc 1 69 19 is_stmt 0
 621 02ac 033784FD 		ld	a4,-40(s0)
  69:src/riscv.cpp ****             //thread_dispatch()
 622              		.loc 1 69 14
 623 02b0 93073001 		li	a5,19
 624 02b4 6304F710 		beq	a4,a5,.L51
 625              	.LBE124:
 626              	.LBE187:
 627              	.LBE201:
 628              	.LBE214:
 629              	.LBE228:
 630              	.LBE245:
 631              	.LBE260:
  74:src/riscv.cpp ****             //char getc();
 632              		.loc 1 74 14 is_stmt 1
 633              	.LBB261:
 634              	.LBB246:
 635              	.LBB229:
 636              	.LBB215:
 637              	.LBB202:
 638              	.LBB188:
 639              	.LBB177:
 640              	.LBB125:
  74:src/riscv.cpp ****             //char getc();
 641              		.loc 1 74 19 is_stmt 0
GAS LISTING /tmp/ccthbQZE.s 			page 22


 642 02b8 033784FD 		ld	a4,-40(s0)
  74:src/riscv.cpp ****             //char getc();
 643              		.loc 1 74 14
 644 02bc 93071004 		li	a5,65
 645 02c0 630AF710 		beq	a4,a5,.L52
 646              	.LBE125:
 647              	.LBE177:
 648              	.LBE188:
 649              	.LBE202:
 650              	.LBE215:
 651              	.LBE229:
 652              	.LBE246:
 653              	.LBE261:
  83:src/riscv.cpp ****             //void putc(c)
 654              		.loc 1 83 14 is_stmt 1
 655              	.LBB262:
 656              	.LBB247:
 657              	.LBB230:
 658              	.LBB216:
 659              	.LBB203:
 660              	.LBB189:
 661              	.LBB178:
 662              	.LBB169:
 663              	.LBB126:
  83:src/riscv.cpp ****             //void putc(c)
 664              		.loc 1 83 19 is_stmt 0
 665 02c4 033784FD 		ld	a4,-40(s0)
  83:src/riscv.cpp ****             //void putc(c)
 666              		.loc 1 83 14
 667 02c8 93072004 		li	a5,66
 668 02cc 630CF710 		beq	a4,a5,.L53
 669              	.LBE126:
 670              	.LBE169:
 671              	.LBE178:
 672              	.LBE189:
 673              	.LBE203:
 674              	.LBE216:
 675              	.LBE230:
 676              	.LBE247:
 677              	.LBE262:
  91:src/riscv.cpp ****             //sem_open
 678              		.loc 1 91 14 is_stmt 1
 679              	.LBB263:
 680              	.LBB248:
 681              	.LBB231:
 682              	.LBB217:
 683              	.LBB204:
 684              	.LBB190:
 685              	.LBB179:
 686              	.LBB170:
 687              	.LBB161:
 688              	.LBB127:
  91:src/riscv.cpp ****             //sem_open
 689              		.loc 1 91 19 is_stmt 0
 690 02d0 033784FD 		ld	a4,-40(s0)
  91:src/riscv.cpp ****             //sem_open
 691              		.loc 1 91 14
GAS LISTING /tmp/ccthbQZE.s 			page 23


 692 02d4 93071002 		li	a5,33
 693 02d8 6300F712 		beq	a4,a5,.L54
 694              	.LBE127:
 695              	.LBE161:
 696              	.LBE170:
 697              	.LBE179:
 698              	.LBE190:
 699              	.LBE204:
 700              	.LBE217:
 701              	.LBE231:
 702              	.LBE248:
 703              	.LBE263:
 105:src/riscv.cpp ****             //sem_wait(sem_t id)
 704              		.loc 1 105 14 is_stmt 1
 705              	.LBB264:
 706              	.LBB249:
 707              	.LBB232:
 708              	.LBB218:
 709              	.LBB205:
 710              	.LBB191:
 711              	.LBB180:
 712              	.LBB171:
 713              	.LBB162:
 714              	.LBB154:
 715              	.LBB128:
 105:src/riscv.cpp ****             //sem_wait(sem_t id)
 716              		.loc 1 105 19 is_stmt 0
 717 02dc 033784FD 		ld	a4,-40(s0)
 105:src/riscv.cpp ****             //sem_wait(sem_t id)
 718              		.loc 1 105 14
 719 02e0 93073002 		li	a5,35
 720 02e4 6304F714 		beq	a4,a5,.L55
 721              	.LBE128:
 722              	.LBE154:
 723              	.LBE162:
 724              	.LBE171:
 725              	.LBE180:
 726              	.LBE191:
 727              	.LBE205:
 728              	.LBE218:
 729              	.LBE232:
 730              	.LBE249:
 731              	.LBE264:
 111:src/riscv.cpp ****             //sem_close(sem_t handle)
 732              		.loc 1 111 14 is_stmt 1
 733              	.LBB265:
 734              	.LBB250:
 735              	.LBB233:
 736              	.LBB219:
 737              	.LBB206:
 738              	.LBB192:
 739              	.LBB181:
 740              	.LBB172:
 741              	.LBB163:
 742              	.LBB155:
 743              	.LBB146:
 744              	.LBB129:
GAS LISTING /tmp/ccthbQZE.s 			page 24


 111:src/riscv.cpp ****             //sem_close(sem_t handle)
 745              		.loc 1 111 19 is_stmt 0
 746 02e8 033784FD 		ld	a4,-40(s0)
 111:src/riscv.cpp ****             //sem_close(sem_t handle)
 747              		.loc 1 111 14
 748 02ec 93072002 		li	a5,34
 749 02f0 6308F714 		beq	a4,a5,.L56
 750              	.LBE129:
 751              	.LBE146:
 752              	.LBE155:
 753              	.LBE163:
 754              	.LBE172:
 755              	.LBE181:
 756              	.LBE192:
 757              	.LBE206:
 758              	.LBE219:
 759              	.LBE233:
 760              	.LBE250:
 761              	.LBE265:
 117:src/riscv.cpp ****             //sem_signal(sem_t id)
 762              		.loc 1 117 14 is_stmt 1
 763              	.LBB266:
 764              	.LBB251:
 765              	.LBB234:
 766              	.LBB220:
 767              	.LBB207:
 768              	.LBB193:
 769              	.LBB182:
 770              	.LBB173:
 771              	.LBB164:
 772              	.LBB156:
 773              	.LBB147:
 774              	.LBB141:
 775              	.LBB130:
 117:src/riscv.cpp ****             //sem_signal(sem_t id)
 776              		.loc 1 117 19 is_stmt 0
 777 02f4 033784FD 		ld	a4,-40(s0)
 117:src/riscv.cpp ****             //sem_signal(sem_t id)
 778              		.loc 1 117 14
 779 02f8 93074002 		li	a5,36
 780 02fc 630CF714 		beq	a4,a5,.L57
 781              	.LBE130:
 782              	.LBE141:
 783              	.LBE147:
 784              	.LBE156:
 785              	.LBE164:
 786              	.LBE173:
 787              	.LBE182:
 788              	.LBE193:
 789              	.LBE207:
 790              	.LBE220:
 791              	.LBE234:
 792              	.LBE251:
 793              	.LBE266:
 123:src/riscv.cpp ****             //thread_join(thread_t)
 794              		.loc 1 123 14 is_stmt 1
 795              	.LBB267:
GAS LISTING /tmp/ccthbQZE.s 			page 25


 796              	.LBB252:
 797              	.LBB235:
 798              	.LBB221:
 799              	.LBB208:
 800              	.LBB194:
 801              	.LBB183:
 802              	.LBB174:
 803              	.LBB165:
 804              	.LBB157:
 805              	.LBB148:
 806              	.LBB142:
 807              	.LBB137:
 808              	.LBB131:
 123:src/riscv.cpp ****             //thread_join(thread_t)
 809              		.loc 1 123 19 is_stmt 0
 810 0300 033784FD 		ld	a4,-40(s0)
 123:src/riscv.cpp ****             //thread_join(thread_t)
 811              		.loc 1 123 14
 812 0304 93074001 		li	a5,20
 813 0308 6300F716 		beq	a4,a5,.L58
 814              	.LBE131:
 815              	.LBE137:
 816              	.LBE142:
 817              	.LBE148:
 818              	.LBE157:
 819              	.LBE165:
 820              	.LBE174:
 821              	.LBE183:
 822              	.LBE194:
 823              	.LBE208:
 824              	.LBE221:
 825              	.LBE235:
 826              	.LBE252:
 827              	.LBE267:
 127:src/riscv.cpp ****             //time_sleep(time_t)
 828              		.loc 1 127 14 is_stmt 1
 829              	.LBB268:
 830              	.LBB253:
 831              	.LBB236:
 832              	.LBB222:
 833              	.LBB209:
 834              	.LBB195:
 835              	.LBB184:
 836              	.LBB175:
 837              	.LBB166:
 838              	.LBB158:
 839              	.LBB149:
 840              	.LBB143:
 841              	.LBB138:
 842              	.LBB134:
 843              	.LBB132:
 127:src/riscv.cpp ****             //time_sleep(time_t)
 844              		.loc 1 127 19 is_stmt 0
 845 030c 033784FD 		ld	a4,-40(s0)
 127:src/riscv.cpp ****             //time_sleep(time_t)
 846              		.loc 1 127 14
 847 0310 93071003 		li	a5,49
GAS LISTING /tmp/ccthbQZE.s 			page 26


 848 0314 6314F702 		bne	a4,a5,.L30
 849              	.LBB133:
 129:src/riscv.cpp ****             int stat=Riscv::putToSleep(time);
 850              		.loc 1 129 13 is_stmt 1
 129:src/riscv.cpp ****             int stat=Riscv::putToSleep(time);
 851              		.loc 1 129 33 is_stmt 0
 852 0318 033504FD 		ld	a0,-48(s0)
 853              	.LVL30:
 130:src/riscv.cpp ****             __asm__ volatile("sd %0, 0x50(fp)": : "r"(stat));
 854              		.loc 1 130 13 is_stmt 1
 130:src/riscv.cpp ****             __asm__ volatile("sd %0, 0x50(fp)": : "r"(stat));
 855              		.loc 1 130 39 is_stmt 0
 856 031c 97000000 		call	_ZN5Riscv10putToSleepEm
 856      E7800000 
 857              	.LVL31:
 131:src/riscv.cpp ****         }
 858              		.loc 1 131 13 is_stmt 1
 131:src/riscv.cpp ****         }
 859              		.loc 1 131 61 is_stmt 0
 860              	#APP
 861              	# 131 "src/riscv.cpp" 1
 862              		sd a0, 0x50(fp)
 863              	# 0 "" 2
 864              	#NO_APP
 865              	.LBE133:
 866 0328 6F004001 		j	.L30
 867              	.LVL32:
 868              	.L47:
 869              	.LBE132:
 870              	.LBE134:
 871              	.LBE138:
 872              	.LBE143:
 873              	.LBE149:
 874              	.LBE158:
 875              	.LBE166:
 876              	.LBE175:
 877              	.LBE184:
 878              	.LBE195:
 879              	.LBE209:
 880              	.LBE222:
 881              	.LBB223:
  35:src/riscv.cpp ****             __asm__ volatile("sd %0, 0x50(fp)": : "r"((uint64)ptr));
 882              		.loc 1 35 13 is_stmt 1
  35:src/riscv.cpp ****             __asm__ volatile("sd %0, 0x50(fp)": : "r"((uint64)ptr));
 883              		.loc 1 35 45 is_stmt 0
 884 032c 033504FD 		ld	a0,-48(s0)
 885 0330 97000000 		call	_ZN15MemoryAllocator5allocEm@plt
 885      E7800000 
 886              	.LVL33:
  36:src/riscv.cpp ****         }
 887              		.loc 1 36 13 is_stmt 1
  36:src/riscv.cpp ****         }
 888              		.loc 1 36 68 is_stmt 0
 889              	#APP
 890              	# 36 "src/riscv.cpp" 1
 891              		sd a0, 0x50(fp)
 892              	# 0 "" 2
GAS LISTING /tmp/ccthbQZE.s 			page 27


 893              	.LVL34:
 894              	#NO_APP
 895              	.L30:
 896              	.LBE223:
 897              	.LBE236:
 134:src/riscv.cpp ****         w_sepc(sepc);
 898              		.loc 1 134 9 is_stmt 1
 134:src/riscv.cpp ****         w_sepc(sepc);
 899              		.loc 1 134 18 is_stmt 0
 900 033c 833784F9 		ld	a5,-104(s0)
 901              	.LVL35:
 902              	.LBB237:
 903              	.LBB238:
 135:src/../h/riscv.hpp **** }
 904              		.loc 2 135 5 is_stmt 1
 135:src/../h/riscv.hpp **** }
 905              		.loc 2 135 72 is_stmt 0
 906              	#APP
 907              	# 135 "src/../h/riscv.hpp" 1
 908              		csrw sstatus, a5
 909              	# 0 "" 2
 910              	.LVL36:
 911              	#NO_APP
 912              	.LBE238:
 913              	.LBE237:
 135:src/riscv.cpp ****     }
 914              		.loc 1 135 9 is_stmt 1
 135:src/riscv.cpp ****     }
 915              		.loc 1 135 15 is_stmt 0
 916 0344 833704F9 		ld	a5,-112(s0)
 917              	.LVL37:
 918              	.LBB239:
 919              	.LBB240:
  89:src/../h/riscv.hpp **** }
 920              		.loc 2 89 5 is_stmt 1
  89:src/../h/riscv.hpp **** }
 921              		.loc 2 89 60 is_stmt 0
 922              	#APP
 923              	# 89 "src/../h/riscv.hpp" 1
 924              		csrw sepc, a5
 925              	# 0 "" 2
 926              	.LVL38:
 927              	#NO_APP
 928              	.LBE240:
 929              	.LBE239:
 930              	.LBE253:
 931              	.LBE268:
 150:src/riscv.cpp **** 
 932              		.loc 1 150 1
 933 034c 83308106 		ld	ra,104(sp)
 934              		.cfi_remember_state
 935              		.cfi_restore 1
 936 0350 03340106 		ld	s0,96(sp)
 937              		.cfi_restore 8
 938              		.cfi_def_cfa 2, 112
 939 0354 83348105 		ld	s1,88(sp)
 940              		.cfi_restore 9
GAS LISTING /tmp/ccthbQZE.s 			page 28


 941              	.LVL39:
 942 0358 13010107 		addi	sp,sp,112
 943              		.cfi_def_cfa_offset 0
 944 035c 67800000 		jr	ra
 945              	.LVL40:
 946              	.L48:
 947              		.cfi_restore_state
 948              	.LBB269:
 949              	.LBB254:
 950              	.LBB241:
 951              	.LBB224:
 952              	.LBB210:
  40:src/riscv.cpp ****             __asm__ volatile("sd %0, 0x50(fp)": : "r"(stat));
 953              		.loc 1 40 13 is_stmt 1
  40:src/riscv.cpp ****             __asm__ volatile("sd %0, 0x50(fp)": : "r"(stat));
 954              		.loc 1 40 43 is_stmt 0
 955 0360 033504FD 		ld	a0,-48(s0)
 956 0364 97000000 		call	_ZN15MemoryAllocator4freeEPv@plt
 956      E7800000 
 957              	.LVL41:
  41:src/riscv.cpp ****         }
 958              		.loc 1 41 13 is_stmt 1
  41:src/riscv.cpp ****         }
 959              		.loc 1 41 61 is_stmt 0
 960              	#APP
 961              	# 41 "src/riscv.cpp" 1
 962              		sd a0, 0x50(fp)
 963              	# 0 "" 2
 964              	#NO_APP
 965              	.LBE210:
 966 0370 6FF0DFFC 		j	.L30
 967              	.LVL42:
 968              	.L49:
 969              	.LBB211:
 970              	.LBB196:
  52:src/riscv.cpp **** 
 971              		.loc 1 52 13 is_stmt 1
  52:src/riscv.cpp **** 
 972              		.loc 1 52 43 is_stmt 0
 973 0374 033584FC 		ld	a0,-56(s0)
 974 0378 833584FB 		ld	a1,-72(s0)
 975 037c 033604FC 		ld	a2,-64(s0)
 976 0380 97000000 		call	_ZN3TCB12createThreadEPFvPvEPcS0_@plt
 976      E7800000 
 977              	.LVL43:
  54:src/riscv.cpp ****                 __asm__ volatile("sd %0, 0x50(fp)": : "r"(-1));
 978              		.loc 1 54 13 is_stmt 1
 979              	.LBB197:
 980 0388 630C0500 		beqz	a0,.L59
 981              	.LBB198:
  58:src/riscv.cpp ****                 *retHandle=handle;
 982              		.loc 1 58 17
  58:src/riscv.cpp ****                 *retHandle=handle;
 983              		.loc 1 58 40 is_stmt 0
 984 038c 033704FD 		ld	a4,-48(s0)
 985              	.LVL44:
  59:src/riscv.cpp ****                 __asm__ volatile("sd %0, 0x50(fp)": : "r"(0));
GAS LISTING /tmp/ccthbQZE.s 			page 29


 986              		.loc 1 59 17 is_stmt 1
  59:src/riscv.cpp ****                 __asm__ volatile("sd %0, 0x50(fp)": : "r"(0));
 987              		.loc 1 59 27 is_stmt 0
 988 0390 2330A700 		sd	a0,0(a4)
  60:src/riscv.cpp ****             }
 989              		.loc 1 60 17 is_stmt 1
  60:src/riscv.cpp ****             }
 990              		.loc 1 60 62 is_stmt 0
 991 0394 93070000 		li	a5,0
 992              	#APP
 993              	# 60 "src/riscv.cpp" 1
 994              		sd a5, 0x50(fp)
 995              	# 0 "" 2
 996              	#NO_APP
 997 039c 6FF01FFA 		j	.L30
 998              	.LVL45:
 999              	.L59:
 1000              	.LBE198:
  55:src/riscv.cpp ****             }
 1001              		.loc 1 55 17 is_stmt 1
  55:src/riscv.cpp ****             }
 1002              		.loc 1 55 63 is_stmt 0
 1003 03a0 9307F0FF 		li	a5,-1
 1004              	#APP
 1005              	# 55 "src/riscv.cpp" 1
 1006              		sd a5, 0x50(fp)
 1007              	# 0 "" 2
 1008              	#NO_APP
 1009 03a8 6FF05FF9 		j	.L30
 1010              	.LVL46:
 1011              	.L50:
 1012              	.LBE197:
 1013              	.LBE196:
 1014              	.LBB199:
 1015              	.LBB185:
  66:src/riscv.cpp ****             __asm__ volatile("sd %0, 0x50(fp)": : "r"(stat));
 1016              		.loc 1 66 13 is_stmt 1
  66:src/riscv.cpp ****             __asm__ volatile("sd %0, 0x50(fp)": : "r"(stat));
 1017              		.loc 1 66 31 is_stmt 0
 1018 03ac 97000000 		call	_ZN3TCB4exitEv@plt
 1018      E7800000 
 1019              	.LVL47:
  67:src/riscv.cpp ****         }
 1020              		.loc 1 67 13 is_stmt 1
  67:src/riscv.cpp ****         }
 1021              		.loc 1 67 61 is_stmt 0
 1022              	#APP
 1023              	# 67 "src/riscv.cpp" 1
 1024              		sd a0, 0x50(fp)
 1025              	# 0 "" 2
 1026              	#NO_APP
 1027              	.LBE185:
 1028 03b8 6FF05FF8 		j	.L30
 1029              	.LVL48:
 1030              	.L51:
 1031              	.LBB186:
  71:src/riscv.cpp ****             TCB::dispatch();
GAS LISTING /tmp/ccthbQZE.s 			page 30


 1032              		.loc 1 71 13 is_stmt 1
  71:src/riscv.cpp ****             TCB::dispatch();
 1033              		.loc 1 71 34 is_stmt 0
 1034 03bc 97070000 		la	a5,_ZN3TCB16timeSliceCounterE
 1034      83B70700 
 1035 03c4 23B00700 		sd	zero,0(a5)
  72:src/riscv.cpp ****         }
 1036              		.loc 1 72 13 is_stmt 1
  72:src/riscv.cpp ****         }
 1037              		.loc 1 72 26 is_stmt 0
 1038 03c8 97000000 		call	_ZN3TCB8dispatchEv@plt
 1038      E7800000 
 1039              	.LVL49:
 1040 03d0 6FF0DFF6 		j	.L30
 1041              	.L52:
 1042              	.LBB176:
 1043              	.LBB167:
  77:src/riscv.cpp ****             __asm__ volatile("sd %0, 0x50(fp)": : "r"(c));
 1044              		.loc 1 77 13 is_stmt 1
  77:src/riscv.cpp ****             __asm__ volatile("sd %0, 0x50(fp)": : "r"(c));
 1045              		.loc 1 77 45 is_stmt 0
 1046 03d4 97000000 		call	_ZN8_console14inputBuff_takeEv@plt
 1046      E7800000 
 1047              	.LVL50:
  78:src/riscv.cpp **** 
 1048              		.loc 1 78 13 is_stmt 1
  78:src/riscv.cpp **** 
 1049              		.loc 1 78 58 is_stmt 0
 1050              	#APP
 1051              	# 78 "src/riscv.cpp" 1
 1052              		sd a0, 0x50(fp)
 1053              	# 0 "" 2
 1054              	#NO_APP
 1055              	.LBE167:
 1056 03e0 6FF0DFF5 		j	.L30
 1057              	.LVL51:
 1058              	.L53:
 1059              	.LBB168:
 1060              	.LBB159:
  86:src/riscv.cpp ****             _console::outputBuff_put(c);
 1061              		.loc 1 86 13 is_stmt 1
  86:src/riscv.cpp ****             _console::outputBuff_put(c);
 1062              		.loc 1 86 26 is_stmt 0
 1063 03e4 033504FD 		ld	a0,-48(s0)
 1064              	.LVL52:
  87:src/riscv.cpp **** 
 1065              		.loc 1 87 13 is_stmt 1
  87:src/riscv.cpp **** 
 1066              		.loc 1 87 37 is_stmt 0
 1067 03e8 1375F50F 		andi	a0,a0,0xff
 1068 03ec 97000000 		call	_ZN8_console14outputBuff_putEc@plt
 1068      E7800000 
 1069              	.LVL53:
 1070              	.LBE159:
 1071 03f4 6FF09FF4 		j	.L30
 1072              	.L54:
 1073              	.LBB160:
GAS LISTING /tmp/ccthbQZE.s 			page 31


 1074              	.LBB150:
  95:src/riscv.cpp ****             if(!handle){
 1075              		.loc 1 95 13 is_stmt 1
  95:src/riscv.cpp ****             if(!handle){
 1076              		.loc 1 95 36 is_stmt 0
 1077 03f8 033584FC 		ld	a0,-56(s0)
 1078 03fc 1B050500 		sext.w	a0,a0
 1079 0400 97000000 		call	_ZN4_sem4openEi@plt
 1079      E7800000 
 1080              	.LVL54:
  96:src/riscv.cpp ****                 __asm__ volatile("sd %0, 0x50(fp)": : "r"(-1));
 1081              		.loc 1 96 13 is_stmt 1
 1082              	.LBB151:
 1083 0408 630C0500 		beqz	a0,.L60
 1084              	.LBB152:
 100:src/riscv.cpp ****                 *retHandle=handle;
 1085              		.loc 1 100 17
 100:src/riscv.cpp ****                 *retHandle=handle;
 1086              		.loc 1 100 42 is_stmt 0
 1087 040c 033704FD 		ld	a4,-48(s0)
 1088              	.LVL55:
 101:src/riscv.cpp ****                 __asm__ volatile("sd %0, 0x50(fp)": : "r"(0));
 1089              		.loc 1 101 17 is_stmt 1
 101:src/riscv.cpp ****                 __asm__ volatile("sd %0, 0x50(fp)": : "r"(0));
 1090              		.loc 1 101 27 is_stmt 0
 1091 0410 2330A700 		sd	a0,0(a4)
 102:src/riscv.cpp ****             }
 1092              		.loc 1 102 17 is_stmt 1
 102:src/riscv.cpp ****             }
 1093              		.loc 1 102 62 is_stmt 0
 1094 0414 93070000 		li	a5,0
 1095              	#APP
 1096              	# 102 "src/riscv.cpp" 1
 1097              		sd a5, 0x50(fp)
 1098              	# 0 "" 2
 1099              	#NO_APP
 1100 041c 6FF01FF2 		j	.L30
 1101              	.LVL56:
 1102              	.L60:
 1103              	.LBE152:
  97:src/riscv.cpp ****             }
 1104              		.loc 1 97 17 is_stmt 1
  97:src/riscv.cpp ****             }
 1105              		.loc 1 97 63 is_stmt 0
 1106 0420 9307F0FF 		li	a5,-1
 1107              	#APP
 1108              	# 97 "src/riscv.cpp" 1
 1109              		sd a5, 0x50(fp)
 1110              	# 0 "" 2
 1111              	#NO_APP
 1112 0428 6FF05FF1 		j	.L30
 1113              	.LVL57:
 1114              	.L55:
 1115              	.LBE151:
 1116              	.LBE150:
 1117              	.LBB153:
 1118              	.LBB144:
GAS LISTING /tmp/ccthbQZE.s 			page 32


 107:src/riscv.cpp ****             int stat=handle->wait();
 1119              		.loc 1 107 13 is_stmt 1
 107:src/riscv.cpp ****             int stat=handle->wait();
 1120              		.loc 1 107 34 is_stmt 0
 1121 042c 033504FD 		ld	a0,-48(s0)
 1122              	.LVL58:
 108:src/riscv.cpp ****             __asm__ volatile("sd %0, 0x50(fp)": : "r"(stat));
 1123              		.loc 1 108 13 is_stmt 1
 108:src/riscv.cpp ****             __asm__ volatile("sd %0, 0x50(fp)": : "r"(stat));
 1124              		.loc 1 108 34 is_stmt 0
 1125 0430 97000000 		call	_ZN4_sem4waitEv@plt
 1125      E7800000 
 1126              	.LVL59:
 109:src/riscv.cpp ****         }
 1127              		.loc 1 109 13 is_stmt 1
 109:src/riscv.cpp ****         }
 1128              		.loc 1 109 61 is_stmt 0
 1129              	#APP
 1130              	# 109 "src/riscv.cpp" 1
 1131              		sd a0, 0x50(fp)
 1132              	# 0 "" 2
 1133              	#NO_APP
 1134              	.LBE144:
 1135 043c 6FF01FF0 		j	.L30
 1136              	.LVL60:
 1137              	.L56:
 1138              	.LBB145:
 1139              	.LBB139:
 113:src/riscv.cpp ****             int stat=handle->close();
 1140              		.loc 1 113 13 is_stmt 1
 113:src/riscv.cpp ****             int stat=handle->close();
 1141              		.loc 1 113 34 is_stmt 0
 1142 0440 033504FD 		ld	a0,-48(s0)
 1143              	.LVL61:
 114:src/riscv.cpp ****             __asm__ volatile("sd %0, 0x50(fp)": : "r"(stat));
 1144              		.loc 1 114 13 is_stmt 1
 114:src/riscv.cpp ****             __asm__ volatile("sd %0, 0x50(fp)": : "r"(stat));
 1145              		.loc 1 114 35 is_stmt 0
 1146 0444 97000000 		call	_ZN4_sem5closeEv@plt
 1146      E7800000 
 1147              	.LVL62:
 115:src/riscv.cpp ****         }
 1148              		.loc 1 115 13 is_stmt 1
 115:src/riscv.cpp ****         }
 1149              		.loc 1 115 61 is_stmt 0
 1150              	#APP
 1151              	# 115 "src/riscv.cpp" 1
 1152              		sd a0, 0x50(fp)
 1153              	# 0 "" 2
 1154              	#NO_APP
 1155              	.LBE139:
 1156 0450 6FF0DFEE 		j	.L30
 1157              	.LVL63:
 1158              	.L57:
 1159              	.LBB140:
 1160              	.LBB135:
 119:src/riscv.cpp ****             int stat=handle->signal();
GAS LISTING /tmp/ccthbQZE.s 			page 33


 1161              		.loc 1 119 13 is_stmt 1
 119:src/riscv.cpp ****             int stat=handle->signal();
 1162              		.loc 1 119 34 is_stmt 0
 1163 0454 033504FD 		ld	a0,-48(s0)
 1164              	.LVL64:
 120:src/riscv.cpp ****             __asm__ volatile("sd %0, 0x50(fp)": : "r"(stat));
 1165              		.loc 1 120 13 is_stmt 1
 120:src/riscv.cpp ****             __asm__ volatile("sd %0, 0x50(fp)": : "r"(stat));
 1166              		.loc 1 120 36 is_stmt 0
 1167 0458 97000000 		call	_ZN4_sem6signalEv@plt
 1167      E7800000 
 1168              	.LVL65:
 121:src/riscv.cpp ****         }
 1169              		.loc 1 121 13 is_stmt 1
 121:src/riscv.cpp ****         }
 1170              		.loc 1 121 61 is_stmt 0
 1171              	#APP
 1172              	# 121 "src/riscv.cpp" 1
 1173              		sd a0, 0x50(fp)
 1174              	# 0 "" 2
 1175              	#NO_APP
 1176              	.LBE135:
 1177 0464 6FF09FED 		j	.L30
 1178              	.LVL66:
 1179              	.L58:
 1180              	.LBB136:
 125:src/riscv.cpp ****         }
 1181              		.loc 1 125 13 is_stmt 1
 125:src/riscv.cpp ****         }
 1182              		.loc 1 125 22 is_stmt 0
 1183 0468 033504FD 		ld	a0,-48(s0)
 1184 046c 97000000 		call	_ZN3TCB4joinEPS_@plt
 1184      E7800000 
 1185              	.LVL67:
 1186 0474 6FF09FEC 		j	.L30
 1187              	.L28:
 1188              	.LBE136:
 1189              	.LBE140:
 1190              	.LBE145:
 1191              	.LBE153:
 1192              	.LBE160:
 1193              	.LBE168:
 1194              	.LBE176:
 1195              	.LBE186:
 1196              	.LBE199:
 1197              	.LBE211:
 1198              	.LBE224:
 1199              	.LBE241:
 1200              	.LBE254:
 139:src/riscv.cpp ****         printInt(scause);
 1201              		.loc 1 139 9 is_stmt 1
 139:src/riscv.cpp ****         printInt(scause);
 1202              		.loc 1 139 20 is_stmt 0
 1203 0478 17050000 		lla	a0,.LC0
 1203      13050500 
 1204 0480 97000000 		call	_Z11printStringPKc@plt
 1204      E7800000 
GAS LISTING /tmp/ccthbQZE.s 			page 34


 1205              	.LVL68:
 140:src/riscv.cpp ****         printString("\nsepc:");
 1206              		.loc 1 140 9 is_stmt 1
 140:src/riscv.cpp ****         printString("\nsepc:");
 1207              		.loc 1 140 17 is_stmt 0
 1208 0488 13060000 		li	a2,0
 1209 048c 9305A000 		li	a1,10
 1210 0490 1B850400 		sext.w	a0,s1
 1211 0494 97000000 		call	_Z8printIntiii@plt
 1211      E7800000 
 1212              	.LVL69:
 141:src/riscv.cpp ****         printInt(r_sepc());
 1213              		.loc 1 141 9 is_stmt 1
 141:src/riscv.cpp ****         printInt(r_sepc());
 1214              		.loc 1 141 20 is_stmt 0
 1215 049c 17050000 		lla	a0,.LC1
 1215      13050500 
 1216 04a4 97000000 		call	_Z11printStringPKc@plt
 1216      E7800000 
 1217              	.LVL70:
 142:src/riscv.cpp ****         printString("\n");
 1218              		.loc 1 142 9 is_stmt 1
 1219              	.LBB255:
 1220              	.LBB256:
  84:src/../h/riscv.hpp ****     __asm__ volatile("csrr %[sepc], sepc":[sepc]"=r"(sepc));
 1221              		.loc 2 84 5
  85:src/../h/riscv.hpp ****     return sepc;
 1222              		.loc 2 85 5
  85:src/../h/riscv.hpp ****     return sepc;
 1223              		.loc 2 85 60 is_stmt 0
 1224              	#APP
 1225              	# 85 "src/../h/riscv.hpp" 1
 1226              		csrr a5, sepc
 1227              	# 0 "" 2
 1228              	#NO_APP
 1229 04b0 2338F4FA 		sd	a5,-80(s0)
  86:src/../h/riscv.hpp **** }
 1230              		.loc 2 86 5 is_stmt 1
  86:src/../h/riscv.hpp **** }
 1231              		.loc 2 86 12 is_stmt 0
 1232 04b4 033504FB 		ld	a0,-80(s0)
 1233              	.LBE256:
 1234              	.LBE255:
 142:src/riscv.cpp ****         printString("\n");
 1235              		.loc 1 142 17
 1236 04b8 13060000 		li	a2,0
 1237 04bc 9305A000 		li	a1,10
 1238 04c0 1B050500 		sext.w	a0,a0
 1239 04c4 97000000 		call	_Z8printIntiii@plt
 1239      E7800000 
 1240              	.LVL71:
 143:src/riscv.cpp **** 
 1241              		.loc 1 143 9 is_stmt 1
 143:src/riscv.cpp **** 
 1242              		.loc 1 143 20 is_stmt 0
 1243 04cc 17050000 		lla	a0,.LC2
 1243      13050500 
GAS LISTING /tmp/ccthbQZE.s 			page 35


 1244 04d4 97000000 		call	_Z11printStringPKc@plt
 1244      E7800000 
 1245              	.LVL72:
 1246              	.L44:
 145:src/riscv.cpp ****             //TCB::dispatch();
 1247              		.loc 1 145 9 is_stmt 1 discriminator 1
 145:src/riscv.cpp ****             //TCB::dispatch();
 1248              		.loc 1 145 9 discriminator 1
 1249 04dc 6F000000 		j	.L44
 1250              	.LBE269:
 1251              		.cfi_endproc
 1252              	.LFE34:
 1254              		.align	2
 1255              		.globl	_ZN5Riscv18updateSleepingListEv
 1257              	_ZN5Riscv18updateSleepingListEv:
 1258              	.LFB39:
 255:src/riscv.cpp **** 
 256:src/riscv.cpp **** void Riscv::updateSleepingList() {
 1259              		.loc 1 256 34
 1260              		.cfi_startproc
 257:src/riscv.cpp ****     if(headSleeping!=nullptr){
 1261              		.loc 1 257 5
 1262              	.LBB270:
 1263              		.loc 1 257 20 is_stmt 0
 1264 04e0 97070000 		ld	a5,.LANCHOR0
 1264      83B70700 
 1265              		.loc 1 257 5
 1266 04e8 638A0700 		beqz	a5,.L65
 1267              	.LBE270:
 258:src/riscv.cpp ****         if(--headSleeping->toSleepRel==0){
 1268              		.loc 1 258 9 is_stmt 1
 1269              	.LBB278:
 1270              	.LBB271:
 1271              		.loc 1 258 28 is_stmt 0
 1272 04ec 03B78700 		ld	a4,8(a5)
 1273              		.loc 1 258 12
 1274 04f0 1307F7FF 		addi	a4,a4,-1
 1275              		.loc 1 258 38
 1276 04f4 23B4E700 		sd	a4,8(a5)
 1277              		.loc 1 258 9
 1278 04f8 63040700 		beqz	a4,.L68
 1279              	.L65:
 1280 04fc 67800000 		ret
 1281              	.L68:
 1282              	.LBE271:
 1283              	.LBE278:
 256:src/riscv.cpp ****     if(headSleeping!=nullptr){
 1284              		.loc 1 256 34
 1285 0500 130101FF 		addi	sp,sp,-16
 1286              		.cfi_def_cfa_offset 16
 1287 0504 23341100 		sd	ra,8(sp)
 1288 0508 23308100 		sd	s0,0(sp)
 1289              		.cfi_offset 1, -8
 1290              		.cfi_offset 8, -16
 1291 050c 13040101 		addi	s0,sp,16
 1292              		.cfi_def_cfa 8, 0
 1293              	.LBB279:
GAS LISTING /tmp/ccthbQZE.s 			page 36


 1294              	.LBB277:
 1295              	.LBB272:
 259:src/riscv.cpp ****             headSleeping->thr->setSleeping(false);
 1296              		.loc 1 259 13 is_stmt 1
 1297              		.loc 1 259 27 is_stmt 0
 1298 0510 03B70700 		ld	a4,0(a5)
 1299              	.LVL73:
 1300              	.LBB273:
 1301              	.LBB274:
 1302              		.loc 3 41 9 is_stmt 1
 1303              		.loc 3 41 23 is_stmt 0
 1304 0514 A3000704 		sb	zero,65(a4)
 1305              	.LVL74:
 1306              	.LBE274:
 1307              	.LBE273:
 260:src/riscv.cpp ****             Scheduler::put(headSleeping->thr);
 1308              		.loc 1 260 13 is_stmt 1
 1309              		.loc 1 260 27 is_stmt 0
 1310 0518 03B50700 		ld	a0,0(a5)
 1311 051c 97000000 		call	_ZN9Scheduler3putEP3TCB@plt
 1311      E7800000 
 1312              	.LVL75:
 261:src/riscv.cpp ****             SleepingElem* old=headSleeping;
 1313              		.loc 1 261 13 is_stmt 1
 1314              		.loc 1 261 27 is_stmt 0
 1315 0524 97070000 		lla	a5,.LANCHOR0
 1315      93870700 
 1316 052c 03B50700 		ld	a0,0(a5)
 1317              	.LVL76:
 262:src/riscv.cpp ****             headSleeping=headSleeping->next;
 1318              		.loc 1 262 13 is_stmt 1
 1319              		.loc 1 262 40 is_stmt 0
 1320 0530 03370501 		ld	a4,16(a0)
 1321              		.loc 1 262 25
 1322 0534 23B0E700 		sd	a4,0(a5)
 263:src/riscv.cpp ****             MemoryAllocator::free(old);
 1323              		.loc 1 263 13 is_stmt 1
 1324              		.loc 1 263 34 is_stmt 0
 1325 0538 97000000 		call	_ZN15MemoryAllocator4freeEPv@plt
 1325      E7800000 
 1326              	.LVL77:
 1327              	.L63:
 264:src/riscv.cpp ****             while(headSleeping!=nullptr && headSleeping->toSleepRel==0){
 1328              		.loc 1 264 13 is_stmt 1
 1329              		.loc 1 264 41
 1330              		.loc 1 264 31 is_stmt 0
 1331 0540 97070000 		ld	a5,.LANCHOR0
 1331      83B70700 
 1332              		.loc 1 264 41
 1333 0548 63800704 		beqz	a5,.L61
 1334              		.loc 1 264 58 discriminator 1
 1335 054c 03B78700 		ld	a4,8(a5)
 1336              		.loc 1 264 41 discriminator 1
 1337 0550 631C0702 		bnez	a4,.L61
 265:src/riscv.cpp ****                 headSleeping->thr->setSleeping(false);
 1338              		.loc 1 265 17 is_stmt 1
 1339              		.loc 1 265 31 is_stmt 0
GAS LISTING /tmp/ccthbQZE.s 			page 37


 1340 0554 03B70700 		ld	a4,0(a5)
 1341              	.LVL78:
 1342              	.LBB275:
 1343              	.LBB276:
 1344              		.loc 3 41 9 is_stmt 1
 1345              		.loc 3 41 23 is_stmt 0
 1346 0558 A3000704 		sb	zero,65(a4)
 1347              	.LVL79:
 1348              	.LBE276:
 1349              	.LBE275:
 266:src/riscv.cpp ****                 Scheduler::put(headSleeping->thr);
 1350              		.loc 1 266 17 is_stmt 1
 1351              		.loc 1 266 31 is_stmt 0
 1352 055c 03B50700 		ld	a0,0(a5)
 1353 0560 97000000 		call	_ZN9Scheduler3putEP3TCB@plt
 1353      E7800000 
 1354              	.LVL80:
 267:src/riscv.cpp ****                 old=headSleeping;
 1355              		.loc 1 267 17 is_stmt 1
 1356              		.loc 1 267 20 is_stmt 0
 1357 0568 97070000 		lla	a5,.LANCHOR0
 1357      93870700 
 1358 0570 03B50700 		ld	a0,0(a5)
 1359              	.LVL81:
 268:src/riscv.cpp ****                 headSleeping=headSleeping->next;
 1360              		.loc 1 268 17 is_stmt 1
 1361              		.loc 1 268 44 is_stmt 0
 1362 0574 03370501 		ld	a4,16(a0)
 1363              		.loc 1 268 29
 1364 0578 23B0E700 		sd	a4,0(a5)
 269:src/riscv.cpp ****                 MemoryAllocator::free(old);
 1365              		.loc 1 269 17 is_stmt 1
 1366              		.loc 1 269 38 is_stmt 0
 1367 057c 97000000 		call	_ZN15MemoryAllocator4freeEPv@plt
 1367      E7800000 
 1368              	.LVL82:
 264:src/riscv.cpp ****                 headSleeping->thr->setSleeping(false);
 1369              		.loc 1 264 13
 1370 0584 6FF0DFFB 		j	.L63
 1371              	.L61:
 1372              	.LBE272:
 1373              	.LBE277:
 1374              	.LBE279:
 270:src/riscv.cpp ****             }
 271:src/riscv.cpp ****         }
 272:src/riscv.cpp ****     }
 273:src/riscv.cpp **** }
 1375              		.loc 1 273 1
 1376 0588 83308100 		ld	ra,8(sp)
 1377              		.cfi_restore 1
 1378 058c 03340100 		ld	s0,0(sp)
 1379              		.cfi_restore 8
 1380              		.cfi_def_cfa 2, 16
 1381 0590 13010101 		addi	sp,sp,16
 1382              		.cfi_def_cfa_offset 0
 1383 0594 67800000 		jr	ra
 1384              		.cfi_endproc
GAS LISTING /tmp/ccthbQZE.s 			page 38


 1385              	.LFE39:
 1387              		.align	2
 1388              		.globl	_ZN5Riscv14timerInterruptEv
 1390              	_ZN5Riscv14timerInterruptEv:
 1391              	.LFB35:
 152:src/riscv.cpp ****     uint64 scause=r_scause();
 1392              		.loc 1 152 30 is_stmt 1
 1393              		.cfi_startproc
 1394 0598 130101FC 		addi	sp,sp,-64
 1395              		.cfi_def_cfa_offset 64
 1396 059c 233C1102 		sd	ra,56(sp)
 1397 05a0 23388102 		sd	s0,48(sp)
 1398              		.cfi_offset 1, -8
 1399              		.cfi_offset 8, -16
 1400 05a4 13040104 		addi	s0,sp,64
 1401              		.cfi_def_cfa 8, 0
 153:src/riscv.cpp ****     if(scause==0x8000000000000001UL){
 1402              		.loc 1 153 5
 1403              	.LBB280:
 1404              	.LBB281:
  75:src/../h/riscv.hpp ****     __asm__ volatile("csrr %[scause], scause":[scause]"=r"(scause));
 1405              		.loc 2 75 5
  76:src/../h/riscv.hpp ****     return scause;
 1406              		.loc 2 76 5
  76:src/../h/riscv.hpp ****     return scause;
 1407              		.loc 2 76 68 is_stmt 0
 1408              	#APP
 1409              	# 76 "src/../h/riscv.hpp" 1
 1410              		csrr a5, scause
 1411              	# 0 "" 2
 1412              	#NO_APP
 1413 05ac 233CF4FC 		sd	a5,-40(s0)
  77:src/../h/riscv.hpp **** }
 1414              		.loc 2 77 5 is_stmt 1
  77:src/../h/riscv.hpp **** }
 1415              		.loc 2 77 12 is_stmt 0
 1416 05b0 033784FD 		ld	a4,-40(s0)
 1417              	.LVL83:
 1418              	.LBE281:
 1419              	.LBE280:
 154:src/riscv.cpp ****         //prekid od tajmera, softverski prekid
 1420              		.loc 1 154 5 is_stmt 1
 1421              	.LBB282:
 1422 05b4 9307F0FF 		li	a5,-1
 1423 05b8 9397F703 		slli	a5,a5,63
 1424 05bc 93871700 		addi	a5,a5,1
 1425 05c0 630AF700 		beq	a4,a5,.L73
 1426              	.LVL84:
 1427              	.L69:
 1428              	.LBE282:
 170:src/riscv.cpp **** 
 1429              		.loc 1 170 1 is_stmt 0
 1430 05c4 83308103 		ld	ra,56(sp)
 1431              		.cfi_remember_state
 1432              		.cfi_restore 1
 1433 05c8 03340103 		ld	s0,48(sp)
 1434              		.cfi_restore 8
GAS LISTING /tmp/ccthbQZE.s 			page 39


 1435              		.cfi_def_cfa 2, 64
 1436 05cc 13010104 		addi	sp,sp,64
 1437              		.cfi_def_cfa_offset 0
 1438 05d0 67800000 		jr	ra
 1439              	.LVL85:
 1440              	.L73:
 1441              		.cfi_restore_state
 1442              	.LBB300:
 1443              	.LBB283:
 157:src/riscv.cpp **** 
 1444              		.loc 1 157 9 is_stmt 1
 157:src/riscv.cpp **** 
 1445              		.loc 1 157 27 is_stmt 0
 1446 05d4 97000000 		call	_ZN5Riscv18updateSleepingListEv
 1446      E7800000 
 1447              	.LVL86:
 159:src/riscv.cpp ****         if(TCB::timeSliceCounter>=TCB::running->getTimeSlice()){
 1448              		.loc 1 159 9 is_stmt 1
 159:src/riscv.cpp ****         if(TCB::timeSliceCounter>=TCB::running->getTimeSlice()){
 1449              		.loc 1 159 30 is_stmt 0
 1450 05dc 17070000 		la	a4,_ZN3TCB16timeSliceCounterE
 1450      03370700 
 1451 05e4 83370700 		ld	a5,0(a4)
 1452 05e8 93871700 		addi	a5,a5,1
 1453 05ec 2330F700 		sd	a5,0(a4)
 160:src/riscv.cpp ****             uint64 volatile sepc=r_sepc();
 1454              		.loc 1 160 9 is_stmt 1
 1455              	.LBB284:
 160:src/riscv.cpp ****             uint64 volatile sepc=r_sepc();
 1456              		.loc 1 160 61 is_stmt 0
 1457 05f0 17070000 		la	a4,_ZN3TCB7runningE
 1457      03370700 
 1458 05f8 03370700 		ld	a4,0(a4)
 1459              	.LVL87:
 1460              	.LBB285:
 1461              	.LBB286:
  33:src/../h/../h/TCB.hpp ****     }
 1462              		.loc 3 33 9 is_stmt 1
  33:src/../h/../h/TCB.hpp ****     }
 1463              		.loc 3 33 16 is_stmt 0
 1464 05fc 03378702 		ld	a4,40(a4)
 1465              	.LVL88:
 1466              	.LBE286:
 1467              	.LBE285:
 160:src/riscv.cpp ****             uint64 volatile sepc=r_sepc();
 1468              		.loc 1 160 9
 1469 0600 63F8E700 		bgeu	a5,a4,.L74
 1470              	.L71:
 1471              	.LBE284:
 168:src/riscv.cpp ****     }
 1472              		.loc 1 168 9 is_stmt 1
 1473              	.LVL89:
 1474              	.LBB296:
 1475              	.LBB297:
 112:src/../h/riscv.hpp **** }
 1476              		.loc 2 112 5
 112:src/../h/riscv.hpp **** }
GAS LISTING /tmp/ccthbQZE.s 			page 40


 1477              		.loc 2 112 59 is_stmt 0
 1478 0604 93072000 		li	a5,2
 1479              	#APP
 1480              	# 112 "src/../h/riscv.hpp" 1
 1481              		csrc sip, a5
 1482              	# 0 "" 2
 1483              	.LVL90:
 1484              	#NO_APP
 1485              	.LBE297:
 1486              	.LBE296:
 1487              	.LBE283:
 1488              	.LBE300:
 170:src/riscv.cpp **** 
 1489              		.loc 1 170 1
 1490 060c 6FF09FFB 		j	.L69
 1491              	.L74:
 1492              	.LBB301:
 1493              	.LBB299:
 1494              	.LBB298:
 1495              	.LBB287:
 161:src/riscv.cpp ****             uint64 volatile sstatus=r_sstatus();
 1496              		.loc 1 161 13 is_stmt 1
 1497              	.LBB288:
 1498              	.LBB289:
  84:src/../h/riscv.hpp ****     __asm__ volatile("csrr %[sepc], sepc":[sepc]"=r"(sepc));
 1499              		.loc 2 84 5
  85:src/../h/riscv.hpp ****     return sepc;
 1500              		.loc 2 85 5
  85:src/../h/riscv.hpp ****     return sepc;
 1501              		.loc 2 85 60 is_stmt 0
 1502              	#APP
 1503              	# 85 "src/../h/riscv.hpp" 1
 1504              		csrr a5, sepc
 1505              	# 0 "" 2
 1506              	#NO_APP
 1507 0614 2334F4FE 		sd	a5,-24(s0)
  86:src/../h/riscv.hpp **** }
 1508              		.loc 2 86 5 is_stmt 1
  86:src/../h/riscv.hpp **** }
 1509              		.loc 2 86 12 is_stmt 0
 1510 0618 833784FE 		ld	a5,-24(s0)
 1511              	.LBE289:
 1512              	.LBE288:
 161:src/riscv.cpp ****             uint64 volatile sstatus=r_sstatus();
 1513              		.loc 1 161 41
 1514 061c 2334F4FC 		sd	a5,-56(s0)
 162:src/riscv.cpp ****             TCB::timeSliceCounter=0;
 1515              		.loc 1 162 13 is_stmt 1
 1516              	.LBB290:
 1517              	.LBB291:
 130:src/../h/riscv.hpp ****     __asm__ volatile("csrr %[sstatus], sstatus":[sstatus]"=r"(sstatus));
 1518              		.loc 2 130 5
 131:src/../h/riscv.hpp ****     return sstatus;
 1519              		.loc 2 131 5
 131:src/../h/riscv.hpp ****     return sstatus;
 1520              		.loc 2 131 72 is_stmt 0
 1521              	#APP
GAS LISTING /tmp/ccthbQZE.s 			page 41


 1522              	# 131 "src/../h/riscv.hpp" 1
 1523              		csrr a5, sstatus
 1524              	# 0 "" 2
 1525              	#NO_APP
 1526 0624 2330F4FE 		sd	a5,-32(s0)
 132:src/../h/riscv.hpp **** }
 1527              		.loc 2 132 5 is_stmt 1
 132:src/../h/riscv.hpp **** }
 1528              		.loc 2 132 12 is_stmt 0
 1529 0628 833704FE 		ld	a5,-32(s0)
 1530              	.LBE291:
 1531              	.LBE290:
 162:src/riscv.cpp ****             TCB::timeSliceCounter=0;
 1532              		.loc 1 162 47
 1533 062c 2338F4FC 		sd	a5,-48(s0)
 163:src/riscv.cpp ****             TCB::dispatch();
 1534              		.loc 1 163 13 is_stmt 1
 163:src/riscv.cpp ****             TCB::dispatch();
 1535              		.loc 1 163 34 is_stmt 0
 1536 0630 97070000 		la	a5,_ZN3TCB16timeSliceCounterE
 1536      83B70700 
 1537 0638 23B00700 		sd	zero,0(a5)
 164:src/riscv.cpp ****             w_sstatus(sstatus);
 1538              		.loc 1 164 13 is_stmt 1
 164:src/riscv.cpp ****             w_sstatus(sstatus);
 1539              		.loc 1 164 26 is_stmt 0
 1540 063c 97000000 		call	_ZN3TCB8dispatchEv@plt
 1540      E7800000 
 1541              	.LVL91:
 165:src/riscv.cpp ****             w_sepc(sepc);
 1542              		.loc 1 165 13 is_stmt 1
 165:src/riscv.cpp ****             w_sepc(sepc);
 1543              		.loc 1 165 22 is_stmt 0
 1544 0644 833704FD 		ld	a5,-48(s0)
 1545              	.LVL92:
 1546              	.LBB292:
 1547              	.LBB293:
 135:src/../h/riscv.hpp **** }
 1548              		.loc 2 135 5 is_stmt 1
 135:src/../h/riscv.hpp **** }
 1549              		.loc 2 135 72 is_stmt 0
 1550              	#APP
 1551              	# 135 "src/../h/riscv.hpp" 1
 1552              		csrw sstatus, a5
 1553              	# 0 "" 2
 1554              	.LVL93:
 1555              	#NO_APP
 1556              	.LBE293:
 1557              	.LBE292:
 166:src/riscv.cpp ****         }
 1558              		.loc 1 166 13 is_stmt 1
 166:src/riscv.cpp ****         }
 1559              		.loc 1 166 19 is_stmt 0
 1560 064c 833784FC 		ld	a5,-56(s0)
 1561              	.LVL94:
 1562              	.LBB294:
 1563              	.LBB295:
GAS LISTING /tmp/ccthbQZE.s 			page 42


  89:src/../h/riscv.hpp **** }
 1564              		.loc 2 89 5 is_stmt 1
  89:src/../h/riscv.hpp **** }
 1565              		.loc 2 89 60 is_stmt 0
 1566              	#APP
 1567              	# 89 "src/../h/riscv.hpp" 1
  90:src/../h/riscv.hpp **** inline uint64 Riscv::r_stvec(){
 1568              		csrw sepc, a5
 1569              	# 0 "" 2
 1570              		.loc 2 90 1
 1571              	#NO_APP
 1572 0654 6FF01FFB 		j	.L71
 1573              	.LBE295:
 1574              	.LBE294:
 1575              	.LBE287:
 1576              	.LBE298:
 1577              	.LBE299:
 1578              	.LBE301:
 1579              		.cfi_endproc
 1580              	.LFE35:
 1582              		.globl	_ZN5Riscv12headSleepingE
 1583              		.bss
 1584              		.align	3
 1585              		.set	.LANCHOR0,. + 0
 1588              	_ZN5Riscv12headSleepingE:
 1589 0000 00000000 		.zero	8
 1589      00000000 
 1590              		.text
 1591              	.Letext0:
 1592              		.file 4 "src/../h/../lib/hw.h"
 1593              		.file 5 "src/../h/MemoryAllocator.hpp"
 1594              		.file 6 "src/../h/_sem.hpp"
 1595              		.file 7 "src/../h/../h/list.hpp"
 1596              		.file 8 "src/../h/Scheduler.hpp"
 1597              		.file 9 "src/../h/_console.hpp"
 1598              		.file 10 "src/../test/../h/syscall_c.hpp"
 1599              		.file 11 "src/../test/printing.hpp"
GAS LISTING /tmp/ccthbQZE.s 			page 43


DEFINED SYMBOLS
                            *ABS*:0000000000000000 riscv.cpp
     /tmp/ccthbQZE.s:9      .text:0000000000000000 _ZN5Riscv17hardwareInterruptEv
     /tmp/ccthbQZE.s:13     .text:0000000000000000 .L0 
     /tmp/ccthbQZE.s:14     .text:0000000000000000 .L0 
     /tmp/ccthbQZE.s:15     .text:0000000000000004 .L0 
     /tmp/ccthbQZE.s:19     .text:0000000000000010 .L0 
     /tmp/ccthbQZE.s:20     .text:0000000000000010 .L0 
     /tmp/ccthbQZE.s:21     .text:0000000000000010 .L0 
     /tmp/ccthbQZE.s:23     .text:0000000000000014 .L0 
     /tmp/ccthbQZE.s:28     .text:0000000000000014 .L0 
     /tmp/ccthbQZE.s:29     .text:0000000000000014 .L0 
     /tmp/ccthbQZE.s:30     .text:0000000000000014 .L0 
  src/../h/riscv.hpp:76     .text:0000000000000014 .L0 
     /tmp/ccthbQZE.s:38     .text:000000000000001c .L0 
     /tmp/ccthbQZE.s:39     .text:000000000000001c .L0 
     /tmp/ccthbQZE.s:45     .text:0000000000000020 .L0 
     /tmp/ccthbQZE.s:53     .text:0000000000000030 .L0 
     /tmp/ccthbQZE.s:54     .text:0000000000000034 .L0 
     /tmp/ccthbQZE.s:55     .text:0000000000000034 .L0 
     /tmp/ccthbQZE.s:57     .text:0000000000000038 .L0 
     /tmp/ccthbQZE.s:58     .text:0000000000000038 .L0 
     /tmp/ccthbQZE.s:60     .text:000000000000003c .L0 
     /tmp/ccthbQZE.s:62     .text:0000000000000040 .L0 
     /tmp/ccthbQZE.s:66     .text:0000000000000044 .L0 
     /tmp/ccthbQZE.s:70     .text:0000000000000044 .L0 
     /tmp/ccthbQZE.s:71     .text:0000000000000044 .L0 
     /tmp/ccthbQZE.s:77     .text:0000000000000050 .L0 
     /tmp/ccthbQZE.s:83     .text:0000000000000058 .L0 
     /tmp/ccthbQZE.s:84     .text:0000000000000058 .L0 
     /tmp/ccthbQZE.s:90     .text:0000000000000064 .L0 
     /tmp/ccthbQZE.s:97     .text:0000000000000068 .L0 
     /tmp/ccthbQZE.s:98     .text:0000000000000068 .L0 
     /tmp/ccthbQZE.s:99     .text:0000000000000068 .L0 
     /tmp/ccthbQZE.s:102    .text:0000000000000070 .L0 
     /tmp/ccthbQZE.s:104    .text:0000000000000074 .L0 
     /tmp/ccthbQZE.s:108    .text:0000000000000084 .L0 
     /tmp/ccthbQZE.s:112    .text:000000000000008c .L0 
     /tmp/ccthbQZE.s:113    .text:000000000000008c .L0 
     /tmp/ccthbQZE.s:117    .text:0000000000000098 .L0 
     /tmp/ccthbQZE.s:118    .text:0000000000000098 .L0 
     /tmp/ccthbQZE.s:123    .text:00000000000000a4 .L0 
     /tmp/ccthbQZE.s:128    .text:00000000000000a8 .L0 
     /tmp/ccthbQZE.s:134    .text:00000000000000a8 _ZN5Riscv10popSppSpieEv
     /tmp/ccthbQZE.s:137    .text:00000000000000a8 .L0 
     /tmp/ccthbQZE.s:138    .text:00000000000000a8 .L0 
     /tmp/ccthbQZE.s:139    .text:00000000000000ac .L0 
     /tmp/ccthbQZE.s:141    .text:00000000000000b0 .L0 
     /tmp/ccthbQZE.s:143    .text:00000000000000b4 .L0 
     /tmp/ccthbQZE.s:148    .text:00000000000000b4 .L0 
     /tmp/ccthbQZE.s:149    .text:00000000000000b4 .L0 
     /tmp/ccthbQZE.s:150    .text:00000000000000b4 .L0 
     /tmp/ccthbQZE.s:160    .text:00000000000000bc .L0 
     /tmp/ccthbQZE.s:167    .text:00000000000000cc .L0 
     /tmp/ccthbQZE.s:168    .text:00000000000000cc .L0 
     /tmp/ccthbQZE.s:169    .text:00000000000000cc .L0 
     /tmp/ccthbQZE.s:180    .text:00000000000000d4 .L0 
GAS LISTING /tmp/ccthbQZE.s 			page 44


       src/riscv.cpp:206    .text:00000000000000d4 .L0 
     /tmp/ccthbQZE.s:186    .text:00000000000000d8 .L0 
       src/riscv.cpp:207    .text:00000000000000d8 .L0 
     /tmp/ccthbQZE.s:192    .text:00000000000000dc .L0 
     /tmp/ccthbQZE.s:193    .text:00000000000000e0 .L0 
     /tmp/ccthbQZE.s:194    .text:00000000000000e0 .L0 
     /tmp/ccthbQZE.s:195    .text:00000000000000e0 .L0 
     /tmp/ccthbQZE.s:197    .text:00000000000000e4 .L0 
     /tmp/ccthbQZE.s:200    .text:00000000000000e8 .L0 
     /tmp/ccthbQZE.s:205    .text:00000000000000e8 .L0 
     /tmp/ccthbQZE.s:206    .text:00000000000000e8 .L0 
     /tmp/ccthbQZE.s:207    .text:00000000000000e8 .L0 
     /tmp/ccthbQZE.s:214    .text:00000000000000f0 .L0 
     /tmp/ccthbQZE.s:217    .text:00000000000000f4 .L0 
     /tmp/ccthbQZE.s:223    .text:00000000000000f4 _ZN5Riscv10putToSleepEm
     /tmp/ccthbQZE.s:226    .text:00000000000000f4 .L0 
     /tmp/ccthbQZE.s:228    .text:00000000000000f4 .L0 
     /tmp/ccthbQZE.s:229    .text:00000000000000f4 .L0 
     /tmp/ccthbQZE.s:231    .text:00000000000000f8 .L0 
     /tmp/ccthbQZE.s:232    .text:00000000000000fc .L0 
     /tmp/ccthbQZE.s:237    .text:000000000000010c .L0 
     /tmp/ccthbQZE.s:238    .text:000000000000010c .L0 
     /tmp/ccthbQZE.s:239    .text:000000000000010c .L0 
     /tmp/ccthbQZE.s:240    .text:000000000000010c .L0 
     /tmp/ccthbQZE.s:242    .text:0000000000000110 .L0 
     /tmp/ccthbQZE.s:245    .text:0000000000000114 .L0 
     /tmp/ccthbQZE.s:246    .text:0000000000000114 .L0 
     /tmp/ccthbQZE.s:253    .text:0000000000000120 .L0 
     /tmp/ccthbQZE.s:254    .text:0000000000000120 .L0 
     /tmp/ccthbQZE.s:260    .text:0000000000000128 .L0 
     /tmp/ccthbQZE.s:261    .text:0000000000000128 .L0 
     /tmp/ccthbQZE.s:266    .text:0000000000000134 .L0 
     /tmp/ccthbQZE.s:267    .text:0000000000000134 .L0 
     /tmp/ccthbQZE.s:271    .text:000000000000013c .L0 
     /tmp/ccthbQZE.s:272    .text:000000000000013c .L0 
     /tmp/ccthbQZE.s:274    .text:0000000000000144 .L0 
     /tmp/ccthbQZE.s:279    .text:0000000000000148 .L0 
     /tmp/ccthbQZE.s:280    .text:0000000000000148 .L0 
     /tmp/ccthbQZE.s:282    .text:000000000000014c .L0 
     /tmp/ccthbQZE.s:284    .text:0000000000000150 .L0 
     /tmp/ccthbQZE.s:285    .text:0000000000000150 .L0 
     /tmp/ccthbQZE.s:287    .text:0000000000000154 .L0 
     /tmp/ccthbQZE.s:288    .text:0000000000000154 .L0 
     /tmp/ccthbQZE.s:290    .text:0000000000000158 .L0 
     /tmp/ccthbQZE.s:291    .text:0000000000000158 .L0 
     /tmp/ccthbQZE.s:295    .text:0000000000000164 .L0 
     /tmp/ccthbQZE.s:296    .text:0000000000000164 .L0 
     /tmp/ccthbQZE.s:301    .text:000000000000016c .L0 
     /tmp/ccthbQZE.s:302    .text:000000000000016c .L0 
     /tmp/ccthbQZE.s:305    .text:0000000000000178 .L0 
     /tmp/ccthbQZE.s:306    .text:0000000000000178 .L0 
     /tmp/ccthbQZE.s:309    .text:0000000000000180 .L0 
     /tmp/ccthbQZE.s:310    .text:0000000000000180 .L0 
     /tmp/ccthbQZE.s:312    .text:0000000000000184 .L0 
     /tmp/ccthbQZE.s:313    .text:0000000000000188 .L0 
     /tmp/ccthbQZE.s:314    .text:0000000000000188 .L0 
     /tmp/ccthbQZE.s:316    .text:000000000000018c .L0 
GAS LISTING /tmp/ccthbQZE.s 			page 45


     /tmp/ccthbQZE.s:317    .text:000000000000018c .L0 
     /tmp/ccthbQZE.s:319    .text:0000000000000190 .L0 
     /tmp/ccthbQZE.s:322    .text:0000000000000194 .L0 
     /tmp/ccthbQZE.s:324    .text:0000000000000198 .L0 
     /tmp/ccthbQZE.s:328    .text:000000000000019c .L0 
     /tmp/ccthbQZE.s:331    .text:000000000000019c .L0 
     /tmp/ccthbQZE.s:332    .text:000000000000019c .L0 
     /tmp/ccthbQZE.s:334    .text:00000000000001a0 .L0 
     /tmp/ccthbQZE.s:335    .text:00000000000001a0 .L0 
     /tmp/ccthbQZE.s:337    .text:00000000000001a4 .L0 
     /tmp/ccthbQZE.s:338    .text:00000000000001a4 .L0 
     /tmp/ccthbQZE.s:344    .text:00000000000001b0 .L0 
     /tmp/ccthbQZE.s:345    .text:00000000000001b0 .L0 
     /tmp/ccthbQZE.s:348    .text:00000000000001b4 .L0 
     /tmp/ccthbQZE.s:349    .text:00000000000001b4 .L0 
     /tmp/ccthbQZE.s:353    .text:00000000000001b8 .L0 
     /tmp/ccthbQZE.s:354    .text:00000000000001b8 .L0 
     /tmp/ccthbQZE.s:355    .text:00000000000001b8 .L0 
     /tmp/ccthbQZE.s:357    .text:00000000000001bc .L0 
     /tmp/ccthbQZE.s:359    .text:00000000000001c0 .L0 
     /tmp/ccthbQZE.s:361    .text:00000000000001c4 .L0 
     /tmp/ccthbQZE.s:362    .text:00000000000001c4 .L0 
     /tmp/ccthbQZE.s:365    .text:00000000000001c8 .L0 
     /tmp/ccthbQZE.s:366    .text:00000000000001c8 .L0 
     /tmp/ccthbQZE.s:367    .text:00000000000001c8 .L0 
     /tmp/ccthbQZE.s:369    .text:00000000000001cc .L0 
     /tmp/ccthbQZE.s:372    .text:00000000000001d0 .L0 
     /tmp/ccthbQZE.s:375    .text:00000000000001d4 .L0 
     /tmp/ccthbQZE.s:377    .text:00000000000001d8 .L0 
     /tmp/ccthbQZE.s:378    .text:00000000000001d8 .L0 
     /tmp/ccthbQZE.s:380    .text:00000000000001dc .L0 
     /tmp/ccthbQZE.s:381    .text:00000000000001dc .L0 
     /tmp/ccthbQZE.s:386    .text:00000000000001e8 .L0 
     /tmp/ccthbQZE.s:387    .text:00000000000001e8 .L0 
     /tmp/ccthbQZE.s:389    .text:00000000000001ec .L0 
     /tmp/ccthbQZE.s:390    .text:00000000000001ec .L0 
     /tmp/ccthbQZE.s:394    .text:00000000000001f4 .L0 
     /tmp/ccthbQZE.s:395    .text:00000000000001f4 .L0 
     /tmp/ccthbQZE.s:399    .text:00000000000001fc .L0 
     /tmp/ccthbQZE.s:400    .text:00000000000001fc .L0 
     /tmp/ccthbQZE.s:401    .text:00000000000001fc .L0 
     /tmp/ccthbQZE.s:402    .text:00000000000001fc .L0 
     /tmp/ccthbQZE.s:403    .text:00000000000001fc .L0 
     /tmp/ccthbQZE.s:408    .text:00000000000001fc .L0 
     /tmp/ccthbQZE.s:411    .text:0000000000000200 .L0 
     /tmp/ccthbQZE.s:412    .text:0000000000000204 .L0 
     /tmp/ccthbQZE.s:429    .text:0000000000000204 _ZN5Riscv20handleEcallExceptionEv
     /tmp/ccthbQZE.s:432    .text:0000000000000204 .L0 
     /tmp/ccthbQZE.s:433    .text:0000000000000204 .L0 
     /tmp/ccthbQZE.s:434    .text:0000000000000208 .L0 
     /tmp/ccthbQZE.s:438    .text:0000000000000214 .L0 
     /tmp/ccthbQZE.s:439    .text:0000000000000214 .L0 
     /tmp/ccthbQZE.s:440    .text:0000000000000214 .L0 
     /tmp/ccthbQZE.s:442    .text:0000000000000218 .L0 
     /tmp/ccthbQZE.s:446    .text:0000000000000218 .L0 
     /tmp/ccthbQZE.s:447    .text:0000000000000218 .L0 
     /tmp/ccthbQZE.s:448    .text:0000000000000218 .L0 
GAS LISTING /tmp/ccthbQZE.s 			page 46


  src/../h/riscv.hpp:76     .text:0000000000000218 .L0 
     /tmp/ccthbQZE.s:456    .text:0000000000000220 .L0 
     /tmp/ccthbQZE.s:457    .text:0000000000000220 .L0 
     /tmp/ccthbQZE.s:462    .text:0000000000000224 .L0 
     /tmp/ccthbQZE.s:463    .text:0000000000000224 .L0 
       src/riscv.cpp:18     .text:0000000000000224 .L0 
     /tmp/ccthbQZE.s:471    .text:000000000000022c .L0 
     /tmp/ccthbQZE.s:472    .text:000000000000022c .L0 
       src/riscv.cpp:20     .text:000000000000022c .L0 
     /tmp/ccthbQZE.s:480    .text:0000000000000234 .L0 
     /tmp/ccthbQZE.s:481    .text:0000000000000234 .L0 
       src/riscv.cpp:22     .text:0000000000000234 .L0 
     /tmp/ccthbQZE.s:489    .text:000000000000023c .L0 
     /tmp/ccthbQZE.s:490    .text:000000000000023c .L0 
       src/riscv.cpp:24     .text:000000000000023c .L0 
     /tmp/ccthbQZE.s:498    .text:0000000000000244 .L0 
     /tmp/ccthbQZE.s:499    .text:0000000000000244 .L0 
       src/riscv.cpp:26     .text:0000000000000244 .L0 
     /tmp/ccthbQZE.s:508    .text:000000000000024c .L0 
     /tmp/ccthbQZE.s:509    .text:000000000000024c .L0 
     /tmp/ccthbQZE.s:511    .text:0000000000000250 .L0 
     /tmp/ccthbQZE.s:517    .text:0000000000000258 .L0 
     /tmp/ccthbQZE.s:518    .text:0000000000000258 .L0 
     /tmp/ccthbQZE.s:519    .text:0000000000000258 .L0 
  src/../h/riscv.hpp:85     .text:0000000000000258 .L0 
     /tmp/ccthbQZE.s:527    .text:0000000000000260 .L0 
     /tmp/ccthbQZE.s:528    .text:0000000000000260 .L0 
     /tmp/ccthbQZE.s:532    .text:0000000000000264 .L0 
     /tmp/ccthbQZE.s:534    .text:0000000000000268 .L0 
     /tmp/ccthbQZE.s:538    .text:000000000000026c .L0 
     /tmp/ccthbQZE.s:539    .text:000000000000026c .L0 
     /tmp/ccthbQZE.s:540    .text:000000000000026c .L0 
  src/../h/riscv.hpp:131    .text:000000000000026c .L0 
     /tmp/ccthbQZE.s:548    .text:0000000000000274 .L0 
     /tmp/ccthbQZE.s:549    .text:0000000000000274 .L0 
     /tmp/ccthbQZE.s:553    .text:0000000000000278 .L0 
     /tmp/ccthbQZE.s:556    .text:000000000000027c .L0 
     /tmp/ccthbQZE.s:557    .text:000000000000027c .L0 
     /tmp/ccthbQZE.s:559    .text:0000000000000280 .L0 
     /tmp/ccthbQZE.s:569    .text:0000000000000288 .L0 
     /tmp/ccthbQZE.s:570    .text:0000000000000288 .L0 
     /tmp/ccthbQZE.s:572    .text:000000000000028c .L0 
     /tmp/ccthbQZE.s:584    .text:0000000000000294 .L0 
     /tmp/ccthbQZE.s:585    .text:0000000000000294 .L0 
     /tmp/ccthbQZE.s:587    .text:0000000000000298 .L0 
     /tmp/ccthbQZE.s:601    .text:00000000000002a0 .L0 
     /tmp/ccthbQZE.s:602    .text:00000000000002a0 .L0 
     /tmp/ccthbQZE.s:604    .text:00000000000002a4 .L0 
     /tmp/ccthbQZE.s:620    .text:00000000000002ac .L0 
     /tmp/ccthbQZE.s:621    .text:00000000000002ac .L0 
     /tmp/ccthbQZE.s:623    .text:00000000000002b0 .L0 
     /tmp/ccthbQZE.s:641    .text:00000000000002b8 .L0 
     /tmp/ccthbQZE.s:642    .text:00000000000002b8 .L0 
     /tmp/ccthbQZE.s:644    .text:00000000000002bc .L0 
     /tmp/ccthbQZE.s:664    .text:00000000000002c4 .L0 
     /tmp/ccthbQZE.s:665    .text:00000000000002c4 .L0 
     /tmp/ccthbQZE.s:667    .text:00000000000002c8 .L0 
GAS LISTING /tmp/ccthbQZE.s 			page 47


     /tmp/ccthbQZE.s:689    .text:00000000000002d0 .L0 
     /tmp/ccthbQZE.s:690    .text:00000000000002d0 .L0 
     /tmp/ccthbQZE.s:692    .text:00000000000002d4 .L0 
     /tmp/ccthbQZE.s:716    .text:00000000000002dc .L0 
     /tmp/ccthbQZE.s:717    .text:00000000000002dc .L0 
     /tmp/ccthbQZE.s:719    .text:00000000000002e0 .L0 
     /tmp/ccthbQZE.s:745    .text:00000000000002e8 .L0 
     /tmp/ccthbQZE.s:746    .text:00000000000002e8 .L0 
     /tmp/ccthbQZE.s:748    .text:00000000000002ec .L0 
     /tmp/ccthbQZE.s:776    .text:00000000000002f4 .L0 
     /tmp/ccthbQZE.s:777    .text:00000000000002f4 .L0 
     /tmp/ccthbQZE.s:779    .text:00000000000002f8 .L0 
     /tmp/ccthbQZE.s:809    .text:0000000000000300 .L0 
     /tmp/ccthbQZE.s:810    .text:0000000000000300 .L0 
     /tmp/ccthbQZE.s:812    .text:0000000000000304 .L0 
     /tmp/ccthbQZE.s:844    .text:000000000000030c .L0 
     /tmp/ccthbQZE.s:845    .text:000000000000030c .L0 
     /tmp/ccthbQZE.s:847    .text:0000000000000310 .L0 
     /tmp/ccthbQZE.s:851    .text:0000000000000318 .L0 
     /tmp/ccthbQZE.s:852    .text:0000000000000318 .L0 
     /tmp/ccthbQZE.s:855    .text:000000000000031c .L0 
     /tmp/ccthbQZE.s:856    .text:000000000000031c .L0 
     /tmp/ccthbQZE.s:859    .text:0000000000000324 .L0 
       src/riscv.cpp:131    .text:0000000000000324 .L0 
     /tmp/ccthbQZE.s:883    .text:000000000000032c .L0 
     /tmp/ccthbQZE.s:884    .text:000000000000032c .L0 
     /tmp/ccthbQZE.s:888    .text:0000000000000338 .L0 
       src/riscv.cpp:36     .text:0000000000000338 .L0 
     /tmp/ccthbQZE.s:899    .text:000000000000033c .L0 
     /tmp/ccthbQZE.s:900    .text:000000000000033c .L0 
     /tmp/ccthbQZE.s:905    .text:0000000000000340 .L0 
  src/../h/riscv.hpp:135    .text:0000000000000340 .L0 
     /tmp/ccthbQZE.s:915    .text:0000000000000344 .L0 
     /tmp/ccthbQZE.s:916    .text:0000000000000344 .L0 
     /tmp/ccthbQZE.s:921    .text:0000000000000348 .L0 
  src/../h/riscv.hpp:89     .text:0000000000000348 .L0 
     /tmp/ccthbQZE.s:933    .text:000000000000034c .L0 
     /tmp/ccthbQZE.s:934    .text:0000000000000350 .L0 
     /tmp/ccthbQZE.s:935    .text:0000000000000350 .L0 
     /tmp/ccthbQZE.s:937    .text:0000000000000354 .L0 
     /tmp/ccthbQZE.s:938    .text:0000000000000354 .L0 
     /tmp/ccthbQZE.s:940    .text:0000000000000358 .L0 
     /tmp/ccthbQZE.s:943    .text:000000000000035c .L0 
     /tmp/ccthbQZE.s:947    .text:0000000000000360 .L0 
     /tmp/ccthbQZE.s:954    .text:0000000000000360 .L0 
     /tmp/ccthbQZE.s:955    .text:0000000000000360 .L0 
     /tmp/ccthbQZE.s:959    .text:000000000000036c .L0 
       src/riscv.cpp:41     .text:000000000000036c .L0 
     /tmp/ccthbQZE.s:972    .text:0000000000000374 .L0 
     /tmp/ccthbQZE.s:973    .text:0000000000000374 .L0 
     /tmp/ccthbQZE.s:980    .text:0000000000000388 .L0 
     /tmp/ccthbQZE.s:983    .text:000000000000038c .L0 
     /tmp/ccthbQZE.s:984    .text:000000000000038c .L0 
     /tmp/ccthbQZE.s:987    .text:0000000000000390 .L0 
     /tmp/ccthbQZE.s:988    .text:0000000000000390 .L0 
     /tmp/ccthbQZE.s:990    .text:0000000000000394 .L0 
     /tmp/ccthbQZE.s:991    .text:0000000000000394 .L0 
GAS LISTING /tmp/ccthbQZE.s 			page 48


     /tmp/ccthbQZE.s:1002   .text:00000000000003a0 .L0 
     /tmp/ccthbQZE.s:1003   .text:00000000000003a0 .L0 
     /tmp/ccthbQZE.s:1017   .text:00000000000003ac .L0 
     /tmp/ccthbQZE.s:1018   .text:00000000000003ac .L0 
     /tmp/ccthbQZE.s:1021   .text:00000000000003b4 .L0 
       src/riscv.cpp:67     .text:00000000000003b4 .L0 
     /tmp/ccthbQZE.s:1033   .text:00000000000003bc .L0 
     /tmp/ccthbQZE.s:1034   .text:00000000000003bc .L0 
     /tmp/ccthbQZE.s:1037   .text:00000000000003c8 .L0 
     /tmp/ccthbQZE.s:1038   .text:00000000000003c8 .L0 
     /tmp/ccthbQZE.s:1045   .text:00000000000003d4 .L0 
     /tmp/ccthbQZE.s:1046   .text:00000000000003d4 .L0 
     /tmp/ccthbQZE.s:1049   .text:00000000000003dc .L0 
       src/riscv.cpp:78     .text:00000000000003dc .L0 
     /tmp/ccthbQZE.s:1062   .text:00000000000003e4 .L0 
     /tmp/ccthbQZE.s:1063   .text:00000000000003e4 .L0 
     /tmp/ccthbQZE.s:1066   .text:00000000000003e8 .L0 
     /tmp/ccthbQZE.s:1067   .text:00000000000003e8 .L0 
     /tmp/ccthbQZE.s:1076   .text:00000000000003f8 .L0 
     /tmp/ccthbQZE.s:1077   .text:00000000000003f8 .L0 
     /tmp/ccthbQZE.s:1083   .text:0000000000000408 .L0 
     /tmp/ccthbQZE.s:1086   .text:000000000000040c .L0 
     /tmp/ccthbQZE.s:1087   .text:000000000000040c .L0 
     /tmp/ccthbQZE.s:1090   .text:0000000000000410 .L0 
     /tmp/ccthbQZE.s:1091   .text:0000000000000410 .L0 
     /tmp/ccthbQZE.s:1093   .text:0000000000000414 .L0 
     /tmp/ccthbQZE.s:1094   .text:0000000000000414 .L0 
     /tmp/ccthbQZE.s:1105   .text:0000000000000420 .L0 
     /tmp/ccthbQZE.s:1106   .text:0000000000000420 .L0 
     /tmp/ccthbQZE.s:1120   .text:000000000000042c .L0 
     /tmp/ccthbQZE.s:1121   .text:000000000000042c .L0 
     /tmp/ccthbQZE.s:1124   .text:0000000000000430 .L0 
     /tmp/ccthbQZE.s:1125   .text:0000000000000430 .L0 
     /tmp/ccthbQZE.s:1128   .text:0000000000000438 .L0 
       src/riscv.cpp:109    .text:0000000000000438 .L0 
     /tmp/ccthbQZE.s:1141   .text:0000000000000440 .L0 
     /tmp/ccthbQZE.s:1142   .text:0000000000000440 .L0 
     /tmp/ccthbQZE.s:1145   .text:0000000000000444 .L0 
     /tmp/ccthbQZE.s:1146   .text:0000000000000444 .L0 
     /tmp/ccthbQZE.s:1149   .text:000000000000044c .L0 
       src/riscv.cpp:115    .text:000000000000044c .L0 
     /tmp/ccthbQZE.s:1162   .text:0000000000000454 .L0 
     /tmp/ccthbQZE.s:1163   .text:0000000000000454 .L0 
     /tmp/ccthbQZE.s:1166   .text:0000000000000458 .L0 
     /tmp/ccthbQZE.s:1167   .text:0000000000000458 .L0 
     /tmp/ccthbQZE.s:1170   .text:0000000000000460 .L0 
       src/riscv.cpp:121    .text:0000000000000460 .L0 
     /tmp/ccthbQZE.s:1182   .text:0000000000000468 .L0 
     /tmp/ccthbQZE.s:1183   .text:0000000000000468 .L0 
     /tmp/ccthbQZE.s:1202   .text:0000000000000478 .L0 
     /tmp/ccthbQZE.s:1203   .text:0000000000000478 .L0 
     /tmp/ccthbQZE.s:1207   .text:0000000000000488 .L0 
     /tmp/ccthbQZE.s:1208   .text:0000000000000488 .L0 
     /tmp/ccthbQZE.s:1214   .text:000000000000049c .L0 
     /tmp/ccthbQZE.s:1215   .text:000000000000049c .L0 
     /tmp/ccthbQZE.s:1221   .text:00000000000004ac .L0 
     /tmp/ccthbQZE.s:1222   .text:00000000000004ac .L0 
GAS LISTING /tmp/ccthbQZE.s 			page 49


     /tmp/ccthbQZE.s:1223   .text:00000000000004ac .L0 
  src/../h/riscv.hpp:85     .text:00000000000004ac .L0 
     /tmp/ccthbQZE.s:1231   .text:00000000000004b4 .L0 
     /tmp/ccthbQZE.s:1232   .text:00000000000004b4 .L0 
     /tmp/ccthbQZE.s:1236   .text:00000000000004b8 .L0 
     /tmp/ccthbQZE.s:1242   .text:00000000000004cc .L0 
     /tmp/ccthbQZE.s:1243   .text:00000000000004cc .L0 
     /tmp/ccthbQZE.s:1248   .text:00000000000004dc .L0 
     /tmp/ccthbQZE.s:1249   .text:00000000000004dc .L0 
     /tmp/ccthbQZE.s:1251   .text:00000000000004e0 .L0 
     /tmp/ccthbQZE.s:1257   .text:00000000000004e0 _ZN5Riscv18updateSleepingListEv
     /tmp/ccthbQZE.s:1260   .text:00000000000004e0 .L0 
     /tmp/ccthbQZE.s:1261   .text:00000000000004e0 .L0 
     /tmp/ccthbQZE.s:1263   .text:00000000000004e0 .L0 
     /tmp/ccthbQZE.s:1264   .text:00000000000004e0 .L0 
     /tmp/ccthbQZE.s:1266   .text:00000000000004e8 .L0 
     /tmp/ccthbQZE.s:1271   .text:00000000000004ec .L0 
     /tmp/ccthbQZE.s:1272   .text:00000000000004ec .L0 
     /tmp/ccthbQZE.s:1274   .text:00000000000004f0 .L0 
     /tmp/ccthbQZE.s:1276   .text:00000000000004f4 .L0 
     /tmp/ccthbQZE.s:1278   .text:00000000000004f8 .L0 
     /tmp/ccthbQZE.s:1285   .text:0000000000000500 .L0 
     /tmp/ccthbQZE.s:1286   .text:0000000000000504 .L0 
     /tmp/ccthbQZE.s:1289   .text:000000000000050c .L0 
     /tmp/ccthbQZE.s:1290   .text:000000000000050c .L0 
     /tmp/ccthbQZE.s:1292   .text:0000000000000510 .L0 
     /tmp/ccthbQZE.s:1297   .text:0000000000000510 .L0 
     /tmp/ccthbQZE.s:1298   .text:0000000000000510 .L0 
     /tmp/ccthbQZE.s:1303   .text:0000000000000514 .L0 
     /tmp/ccthbQZE.s:1304   .text:0000000000000514 .L0 
     /tmp/ccthbQZE.s:1309   .text:0000000000000518 .L0 
     /tmp/ccthbQZE.s:1310   .text:0000000000000518 .L0 
     /tmp/ccthbQZE.s:1314   .text:0000000000000524 .L0 
     /tmp/ccthbQZE.s:1315   .text:0000000000000524 .L0 
     /tmp/ccthbQZE.s:1319   .text:0000000000000530 .L0 
     /tmp/ccthbQZE.s:1320   .text:0000000000000530 .L0 
     /tmp/ccthbQZE.s:1322   .text:0000000000000534 .L0 
     /tmp/ccthbQZE.s:1324   .text:0000000000000538 .L0 
     /tmp/ccthbQZE.s:1325   .text:0000000000000538 .L0 
     /tmp/ccthbQZE.s:1329   .text:0000000000000540 .L0 
     /tmp/ccthbQZE.s:1330   .text:0000000000000540 .L0 
     /tmp/ccthbQZE.s:1331   .text:0000000000000540 .L0 
     /tmp/ccthbQZE.s:1333   .text:0000000000000548 .L0 
     /tmp/ccthbQZE.s:1335   .text:000000000000054c .L0 
     /tmp/ccthbQZE.s:1337   .text:0000000000000550 .L0 
     /tmp/ccthbQZE.s:1339   .text:0000000000000554 .L0 
     /tmp/ccthbQZE.s:1340   .text:0000000000000554 .L0 
     /tmp/ccthbQZE.s:1345   .text:0000000000000558 .L0 
     /tmp/ccthbQZE.s:1346   .text:0000000000000558 .L0 
     /tmp/ccthbQZE.s:1351   .text:000000000000055c .L0 
     /tmp/ccthbQZE.s:1352   .text:000000000000055c .L0 
     /tmp/ccthbQZE.s:1356   .text:0000000000000568 .L0 
     /tmp/ccthbQZE.s:1357   .text:0000000000000568 .L0 
     /tmp/ccthbQZE.s:1361   .text:0000000000000574 .L0 
     /tmp/ccthbQZE.s:1362   .text:0000000000000574 .L0 
     /tmp/ccthbQZE.s:1364   .text:0000000000000578 .L0 
     /tmp/ccthbQZE.s:1366   .text:000000000000057c .L0 
GAS LISTING /tmp/ccthbQZE.s 			page 50


     /tmp/ccthbQZE.s:1367   .text:000000000000057c .L0 
     /tmp/ccthbQZE.s:1370   .text:0000000000000584 .L0 
     /tmp/ccthbQZE.s:1376   .text:0000000000000588 .L0 
     /tmp/ccthbQZE.s:1377   .text:000000000000058c .L0 
     /tmp/ccthbQZE.s:1379   .text:0000000000000590 .L0 
     /tmp/ccthbQZE.s:1380   .text:0000000000000590 .L0 
     /tmp/ccthbQZE.s:1382   .text:0000000000000594 .L0 
     /tmp/ccthbQZE.s:1384   .text:0000000000000598 .L0 
     /tmp/ccthbQZE.s:1390   .text:0000000000000598 _ZN5Riscv14timerInterruptEv
     /tmp/ccthbQZE.s:1393   .text:0000000000000598 .L0 
     /tmp/ccthbQZE.s:1394   .text:0000000000000598 .L0 
     /tmp/ccthbQZE.s:1395   .text:000000000000059c .L0 
     /tmp/ccthbQZE.s:1398   .text:00000000000005a4 .L0 
     /tmp/ccthbQZE.s:1399   .text:00000000000005a4 .L0 
     /tmp/ccthbQZE.s:1401   .text:00000000000005a8 .L0 
     /tmp/ccthbQZE.s:1405   .text:00000000000005a8 .L0 
     /tmp/ccthbQZE.s:1406   .text:00000000000005a8 .L0 
     /tmp/ccthbQZE.s:1407   .text:00000000000005a8 .L0 
  src/../h/riscv.hpp:76     .text:00000000000005a8 .L0 
     /tmp/ccthbQZE.s:1415   .text:00000000000005b0 .L0 
     /tmp/ccthbQZE.s:1416   .text:00000000000005b0 .L0 
     /tmp/ccthbQZE.s:1422   .text:00000000000005b4 .L0 
     /tmp/ccthbQZE.s:1430   .text:00000000000005c4 .L0 
     /tmp/ccthbQZE.s:1431   .text:00000000000005c8 .L0 
     /tmp/ccthbQZE.s:1432   .text:00000000000005c8 .L0 
     /tmp/ccthbQZE.s:1434   .text:00000000000005cc .L0 
     /tmp/ccthbQZE.s:1435   .text:00000000000005cc .L0 
     /tmp/ccthbQZE.s:1437   .text:00000000000005d0 .L0 
     /tmp/ccthbQZE.s:1441   .text:00000000000005d4 .L0 
     /tmp/ccthbQZE.s:1445   .text:00000000000005d4 .L0 
     /tmp/ccthbQZE.s:1446   .text:00000000000005d4 .L0 
     /tmp/ccthbQZE.s:1449   .text:00000000000005dc .L0 
     /tmp/ccthbQZE.s:1450   .text:00000000000005dc .L0 
     /tmp/ccthbQZE.s:1456   .text:00000000000005f0 .L0 
     /tmp/ccthbQZE.s:1457   .text:00000000000005f0 .L0 
     /tmp/ccthbQZE.s:1463   .text:00000000000005fc .L0 
     /tmp/ccthbQZE.s:1464   .text:00000000000005fc .L0 
     /tmp/ccthbQZE.s:1469   .text:0000000000000600 .L0 
     /tmp/ccthbQZE.s:1476   .text:0000000000000604 .L0 
     /tmp/ccthbQZE.s:1477   .text:0000000000000604 .L0 
     /tmp/ccthbQZE.s:1478   .text:0000000000000604 .L0 
     /tmp/ccthbQZE.s:1490   .text:000000000000060c .L0 
     /tmp/ccthbQZE.s:1499   .text:0000000000000610 .L0 
     /tmp/ccthbQZE.s:1500   .text:0000000000000610 .L0 
     /tmp/ccthbQZE.s:1501   .text:0000000000000610 .L0 
  src/../h/riscv.hpp:85     .text:0000000000000610 .L0 
     /tmp/ccthbQZE.s:1509   .text:0000000000000618 .L0 
     /tmp/ccthbQZE.s:1510   .text:0000000000000618 .L0 
     /tmp/ccthbQZE.s:1514   .text:000000000000061c .L0 
     /tmp/ccthbQZE.s:1518   .text:0000000000000620 .L0 
     /tmp/ccthbQZE.s:1519   .text:0000000000000620 .L0 
     /tmp/ccthbQZE.s:1520   .text:0000000000000620 .L0 
  src/../h/riscv.hpp:131    .text:0000000000000620 .L0 
     /tmp/ccthbQZE.s:1528   .text:0000000000000628 .L0 
     /tmp/ccthbQZE.s:1529   .text:0000000000000628 .L0 
     /tmp/ccthbQZE.s:1533   .text:000000000000062c .L0 
     /tmp/ccthbQZE.s:1535   .text:0000000000000630 .L0 
GAS LISTING /tmp/ccthbQZE.s 			page 51


     /tmp/ccthbQZE.s:1536   .text:0000000000000630 .L0 
     /tmp/ccthbQZE.s:1539   .text:000000000000063c .L0 
     /tmp/ccthbQZE.s:1540   .text:000000000000063c .L0 
     /tmp/ccthbQZE.s:1543   .text:0000000000000644 .L0 
     /tmp/ccthbQZE.s:1544   .text:0000000000000644 .L0 
     /tmp/ccthbQZE.s:1549   .text:0000000000000648 .L0 
  src/../h/riscv.hpp:135    .text:0000000000000648 .L0 
     /tmp/ccthbQZE.s:1559   .text:000000000000064c .L0 
     /tmp/ccthbQZE.s:1560   .text:000000000000064c .L0 
     /tmp/ccthbQZE.s:1565   .text:0000000000000650 .L0 
  src/../h/riscv.hpp:89     .text:0000000000000650 .L0 
     /tmp/ccthbQZE.s:1572   .text:0000000000000654 .L0 
     /tmp/ccthbQZE.s:1579   .text:0000000000000658 .L0 
     /tmp/ccthbQZE.s:1588   .bss:0000000000000000 _ZN5Riscv12headSleepingE
     /tmp/ccthbQZE.s:1585   .bss:0000000000000000 .LANCHOR0
     /tmp/ccthbQZE.s:1600   .text:0000000000000658 .L0 
     /tmp/ccthbQZE.s:104    .text:0000000000000074 .L0 
     /tmp/ccthbQZE.s:113    .text:000000000000008c .L0 
     /tmp/ccthbQZE.s:160    .text:00000000000000bc .L0 
     /tmp/ccthbQZE.s:246    .text:0000000000000114 .L0 
     /tmp/ccthbQZE.s:272    .text:000000000000013c .L0 
     /tmp/ccthbQZE.s:296    .text:0000000000000164 .L0 
     /tmp/ccthbQZE.s:302    .text:000000000000016c .L0 
     /tmp/ccthbQZE.s:338    .text:00000000000001a4 .L0 
     /tmp/ccthbQZE.s:1034   .text:00000000000003bc .L0 
     /tmp/ccthbQZE.s:417    .rodata.str1.8:0000000000000000 .LC0
     /tmp/ccthbQZE.s:1203   .text:0000000000000478 .L0 
     /tmp/ccthbQZE.s:420    .rodata.str1.8:0000000000000008 .LC1
     /tmp/ccthbQZE.s:1215   .text:000000000000049c .L0 
     /tmp/ccthbQZE.s:423    .rodata.str1.8:0000000000000010 .LC2
     /tmp/ccthbQZE.s:1243   .text:00000000000004cc .L0 
     /tmp/ccthbQZE.s:1264   .text:00000000000004e0 .L0 
     /tmp/ccthbQZE.s:1315   .text:0000000000000524 .L0 
     /tmp/ccthbQZE.s:1331   .text:0000000000000540 .L0 
     /tmp/ccthbQZE.s:1357   .text:0000000000000568 .L0 
     /tmp/ccthbQZE.s:1450   .text:00000000000005dc .L0 
     /tmp/ccthbQZE.s:1457   .text:00000000000005f0 .L0 
     /tmp/ccthbQZE.s:1536   .text:0000000000000630 .L0 
     /tmp/ccthbQZE.s:65     .text:0000000000000044 .L6
     /tmp/ccthbQZE.s:91     .text:0000000000000068 .L4
     /tmp/ccthbQZE.s:50     .text:0000000000000030 .L1
     /tmp/ccthbQZE.s:80     .text:0000000000000058 .L3
     /tmp/ccthbQZE.s:199    .text:00000000000000e8 .L8
     /tmp/ccthbQZE.s:176    .text:00000000000000d4 .L9
     /tmp/ccthbQZE.s:398    .text:00000000000001fc .L20
     /tmp/ccthbQZE.s:327    .text:000000000000019c .L25
     /tmp/ccthbQZE.s:340    .text:00000000000001b0 .L15
     /tmp/ccthbQZE.s:297    .text:000000000000016c .L14
     /tmp/ccthbQZE.s:373    .text:00000000000001d4 .L16
     /tmp/ccthbQZE.s:352    .text:00000000000001b8 .L17
     /tmp/ccthbQZE.s:392    .text:00000000000001f4 .L26
     /tmp/ccthbQZE.s:384    .text:00000000000001e8 .L19
     /tmp/ccthbQZE.s:1187   .text:0000000000000478 .L28
     /tmp/ccthbQZE.s:868    .text:000000000000032c .L47
     /tmp/ccthbQZE.s:946    .text:0000000000000360 .L48
     /tmp/ccthbQZE.s:968    .text:0000000000000374 .L49
     /tmp/ccthbQZE.s:1011   .text:00000000000003ac .L50
GAS LISTING /tmp/ccthbQZE.s 			page 52


     /tmp/ccthbQZE.s:1030   .text:00000000000003bc .L51
     /tmp/ccthbQZE.s:1041   .text:00000000000003d4 .L52
     /tmp/ccthbQZE.s:1058   .text:00000000000003e4 .L53
     /tmp/ccthbQZE.s:1072   .text:00000000000003f8 .L54
     /tmp/ccthbQZE.s:1114   .text:000000000000042c .L55
     /tmp/ccthbQZE.s:1137   .text:0000000000000440 .L56
     /tmp/ccthbQZE.s:1158   .text:0000000000000454 .L57
     /tmp/ccthbQZE.s:1179   .text:0000000000000468 .L58
     /tmp/ccthbQZE.s:895    .text:000000000000033c .L30
     /tmp/ccthbQZE.s:999    .text:00000000000003a0 .L59
     /tmp/ccthbQZE.s:1102   .text:0000000000000420 .L60
     /tmp/ccthbQZE.s:1246   .text:00000000000004dc .L44
     /tmp/ccthbQZE.s:1279   .text:00000000000004fc .L65
     /tmp/ccthbQZE.s:1281   .text:0000000000000500 .L68
     /tmp/ccthbQZE.s:1371   .text:0000000000000588 .L61
     /tmp/ccthbQZE.s:1327   .text:0000000000000540 .L63
     /tmp/ccthbQZE.s:1440   .text:00000000000005d4 .L73
     /tmp/ccthbQZE.s:1491   .text:0000000000000610 .L74
     /tmp/ccthbQZE.s:1427   .text:00000000000005c4 .L69
     /tmp/ccthbQZE.s:1470   .text:0000000000000604 .L71
     /tmp/ccthbQZE.s:3822   .debug_abbrev:0000000000000000 .Ldebug_abbrev0
     /tmp/ccthbQZE.s:5604   .debug_str:0000000000000964 .LASF195
     /tmp/ccthbQZE.s:5662   .debug_str:0000000000000ba9 .LASF196
     /tmp/ccthbQZE.s:5390   .debug_str:0000000000000323 .LASF197
     /tmp/ccthbQZE.s:5      .text:0000000000000000 .Ltext0
     /tmp/ccthbQZE.s:1591   .text:0000000000000658 .Letext0
     /tmp/ccthbQZE.s:5282   .debug_line:0000000000000000 .Ldebug_line0
     /tmp/ccthbQZE.s:5412   .debug_str:00000000000003e5 .LASF0
     /tmp/ccthbQZE.s:5440   .debug_str:00000000000004da .LASF1
     /tmp/ccthbQZE.s:5548   .debug_str:00000000000007f3 .LASF2
     /tmp/ccthbQZE.s:5556   .debug_str:000000000000083f .LASF4
     /tmp/ccthbQZE.s:5422   .debug_str:0000000000000456 .LASF3
     /tmp/ccthbQZE.s:5294   .debug_str:000000000000003f .LASF5
     /tmp/ccthbQZE.s:5522   .debug_str:0000000000000738 .LASF6
     /tmp/ccthbQZE.s:5510   .debug_str:00000000000006db .LASF7
     /tmp/ccthbQZE.s:5432   .debug_str:00000000000004a6 .LASF8
     /tmp/ccthbQZE.s:5388   .debug_str:0000000000000313 .LASF9
     /tmp/ccthbQZE.s:5396   .debug_str:0000000000000369 .LASF10
     /tmp/ccthbQZE.s:5320   .debug_str:000000000000011a .LASF11
     /tmp/ccthbQZE.s:5378   .debug_str:00000000000002d7 .LASF12
     /tmp/ccthbQZE.s:5338   .debug_str:00000000000001ac .LASF13
     /tmp/ccthbQZE.s:5318   .debug_str:000000000000010a .LASF14
     /tmp/ccthbQZE.s:5588   .debug_str:0000000000000926 .LASF15
     /tmp/ccthbQZE.s:5360   .debug_str:000000000000023a .LASF16
     /tmp/ccthbQZE.s:5572   .debug_str:00000000000008a5 .LASF17
     /tmp/ccthbQZE.s:5616   .debug_str:0000000000000a54 .LASF72
     /tmp/ccthbQZE.s:5486   .debug_str:0000000000000626 .LASF74
     /tmp/ccthbQZE.s:5442   .debug_str:00000000000004ed .LASF101
     /tmp/ccthbQZE.s:5634   .debug_str:0000000000000ae3 .LASF103
     /tmp/ccthbQZE.s:5326   .debug_str:0000000000000141 .LASF18
     /tmp/ccthbQZE.s:5352   .debug_str:0000000000000208 .LASF20
     /tmp/ccthbQZE.s:5420   .debug_str:0000000000000434 .LASF19
     /tmp/ccthbQZE.s:5586   .debug_str:0000000000000919 .LASF21
     /tmp/ccthbQZE.s:5430   .debug_str:0000000000000497 .LASF22
     /tmp/ccthbQZE.s:5568   .debug_str:0000000000000881 .LASF23
     /tmp/ccthbQZE.s:5500   .debug_str:0000000000000697 .LASF24
     /tmp/ccthbQZE.s:5600   .debug_str:0000000000000952 .LASF25
GAS LISTING /tmp/ccthbQZE.s 			page 53


     /tmp/ccthbQZE.s:5646   .debug_str:0000000000000b3b .LASF84
     /tmp/ccthbQZE.s:5670   .debug_str:0000000000000bdd .LASF29
     /tmp/ccthbQZE.s:5368   .debug_str:000000000000027d .LASF26
     /tmp/ccthbQZE.s:5602   .debug_str:0000000000000957 .LASF27
     /tmp/ccthbQZE.s:5348   .debug_str:00000000000001ea .LASF28
     /tmp/ccthbQZE.s:5538   .debug_str:00000000000007a0 .LASF30
     /tmp/ccthbQZE.s:5428   .debug_str:000000000000048e .LASF31
     /tmp/ccthbQZE.s:5366   .debug_str:0000000000000274 .LASF32
     /tmp/ccthbQZE.s:5664   .debug_str:0000000000000bb7 .LASF33
     /tmp/ccthbQZE.s:5508   .debug_str:00000000000006ce .LASF86
     /tmp/ccthbQZE.s:5654   .debug_str:0000000000000b75 .LASF34
     /tmp/ccthbQZE.s:5322   .debug_str:0000000000000129 .LASF35
     /tmp/ccthbQZE.s:5400   .debug_str:000000000000038c .LASF68
     /tmp/ccthbQZE.s:5408   .debug_str:00000000000003c7 .LASF70
     /tmp/ccthbQZE.s:5630   .debug_str:0000000000000ad5 .LASF36
     /tmp/ccthbQZE.s:5620   .debug_str:0000000000000a6b .LASF38
     /tmp/ccthbQZE.s:5544   .debug_str:00000000000007df .LASF40
     /tmp/ccthbQZE.s:5492   .debug_str:0000000000000660 .LASF42
     /tmp/ccthbQZE.s:5528   .debug_str:0000000000000756 .LASF37
     /tmp/ccthbQZE.s:5532   .debug_str:0000000000000764 .LASF39
     /tmp/ccthbQZE.s:5482   .debug_str:000000000000061a .LASF41
     /tmp/ccthbQZE.s:5434   .debug_str:00000000000004b9 .LASF43
     /tmp/ccthbQZE.s:5660   .debug_str:0000000000000ba1 .LASF44
     /tmp/ccthbQZE.s:5612   .debug_str:0000000000000a3a .LASF45
     /tmp/ccthbQZE.s:5478   .debug_str:000000000000060d .LASF46
     /tmp/ccthbQZE.s:5490   .debug_str:000000000000064c .LASF47
     /tmp/ccthbQZE.s:5448   .debug_str:000000000000050e .LASF48
     /tmp/ccthbQZE.s:5536   .debug_str:000000000000078c .LASF49
     /tmp/ccthbQZE.s:5686   .debug_str:0000000000000c79 .LASF50
     /tmp/ccthbQZE.s:5418   .debug_str:0000000000000420 .LASF51
     /tmp/ccthbQZE.s:5296   .debug_str:0000000000000046 .LASF52
     /tmp/ccthbQZE.s:5552   .debug_str:000000000000080b .LASF53
     /tmp/ccthbQZE.s:5546   .debug_str:00000000000007e8 .LASF54
     /tmp/ccthbQZE.s:5680   .debug_str:0000000000000c3f .LASF55
     /tmp/ccthbQZE.s:5650   .debug_str:0000000000000b63 .LASF56
     /tmp/ccthbQZE.s:5668   .debug_str:0000000000000bc7 .LASF57
     /tmp/ccthbQZE.s:5640   .debug_str:0000000000000b0c .LASF58
     /tmp/ccthbQZE.s:5464   .debug_str:0000000000000589 .LASF59
     /tmp/ccthbQZE.s:5582   .debug_str:0000000000000908 .LASF60
     /tmp/ccthbQZE.s:5558   .debug_str:0000000000000846 .LASF61
     /tmp/ccthbQZE.s:5560   .debug_str:0000000000000859 .LASF62
     /tmp/ccthbQZE.s:5324   .debug_str:000000000000012e .LASF63
     /tmp/ccthbQZE.s:5356   .debug_str:0000000000000216 .LASF64
     /tmp/ccthbQZE.s:5406   .debug_str:00000000000003b5 .LASF65
     /tmp/ccthbQZE.s:5416   .debug_str:000000000000041a .LASF66
     /tmp/ccthbQZE.s:5350   .debug_str:00000000000001f6 .LASF67
     /tmp/ccthbQZE.s:5658   .debug_str:0000000000000b92 .LASF69
     /tmp/ccthbQZE.s:5394   .debug_str:000000000000034d .LASF71
     /tmp/ccthbQZE.s:5638   .debug_str:0000000000000b01 .LASF73
     /tmp/ccthbQZE.s:5370   .debug_str:0000000000000289 .LASF75
     /tmp/ccthbQZE.s:5310   .debug_str:00000000000000b8 .LASF76
     /tmp/ccthbQZE.s:5472   .debug_str:00000000000005c6 .LASF77
     /tmp/ccthbQZE.s:5684   .debug_str:0000000000000c64 .LASF78
     /tmp/ccthbQZE.s:5648   .debug_str:0000000000000b41 .LASF80
     /tmp/ccthbQZE.s:5306   .debug_str:000000000000008c .LASF79
     /tmp/ccthbQZE.s:5452   .debug_str:0000000000000521 .LASF81
     /tmp/ccthbQZE.s:5674   .debug_str:0000000000000bfe .LASF82
GAS LISTING /tmp/ccthbQZE.s 			page 54


     /tmp/ccthbQZE.s:5570   .debug_str:0000000000000886 .LASF83
     /tmp/ccthbQZE.s:5384   .debug_str:00000000000002fc .LASF95
     /tmp/ccthbQZE.s:5502   .debug_str:00000000000006a8 .LASF85
     /tmp/ccthbQZE.s:5566   .debug_str:000000000000087a .LASF87
     /tmp/ccthbQZE.s:5438   .debug_str:00000000000004d5 .LASF88
     /tmp/ccthbQZE.s:5614   .debug_str:0000000000000a4e .LASF89
     /tmp/ccthbQZE.s:5542   .debug_str:00000000000007c2 .LASF90
     /tmp/ccthbQZE.s:5494   .debug_str:0000000000000675 .LASF91
     /tmp/ccthbQZE.s:5424   .debug_str:0000000000000468 .LASF92
     /tmp/ccthbQZE.s:5564   .debug_str:000000000000086f .LASF93
     /tmp/ccthbQZE.s:5578   .debug_str:00000000000008e0 .LASF94
     /tmp/ccthbQZE.s:5468   .debug_str:00000000000005b1 .LASF96
     /tmp/ccthbQZE.s:5596   .debug_str:0000000000000948 .LASF97
     /tmp/ccthbQZE.s:5498   .debug_str:000000000000068a .LASF98
     /tmp/ccthbQZE.s:5484   .debug_str:0000000000000621 .LASF99
     /tmp/ccthbQZE.s:5496   .debug_str:000000000000067a .LASF100
     /tmp/ccthbQZE.s:5298   .debug_str:0000000000000051 .LASF102
     /tmp/ccthbQZE.s:5302   .debug_str:000000000000005c .LASF104
     /tmp/ccthbQZE.s:5354   .debug_str:0000000000000211 .LASF105
     /tmp/ccthbQZE.s:5474   .debug_str:00000000000005e6 .LASF106
     /tmp/ccthbQZE.s:5590   .debug_str:0000000000000932 .LASF107
     /tmp/ccthbQZE.s:5576   .debug_str:00000000000008ce .LASF108
     /tmp/ccthbQZE.s:5402   .debug_str:0000000000000397 .LASF109
     /tmp/ccthbQZE.s:5466   .debug_str:000000000000059f .LASF110
     /tmp/ccthbQZE.s:5682   .debug_str:0000000000000c57 .LASF111
     /tmp/ccthbQZE.s:5688   .debug_str:0000000000000c81 .LASF112
     /tmp/ccthbQZE.s:5288   .debug_str:0000000000000019 .LASF113
     /tmp/ccthbQZE.s:5376   .debug_str:00000000000002c9 .LASF114
     /tmp/ccthbQZE.s:5316   .debug_str:0000000000000101 .LASF115
     /tmp/ccthbQZE.s:5398   .debug_str:0000000000000377 .LASF116
     /tmp/ccthbQZE.s:5330   .debug_str:0000000000000159 .LASF117
     /tmp/ccthbQZE.s:5534   .debug_str:0000000000000777 .LASF118
     /tmp/ccthbQZE.s:5410   .debug_str:00000000000003df .LASF119
     /tmp/ccthbQZE.s:5372   .debug_str:00000000000002a1 .LASF120
     /tmp/ccthbQZE.s:5290   .debug_str:0000000000000029 .LASF121
     /tmp/ccthbQZE.s:5286   .debug_str:0000000000000006 .LASF122
     /tmp/ccthbQZE.s:5524   .debug_str:000000000000073f .LASF123
     /tmp/ccthbQZE.s:5644   .debug_str:0000000000000b34 .LASF124
     /tmp/ccthbQZE.s:5514   .debug_str:00000000000006f7 .LASF125
     /tmp/ccthbQZE.s:5632   .debug_str:0000000000000ade .LASF141
     /tmp/ccthbQZE.s:5580   .debug_str:0000000000000903 .LASF126
     /tmp/ccthbQZE.s:5480   .debug_str:0000000000000615 .LASF127
     /tmp/ccthbQZE.s:5610   .debug_str:0000000000000a35 .LASF128
     /tmp/ccthbQZE.s:5574   .debug_str:00000000000008bb .LASF129
     /tmp/ccthbQZE.s:5374   .debug_str:00000000000002b2 .LASF130
     /tmp/ccthbQZE.s:5550   .debug_str:0000000000000801 .LASF198
     /tmp/ccthbQZE.s:5540   .debug_str:00000000000007ab .LASF199
     /tmp/ccthbQZE.s:5436   .debug_str:00000000000004cc .LASF131
     /tmp/ccthbQZE.s:5308   .debug_str:000000000000009b .LASF132
     /tmp/ccthbQZE.s:5362   .debug_str:0000000000000250 .LASF133
     /tmp/ccthbQZE.s:5364   .debug_str:0000000000000258 .LASF134
     /tmp/ccthbQZE.s:5504   .debug_str:00000000000006b8 .LASF135
     /tmp/ccthbQZE.s:5642   .debug_str:0000000000000b16 .LASF136
     /tmp/ccthbQZE.s:5690   .debug_str:0000000000000c8e .LASF137
     /tmp/ccthbQZE.s:5678   .debug_str:0000000000000c24 .LASF138
     /tmp/ccthbQZE.s:5458   .debug_str:000000000000056c .LASF139
     /tmp/ccthbQZE.s:5386   .debug_str:0000000000000309 .LASF140
GAS LISTING /tmp/ccthbQZE.s 			page 55


     /tmp/ccthbQZE.s:5404   .debug_str:000000000000039d .LASF200
     /tmp/ccthbQZE.s:5676   .debug_str:0000000000000c10 .LASF201
     /tmp/ccthbQZE.s:5594   .debug_str:0000000000000942 .LASF142
     /tmp/ccthbQZE.s:5446   .debug_str:0000000000000509 .LASF143
     /tmp/ccthbQZE.s:5344   .debug_str:00000000000001dc .LASF144
     /tmp/ccthbQZE.s:5332   .debug_str:0000000000000163 .LASF145
     /tmp/ccthbQZE.s:5476   .debug_str:00000000000005f6 .LASF146
     /tmp/ccthbQZE.s:5380   .debug_str:00000000000002e6 .LASF147
     /tmp/ccthbQZE.s:5314   .debug_str:00000000000000ea .LASF148
     /tmp/ccthbQZE.s:5520   .debug_str:000000000000071f .LASF202
     /tmp/ccthbQZE.s:5672   .debug_str:0000000000000bec .LASF149
     /tmp/ccthbQZE.s:5414   .debug_str:00000000000003f2 .LASF150
     /tmp/ccthbQZE.s:5656   .debug_str:0000000000000b80 .LASF151
     /tmp/ccthbQZE.s:5336   .debug_str:0000000000000184 .LASF152
     /tmp/ccthbQZE.s:5530   .debug_str:000000000000075d .LASF153
     /tmp/ccthbQZE.s:5554   .debug_str:0000000000000823 .LASF154
     /tmp/ccthbQZE.s:5382   .debug_str:00000000000002f5 .LASF155
     /tmp/ccthbQZE.s:5284   .debug_str:0000000000000000 .LASF156
     /tmp/ccthbQZE.s:5454   .debug_str:000000000000053d .LASF157
     /tmp/ccthbQZE.s:5462   .debug_str:000000000000057b .LASF158
     /tmp/ccthbQZE.s:5598   .debug_str:000000000000094d .LASF159
     /tmp/ccthbQZE.s:5426   .debug_str:0000000000000485 .LASF160
     /tmp/ccthbQZE.s:5292   .debug_str:0000000000000031 .LASF161
     /tmp/ccthbQZE.s:5358   .debug_str:000000000000021c .LASF162
     /tmp/ccthbQZE.s:5488   .debug_str:000000000000063d .LASF163
     /tmp/ccthbQZE.s:5304   .debug_str:000000000000006d .LASF164
     /tmp/ccthbQZE.s:5526   .debug_str:0000000000000747 .LASF165
     /tmp/ccthbQZE.s:5624   .debug_str:0000000000000a90 .LASF166
     /tmp/ccthbQZE.s:5444   .debug_str:00000000000004fa .LASF167
     /tmp/ccthbQZE.s:5312   .debug_str:00000000000000cb .LASF168
     /tmp/ccthbQZE.s:5516   .debug_str:0000000000000701 .LASF169
     /tmp/ccthbQZE.s:5456   .debug_str:000000000000054c .LASF170
     /tmp/ccthbQZE.s:5622   .debug_str:0000000000000a80 .LASF171
     /tmp/ccthbQZE.s:5626   .debug_str:0000000000000aaf .LASF172
     /tmp/ccthbQZE.s:5618   .debug_str:0000000000000a60 .LASF173
     /tmp/ccthbQZE.s:5506   .debug_str:00000000000006c4 .LASF174
     /tmp/ccthbQZE.s:5342   .debug_str:00000000000001c3 .LASF203
     /tmp/ccthbQZE.s:1258   .text:00000000000004e0 .LFB39
     /tmp/ccthbQZE.s:1385   .text:0000000000000598 .LFE39
     /tmp/ccthbQZE.s:1295   .text:0000000000000510 .LBB272
     /tmp/ccthbQZE.s:1372   .text:0000000000000588 .LBE272
     /tmp/ccthbQZE.s:4872   .debug_loc:0000000000000000 .LLST32
     /tmp/ccthbQZE.s:1300   .text:0000000000000514 .LBB273
     /tmp/ccthbQZE.s:1307   .text:0000000000000518 .LBE273
     /tmp/ccthbQZE.s:4883   .debug_loc:0000000000000036 .LLST33
     /tmp/ccthbQZE.s:4891   .debug_loc:000000000000005a .LLST34
     /tmp/ccthbQZE.s:1342   .text:0000000000000558 .LBB275
     /tmp/ccthbQZE.s:1349   .text:000000000000055c .LBE275
     /tmp/ccthbQZE.s:4898   .debug_loc:000000000000007d .LLST35
     /tmp/ccthbQZE.s:4906   .debug_loc:00000000000000a1 .LLST36
     /tmp/ccthbQZE.s:1312   .text:0000000000000524 .LVL75
     /tmp/ccthbQZE.s:1326   .text:0000000000000540 .LVL77
     /tmp/ccthbQZE.s:1354   .text:0000000000000568 .LVL80
     /tmp/ccthbQZE.s:1368   .text:0000000000000584 .LVL82
     /tmp/ccthbQZE.s:224    .text:00000000000000f4 .LFB38
     /tmp/ccthbQZE.s:413    .text:0000000000000204 .LFE38
     /tmp/ccthbQZE.s:5628   .debug_str:0000000000000ad0 .LASF185
GAS LISTING /tmp/ccthbQZE.s 			page 56


     /tmp/ccthbQZE.s:4913   .debug_loc:00000000000000c4 .LLST5
     /tmp/ccthbQZE.s:5470   .debug_str:00000000000005be .LASF175
     /tmp/ccthbQZE.s:4946   .debug_loc:000000000000014c .LLST6
     /tmp/ccthbQZE.s:342    .text:00000000000001b0 .LBB108
     /tmp/ccthbQZE.s:404    .text:00000000000001fc .LBE108
     /tmp/ccthbQZE.s:5606   .debug_str:0000000000000a28 .LASF176
     /tmp/ccthbQZE.s:4957   .debug_loc:0000000000000182 .LLST9
     /tmp/ccthbQZE.s:4964   .debug_loc:00000000000001a5 .LLST10
     /tmp/ccthbQZE.s:5300   .debug_str:0000000000000057 .LASF177
     /tmp/ccthbQZE.s:4980   .debug_loc:00000000000001ef .LLST11
     /tmp/ccthbQZE.s:249    .text:0000000000000120 .LBB104
     /tmp/ccthbQZE.s:258    .text:0000000000000128 .LBE104
     /tmp/ccthbQZE.s:4995   .debug_loc:0000000000000238 .LLST7
     /tmp/ccthbQZE.s:5003   .debug_loc:000000000000025c .LLST8
     /tmp/ccthbQZE.s:264    .text:0000000000000134 .LVL19
     /tmp/ccthbQZE.s:307    .text:0000000000000180 .LVL20
     /tmp/ccthbQZE.s:135    .text:00000000000000a8 .LFB37
     /tmp/ccthbQZE.s:218    .text:00000000000000f4 .LFE37
     /tmp/ccthbQZE.s:146    .text:00000000000000b4 .LBB98
     /tmp/ccthbQZE.s:158    .text:00000000000000bc .LBE98
     /tmp/ccthbQZE.s:5010   .debug_loc:000000000000027f .LLST3
     /tmp/ccthbQZE.s:165    .text:00000000000000cc .LBB100
     /tmp/ccthbQZE.s:178    .text:00000000000000d4 .LBE100
     /tmp/ccthbQZE.s:5019   .debug_loc:00000000000002a4 .LLST4
     /tmp/ccthbQZE.s:203    .text:00000000000000e8 .LBB102
     /tmp/ccthbQZE.s:216    .text:00000000000000f4 .LBE102
     /tmp/ccthbQZE.s:10     .text:0000000000000000 .LFB36
     /tmp/ccthbQZE.s:129    .text:00000000000000a8 .LFE36
     /tmp/ccthbQZE.s:5340   .debug_str:00000000000001bc .LASF178
     /tmp/ccthbQZE.s:5028   .debug_loc:00000000000002ca .LLST0
     /tmp/ccthbQZE.s:5244   .debug_ranges:0000000000000000 .Ldebug_ranges0
     /tmp/ccthbQZE.s:5460   .debug_str:0000000000000571 .LASF179
     /tmp/ccthbQZE.s:5039   .debug_loc:0000000000000300 .LLST1
     /tmp/ccthbQZE.s:110    .text:000000000000008c .LBB93
     /tmp/ccthbQZE.s:121    .text:00000000000000a4 .LBE93
     /tmp/ccthbQZE.s:5046   .debug_loc:0000000000000323 .LLST2
     /tmp/ccthbQZE.s:120    .text:00000000000000a4 .LVL9
     /tmp/ccthbQZE.s:72     .text:000000000000004c .LVL3
     /tmp/ccthbQZE.s:86     .text:0000000000000064 .LVL6
     /tmp/ccthbQZE.s:100    .text:0000000000000070 .LVL7
     /tmp/ccthbQZE.s:25     .text:0000000000000014 .LBB87
     /tmp/ccthbQZE.s:42     .text:0000000000000020 .LBE87
     /tmp/ccthbQZE.s:1391   .text:0000000000000598 .LFB35
     /tmp/ccthbQZE.s:1580   .text:0000000000000658 .LFE35
     /tmp/ccthbQZE.s:5054   .debug_loc:0000000000000347 .LLST37
     /tmp/ccthbQZE.s:1495   .text:0000000000000610 .LBB287
     /tmp/ccthbQZE.s:1575   .text:0000000000000658 .LBE287
     /tmp/ccthbQZE.s:5608   .debug_str:0000000000000a30 .LASF180
     /tmp/ccthbQZE.s:5652   .debug_str:0000000000000b6d .LASF181
     /tmp/ccthbQZE.s:1497   .text:0000000000000610 .LBB288
     /tmp/ccthbQZE.s:1512   .text:000000000000061c .LBE288
     /tmp/ccthbQZE.s:1516   .text:0000000000000620 .LBB290
     /tmp/ccthbQZE.s:1531   .text:000000000000062c .LBE290
     /tmp/ccthbQZE.s:1546   .text:0000000000000648 .LBB292
     /tmp/ccthbQZE.s:1557   .text:000000000000064c .LBE292
     /tmp/ccthbQZE.s:5065   .debug_loc:000000000000037d .LLST39
     /tmp/ccthbQZE.s:1562   .text:0000000000000650 .LBB294
GAS LISTING /tmp/ccthbQZE.s 			page 57


     /tmp/ccthbQZE.s:1574   .text:0000000000000658 .LBE294
     /tmp/ccthbQZE.s:1541   .text:0000000000000644 .LVL91
     /tmp/ccthbQZE.s:1403   .text:00000000000005a8 .LBB280
     /tmp/ccthbQZE.s:1419   .text:00000000000005b4 .LBE280
     /tmp/ccthbQZE.s:1460   .text:00000000000005fc .LBB285
     /tmp/ccthbQZE.s:1467   .text:0000000000000600 .LBE285
     /tmp/ccthbQZE.s:5072   .debug_loc:00000000000003a0 .LLST38
     /tmp/ccthbQZE.s:1474   .text:0000000000000604 .LBB296
     /tmp/ccthbQZE.s:1486   .text:000000000000060c .LBE296
     /tmp/ccthbQZE.s:5079   .debug_loc:00000000000003c3 .LLST40
     /tmp/ccthbQZE.s:1447   .text:00000000000005dc .LVL86
     /tmp/ccthbQZE.s:430    .text:0000000000000204 .LFB34
     /tmp/ccthbQZE.s:1252   .text:00000000000004e0 .LFE34
     /tmp/ccthbQZE.s:5087   .debug_loc:00000000000003e7 .LLST12
     /tmp/ccthbQZE.s:881    .text:000000000000032c .LBB223
     /tmp/ccthbQZE.s:896    .text:000000000000033c .LBE223
     /tmp/ccthbQZE.s:5098   .debug_loc:000000000000041d .LLST29
     /tmp/ccthbQZE.s:886    .text:0000000000000338 .LVL33
     /tmp/ccthbQZE.s:952    .text:0000000000000360 .LBB210
     /tmp/ccthbQZE.s:965    .text:0000000000000370 .LBE210
     /tmp/ccthbQZE.s:5328   .debug_str:0000000000000154 .LASF182
     /tmp/ccthbQZE.s:5105   .debug_loc:0000000000000440 .LLST28
     /tmp/ccthbQZE.s:957    .text:000000000000036c .LVL41
     /tmp/ccthbQZE.s:970    .text:0000000000000374 .LBB196
     /tmp/ccthbQZE.s:1013   .text:00000000000003ac .LBE196
     /tmp/ccthbQZE.s:5666   .debug_str:0000000000000bc0 .LASF183
     /tmp/ccthbQZE.s:5112   .debug_loc:0000000000000463 .LLST26
     /tmp/ccthbQZE.s:981    .text:000000000000038c .LBB198
     /tmp/ccthbQZE.s:1000   .text:00000000000003a0 .LBE198
     /tmp/ccthbQZE.s:5584   .debug_str:000000000000090f .LASF184
     /tmp/ccthbQZE.s:5119   .debug_loc:0000000000000486 .LLST27
     /tmp/ccthbQZE.s:977    .text:0000000000000388 .LVL43
     /tmp/ccthbQZE.s:1015   .text:00000000000003ac .LBB185
     /tmp/ccthbQZE.s:1027   .text:00000000000003b8 .LBE185
     /tmp/ccthbQZE.s:5126   .debug_loc:00000000000004a9 .LLST25
     /tmp/ccthbQZE.s:1019   .text:00000000000003b4 .LVL47
     /tmp/ccthbQZE.s:1043   .text:00000000000003d4 .LBB167
     /tmp/ccthbQZE.s:1055   .text:00000000000003e0 .LBE167
     /tmp/ccthbQZE.s:5133   .debug_loc:00000000000004cc .LLST24
     /tmp/ccthbQZE.s:1047   .text:00000000000003dc .LVL50
     /tmp/ccthbQZE.s:1060   .text:00000000000003e4 .LBB159
     /tmp/ccthbQZE.s:1070   .text:00000000000003f4 .LBE159
     /tmp/ccthbQZE.s:5140   .debug_loc:00000000000004ef .LLST23
     /tmp/ccthbQZE.s:1069   .text:00000000000003f4 .LVL53
     /tmp/ccthbQZE.s:1074   .text:00000000000003f8 .LBB150
     /tmp/ccthbQZE.s:1116   .text:000000000000042c .LBE150
     /tmp/ccthbQZE.s:5147   .debug_loc:0000000000000512 .LLST21
     /tmp/ccthbQZE.s:1084   .text:000000000000040c .LBB152
     /tmp/ccthbQZE.s:1103   .text:0000000000000420 .LBE152
     /tmp/ccthbQZE.s:5154   .debug_loc:0000000000000535 .LLST22
     /tmp/ccthbQZE.s:1080   .text:0000000000000408 .LVL54
     /tmp/ccthbQZE.s:1118   .text:000000000000042c .LBB144
     /tmp/ccthbQZE.s:1134   .text:000000000000043c .LBE144
     /tmp/ccthbQZE.s:5161   .debug_loc:0000000000000558 .LLST19
     /tmp/ccthbQZE.s:5168   .debug_loc:000000000000057b .LLST20
     /tmp/ccthbQZE.s:1126   .text:0000000000000438 .LVL59
     /tmp/ccthbQZE.s:1139   .text:0000000000000440 .LBB139
GAS LISTING /tmp/ccthbQZE.s 			page 58


     /tmp/ccthbQZE.s:1155   .text:0000000000000450 .LBE139
     /tmp/ccthbQZE.s:5175   .debug_loc:000000000000059e .LLST17
     /tmp/ccthbQZE.s:5182   .debug_loc:00000000000005c1 .LLST18
     /tmp/ccthbQZE.s:1147   .text:000000000000044c .LVL62
     /tmp/ccthbQZE.s:1160   .text:0000000000000454 .LBB135
     /tmp/ccthbQZE.s:1176   .text:0000000000000464 .LBE135
     /tmp/ccthbQZE.s:5189   .debug_loc:00000000000005e4 .LLST15
     /tmp/ccthbQZE.s:5196   .debug_loc:0000000000000607 .LLST16
     /tmp/ccthbQZE.s:1168   .text:0000000000000460 .LVL65
     /tmp/ccthbQZE.s:849    .text:0000000000000318 .LBB133
     /tmp/ccthbQZE.s:865    .text:0000000000000328 .LBE133
     /tmp/ccthbQZE.s:5203   .debug_loc:000000000000062a .LLST13
     /tmp/ccthbQZE.s:5210   .debug_loc:000000000000064d .LLST14
     /tmp/ccthbQZE.s:857    .text:0000000000000324 .LVL31
     /tmp/ccthbQZE.s:515    .text:0000000000000258 .LBB116
     /tmp/ccthbQZE.s:530    .text:0000000000000264 .LBE116
     /tmp/ccthbQZE.s:536    .text:000000000000026c .LBB118
     /tmp/ccthbQZE.s:551    .text:0000000000000278 .LBE118
     /tmp/ccthbQZE.s:902    .text:0000000000000340 .LBB237
     /tmp/ccthbQZE.s:913    .text:0000000000000344 .LBE237
     /tmp/ccthbQZE.s:5217   .debug_loc:0000000000000670 .LLST30
     /tmp/ccthbQZE.s:918    .text:0000000000000348 .LBB239
     /tmp/ccthbQZE.s:929    .text:000000000000034c .LBE239
     /tmp/ccthbQZE.s:5224   .debug_loc:0000000000000693 .LLST31
     /tmp/ccthbQZE.s:1039   .text:00000000000003d0 .LVL49
     /tmp/ccthbQZE.s:1185   .text:0000000000000474 .LVL67
     /tmp/ccthbQZE.s:444    .text:0000000000000218 .LBB112
     /tmp/ccthbQZE.s:460    .text:0000000000000224 .LBE112
     /tmp/ccthbQZE.s:1219   .text:00000000000004ac .LBB255
     /tmp/ccthbQZE.s:1234   .text:00000000000004b8 .LBE255
     /tmp/ccthbQZE.s:1205   .text:0000000000000488 .LVL68
     /tmp/ccthbQZE.s:1212   .text:000000000000049c .LVL69
     /tmp/ccthbQZE.s:1217   .text:00000000000004ac .LVL70
     /tmp/ccthbQZE.s:1240   .text:00000000000004cc .LVL71
     /tmp/ccthbQZE.s:1245   .text:00000000000004dc .LVL72
     /tmp/ccthbQZE.s:5636   .debug_str:0000000000000afc .LASF186
     /tmp/ccthbQZE.s:5346   .debug_str:00000000000001e5 .LASF188
     /tmp/ccthbQZE.s:5592   .debug_str:0000000000000939 .LASF187
     /tmp/ccthbQZE.s:5450   .debug_str:0000000000000516 .LASF189
     /tmp/ccthbQZE.s:5518   .debug_str:0000000000000711 .LASF190
     /tmp/ccthbQZE.s:5334   .debug_str:0000000000000171 .LASF191
     /tmp/ccthbQZE.s:5392   .debug_str:0000000000000341 .LASF192
     /tmp/ccthbQZE.s:5562   .debug_str:0000000000000860 .LASF193
     /tmp/ccthbQZE.s:5512   .debug_str:00000000000006ee .LASF194
     /tmp/ccthbQZE.s:1317   .text:0000000000000530 .LVL76
     /tmp/ccthbQZE.s:1359   .text:0000000000000574 .LVL81
     /tmp/ccthbQZE.s:1299   .text:0000000000000514 .LVL73
     /tmp/ccthbQZE.s:1305   .text:0000000000000518 .LVL74
     /tmp/ccthbQZE.s:1341   .text:0000000000000558 .LVL78
     /tmp/ccthbQZE.s:1347   .text:000000000000055c .LVL79
     /tmp/ccthbQZE.s:227    .text:00000000000000f4 .LVL15
     /tmp/ccthbQZE.s:262    .text:000000000000012c .LVL18
     /tmp/ccthbQZE.s:320    .text:0000000000000190 .LVL21
     /tmp/ccthbQZE.s:326    .text:000000000000019c .LVL22
     /tmp/ccthbQZE.s:397    .text:00000000000001fc .LVL27
     /tmp/ccthbQZE.s:409    .text:0000000000000200 .LVL28
     /tmp/ccthbQZE.s:346    .text:00000000000001b4 .LVL23
GAS LISTING /tmp/ccthbQZE.s 			page 59


     /tmp/ccthbQZE.s:350    .text:00000000000001b8 .LVL24
     /tmp/ccthbQZE.s:363    .text:00000000000001c8 .LVL25
     /tmp/ccthbQZE.s:370    .text:00000000000001d0 .LVL26
     /tmp/ccthbQZE.s:248    .text:0000000000000120 .LVL16
     /tmp/ccthbQZE.s:256    .text:0000000000000128 .LVL17
     /tmp/ccthbQZE.s:145    .text:00000000000000b4 .LVL10
     /tmp/ccthbQZE.s:155    .text:00000000000000bc .LVL11
     /tmp/ccthbQZE.s:164    .text:00000000000000cc .LVL12
     /tmp/ccthbQZE.s:174    .text:00000000000000d4 .LVL13
     /tmp/ccthbQZE.s:40     .text:0000000000000020 .LVL0
     /tmp/ccthbQZE.s:49     .text:0000000000000030 .LVL1
     /tmp/ccthbQZE.s:64     .text:0000000000000044 .LVL2
     /tmp/ccthbQZE.s:74     .text:0000000000000050 .LVL4
     /tmp/ccthbQZE.s:79     .text:0000000000000058 .LVL5
     /tmp/ccthbQZE.s:115    .text:0000000000000098 .LVL8
     /tmp/ccthbQZE.s:1417   .text:00000000000005b4 .LVL83
     /tmp/ccthbQZE.s:1426   .text:00000000000005c4 .LVL84
     /tmp/ccthbQZE.s:1439   .text:00000000000005d4 .LVL85
     /tmp/ccthbQZE.s:1545   .text:0000000000000648 .LVL92
     /tmp/ccthbQZE.s:1554   .text:000000000000064c .LVL93
     /tmp/ccthbQZE.s:1459   .text:00000000000005fc .LVL87
     /tmp/ccthbQZE.s:1465   .text:0000000000000600 .LVL88
     /tmp/ccthbQZE.s:1473   .text:0000000000000604 .LVL89
     /tmp/ccthbQZE.s:1483   .text:000000000000060c .LVL90
     /tmp/ccthbQZE.s:458    .text:0000000000000224 .LVL29
     /tmp/ccthbQZE.s:941    .text:0000000000000358 .LVL39
     /tmp/ccthbQZE.s:945    .text:0000000000000360 .LVL40
     /tmp/ccthbQZE.s:893    .text:000000000000033c .LVL34
     /tmp/ccthbQZE.s:967    .text:0000000000000374 .LVL42
     /tmp/ccthbQZE.s:1010   .text:00000000000003ac .LVL46
     /tmp/ccthbQZE.s:985    .text:0000000000000390 .LVL44
     /tmp/ccthbQZE.s:998    .text:00000000000003a0 .LVL45
     /tmp/ccthbQZE.s:1029   .text:00000000000003bc .LVL48
     /tmp/ccthbQZE.s:1057   .text:00000000000003e4 .LVL51
     /tmp/ccthbQZE.s:1064   .text:00000000000003e8 .LVL52
     /tmp/ccthbQZE.s:1113   .text:000000000000042c .LVL57
     /tmp/ccthbQZE.s:1088   .text:0000000000000410 .LVL55
     /tmp/ccthbQZE.s:1101   .text:0000000000000420 .LVL56
     /tmp/ccthbQZE.s:1122   .text:0000000000000430 .LVL58
     /tmp/ccthbQZE.s:1136   .text:0000000000000440 .LVL60
     /tmp/ccthbQZE.s:1143   .text:0000000000000444 .LVL61
     /tmp/ccthbQZE.s:1157   .text:0000000000000454 .LVL63
     /tmp/ccthbQZE.s:1164   .text:0000000000000458 .LVL64
     /tmp/ccthbQZE.s:1178   .text:0000000000000468 .LVL66
     /tmp/ccthbQZE.s:853    .text:000000000000031c .LVL30
     /tmp/ccthbQZE.s:867    .text:000000000000032c .LVL32
     /tmp/ccthbQZE.s:901    .text:0000000000000340 .LVL35
     /tmp/ccthbQZE.s:910    .text:0000000000000344 .LVL36
     /tmp/ccthbQZE.s:917    .text:0000000000000348 .LVL37
     /tmp/ccthbQZE.s:926    .text:000000000000034c .LVL38
     /tmp/ccthbQZE.s:1601   .debug_info:0000000000000000 .Ldebug_info0
     /tmp/ccthbQZE.s:68     .text:0000000000000044 .LBB90
     /tmp/ccthbQZE.s:87     .text:0000000000000064 .LBE90
     /tmp/ccthbQZE.s:93     .text:0000000000000068 .LBB95
     /tmp/ccthbQZE.s:126    .text:00000000000000a8 .LBE95
     /tmp/ccthbQZE.s:513    .text:0000000000000258 .LBB115
     /tmp/ccthbQZE.s:562    .text:0000000000000288 .LBE115
GAS LISTING /tmp/ccthbQZE.s 			page 60


     /tmp/ccthbQZE.s:566    .text:0000000000000288 .LBB242
     /tmp/ccthbQZE.s:576    .text:0000000000000294 .LBE242
     /tmp/ccthbQZE.s:580    .text:0000000000000294 .LBB243
     /tmp/ccthbQZE.s:592    .text:00000000000002a0 .LBE243
     /tmp/ccthbQZE.s:596    .text:00000000000002a0 .LBB244
     /tmp/ccthbQZE.s:610    .text:00000000000002ac .LBE244
     /tmp/ccthbQZE.s:614    .text:00000000000002ac .LBB245
     /tmp/ccthbQZE.s:630    .text:00000000000002b8 .LBE245
     /tmp/ccthbQZE.s:634    .text:00000000000002b8 .LBB246
     /tmp/ccthbQZE.s:652    .text:00000000000002c4 .LBE246
     /tmp/ccthbQZE.s:656    .text:00000000000002c4 .LBB247
     /tmp/ccthbQZE.s:676    .text:00000000000002d0 .LBE247
     /tmp/ccthbQZE.s:680    .text:00000000000002d0 .LBB248
     /tmp/ccthbQZE.s:702    .text:00000000000002dc .LBE248
     /tmp/ccthbQZE.s:706    .text:00000000000002dc .LBB249
     /tmp/ccthbQZE.s:730    .text:00000000000002e8 .LBE249
     /tmp/ccthbQZE.s:734    .text:00000000000002e8 .LBB250
     /tmp/ccthbQZE.s:760    .text:00000000000002f4 .LBE250
     /tmp/ccthbQZE.s:764    .text:00000000000002f4 .LBB251
     /tmp/ccthbQZE.s:792    .text:0000000000000300 .LBE251
     /tmp/ccthbQZE.s:796    .text:0000000000000300 .LBB252
     /tmp/ccthbQZE.s:826    .text:000000000000030c .LBE252
     /tmp/ccthbQZE.s:830    .text:000000000000030c .LBB253
     /tmp/ccthbQZE.s:930    .text:000000000000034c .LBE253
     /tmp/ccthbQZE.s:949    .text:0000000000000360 .LBB254
     /tmp/ccthbQZE.s:1200   .text:0000000000000478 .LBE254

UNDEFINED SYMBOLS
plic_claim
plic_complete
_ZN8_console14inputBuff_fullEv
CONSOLE_STATUS
CONSOLE_RX_DATA
_ZN8_console13inputBuff_putEc
_ZN3TCB14newThrUserModeE
_ZN3TCB7runningE
_ZN15MemoryAllocator5allocEm
_ZN3TCB16timeSliceCounterE
_ZN3TCB8dispatchEv
_ZN15MemoryAllocator4freeEPv
_ZN3TCB12createThreadEPFvPvEPcS0_
_ZN3TCB4exitEv
_ZN8_console14inputBuff_takeEv
_ZN8_console14outputBuff_putEc
_ZN4_sem4openEi
_ZN4_sem4waitEv
_ZN4_sem5closeEv
_ZN4_sem6signalEv
_ZN3TCB4joinEPS_
_Z11printStringPKc
_Z8printIntiii
_ZN9Scheduler3putEP3TCB
