GAS LISTING /tmp/ccy01ByO.s 			page 1


   1              		.file	"Scheduler.cpp"
   2              		.option pic
   3              		.option norelax
   4              		.text
   5              	.Ltext0:
   6              		.align	2
   7              		.globl	_ZN9Scheduler3putEP6Thread
   9              	_ZN9Scheduler3putEP6Thread:
  10              	.LFB0:
  11              		.file 1 "src/Scheduler.cpp"
   1:src/Scheduler.cpp **** //
   2:src/Scheduler.cpp **** // Created by os on 7/14/23.
   3:src/Scheduler.cpp **** //
   4:src/Scheduler.cpp **** #include "../h/Scheduler.hpp"
   5:src/Scheduler.cpp **** #include "../h/MemoryAllocator.hpp"
   6:src/Scheduler.cpp **** 
   7:src/Scheduler.cpp **** Scheduler::Elem* Scheduler::first=nullptr;
   8:src/Scheduler.cpp **** Scheduler::Elem* Scheduler::last=nullptr;
   9:src/Scheduler.cpp **** 
  10:src/Scheduler.cpp **** void Scheduler::put(Thread *t) {
  12              		.loc 1 10 32
  13              		.cfi_startproc
  14              	.LVL0:
  15 0000 130101FE 		addi	sp,sp,-32
  16              		.cfi_def_cfa_offset 32
  17 0004 233C1100 		sd	ra,24(sp)
  18 0008 23388100 		sd	s0,16(sp)
  19 000c 23349100 		sd	s1,8(sp)
  20              		.cfi_offset 1, -8
  21              		.cfi_offset 8, -16
  22              		.cfi_offset 9, -24
  23 0010 13040102 		addi	s0,sp,32
  24              		.cfi_def_cfa 8, 0
  25 0014 93040500 		mv	s1,a0
  11:src/Scheduler.cpp ****     Elem* newElem=(Elem*)MemoryAllocator::alloc((sizeof(Elem)+MEM_BLOCK_SIZE-1)/MEM_BLOCK_SIZE);
  26              		.loc 1 11 5
  27              		.loc 1 11 48 is_stmt 0
  28 0018 13051000 		li	a0,1
  29              	.LVL1:
  30 001c 97000000 		call	_ZN15MemoryAllocator5allocEm@plt
  30      E7800000 
  31              	.LVL2:
  12:src/Scheduler.cpp ****     newElem->t=t;
  32              		.loc 1 12 5 is_stmt 1
  33              		.loc 1 12 15 is_stmt 0
  34 0024 23309500 		sd	s1,0(a0)
  13:src/Scheduler.cpp ****     newElem->next= nullptr;
  35              		.loc 1 13 5 is_stmt 1
  36              		.loc 1 13 18 is_stmt 0
  37 0028 23340500 		sd	zero,8(a0)
  14:src/Scheduler.cpp **** 
  15:src/Scheduler.cpp ****     if(first==nullptr){
  38              		.loc 1 15 5 is_stmt 1
  39              		.loc 1 15 13 is_stmt 0
  40 002c 97070000 		ld	a5,.LANCHOR0
  40      83B70700 
  41              		.loc 1 15 5
GAS LISTING /tmp/ccy01ByO.s 			page 2


  42 0034 63860702 		beqz	a5,.L5
  16:src/Scheduler.cpp ****         first=last=newElem;
  17:src/Scheduler.cpp ****     }
  18:src/Scheduler.cpp ****     else{
  19:src/Scheduler.cpp ****         last=last->next=newElem;
  43              		.loc 1 19 9 is_stmt 1
  44              		.loc 1 19 20 is_stmt 0
  45 0038 97070000 		lla	a5,.LANCHOR0
  45      93870700 
  46 0040 03B78700 		ld	a4,8(a5)
  47              		.loc 1 19 24
  48 0044 2334A700 		sd	a0,8(a4)
  49              		.loc 1 19 13
  50 0048 23B4A700 		sd	a0,8(a5)
  51              	.L1:
  20:src/Scheduler.cpp ****     }
  21:src/Scheduler.cpp **** }
  52              		.loc 1 21 1
  53 004c 83308101 		ld	ra,24(sp)
  54              		.cfi_remember_state
  55              		.cfi_restore 1
  56 0050 03340101 		ld	s0,16(sp)
  57              		.cfi_restore 8
  58              		.cfi_def_cfa 2, 32
  59 0054 83348100 		ld	s1,8(sp)
  60              		.cfi_restore 9
  61              	.LVL3:
  62 0058 13010102 		addi	sp,sp,32
  63              		.cfi_def_cfa_offset 0
  64 005c 67800000 		jr	ra
  65              	.LVL4:
  66              	.L5:
  67              		.cfi_restore_state
  16:src/Scheduler.cpp ****         first=last=newElem;
  68              		.loc 1 16 9 is_stmt 1
  16:src/Scheduler.cpp ****         first=last=newElem;
  69              		.loc 1 16 19 is_stmt 0
  70 0060 97070000 		lla	a5,.LANCHOR0
  70      93870700 
  71 0068 23B4A700 		sd	a0,8(a5)
  16:src/Scheduler.cpp ****         first=last=newElem;
  72              		.loc 1 16 14
  73 006c 23B0A700 		sd	a0,0(a5)
  74 0070 6FF0DFFD 		j	.L1
  75              		.cfi_endproc
  76              	.LFE0:
  78              		.align	2
  79              		.globl	_ZN9Scheduler3getEv
  81              	_ZN9Scheduler3getEv:
  82              	.LFB1:
  22:src/Scheduler.cpp **** 
  23:src/Scheduler.cpp **** Thread *Scheduler::get() {
  83              		.loc 1 23 26 is_stmt 1
  84              		.cfi_startproc
  85 0074 130101FE 		addi	sp,sp,-32
  86              		.cfi_def_cfa_offset 32
  87 0078 233C1100 		sd	ra,24(sp)
GAS LISTING /tmp/ccy01ByO.s 			page 3


  88 007c 23388100 		sd	s0,16(sp)
  89 0080 23349100 		sd	s1,8(sp)
  90              		.cfi_offset 1, -8
  91              		.cfi_offset 8, -16
  92              		.cfi_offset 9, -24
  93 0084 13040102 		addi	s0,sp,32
  94              		.cfi_def_cfa 8, 0
  24:src/Scheduler.cpp ****     if(first==nullptr)return nullptr;
  95              		.loc 1 24 5
  96              		.loc 1 24 13 is_stmt 0
  97 0088 17050000 		ld	a0,.LANCHOR0
  97      03350500 
  98              		.loc 1 24 5
  99 0090 63060504 		beqz	a0,.L8
  25:src/Scheduler.cpp **** 
  26:src/Scheduler.cpp ****     Elem* elem=first;
 100              		.loc 1 26 5 is_stmt 1
 101              	.LVL5:
  27:src/Scheduler.cpp ****     Thread* t=elem->t;
 102              		.loc 1 27 5
 103              		.loc 1 27 13 is_stmt 0
 104 0094 83340500 		ld	s1,0(a0)
 105              	.LVL6:
  28:src/Scheduler.cpp **** 
  29:src/Scheduler.cpp ****     MemoryAllocator::free(elem);
 106              		.loc 1 29 5 is_stmt 1
 107              		.loc 1 29 26 is_stmt 0
 108 0098 97000000 		call	_ZN15MemoryAllocator4freeEPv@plt
 108      E7800000 
 109              	.LVL7:
  30:src/Scheduler.cpp **** 
  31:src/Scheduler.cpp ****     first=first->next;
 110              		.loc 1 31 5 is_stmt 1
 111              		.loc 1 31 18 is_stmt 0
 112 00a0 17070000 		lla	a4,.LANCHOR0
 112      13070700 
 113 00a8 83370700 		ld	a5,0(a4)
 114 00ac 83B78700 		ld	a5,8(a5)
 115              		.loc 1 31 10
 116 00b0 2330F700 		sd	a5,0(a4)
  32:src/Scheduler.cpp ****     if(first==nullptr)last=nullptr;
 117              		.loc 1 32 5 is_stmt 1
 118 00b4 638E0700 		beqz	a5,.L10
 119              	.LVL8:
 120              	.L6:
  33:src/Scheduler.cpp **** 
  34:src/Scheduler.cpp ****     return t;
  35:src/Scheduler.cpp **** }
 121              		.loc 1 35 1 is_stmt 0
 122 00b8 13850400 		mv	a0,s1
 123 00bc 83308101 		ld	ra,24(sp)
 124              		.cfi_remember_state
 125              		.cfi_restore 1
 126 00c0 03340101 		ld	s0,16(sp)
 127              		.cfi_restore 8
 128              		.cfi_def_cfa 2, 32
 129 00c4 83348100 		ld	s1,8(sp)
GAS LISTING /tmp/ccy01ByO.s 			page 4


 130              		.cfi_restore 9
 131 00c8 13010102 		addi	sp,sp,32
 132              		.cfi_def_cfa_offset 0
 133 00cc 67800000 		jr	ra
 134              	.LVL9:
 135              	.L10:
 136              		.cfi_restore_state
  32:src/Scheduler.cpp ****     if(first==nullptr)last=nullptr;
 137              		.loc 1 32 23 is_stmt 1 discriminator 1
  32:src/Scheduler.cpp ****     if(first==nullptr)last=nullptr;
 138              		.loc 1 32 27 is_stmt 0 discriminator 1
 139 00d0 97070000 		sd	zero,.LANCHOR0+8,a5
 139      23B00700 
 140 00d8 6FF01FFE 		j	.L6
 141              	.LVL10:
 142              	.L8:
  24:src/Scheduler.cpp **** 
 143              		.loc 1 24 30
 144 00dc 93040500 		mv	s1,a0
 145 00e0 6FF09FFD 		j	.L6
 146              		.cfi_endproc
 147              	.LFE1:
 149              		.globl	_ZN9Scheduler4lastE
 150              		.globl	_ZN9Scheduler5firstE
 151              		.bss
 152              		.align	3
 153              		.set	.LANCHOR0,. + 0
 156              	_ZN9Scheduler5firstE:
 157 0000 00000000 		.zero	8
 157      00000000 
 160              	_ZN9Scheduler4lastE:
 161 0008 00000000 		.zero	8
 161      00000000 
 162              		.text
 163              	.Letext0:
 164              		.file 2 "src/../h/Scheduler.hpp"
 165              		.file 3 "src/../h/../lib/hw.h"
 166              		.file 4 "src/../h/MemoryAllocator.hpp"
GAS LISTING /tmp/ccy01ByO.s 			page 5

