GAS LISTING /tmp/ccIbIQnN.s 			page 1


   1              		.file	"Scheduler.cpp"
   2              		.option pic
   3              		.option norelax
   4              		.text
   5              	.Ltext0:
   6              		.align	2
   7              		.globl	_ZN9Scheduler3putEP3TCB
   9              	_ZN9Scheduler3putEP3TCB:
  10              	.LFB3:
  11              		.file 1 "src/Scheduler.cpp"
   1:src/Scheduler.cpp **** //
   2:src/Scheduler.cpp **** // Created by os on 7/14/23.
   3:src/Scheduler.cpp **** //
   4:src/Scheduler.cpp **** #include "../h/Scheduler.hpp"
   5:src/Scheduler.cpp **** #include "../h/MemoryAllocator.hpp"
   6:src/Scheduler.cpp **** #include "../h/syscall_c.hpp"
   7:src/Scheduler.cpp **** 
   8:src/Scheduler.cpp **** Scheduler::Elem* Scheduler::first=nullptr;
   9:src/Scheduler.cpp **** Scheduler::Elem* Scheduler::last=nullptr;
  10:src/Scheduler.cpp **** 
  11:src/Scheduler.cpp **** void Scheduler::put(TCB *t) {
  12              		.loc 1 11 29
  13              		.cfi_startproc
  14              	.LVL0:
  15 0000 130101FE 		addi	sp,sp,-32
  16              		.cfi_def_cfa_offset 32
  17 0004 233C1100 		sd	ra,24(sp)
  18 0008 23388100 		sd	s0,16(sp)
  19 000c 23349100 		sd	s1,8(sp)
  20              		.cfi_offset 1, -8
  21              		.cfi_offset 8, -16
  22              		.cfi_offset 9, -24
  23 0010 13040102 		addi	s0,sp,32
  24              		.cfi_def_cfa 8, 0
  25 0014 93040500 		mv	s1,a0
  12:src/Scheduler.cpp ****     Elem* newElem=(Elem*)MemoryAllocator::alloc((sizeof(Elem)+MEM_BLOCK_SIZE-1)/MEM_BLOCK_SIZE);
  26              		.loc 1 12 5
  27              		.loc 1 12 48 is_stmt 0
  28 0018 13051000 		li	a0,1
  29              	.LVL1:
  30 001c 97000000 		call	_ZN15MemoryAllocator5allocEm@plt
  30      E7800000 
  31              	.LVL2:
  13:src/Scheduler.cpp ****     //Elem* newElem=(Elem*) mem_alloc(sizeof (Elem));
  14:src/Scheduler.cpp ****     newElem->t=t;
  32              		.loc 1 14 5 is_stmt 1
  33              		.loc 1 14 15 is_stmt 0
  34 0024 23309500 		sd	s1,0(a0)
  15:src/Scheduler.cpp ****     newElem->next= nullptr;
  35              		.loc 1 15 5 is_stmt 1
  36              		.loc 1 15 18 is_stmt 0
  37 0028 23340500 		sd	zero,8(a0)
  16:src/Scheduler.cpp **** 
  17:src/Scheduler.cpp ****     if(first==nullptr){
  38              		.loc 1 17 5 is_stmt 1
  39              		.loc 1 17 13 is_stmt 0
  40 002c 97070000 		ld	a5,.LANCHOR0
GAS LISTING /tmp/ccIbIQnN.s 			page 2


  40      83B70700 
  41              		.loc 1 17 5
  42 0034 63860702 		beqz	a5,.L5
  18:src/Scheduler.cpp ****         first=last=newElem;
  19:src/Scheduler.cpp ****     }
  20:src/Scheduler.cpp ****     else{
  21:src/Scheduler.cpp ****         last=last->next=newElem;
  43              		.loc 1 21 9 is_stmt 1
  44              		.loc 1 21 20 is_stmt 0
  45 0038 97070000 		lla	a5,.LANCHOR0
  45      93870700 
  46 0040 03B78700 		ld	a4,8(a5)
  47              		.loc 1 21 24
  48 0044 2334A700 		sd	a0,8(a4)
  49              		.loc 1 21 13
  50 0048 23B4A700 		sd	a0,8(a5)
  51              	.L1:
  22:src/Scheduler.cpp ****     }
  23:src/Scheduler.cpp **** }
  52              		.loc 1 23 1
  53 004c 83308101 		ld	ra,24(sp)
  54              		.cfi_remember_state
  55              		.cfi_restore 1
  56 0050 03340101 		ld	s0,16(sp)
  57              		.cfi_restore 8
  58              		.cfi_def_cfa 2, 32
  59 0054 83348100 		ld	s1,8(sp)
  60              		.cfi_restore 9
  61              	.LVL3:
  62 0058 13010102 		addi	sp,sp,32
  63              		.cfi_def_cfa_offset 0
  64 005c 67800000 		jr	ra
  65              	.LVL4:
  66              	.L5:
  67              		.cfi_restore_state
  18:src/Scheduler.cpp ****         first=last=newElem;
  68              		.loc 1 18 9 is_stmt 1
  18:src/Scheduler.cpp ****         first=last=newElem;
  69              		.loc 1 18 19 is_stmt 0
  70 0060 97070000 		lla	a5,.LANCHOR0
  70      93870700 
  71 0068 23B4A700 		sd	a0,8(a5)
  18:src/Scheduler.cpp ****         first=last=newElem;
  72              		.loc 1 18 14
  73 006c 23B0A700 		sd	a0,0(a5)
  74 0070 6FF0DFFD 		j	.L1
  75              		.cfi_endproc
  76              	.LFE3:
  78              		.align	2
  79              		.globl	_ZN9Scheduler3getEv
  81              	_ZN9Scheduler3getEv:
  82              	.LFB4:
  24:src/Scheduler.cpp **** 
  25:src/Scheduler.cpp **** TCB *Scheduler::get() {
  83              		.loc 1 25 23 is_stmt 1
  84              		.cfi_startproc
  85 0074 130101FE 		addi	sp,sp,-32
GAS LISTING /tmp/ccIbIQnN.s 			page 3


  86              		.cfi_def_cfa_offset 32
  87 0078 233C1100 		sd	ra,24(sp)
  88 007c 23388100 		sd	s0,16(sp)
  89 0080 23349100 		sd	s1,8(sp)
  90              		.cfi_offset 1, -8
  91              		.cfi_offset 8, -16
  92              		.cfi_offset 9, -24
  93 0084 13040102 		addi	s0,sp,32
  94              		.cfi_def_cfa 8, 0
  26:src/Scheduler.cpp ****     if(first==nullptr)return nullptr;
  95              		.loc 1 26 5
  96              		.loc 1 26 13 is_stmt 0
  97 0088 17050000 		ld	a0,.LANCHOR0
  97      03350500 
  98              		.loc 1 26 5
  99 0090 63060504 		beqz	a0,.L8
  27:src/Scheduler.cpp **** 
  28:src/Scheduler.cpp ****     Elem* elem=first;
 100              		.loc 1 28 5 is_stmt 1
 101              	.LVL5:
  29:src/Scheduler.cpp ****     TCB* t=elem->t;
 102              		.loc 1 29 5
 103              		.loc 1 29 10 is_stmt 0
 104 0094 83340500 		ld	s1,0(a0)
 105              	.LVL6:
  30:src/Scheduler.cpp **** 
  31:src/Scheduler.cpp ****     MemoryAllocator::free(elem);
 106              		.loc 1 31 5 is_stmt 1
 107              		.loc 1 31 26 is_stmt 0
 108 0098 97000000 		call	_ZN15MemoryAllocator4freeEPv@plt
 108      E7800000 
 109              	.LVL7:
  32:src/Scheduler.cpp ****     //mem_free(elem);
  33:src/Scheduler.cpp **** 
  34:src/Scheduler.cpp ****     first=first->next;
 110              		.loc 1 34 5 is_stmt 1
 111              		.loc 1 34 18 is_stmt 0
 112 00a0 17070000 		lla	a4,.LANCHOR0
 112      13070700 
 113 00a8 83370700 		ld	a5,0(a4)
 114 00ac 83B78700 		ld	a5,8(a5)
 115              		.loc 1 34 10
 116 00b0 2330F700 		sd	a5,0(a4)
  35:src/Scheduler.cpp ****     if(first==nullptr)last=nullptr;
 117              		.loc 1 35 5 is_stmt 1
 118 00b4 638E0700 		beqz	a5,.L10
 119              	.LVL8:
 120              	.L6:
  36:src/Scheduler.cpp **** 
  37:src/Scheduler.cpp ****     return t;
  38:src/Scheduler.cpp **** }
 121              		.loc 1 38 1 is_stmt 0
 122 00b8 13850400 		mv	a0,s1
 123 00bc 83308101 		ld	ra,24(sp)
 124              		.cfi_remember_state
 125              		.cfi_restore 1
 126 00c0 03340101 		ld	s0,16(sp)
GAS LISTING /tmp/ccIbIQnN.s 			page 4


 127              		.cfi_restore 8
 128              		.cfi_def_cfa 2, 32
 129 00c4 83348100 		ld	s1,8(sp)
 130              		.cfi_restore 9
 131 00c8 13010102 		addi	sp,sp,32
 132              		.cfi_def_cfa_offset 0
 133 00cc 67800000 		jr	ra
 134              	.LVL9:
 135              	.L10:
 136              		.cfi_restore_state
  35:src/Scheduler.cpp ****     if(first==nullptr)last=nullptr;
 137              		.loc 1 35 23 is_stmt 1 discriminator 1
  35:src/Scheduler.cpp ****     if(first==nullptr)last=nullptr;
 138              		.loc 1 35 27 is_stmt 0 discriminator 1
 139 00d0 97070000 		sd	zero,.LANCHOR0+8,a5
 139      23B00700 
 140 00d8 6FF01FFE 		j	.L6
 141              	.LVL10:
 142              	.L8:
  26:src/Scheduler.cpp **** 
 143              		.loc 1 26 30
 144 00dc 93040500 		mv	s1,a0
 145 00e0 6FF09FFD 		j	.L6
 146              		.cfi_endproc
 147              	.LFE4:
 149              		.globl	_ZN9Scheduler4lastE
 150              		.globl	_ZN9Scheduler5firstE
 151              		.bss
 152              		.align	3
 153              		.set	.LANCHOR0,. + 0
 156              	_ZN9Scheduler5firstE:
 157 0000 00000000 		.zero	8
 157      00000000 
 160              	_ZN9Scheduler4lastE:
 161 0008 00000000 		.zero	8
 161      00000000 
 162              		.text
 163              	.Letext0:
 164              		.file 2 "src/../h/Scheduler.hpp"
 165              		.file 3 "src/../h/../lib/hw.h"
 166              		.file 4 "src/../h/MemoryAllocator.hpp"
 167              		.file 5 "src/../h/syscall_c.hpp"
GAS LISTING /tmp/ccIbIQnN.s 			page 5


DEFINED SYMBOLS
                            *ABS*:0000000000000000 Scheduler.cpp
     /tmp/ccIbIQnN.s:9      .text:0000000000000000 _ZN9Scheduler3putEP3TCB
     /tmp/ccIbIQnN.s:13     .text:0000000000000000 .L0 
     /tmp/ccIbIQnN.s:15     .text:0000000000000000 .L0 
     /tmp/ccIbIQnN.s:16     .text:0000000000000004 .L0 
     /tmp/ccIbIQnN.s:20     .text:0000000000000010 .L0 
     /tmp/ccIbIQnN.s:21     .text:0000000000000010 .L0 
     /tmp/ccIbIQnN.s:22     .text:0000000000000010 .L0 
     /tmp/ccIbIQnN.s:24     .text:0000000000000014 .L0 
     /tmp/ccIbIQnN.s:27     .text:0000000000000018 .L0 
     /tmp/ccIbIQnN.s:28     .text:0000000000000018 .L0 
     /tmp/ccIbIQnN.s:33     .text:0000000000000024 .L0 
     /tmp/ccIbIQnN.s:34     .text:0000000000000024 .L0 
     /tmp/ccIbIQnN.s:36     .text:0000000000000028 .L0 
     /tmp/ccIbIQnN.s:37     .text:0000000000000028 .L0 
     /tmp/ccIbIQnN.s:39     .text:000000000000002c .L0 
     /tmp/ccIbIQnN.s:40     .text:000000000000002c .L0 
     /tmp/ccIbIQnN.s:42     .text:0000000000000034 .L0 
     /tmp/ccIbIQnN.s:44     .text:0000000000000038 .L0 
     /tmp/ccIbIQnN.s:45     .text:0000000000000038 .L0 
     /tmp/ccIbIQnN.s:48     .text:0000000000000044 .L0 
     /tmp/ccIbIQnN.s:50     .text:0000000000000048 .L0 
     /tmp/ccIbIQnN.s:53     .text:000000000000004c .L0 
     /tmp/ccIbIQnN.s:54     .text:0000000000000050 .L0 
     /tmp/ccIbIQnN.s:55     .text:0000000000000050 .L0 
     /tmp/ccIbIQnN.s:57     .text:0000000000000054 .L0 
     /tmp/ccIbIQnN.s:58     .text:0000000000000054 .L0 
     /tmp/ccIbIQnN.s:60     .text:0000000000000058 .L0 
     /tmp/ccIbIQnN.s:63     .text:000000000000005c .L0 
     /tmp/ccIbIQnN.s:67     .text:0000000000000060 .L0 
     /tmp/ccIbIQnN.s:69     .text:0000000000000060 .L0 
     /tmp/ccIbIQnN.s:70     .text:0000000000000060 .L0 
     /tmp/ccIbIQnN.s:73     .text:000000000000006c .L0 
     /tmp/ccIbIQnN.s:75     .text:0000000000000074 .L0 
     /tmp/ccIbIQnN.s:81     .text:0000000000000074 _ZN9Scheduler3getEv
     /tmp/ccIbIQnN.s:84     .text:0000000000000074 .L0 
     /tmp/ccIbIQnN.s:85     .text:0000000000000074 .L0 
     /tmp/ccIbIQnN.s:86     .text:0000000000000078 .L0 
     /tmp/ccIbIQnN.s:90     .text:0000000000000084 .L0 
     /tmp/ccIbIQnN.s:91     .text:0000000000000084 .L0 
     /tmp/ccIbIQnN.s:92     .text:0000000000000084 .L0 
     /tmp/ccIbIQnN.s:94     .text:0000000000000088 .L0 
     /tmp/ccIbIQnN.s:96     .text:0000000000000088 .L0 
     /tmp/ccIbIQnN.s:97     .text:0000000000000088 .L0 
     /tmp/ccIbIQnN.s:99     .text:0000000000000090 .L0 
     /tmp/ccIbIQnN.s:102    .text:0000000000000094 .L0 
     /tmp/ccIbIQnN.s:103    .text:0000000000000094 .L0 
     /tmp/ccIbIQnN.s:104    .text:0000000000000094 .L0 
     /tmp/ccIbIQnN.s:107    .text:0000000000000098 .L0 
     /tmp/ccIbIQnN.s:108    .text:0000000000000098 .L0 
     /tmp/ccIbIQnN.s:111    .text:00000000000000a0 .L0 
     /tmp/ccIbIQnN.s:112    .text:00000000000000a0 .L0 
     /tmp/ccIbIQnN.s:116    .text:00000000000000b0 .L0 
     /tmp/ccIbIQnN.s:118    .text:00000000000000b4 .L0 
     /tmp/ccIbIQnN.s:122    .text:00000000000000b8 .L0 
     /tmp/ccIbIQnN.s:124    .text:00000000000000c0 .L0 
GAS LISTING /tmp/ccIbIQnN.s 			page 6


     /tmp/ccIbIQnN.s:125    .text:00000000000000c0 .L0 
     /tmp/ccIbIQnN.s:127    .text:00000000000000c4 .L0 
     /tmp/ccIbIQnN.s:128    .text:00000000000000c4 .L0 
     /tmp/ccIbIQnN.s:130    .text:00000000000000c8 .L0 
     /tmp/ccIbIQnN.s:132    .text:00000000000000cc .L0 
     /tmp/ccIbIQnN.s:136    .text:00000000000000d0 .L0 
     /tmp/ccIbIQnN.s:138    .text:00000000000000d0 .L0 
     /tmp/ccIbIQnN.s:139    .text:00000000000000d0 .L0 
     /tmp/ccIbIQnN.s:144    .text:00000000000000dc .L0 
     /tmp/ccIbIQnN.s:146    .text:00000000000000e4 .L0 
     /tmp/ccIbIQnN.s:160    .bss:0000000000000008 _ZN9Scheduler4lastE
     /tmp/ccIbIQnN.s:156    .bss:0000000000000000 _ZN9Scheduler5firstE
     /tmp/ccIbIQnN.s:153    .bss:0000000000000000 .LANCHOR0
     /tmp/ccIbIQnN.s:168    .text:00000000000000e4 .L0 
     /tmp/ccIbIQnN.s:40     .text:000000000000002c .L0 
     /tmp/ccIbIQnN.s:45     .text:0000000000000038 .L0 
     /tmp/ccIbIQnN.s:70     .text:0000000000000060 .L0 
     /tmp/ccIbIQnN.s:97     .text:0000000000000088 .L0 
     /tmp/ccIbIQnN.s:112    .text:00000000000000a0 .L0 
     /tmp/ccIbIQnN.s:139    .text:00000000000000d0 .L0 
     /tmp/ccIbIQnN.s:66     .text:0000000000000060 .L5
     /tmp/ccIbIQnN.s:51     .text:000000000000004c .L1
     /tmp/ccIbIQnN.s:142    .text:00000000000000dc .L8
     /tmp/ccIbIQnN.s:135    .text:00000000000000d0 .L10
     /tmp/ccIbIQnN.s:120    .text:00000000000000b8 .L6
     /tmp/ccIbIQnN.s:606    .debug_abbrev:0000000000000000 .Ldebug_abbrev0
     /tmp/ccIbIQnN.s:1292   .debug_str:00000000000001a8 .LASF39
     /tmp/ccIbIQnN.s:1298   .debug_str:0000000000000286 .LASF40
     /tmp/ccIbIQnN.s:1314   .debug_str:00000000000002f0 .LASF41
     /tmp/ccIbIQnN.s:5      .text:0000000000000000 .Ltext0
     /tmp/ccIbIQnN.s:163    .text:00000000000000e4 .Letext0
     /tmp/ccIbIQnN.s:1242   .debug_line:0000000000000000 .Ldebug_line0
     /tmp/ccIbIQnN.s:1270   .debug_str:00000000000000d3 .LASF20
     /tmp/ccIbIQnN.s:1312   .debug_str:00000000000002eb .LASF22
     /tmp/ccIbIQnN.s:1250   .debug_str:000000000000002a .LASF0
     /tmp/ccIbIQnN.s:1262   .debug_str:0000000000000081 .LASF42
     /tmp/ccIbIQnN.s:1256   .debug_str:0000000000000058 .LASF43
     /tmp/ccIbIQnN.s:1284   .debug_str:0000000000000162 .LASF29
     /tmp/ccIbIQnN.s:1328   .debug_str:000000000000035f .LASF31
     /tmp/ccIbIQnN.s:1318   .debug_str:0000000000000313 .LASF32
     /tmp/ccIbIQnN.s:1252   .debug_str:000000000000002f .LASF1
     /tmp/ccIbIQnN.s:1304   .debug_str:00000000000002b0 .LASF2
     /tmp/ccIbIQnN.s:1300   .debug_str:0000000000000298 .LASF3
     /tmp/ccIbIQnN.s:1286   .debug_str:0000000000000177 .LASF4
     /tmp/ccIbIQnN.s:1278   .debug_str:000000000000011c .LASF5
     /tmp/ccIbIQnN.s:1260   .debug_str:000000000000007a .LASF7
     /tmp/ccIbIQnN.s:1290   .debug_str:0000000000000196 .LASF6
     /tmp/ccIbIQnN.s:1248   .debug_str:0000000000000023 .LASF8
     /tmp/ccIbIQnN.s:1244   .debug_str:0000000000000000 .LASF9
     /tmp/ccIbIQnN.s:1272   .debug_str:00000000000000dd .LASF10
     /tmp/ccIbIQnN.s:1308   .debug_str:00000000000002c5 .LASF11
     /tmp/ccIbIQnN.s:1258   .debug_str:000000000000006c .LASF12
     /tmp/ccIbIQnN.s:1334   .debug_str:0000000000000376 .LASF13
     /tmp/ccIbIQnN.s:1276   .debug_str:000000000000010d .LASF14
     /tmp/ccIbIQnN.s:1324   .debug_str:000000000000033b .LASF15
     /tmp/ccIbIQnN.s:1306   .debug_str:00000000000002b5 .LASF16
     /tmp/ccIbIQnN.s:1288   .debug_str:000000000000018a .LASF17
GAS LISTING /tmp/ccIbIQnN.s 			page 7


     /tmp/ccIbIQnN.s:1268   .debug_str:00000000000000bd .LASF18
     /tmp/ccIbIQnN.s:1310   .debug_str:00000000000002d5 .LASF19
     /tmp/ccIbIQnN.s:1246   .debug_str:0000000000000013 .LASF21
     /tmp/ccIbIQnN.s:1264   .debug_str:0000000000000099 .LASF23
     /tmp/ccIbIQnN.s:1330   .debug_str:0000000000000369 .LASF24
     /tmp/ccIbIQnN.s:1322   .debug_str:0000000000000335 .LASF25
     /tmp/ccIbIQnN.s:1274   .debug_str:00000000000000f0 .LASF27
     /tmp/ccIbIQnN.s:1316   .debug_str:000000000000030e .LASF26
     /tmp/ccIbIQnN.s:1266   .debug_str:00000000000000a0 .LASF28
     /tmp/ccIbIQnN.s:1302   .debug_str:00000000000002a5 .LASF44
     /tmp/ccIbIQnN.s:1254   .debug_str:0000000000000035 .LASF45
     /tmp/ccIbIQnN.s:1282   .debug_str:0000000000000146 .LASF30
     /tmp/ccIbIQnN.s:1280   .debug_str:000000000000012a .LASF33
     /tmp/ccIbIQnN.s:1320   .debug_str:0000000000000328 .LASF34
     /tmp/ccIbIQnN.s:1296   .debug_str:0000000000000271 .LASF35
     /tmp/ccIbIQnN.s:1326   .debug_str:000000000000034b .LASF36
     /tmp/ccIbIQnN.s:82     .text:0000000000000074 .LFB4
     /tmp/ccIbIQnN.s:147    .text:00000000000000e4 .LFE4
     /tmp/ccIbIQnN.s:1294   .debug_str:000000000000026c .LASF37
     /tmp/ccIbIQnN.s:1189   .debug_loc:0000000000000000 .LLST1
     /tmp/ccIbIQnN.s:1196   .debug_loc:0000000000000023 .LLST2
     /tmp/ccIbIQnN.s:109    .text:00000000000000a0 .LVL7
     /tmp/ccIbIQnN.s:10     .text:0000000000000000 .LFB3
     /tmp/ccIbIQnN.s:76     .text:0000000000000074 .LFE3
     /tmp/ccIbIQnN.s:1207   .debug_loc:0000000000000059 .LLST0
     /tmp/ccIbIQnN.s:1332   .debug_str:000000000000036e .LASF38
     /tmp/ccIbIQnN.s:31     .text:0000000000000024 .LVL2
     /tmp/ccIbIQnN.s:101    .text:0000000000000094 .LVL5
     /tmp/ccIbIQnN.s:105    .text:0000000000000098 .LVL6
     /tmp/ccIbIQnN.s:119    .text:00000000000000b8 .LVL8
     /tmp/ccIbIQnN.s:134    .text:00000000000000d0 .LVL9
     /tmp/ccIbIQnN.s:141    .text:00000000000000dc .LVL10
     /tmp/ccIbIQnN.s:14     .text:0000000000000000 .LVL0
     /tmp/ccIbIQnN.s:29     .text:000000000000001c .LVL1
     /tmp/ccIbIQnN.s:61     .text:0000000000000058 .LVL3
     /tmp/ccIbIQnN.s:65     .text:0000000000000060 .LVL4
     /tmp/ccIbIQnN.s:169    .debug_info:0000000000000000 .Ldebug_info0

UNDEFINED SYMBOLS
_ZN15MemoryAllocator5allocEm
_ZN15MemoryAllocator4freeEPv
