GAS LISTING /tmp/cc3yNy4d.s 			page 1


   1              		.file	"Scheduler.cpp"
   2              		.option pic
   3              		.option norelax
   4              		.text
   5              	.Ltext0:
   6              		.align	2
   7              		.globl	_ZN9Scheduler3putEP3TCB
   9              	_ZN9Scheduler3putEP3TCB:
  10              	.LFB7:
  11              		.file 1 "src/Scheduler.cpp"
   1:src/Scheduler.cpp **** //
   2:src/Scheduler.cpp **** // Created by os on 7/14/23.
   3:src/Scheduler.cpp **** //
   4:src/Scheduler.cpp **** #include "../h/Scheduler.hpp"
   5:src/Scheduler.cpp **** #include "../h/MemoryAllocator.hpp"
   6:src/Scheduler.cpp **** #include "../h/syscall_c.hpp"
   7:src/Scheduler.cpp **** 
   8:src/Scheduler.cpp **** Scheduler::Elem* Scheduler::first=nullptr;
   9:src/Scheduler.cpp **** Scheduler::Elem* Scheduler::last=nullptr;
  10:src/Scheduler.cpp **** 
  11:src/Scheduler.cpp **** void Scheduler::put(TCB *t) {
  12              		.loc 1 11 29
  13              		.cfi_startproc
  14              	.LVL0:
  15 0000 130101FE 		addi	sp,sp,-32
  16              		.cfi_def_cfa_offset 32
  17 0004 233C1100 		sd	ra,24(sp)
  18 0008 23388100 		sd	s0,16(sp)
  19 000c 23349100 		sd	s1,8(sp)
  20              		.cfi_offset 1, -8
  21              		.cfi_offset 8, -16
  22              		.cfi_offset 9, -24
  23 0010 13040102 		addi	s0,sp,32
  24              		.cfi_def_cfa 8, 0
  25 0014 93040500 		mv	s1,a0
  12:src/Scheduler.cpp ****     Elem* newElem=(Elem*)MemoryAllocator::alloc((sizeof(Elem)+MEM_BLOCK_SIZE-1)/MEM_BLOCK_SIZE);
  26              		.loc 1 12 5
  27              		.loc 1 12 48 is_stmt 0
  28 0018 13051000 		li	a0,1
  29              	.LVL1:
  30 001c 97000000 		call	_ZN15MemoryAllocator5allocEm@plt
  30      E7800000 
  31              	.LVL2:
  13:src/Scheduler.cpp ****     newElem->t=t;
  32              		.loc 1 13 5 is_stmt 1
  33              		.loc 1 13 15 is_stmt 0
  34 0024 23309500 		sd	s1,0(a0)
  14:src/Scheduler.cpp ****     newElem->next= nullptr;
  35              		.loc 1 14 5 is_stmt 1
  36              		.loc 1 14 18 is_stmt 0
  37 0028 23340500 		sd	zero,8(a0)
  15:src/Scheduler.cpp **** 
  16:src/Scheduler.cpp ****     if(first==nullptr){
  38              		.loc 1 16 5 is_stmt 1
  39              		.loc 1 16 13 is_stmt 0
  40 002c 97070000 		ld	a5,.LANCHOR0
  40      83B70700 
GAS LISTING /tmp/cc3yNy4d.s 			page 2


  41              		.loc 1 16 5
  42 0034 63860702 		beqz	a5,.L5
  17:src/Scheduler.cpp ****         first=last=newElem;
  18:src/Scheduler.cpp ****     }
  19:src/Scheduler.cpp ****     else{
  20:src/Scheduler.cpp ****         last=last->next=newElem;
  43              		.loc 1 20 9 is_stmt 1
  44              		.loc 1 20 20 is_stmt 0
  45 0038 97070000 		lla	a5,.LANCHOR0
  45      93870700 
  46 0040 03B78700 		ld	a4,8(a5)
  47              		.loc 1 20 24
  48 0044 2334A700 		sd	a0,8(a4)
  49              		.loc 1 20 13
  50 0048 23B4A700 		sd	a0,8(a5)
  51              	.L1:
  21:src/Scheduler.cpp ****     }
  22:src/Scheduler.cpp **** }
  52              		.loc 1 22 1
  53 004c 83308101 		ld	ra,24(sp)
  54              		.cfi_remember_state
  55              		.cfi_restore 1
  56 0050 03340101 		ld	s0,16(sp)
  57              		.cfi_restore 8
  58              		.cfi_def_cfa 2, 32
  59 0054 83348100 		ld	s1,8(sp)
  60              		.cfi_restore 9
  61              	.LVL3:
  62 0058 13010102 		addi	sp,sp,32
  63              		.cfi_def_cfa_offset 0
  64 005c 67800000 		jr	ra
  65              	.LVL4:
  66              	.L5:
  67              		.cfi_restore_state
  17:src/Scheduler.cpp ****         first=last=newElem;
  68              		.loc 1 17 9 is_stmt 1
  17:src/Scheduler.cpp ****         first=last=newElem;
  69              		.loc 1 17 19 is_stmt 0
  70 0060 97070000 		lla	a5,.LANCHOR0
  70      93870700 
  71 0068 23B4A700 		sd	a0,8(a5)
  17:src/Scheduler.cpp ****         first=last=newElem;
  72              		.loc 1 17 14
  73 006c 23B0A700 		sd	a0,0(a5)
  74 0070 6FF0DFFD 		j	.L1
  75              		.cfi_endproc
  76              	.LFE7:
  78              		.align	2
  79              		.globl	_ZN9Scheduler3getEv
  81              	_ZN9Scheduler3getEv:
  82              	.LFB8:
  23:src/Scheduler.cpp **** 
  24:src/Scheduler.cpp **** TCB *Scheduler::get() {
  83              		.loc 1 24 23 is_stmt 1
  84              		.cfi_startproc
  85 0074 130101FE 		addi	sp,sp,-32
  86              		.cfi_def_cfa_offset 32
GAS LISTING /tmp/cc3yNy4d.s 			page 3


  87 0078 233C1100 		sd	ra,24(sp)
  88 007c 23388100 		sd	s0,16(sp)
  89 0080 23349100 		sd	s1,8(sp)
  90              		.cfi_offset 1, -8
  91              		.cfi_offset 8, -16
  92              		.cfi_offset 9, -24
  93 0084 13040102 		addi	s0,sp,32
  94              		.cfi_def_cfa 8, 0
  25:src/Scheduler.cpp ****     if(first==nullptr)return nullptr;
  95              		.loc 1 25 5
  96              		.loc 1 25 13 is_stmt 0
  97 0088 17050000 		ld	a0,.LANCHOR0
  97      03350500 
  98              		.loc 1 25 5
  99 0090 63020504 		beqz	a0,.L9
  26:src/Scheduler.cpp **** 
  27:src/Scheduler.cpp ****     Elem* elem=first;
 100              		.loc 1 27 5 is_stmt 1
 101              	.LVL5:
  28:src/Scheduler.cpp ****     TCB* t=elem->t;
 102              		.loc 1 28 5
 103              		.loc 1 28 10 is_stmt 0
 104 0094 83340500 		ld	s1,0(a0)
 105              	.LVL6:
  29:src/Scheduler.cpp **** 
  30:src/Scheduler.cpp ****     first=first->next;
 106              		.loc 1 30 5 is_stmt 1
 107              		.loc 1 30 18 is_stmt 0
 108 0098 83378500 		ld	a5,8(a0)
 109              		.loc 1 30 10
 110 009c 17070000 		sd	a5,.LANCHOR0,a4
 110      2330F700 
  31:src/Scheduler.cpp ****     if(first==nullptr)last=nullptr;
 111              		.loc 1 31 5 is_stmt 1
 112 00a4 63820702 		beqz	a5,.L11
 113              	.L8:
  32:src/Scheduler.cpp **** 
  33:src/Scheduler.cpp **** 
  34:src/Scheduler.cpp ****     MemoryAllocator::free(elem);
 114              		.loc 1 34 5
 115              		.loc 1 34 26 is_stmt 0
 116 00a8 97000000 		call	_ZN15MemoryAllocator4freeEPv@plt
 116      E7800000 
 117              	.LVL7:
  35:src/Scheduler.cpp **** 
  36:src/Scheduler.cpp ****     return t;
 118              		.loc 1 36 5 is_stmt 1
 119              	.L6:
  37:src/Scheduler.cpp **** }
 120              		.loc 1 37 1 is_stmt 0
 121 00b0 13850400 		mv	a0,s1
 122 00b4 83308101 		ld	ra,24(sp)
 123              		.cfi_remember_state
 124              		.cfi_restore 1
 125 00b8 03340101 		ld	s0,16(sp)
 126              		.cfi_restore 8
 127              		.cfi_def_cfa 2, 32
GAS LISTING /tmp/cc3yNy4d.s 			page 4


 128 00bc 83348100 		ld	s1,8(sp)
 129              		.cfi_restore 9
 130 00c0 13010102 		addi	sp,sp,32
 131              		.cfi_def_cfa_offset 0
 132 00c4 67800000 		jr	ra
 133              	.LVL8:
 134              	.L11:
 135              		.cfi_restore_state
  31:src/Scheduler.cpp **** 
 136              		.loc 1 31 23 is_stmt 1 discriminator 1
  31:src/Scheduler.cpp **** 
 137              		.loc 1 31 27 is_stmt 0 discriminator 1
 138 00c8 97070000 		sd	zero,.LANCHOR0+8,a5
 138      23B00700 
 139 00d0 6FF09FFD 		j	.L8
 140              	.LVL9:
 141              	.L9:
  25:src/Scheduler.cpp **** 
 142              		.loc 1 25 30
 143 00d4 93040500 		mv	s1,a0
 144 00d8 6FF09FFD 		j	.L6
 145              		.cfi_endproc
 146              	.LFE8:
 148              		.globl	_ZN9Scheduler4lastE
 149              		.globl	_ZN9Scheduler5firstE
 150              		.bss
 151              		.align	3
 152              		.set	.LANCHOR0,. + 0
 155              	_ZN9Scheduler5firstE:
 156 0000 00000000 		.zero	8
 156      00000000 
 159              	_ZN9Scheduler4lastE:
 160 0008 00000000 		.zero	8
 160      00000000 
 161              		.text
 162              	.Letext0:
 163              		.file 2 "src/../h/Scheduler.hpp"
 164              		.file 3 "src/../h/../lib/hw.h"
 165              		.file 4 "src/../h/MemoryAllocator.hpp"
 166              		.file 5 "src/../h/syscall_c.hpp"
GAS LISTING /tmp/cc3yNy4d.s 			page 5


DEFINED SYMBOLS
                            *ABS*:0000000000000000 Scheduler.cpp
     /tmp/cc3yNy4d.s:9      .text:0000000000000000 _ZN9Scheduler3putEP3TCB
     /tmp/cc3yNy4d.s:13     .text:0000000000000000 .L0 
     /tmp/cc3yNy4d.s:15     .text:0000000000000000 .L0 
     /tmp/cc3yNy4d.s:16     .text:0000000000000004 .L0 
     /tmp/cc3yNy4d.s:20     .text:0000000000000010 .L0 
     /tmp/cc3yNy4d.s:21     .text:0000000000000010 .L0 
     /tmp/cc3yNy4d.s:22     .text:0000000000000010 .L0 
     /tmp/cc3yNy4d.s:24     .text:0000000000000014 .L0 
     /tmp/cc3yNy4d.s:27     .text:0000000000000018 .L0 
     /tmp/cc3yNy4d.s:28     .text:0000000000000018 .L0 
     /tmp/cc3yNy4d.s:33     .text:0000000000000024 .L0 
     /tmp/cc3yNy4d.s:34     .text:0000000000000024 .L0 
     /tmp/cc3yNy4d.s:36     .text:0000000000000028 .L0 
     /tmp/cc3yNy4d.s:37     .text:0000000000000028 .L0 
     /tmp/cc3yNy4d.s:39     .text:000000000000002c .L0 
     /tmp/cc3yNy4d.s:40     .text:000000000000002c .L0 
     /tmp/cc3yNy4d.s:42     .text:0000000000000034 .L0 
     /tmp/cc3yNy4d.s:44     .text:0000000000000038 .L0 
     /tmp/cc3yNy4d.s:45     .text:0000000000000038 .L0 
     /tmp/cc3yNy4d.s:48     .text:0000000000000044 .L0 
     /tmp/cc3yNy4d.s:50     .text:0000000000000048 .L0 
     /tmp/cc3yNy4d.s:53     .text:000000000000004c .L0 
     /tmp/cc3yNy4d.s:54     .text:0000000000000050 .L0 
     /tmp/cc3yNy4d.s:55     .text:0000000000000050 .L0 
     /tmp/cc3yNy4d.s:57     .text:0000000000000054 .L0 
     /tmp/cc3yNy4d.s:58     .text:0000000000000054 .L0 
     /tmp/cc3yNy4d.s:60     .text:0000000000000058 .L0 
     /tmp/cc3yNy4d.s:63     .text:000000000000005c .L0 
     /tmp/cc3yNy4d.s:67     .text:0000000000000060 .L0 
     /tmp/cc3yNy4d.s:69     .text:0000000000000060 .L0 
     /tmp/cc3yNy4d.s:70     .text:0000000000000060 .L0 
     /tmp/cc3yNy4d.s:73     .text:000000000000006c .L0 
     /tmp/cc3yNy4d.s:75     .text:0000000000000074 .L0 
     /tmp/cc3yNy4d.s:81     .text:0000000000000074 _ZN9Scheduler3getEv
     /tmp/cc3yNy4d.s:84     .text:0000000000000074 .L0 
     /tmp/cc3yNy4d.s:85     .text:0000000000000074 .L0 
     /tmp/cc3yNy4d.s:86     .text:0000000000000078 .L0 
     /tmp/cc3yNy4d.s:90     .text:0000000000000084 .L0 
     /tmp/cc3yNy4d.s:91     .text:0000000000000084 .L0 
     /tmp/cc3yNy4d.s:92     .text:0000000000000084 .L0 
     /tmp/cc3yNy4d.s:94     .text:0000000000000088 .L0 
     /tmp/cc3yNy4d.s:96     .text:0000000000000088 .L0 
     /tmp/cc3yNy4d.s:97     .text:0000000000000088 .L0 
     /tmp/cc3yNy4d.s:99     .text:0000000000000090 .L0 
     /tmp/cc3yNy4d.s:102    .text:0000000000000094 .L0 
     /tmp/cc3yNy4d.s:103    .text:0000000000000094 .L0 
     /tmp/cc3yNy4d.s:104    .text:0000000000000094 .L0 
     /tmp/cc3yNy4d.s:107    .text:0000000000000098 .L0 
     /tmp/cc3yNy4d.s:108    .text:0000000000000098 .L0 
     /tmp/cc3yNy4d.s:110    .text:000000000000009c .L0 
     /tmp/cc3yNy4d.s:112    .text:00000000000000a4 .L0 
     /tmp/cc3yNy4d.s:115    .text:00000000000000a8 .L0 
     /tmp/cc3yNy4d.s:116    .text:00000000000000a8 .L0 
     /tmp/cc3yNy4d.s:120    .text:00000000000000b0 .L0 
     /tmp/cc3yNy4d.s:121    .text:00000000000000b0 .L0 
GAS LISTING /tmp/cc3yNy4d.s 			page 6


     /tmp/cc3yNy4d.s:123    .text:00000000000000b8 .L0 
     /tmp/cc3yNy4d.s:124    .text:00000000000000b8 .L0 
     /tmp/cc3yNy4d.s:126    .text:00000000000000bc .L0 
     /tmp/cc3yNy4d.s:127    .text:00000000000000bc .L0 
     /tmp/cc3yNy4d.s:129    .text:00000000000000c0 .L0 
     /tmp/cc3yNy4d.s:131    .text:00000000000000c4 .L0 
     /tmp/cc3yNy4d.s:135    .text:00000000000000c8 .L0 
     /tmp/cc3yNy4d.s:137    .text:00000000000000c8 .L0 
     /tmp/cc3yNy4d.s:138    .text:00000000000000c8 .L0 
     /tmp/cc3yNy4d.s:143    .text:00000000000000d4 .L0 
     /tmp/cc3yNy4d.s:145    .text:00000000000000dc .L0 
     /tmp/cc3yNy4d.s:159    .bss:0000000000000008 _ZN9Scheduler4lastE
     /tmp/cc3yNy4d.s:155    .bss:0000000000000000 _ZN9Scheduler5firstE
     /tmp/cc3yNy4d.s:152    .bss:0000000000000000 .LANCHOR0
     /tmp/cc3yNy4d.s:167    .text:00000000000000dc .L0 
     /tmp/cc3yNy4d.s:40     .text:000000000000002c .L0 
     /tmp/cc3yNy4d.s:45     .text:0000000000000038 .L0 
     /tmp/cc3yNy4d.s:70     .text:0000000000000060 .L0 
     /tmp/cc3yNy4d.s:97     .text:0000000000000088 .L0 
     /tmp/cc3yNy4d.s:110    .text:000000000000009c .L0 
     /tmp/cc3yNy4d.s:138    .text:00000000000000c8 .L0 
     /tmp/cc3yNy4d.s:66     .text:0000000000000060 .L5
     /tmp/cc3yNy4d.s:51     .text:000000000000004c .L1
     /tmp/cc3yNy4d.s:141    .text:00000000000000d4 .L9
     /tmp/cc3yNy4d.s:134    .text:00000000000000c8 .L11
     /tmp/cc3yNy4d.s:113    .text:00000000000000a8 .L8
     /tmp/cc3yNy4d.s:119    .text:00000000000000b0 .L6
     /tmp/cc3yNy4d.s:525    .debug_abbrev:0000000000000000 .Ldebug_abbrev0
     /tmp/cc3yNy4d.s:1135   .debug_str:000000000000015b .LASF34
     /tmp/cc3yNy4d.s:1141   .debug_str:0000000000000239 .LASF35
     /tmp/cc3yNy4d.s:1157   .debug_str:00000000000002a3 .LASF36
     /tmp/cc3yNy4d.s:5      .text:0000000000000000 .Ltext0
     /tmp/cc3yNy4d.s:162    .text:00000000000000dc .Letext0
     /tmp/cc3yNy4d.s:1091   .debug_line:0000000000000000 .Ldebug_line0
     /tmp/cc3yNy4d.s:1119   .debug_str:00000000000000d3 .LASF20
     /tmp/cc3yNy4d.s:1155   .debug_str:000000000000029e .LASF22
     /tmp/cc3yNy4d.s:1099   .debug_str:000000000000002a .LASF0
     /tmp/cc3yNy4d.s:1111   .debug_str:0000000000000081 .LASF37
     /tmp/cc3yNy4d.s:1105   .debug_str:0000000000000058 .LASF38
     /tmp/cc3yNy4d.s:1101   .debug_str:000000000000002f .LASF1
     /tmp/cc3yNy4d.s:1147   .debug_str:0000000000000263 .LASF2
     /tmp/cc3yNy4d.s:1143   .debug_str:000000000000024b .LASF3
     /tmp/cc3yNy4d.s:1129   .debug_str:000000000000012a .LASF4
     /tmp/cc3yNy4d.s:1127   .debug_str:000000000000011c .LASF5
     /tmp/cc3yNy4d.s:1109   .debug_str:000000000000007a .LASF7
     /tmp/cc3yNy4d.s:1133   .debug_str:0000000000000149 .LASF6
     /tmp/cc3yNy4d.s:1097   .debug_str:0000000000000023 .LASF8
     /tmp/cc3yNy4d.s:1093   .debug_str:0000000000000000 .LASF9
     /tmp/cc3yNy4d.s:1121   .debug_str:00000000000000dd .LASF10
     /tmp/cc3yNy4d.s:1151   .debug_str:0000000000000278 .LASF11
     /tmp/cc3yNy4d.s:1107   .debug_str:000000000000006c .LASF12
     /tmp/cc3yNy4d.s:1173   .debug_str:000000000000030a .LASF13
     /tmp/cc3yNy4d.s:1125   .debug_str:000000000000010d .LASF14
     /tmp/cc3yNy4d.s:1165   .debug_str:00000000000002d9 .LASF15
     /tmp/cc3yNy4d.s:1149   .debug_str:0000000000000268 .LASF16
     /tmp/cc3yNy4d.s:1131   .debug_str:000000000000013d .LASF17
     /tmp/cc3yNy4d.s:1117   .debug_str:00000000000000bd .LASF18
GAS LISTING /tmp/cc3yNy4d.s 			page 7


     /tmp/cc3yNy4d.s:1153   .debug_str:0000000000000288 .LASF19
     /tmp/cc3yNy4d.s:1095   .debug_str:0000000000000013 .LASF21
     /tmp/cc3yNy4d.s:1113   .debug_str:0000000000000099 .LASF23
     /tmp/cc3yNy4d.s:1169   .debug_str:00000000000002fd .LASF24
     /tmp/cc3yNy4d.s:1163   .debug_str:00000000000002d3 .LASF25
     /tmp/cc3yNy4d.s:1123   .debug_str:00000000000000f0 .LASF27
     /tmp/cc3yNy4d.s:1159   .debug_str:00000000000002c1 .LASF26
     /tmp/cc3yNy4d.s:1115   .debug_str:00000000000000a0 .LASF28
     /tmp/cc3yNy4d.s:1145   .debug_str:0000000000000258 .LASF39
     /tmp/cc3yNy4d.s:1103   .debug_str:0000000000000035 .LASF40
     /tmp/cc3yNy4d.s:1161   .debug_str:00000000000002c6 .LASF29
     /tmp/cc3yNy4d.s:1139   .debug_str:0000000000000224 .LASF30
     /tmp/cc3yNy4d.s:1167   .debug_str:00000000000002e9 .LASF31
     /tmp/cc3yNy4d.s:82     .text:0000000000000074 .LFB8
     /tmp/cc3yNy4d.s:146    .text:00000000000000dc .LFE8
     /tmp/cc3yNy4d.s:1137   .debug_str:000000000000021f .LASF32
     /tmp/cc3yNy4d.s:1034   .debug_loc:0000000000000000 .LLST1
     /tmp/cc3yNy4d.s:1045   .debug_loc:0000000000000036 .LLST2
     /tmp/cc3yNy4d.s:117    .text:00000000000000b0 .LVL7
     /tmp/cc3yNy4d.s:10     .text:0000000000000000 .LFB7
     /tmp/cc3yNy4d.s:76     .text:0000000000000074 .LFE7
     /tmp/cc3yNy4d.s:1056   .debug_loc:000000000000006c .LLST0
     /tmp/cc3yNy4d.s:1171   .debug_str:0000000000000302 .LASF33
     /tmp/cc3yNy4d.s:31     .text:0000000000000024 .LVL2
     /tmp/cc3yNy4d.s:101    .text:0000000000000094 .LVL5
     /tmp/cc3yNy4d.s:133    .text:00000000000000c8 .LVL8
     /tmp/cc3yNy4d.s:140    .text:00000000000000d4 .LVL9
     /tmp/cc3yNy4d.s:105    .text:0000000000000098 .LVL6
     /tmp/cc3yNy4d.s:14     .text:0000000000000000 .LVL0
     /tmp/cc3yNy4d.s:29     .text:000000000000001c .LVL1
     /tmp/cc3yNy4d.s:61     .text:0000000000000058 .LVL3
     /tmp/cc3yNy4d.s:65     .text:0000000000000060 .LVL4
     /tmp/cc3yNy4d.s:168    .debug_info:0000000000000000 .Ldebug_info0

UNDEFINED SYMBOLS
_ZN15MemoryAllocator5allocEm
_ZN15MemoryAllocator4freeEPv
