GAS LISTING /tmp/ccYAYxAX.s 			page 1


   1              		.file	"syscall_cpp.cpp"
   2              		.option pic
   3              		.option norelax
   4              		.text
   5              	.Ltext0:
   6              		.section	.text._ZN6Thread3runEv,"axG",@progbits,_ZN6Thread3runEv,comdat
   7              		.align	2
   8              		.weak	_ZN6Thread3runEv
  10              	_ZN6Thread3runEv:
  11              	.LFB7:
  12              		.file 1 "src/../h/syscall_cpp.hpp"
   1:src/../h/syscall_cpp.hpp **** //
   2:src/../h/syscall_cpp.hpp **** // Created by os on 7/21/23.
   3:src/../h/syscall_cpp.hpp **** //
   4:src/../h/syscall_cpp.hpp **** #ifndef _syscall_cpp
   5:src/../h/syscall_cpp.hpp **** #define _syscall_cpp
   6:src/../h/syscall_cpp.hpp **** 
   7:src/../h/syscall_cpp.hpp **** 
   8:src/../h/syscall_cpp.hpp **** #include "syscall_c.hpp"
   9:src/../h/syscall_cpp.hpp **** 
  10:src/../h/syscall_cpp.hpp **** 
  11:src/../h/syscall_cpp.hpp **** void* operator new (size_t);
  12:src/../h/syscall_cpp.hpp **** void operator delete (void*);
  13:src/../h/syscall_cpp.hpp **** class Thread {
  14:src/../h/syscall_cpp.hpp **** public:
  15:src/../h/syscall_cpp.hpp ****     Thread (void (*body)(void*), void* arg);
  16:src/../h/syscall_cpp.hpp ****     virtual ~Thread ();
  17:src/../h/syscall_cpp.hpp ****     int start ();
  18:src/../h/syscall_cpp.hpp ****     void join();
  19:src/../h/syscall_cpp.hpp ****     static void dispatch ();
  20:src/../h/syscall_cpp.hpp ****     static int sleep (time_t);
  21:src/../h/syscall_cpp.hpp ****     static void wrapperPolymorphThread(void*);
  22:src/../h/syscall_cpp.hpp **** protected:
  23:src/../h/syscall_cpp.hpp ****     Thread ();
  24:src/../h/syscall_cpp.hpp ****     virtual void run () {}
  13              		.loc 1 24 18
  14              		.cfi_startproc
  15              	.LVL0:
  16 0000 130101FF 		addi	sp,sp,-16
  17              		.cfi_def_cfa_offset 16
  18 0004 23348100 		sd	s0,8(sp)
  19              		.cfi_offset 8, -8
  20 0008 13040101 		addi	s0,sp,16
  21              		.cfi_def_cfa 8, 0
  22              		.loc 1 24 26 is_stmt 0
  23 000c 03348100 		ld	s0,8(sp)
  24              		.cfi_restore 8
  25              		.cfi_def_cfa 2, 16
  26 0010 13010101 		addi	sp,sp,16
  27              		.cfi_def_cfa_offset 0
  28 0014 67800000 		jr	ra
  29              		.cfi_endproc
  30              	.LFE7:
  32              		.section	.text._ZN14PeriodicThread18periodicActivationEv,"axG",@progbits,_ZN14PeriodicThread18peri
  33              		.align	2
  34              		.weak	_ZN14PeriodicThread18periodicActivationEv
  36              	_ZN14PeriodicThread18periodicActivationEv:
GAS LISTING /tmp/ccYAYxAX.s 			page 2


  37              	.LFB8:
  25:src/../h/syscall_cpp.hpp **** private:
  26:src/../h/syscall_cpp.hpp ****     thread_t myHandle;
  27:src/../h/syscall_cpp.hpp ****     void (*body)(void*); void* arg;
  28:src/../h/syscall_cpp.hpp **** };
  29:src/../h/syscall_cpp.hpp **** class Semaphore {
  30:src/../h/syscall_cpp.hpp **** public:
  31:src/../h/syscall_cpp.hpp ****     Semaphore (unsigned init = 1);
  32:src/../h/syscall_cpp.hpp ****     virtual ~Semaphore ();
  33:src/../h/syscall_cpp.hpp ****     int wait ();
  34:src/../h/syscall_cpp.hpp ****     int signal ();
  35:src/../h/syscall_cpp.hpp **** private:
  36:src/../h/syscall_cpp.hpp ****     sem_t myHandle;
  37:src/../h/syscall_cpp.hpp **** };
  38:src/../h/syscall_cpp.hpp **** class PeriodicThread : public Thread {
  39:src/../h/syscall_cpp.hpp **** public:
  40:src/../h/syscall_cpp.hpp ****     void terminate ();
  41:src/../h/syscall_cpp.hpp **** protected:
  42:src/../h/syscall_cpp.hpp ****     PeriodicThread (time_t period);
  43:src/../h/syscall_cpp.hpp ****     virtual void periodicActivation () {}
  38              		.loc 1 43 18 is_stmt 1
  39              		.cfi_startproc
  40              	.LVL1:
  41 0000 130101FF 		addi	sp,sp,-16
  42              		.cfi_def_cfa_offset 16
  43 0004 23348100 		sd	s0,8(sp)
  44              		.cfi_offset 8, -8
  45 0008 13040101 		addi	s0,sp,16
  46              		.cfi_def_cfa 8, 0
  47              		.loc 1 43 41 is_stmt 0
  48 000c 03348100 		ld	s0,8(sp)
  49              		.cfi_restore 8
  50              		.cfi_def_cfa 2, 16
  51 0010 13010101 		addi	sp,sp,16
  52              		.cfi_def_cfa_offset 0
  53 0014 67800000 		jr	ra
  54              		.cfi_endproc
  55              	.LFE8:
  57              		.text
  58              		.align	2
  59              		.globl	_ZN6Thread22wrapperPolymorphThreadEPv
  61              	_ZN6Thread22wrapperPolymorphThreadEPv:
  62              	.LFB20:
  63              		.file 2 "src/syscall_cpp.cpp"
   1:src/syscall_cpp.cpp **** //
   2:src/syscall_cpp.cpp **** // Created by os on 7/21/23.
   3:src/syscall_cpp.cpp **** //
   4:src/syscall_cpp.cpp **** 
   5:src/syscall_cpp.cpp **** #include "../h/syscall_cpp.hpp"
   6:src/syscall_cpp.cpp **** #include "../h/_sem.hpp"
   7:src/syscall_cpp.cpp **** 
   8:src/syscall_cpp.cpp **** 
   9:src/syscall_cpp.cpp **** void Thread::wrapperPolymorphThread(void* t){
  64              		.loc 2 9 45 is_stmt 1
  65              		.cfi_startproc
  66              	.LVL2:
  67 0000 130101FF 		addi	sp,sp,-16
GAS LISTING /tmp/ccYAYxAX.s 			page 3


  68              		.cfi_def_cfa_offset 16
  69 0004 23341100 		sd	ra,8(sp)
  70 0008 23308100 		sd	s0,0(sp)
  71              		.cfi_offset 1, -8
  72              		.cfi_offset 8, -16
  73 000c 13040101 		addi	s0,sp,16
  74              		.cfi_def_cfa 8, 0
  10:src/syscall_cpp.cpp ****     ((Thread*)t)->run();
  75              		.loc 2 10 5
  76              		.loc 2 10 23 is_stmt 0
  77 0010 83370500 		ld	a5,0(a0)
  78 0014 83B70701 		ld	a5,16(a5)
  79              		.loc 2 10 22
  80 0018 E7800700 		jalr	a5
  81              	.LVL3:
  11:src/syscall_cpp.cpp **** }
  82              		.loc 2 11 1
  83 001c 83308100 		ld	ra,8(sp)
  84              		.cfi_restore 1
  85 0020 03340100 		ld	s0,0(sp)
  86              		.cfi_restore 8
  87              		.cfi_def_cfa 2, 16
  88 0024 13010101 		addi	sp,sp,16
  89              		.cfi_def_cfa_offset 0
  90 0028 67800000 		jr	ra
  91              		.cfi_endproc
  92              	.LFE20:
  94              		.align	2
  95              		.globl	_ZN6ThreadD2Ev
  97              	_ZN6ThreadD2Ev:
  98              	.LFB25:
  12:src/syscall_cpp.cpp **** 
  13:src/syscall_cpp.cpp **** 
  14:src/syscall_cpp.cpp **** Thread::Thread(void (*body)(void *), void *arg) :myHandle(nullptr), body(body), arg(arg){}
  15:src/syscall_cpp.cpp **** 
  16:src/syscall_cpp.cpp **** Thread::~Thread() {
  99              		.loc 2 16 1 is_stmt 1
 100              		.cfi_startproc
 101              	.LVL4:
 102              	.LBB2:
 103              		.loc 2 16 17 is_stmt 0
 104 002c 97070000 		lla	a5,_ZTV6Thread+16
 104      93870700 
 105 0034 2330F500 		sd	a5,0(a0)
  17:src/syscall_cpp.cpp ****     //myHandle->setFinished(true);
  18:src/syscall_cpp.cpp ****     delete myHandle;
 106              		.loc 2 18 5 is_stmt 1
 107              		.loc 2 18 12 is_stmt 0
 108 0038 03358500 		ld	a0,8(a0)
 109              	.LVL5:
 110              		.loc 2 18 20
 111 003c 63080502 		beqz	a0,.L10
 112              	.LBE2:
  16:src/syscall_cpp.cpp ****     //myHandle->setFinished(true);
 113              		.loc 2 16 1 discriminator 1
 114 0040 130101FF 		addi	sp,sp,-16
 115              		.cfi_def_cfa_offset 16
GAS LISTING /tmp/ccYAYxAX.s 			page 4


 116 0044 23341100 		sd	ra,8(sp)
 117 0048 23308100 		sd	s0,0(sp)
 118              		.cfi_offset 1, -8
 119              		.cfi_offset 8, -16
 120 004c 13040101 		addi	s0,sp,16
 121              		.cfi_def_cfa 8, 0
 122              	.LBB3:
 123              		.loc 2 18 12 discriminator 1
 124 0050 83370500 		ld	a5,0(a0)
 125 0054 83B78700 		ld	a5,8(a5)
 126 0058 E7800700 		jalr	a5
 127              	.LVL6:
 128              	.LBE3:
  19:src/syscall_cpp.cpp **** }
 129              		.loc 2 19 1 discriminator 1
 130 005c 83308100 		ld	ra,8(sp)
 131              		.cfi_restore 1
 132 0060 03340100 		ld	s0,0(sp)
 133              		.cfi_restore 8
 134              		.cfi_def_cfa 2, 16
 135 0064 13010101 		addi	sp,sp,16
 136              		.cfi_def_cfa_offset 0
 137 0068 67800000 		jr	ra
 138              	.L10:
 139 006c 67800000 		ret
 140              		.cfi_endproc
 141              	.LFE25:
 143              		.globl	_ZN6ThreadD1Ev
 144              		.set	_ZN6ThreadD1Ev,_ZN6ThreadD2Ev
 145              		.align	2
 146              		.globl	_ZN14PeriodicThreadD2Ev
 148              	_ZN14PeriodicThreadD2Ev:
 149              	.LFB49:
  20:src/syscall_cpp.cpp **** 
  21:src/syscall_cpp.cpp **** int Thread::start() {
  22:src/syscall_cpp.cpp ****     return thread_create(&myHandle,this->body, this->arg);
  23:src/syscall_cpp.cpp **** }
  24:src/syscall_cpp.cpp **** 
  25:src/syscall_cpp.cpp **** void Thread::dispatch() {
  26:src/syscall_cpp.cpp ****     thread_dispatch();
  27:src/syscall_cpp.cpp **** }
  28:src/syscall_cpp.cpp **** 
  29:src/syscall_cpp.cpp **** Thread::Thread():myHandle(nullptr),body(wrapperPolymorphThread),arg(this) {}
  30:src/syscall_cpp.cpp **** 
  31:src/syscall_cpp.cpp **** void Thread::join() {
  32:src/syscall_cpp.cpp ****     thread_join(myHandle);
  33:src/syscall_cpp.cpp **** }
  34:src/syscall_cpp.cpp **** 
  35:src/syscall_cpp.cpp **** int Thread::sleep(time_t t) {
  36:src/syscall_cpp.cpp ****     return time_sleep(t);
  37:src/syscall_cpp.cpp **** }
  38:src/syscall_cpp.cpp **** 
  39:src/syscall_cpp.cpp **** Semaphore::Semaphore(unsigned int init) :myHandle(nullptr){
  40:src/syscall_cpp.cpp ****     sem_open(&this->myHandle, init);
  41:src/syscall_cpp.cpp **** }
  42:src/syscall_cpp.cpp **** 
  43:src/syscall_cpp.cpp **** Semaphore::~Semaphore() {
GAS LISTING /tmp/ccYAYxAX.s 			page 5


  44:src/syscall_cpp.cpp ****     sem_close(myHandle);
  45:src/syscall_cpp.cpp ****     //delete myHandle;
  46:src/syscall_cpp.cpp **** }
  47:src/syscall_cpp.cpp **** 
  48:src/syscall_cpp.cpp **** int Semaphore::wait() {
  49:src/syscall_cpp.cpp ****     return sem_wait(myHandle);
  50:src/syscall_cpp.cpp **** }
  51:src/syscall_cpp.cpp **** 
  52:src/syscall_cpp.cpp **** int Semaphore::signal() {
  53:src/syscall_cpp.cpp ****     return sem_signal(myHandle);
  54:src/syscall_cpp.cpp **** }
  55:src/syscall_cpp.cpp **** 
  56:src/syscall_cpp.cpp **** void PeriodicThread::terminate() {
  57:src/syscall_cpp.cpp ****     period=0;
  58:src/syscall_cpp.cpp **** }
  59:src/syscall_cpp.cpp **** 
  60:src/syscall_cpp.cpp **** PeriodicThread::PeriodicThread(time_t period) {
  61:src/syscall_cpp.cpp ****     this->period=period;
  62:src/syscall_cpp.cpp **** }
  63:src/syscall_cpp.cpp **** 
  64:src/syscall_cpp.cpp **** PeriodicThread::~PeriodicThread() {
 150              		.loc 2 64 1 is_stmt 1
 151              		.cfi_startproc
 152              	.LVL7:
 153 0070 130101FF 		addi	sp,sp,-16
 154              		.cfi_def_cfa_offset 16
 155 0074 23341100 		sd	ra,8(sp)
 156 0078 23308100 		sd	s0,0(sp)
 157              		.cfi_offset 1, -8
 158              		.cfi_offset 8, -16
 159 007c 13040101 		addi	s0,sp,16
 160              		.cfi_def_cfa 8, 0
 161              	.LBB4:
 162              		.loc 2 64 33 is_stmt 0
 163 0080 17070000 		lla	a4,_ZTV14PeriodicThread+16
 163      13070700 
 164 0088 2330E500 		sd	a4,0(a0)
  65:src/syscall_cpp.cpp ****     period=0;
 165              		.loc 2 65 5 is_stmt 1
 166              		.loc 2 65 11 is_stmt 0
 167 008c 23300502 		sd	zero,32(a0)
  64:src/syscall_cpp.cpp ****     period=0;
 168              		.loc 2 64 33
 169 0090 97000000 		call	_ZN6ThreadD2Ev
 169      E7800000 
 170              	.LVL8:
 171              	.LBE4:
  66:src/syscall_cpp.cpp **** }
 172              		.loc 2 66 1
 173 0098 83308100 		ld	ra,8(sp)
 174              		.cfi_restore 1
 175 009c 03340100 		ld	s0,0(sp)
 176              		.cfi_restore 8
 177              		.cfi_def_cfa 2, 16
 178 00a0 13010101 		addi	sp,sp,16
 179              		.cfi_def_cfa_offset 0
 180 00a4 67800000 		jr	ra
GAS LISTING /tmp/ccYAYxAX.s 			page 6


 181              		.cfi_endproc
 182              	.LFE49:
 184              		.globl	_ZN14PeriodicThreadD1Ev
 185              		.set	_ZN14PeriodicThreadD1Ev,_ZN14PeriodicThreadD2Ev
 186              		.align	2
 187              		.globl	_ZN6ThreadD0Ev
 189              	_ZN6ThreadD0Ev:
 190              	.LFB27:
  16:src/syscall_cpp.cpp ****     //myHandle->setFinished(true);
 191              		.loc 2 16 1 is_stmt 1
 192              		.cfi_startproc
 193              	.LVL9:
 194 00a8 130101FE 		addi	sp,sp,-32
 195              		.cfi_def_cfa_offset 32
 196 00ac 233C1100 		sd	ra,24(sp)
 197 00b0 23388100 		sd	s0,16(sp)
 198 00b4 23349100 		sd	s1,8(sp)
 199              		.cfi_offset 1, -8
 200              		.cfi_offset 8, -16
 201              		.cfi_offset 9, -24
 202 00b8 13040102 		addi	s0,sp,32
 203              		.cfi_def_cfa 8, 0
 204 00bc 93040500 		mv	s1,a0
  19:src/syscall_cpp.cpp **** 
 205              		.loc 2 19 1 is_stmt 0
 206 00c0 97000000 		call	_ZN6ThreadD1Ev
 206      E7800000 
 207              	.LVL10:
 208 00c8 13850400 		mv	a0,s1
 209 00cc 97000000 		call	_ZdlPv@plt
 209      E7800000 
 210              	.LVL11:
 211 00d4 83308101 		ld	ra,24(sp)
 212              		.cfi_restore 1
 213 00d8 03340101 		ld	s0,16(sp)
 214              		.cfi_restore 8
 215              		.cfi_def_cfa 2, 32
 216 00dc 83348100 		ld	s1,8(sp)
 217              		.cfi_restore 9
 218              	.LVL12:
 219 00e0 13010102 		addi	sp,sp,32
 220              		.cfi_def_cfa_offset 0
 221 00e4 67800000 		jr	ra
 222              		.cfi_endproc
 223              	.LFE27:
 225              		.align	2
 226              		.globl	_ZN14PeriodicThreadD0Ev
 228              	_ZN14PeriodicThreadD0Ev:
 229              	.LFB51:
  64:src/syscall_cpp.cpp ****     period=0;
 230              		.loc 2 64 1 is_stmt 1
 231              		.cfi_startproc
 232              	.LVL13:
 233 00e8 130101FE 		addi	sp,sp,-32
 234              		.cfi_def_cfa_offset 32
 235 00ec 233C1100 		sd	ra,24(sp)
 236 00f0 23388100 		sd	s0,16(sp)
GAS LISTING /tmp/ccYAYxAX.s 			page 7


 237 00f4 23349100 		sd	s1,8(sp)
 238              		.cfi_offset 1, -8
 239              		.cfi_offset 8, -16
 240              		.cfi_offset 9, -24
 241 00f8 13040102 		addi	s0,sp,32
 242              		.cfi_def_cfa 8, 0
 243 00fc 93040500 		mv	s1,a0
 244              		.loc 2 66 1 is_stmt 0
 245 0100 97000000 		call	_ZN14PeriodicThreadD1Ev
 245      E7800000 
 246              	.LVL14:
 247 0108 13850400 		mv	a0,s1
 248 010c 97000000 		call	_ZdlPv@plt
 248      E7800000 
 249              	.LVL15:
 250 0114 83308101 		ld	ra,24(sp)
 251              		.cfi_restore 1
 252 0118 03340101 		ld	s0,16(sp)
 253              		.cfi_restore 8
 254              		.cfi_def_cfa 2, 32
 255 011c 83348100 		ld	s1,8(sp)
 256              		.cfi_restore 9
 257              	.LVL16:
 258 0120 13010102 		addi	sp,sp,32
 259              		.cfi_def_cfa_offset 0
 260 0124 67800000 		jr	ra
 261              		.cfi_endproc
 262              	.LFE51:
 264              		.align	2
 265              		.globl	_ZN14PeriodicThread3runEv
 267              	_ZN14PeriodicThread3runEv:
 268              	.LFB52:
  67:src/syscall_cpp.cpp **** 
  68:src/syscall_cpp.cpp **** void PeriodicThread::run() {
 269              		.loc 2 68 28 is_stmt 1
 270              		.cfi_startproc
 271              	.LVL17:
 272 0128 130101FE 		addi	sp,sp,-32
 273              		.cfi_def_cfa_offset 32
 274 012c 233C1100 		sd	ra,24(sp)
 275 0130 23388100 		sd	s0,16(sp)
 276 0134 23349100 		sd	s1,8(sp)
 277              		.cfi_offset 1, -8
 278              		.cfi_offset 8, -16
 279              		.cfi_offset 9, -24
 280 0138 13040102 		addi	s0,sp,32
 281              		.cfi_def_cfa 8, 0
 282 013c 93040500 		mv	s1,a0
 283              	.LVL18:
 284              	.L21:
  69:src/syscall_cpp.cpp ****     while(period!=0){
 285              		.loc 2 69 5
 286              		.loc 2 69 17
 287              		.loc 2 69 11 is_stmt 0
 288 0140 83B70402 		ld	a5,32(s1)
 289              		.loc 2 69 17
 290 0144 63820702 		beqz	a5,.L19
GAS LISTING /tmp/ccYAYxAX.s 			page 8


  70:src/syscall_cpp.cpp ****         periodicActivation();
 291              		.loc 2 70 9 is_stmt 1
 292              		.loc 2 70 28 is_stmt 0
 293 0148 83B70400 		ld	a5,0(s1)
 294 014c 83B78701 		ld	a5,24(a5)
 295              		.loc 2 70 27
 296 0150 13850400 		mv	a0,s1
 297 0154 E7800700 		jalr	a5
 298              	.LVL19:
  71:src/syscall_cpp.cpp ****         time_sleep(period);
 299              		.loc 2 71 9 is_stmt 1
 300              		.loc 2 71 19 is_stmt 0
 301 0158 03B50402 		ld	a0,32(s1)
 302 015c 97000000 		call	_Z10time_sleepm@plt
 302      E7800000 
 303              	.LVL20:
  69:src/syscall_cpp.cpp ****     while(period!=0){
 304              		.loc 2 69 5
 305 0164 6FF0DFFD 		j	.L21
 306              	.L19:
  72:src/syscall_cpp.cpp ****     }
  73:src/syscall_cpp.cpp **** }
 307              		.loc 2 73 1
 308 0168 83308101 		ld	ra,24(sp)
 309              		.cfi_restore 1
 310 016c 03340101 		ld	s0,16(sp)
 311              		.cfi_restore 8
 312              		.cfi_def_cfa 2, 32
 313 0170 83348100 		ld	s1,8(sp)
 314              		.cfi_restore 9
 315              	.LVL21:
 316 0174 13010102 		addi	sp,sp,32
 317              		.cfi_def_cfa_offset 0
 318 0178 67800000 		jr	ra
 319              		.cfi_endproc
 320              	.LFE52:
 322              		.align	2
 323              		.globl	_ZN9SemaphoreD2Ev
 325              	_ZN9SemaphoreD2Ev:
 326              	.LFB39:
  43:src/syscall_cpp.cpp ****     sem_close(myHandle);
 327              		.loc 2 43 1 is_stmt 1
 328              		.cfi_startproc
 329              		.cfi_personality 0x9b,DW.ref.__gxx_personality_v0
 330              		.cfi_lsda 0x1b,.LLSDA39
 331              	.LVL22:
 332 017c 130101FF 		addi	sp,sp,-16
 333              		.cfi_def_cfa_offset 16
 334 0180 23341100 		sd	ra,8(sp)
 335 0184 23308100 		sd	s0,0(sp)
 336              		.cfi_offset 1, -8
 337              		.cfi_offset 8, -16
 338 0188 13040101 		addi	s0,sp,16
 339              		.cfi_def_cfa 8, 0
 340              	.LBB5:
  43:src/syscall_cpp.cpp ****     sem_close(myHandle);
 341              		.loc 2 43 23 is_stmt 0
GAS LISTING /tmp/ccYAYxAX.s 			page 9


 342 018c 97070000 		lla	a5,_ZTV9Semaphore+16
 342      93870700 
 343 0194 2330F500 		sd	a5,0(a0)
  44:src/syscall_cpp.cpp ****     //delete myHandle;
 344              		.loc 2 44 5 is_stmt 1
  44:src/syscall_cpp.cpp ****     //delete myHandle;
 345              		.loc 2 44 14 is_stmt 0
 346 0198 03358500 		ld	a0,8(a0)
 347              	.LVL23:
 348 019c 97000000 		call	_Z9sem_closeP4_sem@plt
 348      E7800000 
 349              	.LVL24:
 350              	.LBE5:
  46:src/syscall_cpp.cpp **** 
 351              		.loc 2 46 1
 352 01a4 83308100 		ld	ra,8(sp)
 353              		.cfi_restore 1
 354 01a8 03340100 		ld	s0,0(sp)
 355              		.cfi_restore 8
 356              		.cfi_def_cfa 2, 16
 357 01ac 13010101 		addi	sp,sp,16
 358              		.cfi_def_cfa_offset 0
 359 01b0 67800000 		jr	ra
 360              		.cfi_endproc
 361              	.LFE39:
 362              		.globl	__gxx_personality_v0
 363              		.section	.gcc_except_table,"a",@progbits
 364              	.LLSDA39:
 365 0000 FF       		.byte	0xff
 366 0001 FF       		.byte	0xff
 367 0002 03       		.byte	0x3
 368 0003 00       		.byte	0
 369              		.text
 371              		.globl	_ZN9SemaphoreD1Ev
 372              		.set	_ZN9SemaphoreD1Ev,_ZN9SemaphoreD2Ev
 373              		.align	2
 374              		.globl	_ZN9SemaphoreD0Ev
 376              	_ZN9SemaphoreD0Ev:
 377              	.LFB41:
  43:src/syscall_cpp.cpp ****     sem_close(myHandle);
 378              		.loc 2 43 1 is_stmt 1
 379              		.cfi_startproc
 380              	.LVL25:
 381 01b4 130101FE 		addi	sp,sp,-32
 382              		.cfi_def_cfa_offset 32
 383 01b8 233C1100 		sd	ra,24(sp)
 384 01bc 23388100 		sd	s0,16(sp)
 385 01c0 23349100 		sd	s1,8(sp)
 386              		.cfi_offset 1, -8
 387              		.cfi_offset 8, -16
 388              		.cfi_offset 9, -24
 389 01c4 13040102 		addi	s0,sp,32
 390              		.cfi_def_cfa 8, 0
 391 01c8 93040500 		mv	s1,a0
  46:src/syscall_cpp.cpp **** 
 392              		.loc 2 46 1 is_stmt 0
 393 01cc 97000000 		call	_ZN9SemaphoreD1Ev
GAS LISTING /tmp/ccYAYxAX.s 			page 10


 393      E7800000 
 394              	.LVL26:
 395 01d4 13850400 		mv	a0,s1
 396 01d8 97000000 		call	_ZdlPv@plt
 396      E7800000 
 397              	.LVL27:
 398 01e0 83308101 		ld	ra,24(sp)
 399              		.cfi_restore 1
 400 01e4 03340101 		ld	s0,16(sp)
 401              		.cfi_restore 8
 402              		.cfi_def_cfa 2, 32
 403 01e8 83348100 		ld	s1,8(sp)
 404              		.cfi_restore 9
 405              	.LVL28:
 406 01ec 13010102 		addi	sp,sp,32
 407              		.cfi_def_cfa_offset 0
 408 01f0 67800000 		jr	ra
 409              		.cfi_endproc
 410              	.LFE41:
 412              		.align	2
 413              		.globl	_ZN6ThreadC2EPFvPvES0_
 415              	_ZN6ThreadC2EPFvPvES0_:
 416              	.LFB22:
  14:src/syscall_cpp.cpp **** 
 417              		.loc 2 14 1 is_stmt 1
 418              		.cfi_startproc
 419              	.LVL29:
 420 01f4 130101FF 		addi	sp,sp,-16
 421              		.cfi_def_cfa_offset 16
 422 01f8 23348100 		sd	s0,8(sp)
 423              		.cfi_offset 8, -8
 424 01fc 13040101 		addi	s0,sp,16
 425              		.cfi_def_cfa 8, 0
 426              	.LBB6:
  14:src/syscall_cpp.cpp **** 
 427              		.loc 2 14 88 is_stmt 0
 428 0200 97070000 		lla	a5,_ZTV6Thread+16
 428      93870700 
 429 0208 2330F500 		sd	a5,0(a0)
 430 020c 23340500 		sd	zero,8(a0)
 431 0210 2338B500 		sd	a1,16(a0)
 432 0214 233CC500 		sd	a2,24(a0)
 433              	.LBE6:
  14:src/syscall_cpp.cpp **** 
 434              		.loc 2 14 90
 435 0218 03348100 		ld	s0,8(sp)
 436              		.cfi_restore 8
 437              		.cfi_def_cfa 2, 16
 438 021c 13010101 		addi	sp,sp,16
 439              		.cfi_def_cfa_offset 0
 440 0220 67800000 		jr	ra
 441              		.cfi_endproc
 442              	.LFE22:
 444              		.globl	_ZN6ThreadC1EPFvPvES0_
 445              		.set	_ZN6ThreadC1EPFvPvES0_,_ZN6ThreadC2EPFvPvES0_
 446              		.align	2
 447              		.globl	_ZN6Thread5startEv
GAS LISTING /tmp/ccYAYxAX.s 			page 11


 449              	_ZN6Thread5startEv:
 450              	.LFB28:
  21:src/syscall_cpp.cpp ****     return thread_create(&myHandle,this->body, this->arg);
 451              		.loc 2 21 21 is_stmt 1
 452              		.cfi_startproc
 453              	.LVL30:
 454 0224 130101FF 		addi	sp,sp,-16
 455              		.cfi_def_cfa_offset 16
 456 0228 23341100 		sd	ra,8(sp)
 457 022c 23308100 		sd	s0,0(sp)
 458              		.cfi_offset 1, -8
 459              		.cfi_offset 8, -16
 460 0230 13040101 		addi	s0,sp,16
 461              		.cfi_def_cfa 8, 0
  22:src/syscall_cpp.cpp **** }
 462              		.loc 2 22 5
  22:src/syscall_cpp.cpp **** }
 463              		.loc 2 22 25 is_stmt 0
 464 0234 03368501 		ld	a2,24(a0)
 465 0238 83350501 		ld	a1,16(a0)
 466 023c 13058500 		addi	a0,a0,8
 467              	.LVL31:
 468 0240 97000000 		call	_Z13thread_createPP3TCBPFvPvES2_@plt
 468      E7800000 
 469              	.LVL32:
  23:src/syscall_cpp.cpp **** 
 470              		.loc 2 23 1
 471 0248 83308100 		ld	ra,8(sp)
 472              		.cfi_restore 1
 473 024c 03340100 		ld	s0,0(sp)
 474              		.cfi_restore 8
 475              		.cfi_def_cfa 2, 16
 476 0250 13010101 		addi	sp,sp,16
 477              		.cfi_def_cfa_offset 0
 478 0254 67800000 		jr	ra
 479              		.cfi_endproc
 480              	.LFE28:
 482              		.align	2
 483              		.globl	_ZN6Thread8dispatchEv
 485              	_ZN6Thread8dispatchEv:
 486              	.LFB29:
  25:src/syscall_cpp.cpp ****     thread_dispatch();
 487              		.loc 2 25 25 is_stmt 1
 488              		.cfi_startproc
 489 0258 130101FF 		addi	sp,sp,-16
 490              		.cfi_def_cfa_offset 16
 491 025c 23341100 		sd	ra,8(sp)
 492 0260 23308100 		sd	s0,0(sp)
 493              		.cfi_offset 1, -8
 494              		.cfi_offset 8, -16
 495 0264 13040101 		addi	s0,sp,16
 496              		.cfi_def_cfa 8, 0
  26:src/syscall_cpp.cpp **** }
 497              		.loc 2 26 5
  26:src/syscall_cpp.cpp **** }
 498              		.loc 2 26 20 is_stmt 0
 499 0268 97000000 		call	_Z15thread_dispatchv@plt
GAS LISTING /tmp/ccYAYxAX.s 			page 12


 499      E7800000 
 500              	.LVL33:
  27:src/syscall_cpp.cpp **** 
 501              		.loc 2 27 1
 502 0270 83308100 		ld	ra,8(sp)
 503              		.cfi_restore 1
 504 0274 03340100 		ld	s0,0(sp)
 505              		.cfi_restore 8
 506              		.cfi_def_cfa 2, 16
 507 0278 13010101 		addi	sp,sp,16
 508              		.cfi_def_cfa_offset 0
 509 027c 67800000 		jr	ra
 510              		.cfi_endproc
 511              	.LFE29:
 513              		.align	2
 514              		.globl	_ZN6ThreadC2Ev
 516              	_ZN6ThreadC2Ev:
 517              	.LFB31:
  29:src/syscall_cpp.cpp **** 
 518              		.loc 2 29 1 is_stmt 1
 519              		.cfi_startproc
 520              	.LVL34:
 521 0280 130101FF 		addi	sp,sp,-16
 522              		.cfi_def_cfa_offset 16
 523 0284 23348100 		sd	s0,8(sp)
 524              		.cfi_offset 8, -8
 525 0288 13040101 		addi	s0,sp,16
 526              		.cfi_def_cfa 8, 0
 527              	.LBB7:
  29:src/syscall_cpp.cpp **** 
 528              		.loc 2 29 73 is_stmt 0
 529 028c 97070000 		lla	a5,_ZTV6Thread+16
 529      93870700 
 530 0294 2330F500 		sd	a5,0(a0)
 531 0298 23340500 		sd	zero,8(a0)
 532 029c 97070000 		lla	a5,_ZN6Thread22wrapperPolymorphThreadEPv
 532      93870700 
 533 02a4 2338F500 		sd	a5,16(a0)
 534 02a8 233CA500 		sd	a0,24(a0)
 535              	.LBE7:
  29:src/syscall_cpp.cpp **** 
 536              		.loc 2 29 76
 537 02ac 03348100 		ld	s0,8(sp)
 538              		.cfi_restore 8
 539              		.cfi_def_cfa 2, 16
 540 02b0 13010101 		addi	sp,sp,16
 541              		.cfi_def_cfa_offset 0
 542 02b4 67800000 		jr	ra
 543              		.cfi_endproc
 544              	.LFE31:
 546              		.globl	_ZN6ThreadC1Ev
 547              		.set	_ZN6ThreadC1Ev,_ZN6ThreadC2Ev
 548              		.align	2
 549              		.globl	_ZN6Thread4joinEv
 551              	_ZN6Thread4joinEv:
 552              	.LFB33:
  31:src/syscall_cpp.cpp ****     thread_join(myHandle);
GAS LISTING /tmp/ccYAYxAX.s 			page 13


 553              		.loc 2 31 21 is_stmt 1
 554              		.cfi_startproc
 555              	.LVL35:
 556 02b8 130101FF 		addi	sp,sp,-16
 557              		.cfi_def_cfa_offset 16
 558 02bc 23341100 		sd	ra,8(sp)
 559 02c0 23308100 		sd	s0,0(sp)
 560              		.cfi_offset 1, -8
 561              		.cfi_offset 8, -16
 562 02c4 13040101 		addi	s0,sp,16
 563              		.cfi_def_cfa 8, 0
  32:src/syscall_cpp.cpp **** }
 564              		.loc 2 32 5
  32:src/syscall_cpp.cpp **** }
 565              		.loc 2 32 16 is_stmt 0
 566 02c8 03358500 		ld	a0,8(a0)
 567              	.LVL36:
 568 02cc 97000000 		call	_Z11thread_joinP3TCB@plt
 568      E7800000 
 569              	.LVL37:
  33:src/syscall_cpp.cpp **** 
 570              		.loc 2 33 1
 571 02d4 83308100 		ld	ra,8(sp)
 572              		.cfi_restore 1
 573 02d8 03340100 		ld	s0,0(sp)
 574              		.cfi_restore 8
 575              		.cfi_def_cfa 2, 16
 576 02dc 13010101 		addi	sp,sp,16
 577              		.cfi_def_cfa_offset 0
 578 02e0 67800000 		jr	ra
 579              		.cfi_endproc
 580              	.LFE33:
 582              		.align	2
 583              		.globl	_ZN6Thread5sleepEm
 585              	_ZN6Thread5sleepEm:
 586              	.LFB34:
  35:src/syscall_cpp.cpp ****     return time_sleep(t);
 587              		.loc 2 35 29 is_stmt 1
 588              		.cfi_startproc
 589              	.LVL38:
 590 02e4 130101FF 		addi	sp,sp,-16
 591              		.cfi_def_cfa_offset 16
 592 02e8 23341100 		sd	ra,8(sp)
 593 02ec 23308100 		sd	s0,0(sp)
 594              		.cfi_offset 1, -8
 595              		.cfi_offset 8, -16
 596 02f0 13040101 		addi	s0,sp,16
 597              		.cfi_def_cfa 8, 0
  36:src/syscall_cpp.cpp **** }
 598              		.loc 2 36 5
  36:src/syscall_cpp.cpp **** }
 599              		.loc 2 36 22 is_stmt 0
 600 02f4 97000000 		call	_Z10time_sleepm@plt
 600      E7800000 
 601              	.LVL39:
  37:src/syscall_cpp.cpp **** 
 602              		.loc 2 37 1
GAS LISTING /tmp/ccYAYxAX.s 			page 14


 603 02fc 83308100 		ld	ra,8(sp)
 604              		.cfi_restore 1
 605 0300 03340100 		ld	s0,0(sp)
 606              		.cfi_restore 8
 607              		.cfi_def_cfa 2, 16
 608 0304 13010101 		addi	sp,sp,16
 609              		.cfi_def_cfa_offset 0
 610 0308 67800000 		jr	ra
 611              		.cfi_endproc
 612              	.LFE34:
 614              		.align	2
 615              		.globl	_ZN9SemaphoreC2Ej
 617              	_ZN9SemaphoreC2Ej:
 618              	.LFB36:
  39:src/syscall_cpp.cpp ****     sem_open(&this->myHandle, init);
 619              		.loc 2 39 1 is_stmt 1
 620              		.cfi_startproc
 621              	.LVL40:
 622 030c 130101FF 		addi	sp,sp,-16
 623              		.cfi_def_cfa_offset 16
 624 0310 23341100 		sd	ra,8(sp)
 625 0314 23308100 		sd	s0,0(sp)
 626              		.cfi_offset 1, -8
 627              		.cfi_offset 8, -16
 628 0318 13040101 		addi	s0,sp,16
 629              		.cfi_def_cfa 8, 0
 630              	.LBB8:
  39:src/syscall_cpp.cpp ****     sem_open(&this->myHandle, init);
 631              		.loc 2 39 58 is_stmt 0
 632 031c 97070000 		lla	a5,_ZTV9Semaphore+16
 632      93870700 
 633 0324 2330F500 		sd	a5,0(a0)
 634 0328 23340500 		sd	zero,8(a0)
  40:src/syscall_cpp.cpp **** }
 635              		.loc 2 40 5 is_stmt 1
  40:src/syscall_cpp.cpp **** }
 636              		.loc 2 40 13 is_stmt 0
 637 032c 13058500 		addi	a0,a0,8
 638              	.LVL41:
 639 0330 97000000 		call	_Z8sem_openPP4_semj@plt
 639      E7800000 
 640              	.LVL42:
 641              	.LBE8:
  41:src/syscall_cpp.cpp **** 
 642              		.loc 2 41 1
 643 0338 83308100 		ld	ra,8(sp)
 644              		.cfi_restore 1
 645 033c 03340100 		ld	s0,0(sp)
 646              		.cfi_restore 8
 647              		.cfi_def_cfa 2, 16
 648 0340 13010101 		addi	sp,sp,16
 649              		.cfi_def_cfa_offset 0
 650 0344 67800000 		jr	ra
 651              		.cfi_endproc
 652              	.LFE36:
 654              		.globl	_ZN9SemaphoreC1Ej
 655              		.set	_ZN9SemaphoreC1Ej,_ZN9SemaphoreC2Ej
GAS LISTING /tmp/ccYAYxAX.s 			page 15


 656              		.align	2
 657              		.globl	_ZN9Semaphore4waitEv
 659              	_ZN9Semaphore4waitEv:
 660              	.LFB42:
  48:src/syscall_cpp.cpp ****     return sem_wait(myHandle);
 661              		.loc 2 48 23 is_stmt 1
 662              		.cfi_startproc
 663              	.LVL43:
 664 0348 130101FF 		addi	sp,sp,-16
 665              		.cfi_def_cfa_offset 16
 666 034c 23341100 		sd	ra,8(sp)
 667 0350 23308100 		sd	s0,0(sp)
 668              		.cfi_offset 1, -8
 669              		.cfi_offset 8, -16
 670 0354 13040101 		addi	s0,sp,16
 671              		.cfi_def_cfa 8, 0
  49:src/syscall_cpp.cpp **** }
 672              		.loc 2 49 5
  49:src/syscall_cpp.cpp **** }
 673              		.loc 2 49 20 is_stmt 0
 674 0358 03358500 		ld	a0,8(a0)
 675              	.LVL44:
 676 035c 97000000 		call	_Z8sem_waitP4_sem@plt
 676      E7800000 
 677              	.LVL45:
  50:src/syscall_cpp.cpp **** 
 678              		.loc 2 50 1
 679 0364 83308100 		ld	ra,8(sp)
 680              		.cfi_restore 1
 681 0368 03340100 		ld	s0,0(sp)
 682              		.cfi_restore 8
 683              		.cfi_def_cfa 2, 16
 684 036c 13010101 		addi	sp,sp,16
 685              		.cfi_def_cfa_offset 0
 686 0370 67800000 		jr	ra
 687              		.cfi_endproc
 688              	.LFE42:
 690              		.align	2
 691              		.globl	_ZN9Semaphore6signalEv
 693              	_ZN9Semaphore6signalEv:
 694              	.LFB43:
  52:src/syscall_cpp.cpp ****     return sem_signal(myHandle);
 695              		.loc 2 52 25 is_stmt 1
 696              		.cfi_startproc
 697              	.LVL46:
 698 0374 130101FF 		addi	sp,sp,-16
 699              		.cfi_def_cfa_offset 16
 700 0378 23341100 		sd	ra,8(sp)
 701 037c 23308100 		sd	s0,0(sp)
 702              		.cfi_offset 1, -8
 703              		.cfi_offset 8, -16
 704 0380 13040101 		addi	s0,sp,16
 705              		.cfi_def_cfa 8, 0
  53:src/syscall_cpp.cpp **** }
 706              		.loc 2 53 5
  53:src/syscall_cpp.cpp **** }
 707              		.loc 2 53 22 is_stmt 0
GAS LISTING /tmp/ccYAYxAX.s 			page 16


 708 0384 03358500 		ld	a0,8(a0)
 709              	.LVL47:
 710 0388 97000000 		call	_Z10sem_signalP4_sem@plt
 710      E7800000 
 711              	.LVL48:
  54:src/syscall_cpp.cpp **** 
 712              		.loc 2 54 1
 713 0390 83308100 		ld	ra,8(sp)
 714              		.cfi_restore 1
 715 0394 03340100 		ld	s0,0(sp)
 716              		.cfi_restore 8
 717              		.cfi_def_cfa 2, 16
 718 0398 13010101 		addi	sp,sp,16
 719              		.cfi_def_cfa_offset 0
 720 039c 67800000 		jr	ra
 721              		.cfi_endproc
 722              	.LFE43:
 724              		.align	2
 725              		.globl	_ZN14PeriodicThread9terminateEv
 727              	_ZN14PeriodicThread9terminateEv:
 728              	.LFB44:
  56:src/syscall_cpp.cpp ****     period=0;
 729              		.loc 2 56 34 is_stmt 1
 730              		.cfi_startproc
 731              	.LVL49:
 732 03a0 130101FF 		addi	sp,sp,-16
 733              		.cfi_def_cfa_offset 16
 734 03a4 23348100 		sd	s0,8(sp)
 735              		.cfi_offset 8, -8
 736 03a8 13040101 		addi	s0,sp,16
 737              		.cfi_def_cfa 8, 0
  57:src/syscall_cpp.cpp **** }
 738              		.loc 2 57 5
  57:src/syscall_cpp.cpp **** }
 739              		.loc 2 57 11 is_stmt 0
 740 03ac 23300502 		sd	zero,32(a0)
  58:src/syscall_cpp.cpp **** 
 741              		.loc 2 58 1
 742 03b0 03348100 		ld	s0,8(sp)
 743              		.cfi_restore 8
 744              		.cfi_def_cfa 2, 16
 745 03b4 13010101 		addi	sp,sp,16
 746              		.cfi_def_cfa_offset 0
 747 03b8 67800000 		jr	ra
 748              		.cfi_endproc
 749              	.LFE44:
 751              		.align	2
 752              		.globl	_ZN14PeriodicThreadC2Em
 754              	_ZN14PeriodicThreadC2Em:
 755              	.LFB46:
  60:src/syscall_cpp.cpp ****     this->period=period;
 756              		.loc 2 60 1 is_stmt 1
 757              		.cfi_startproc
 758              	.LVL50:
 759 03bc 130101FE 		addi	sp,sp,-32
 760              		.cfi_def_cfa_offset 32
 761 03c0 233C1100 		sd	ra,24(sp)
GAS LISTING /tmp/ccYAYxAX.s 			page 17


 762 03c4 23388100 		sd	s0,16(sp)
 763 03c8 23349100 		sd	s1,8(sp)
 764 03cc 23302101 		sd	s2,0(sp)
 765              		.cfi_offset 1, -8
 766              		.cfi_offset 8, -16
 767              		.cfi_offset 9, -24
 768              		.cfi_offset 18, -32
 769 03d0 13040102 		addi	s0,sp,32
 770              		.cfi_def_cfa 8, 0
 771 03d4 93040500 		mv	s1,a0
 772 03d8 13890500 		mv	s2,a1
 773              	.LBB9:
  60:src/syscall_cpp.cpp ****     this->period=period;
 774              		.loc 2 60 45 is_stmt 0
 775 03dc 97000000 		call	_ZN6ThreadC2Ev
 775      E7800000 
 776              	.LVL51:
 777 03e4 97070000 		lla	a5,_ZTV14PeriodicThread+16
 777      93870700 
 778 03ec 23B0F400 		sd	a5,0(s1)
  61:src/syscall_cpp.cpp **** }
 779              		.loc 2 61 5 is_stmt 1
  61:src/syscall_cpp.cpp **** }
 780              		.loc 2 61 17 is_stmt 0
 781 03f0 23B02403 		sd	s2,32(s1)
 782              	.LBE9:
  62:src/syscall_cpp.cpp **** 
 783              		.loc 2 62 1
 784 03f4 83308101 		ld	ra,24(sp)
 785              		.cfi_restore 1
 786 03f8 03340101 		ld	s0,16(sp)
 787              		.cfi_restore 8
 788              		.cfi_def_cfa 2, 32
 789 03fc 83348100 		ld	s1,8(sp)
 790              		.cfi_restore 9
 791              	.LVL52:
 792 0400 03390100 		ld	s2,0(sp)
 793              		.cfi_restore 18
 794              	.LVL53:
 795 0404 13010102 		addi	sp,sp,32
 796              		.cfi_def_cfa_offset 0
 797 0408 67800000 		jr	ra
 798              		.cfi_endproc
 799              	.LFE46:
 801              		.globl	_ZN14PeriodicThreadC1Em
 802              		.set	_ZN14PeriodicThreadC1Em,_ZN14PeriodicThreadC2Em
 803              		.align	2
 804              		.globl	_ZN7Console4getcEv
 806              	_ZN7Console4getcEv:
 807              	.LFB53:
  74:src/syscall_cpp.cpp **** 
  75:src/syscall_cpp.cpp **** char Console::getc() {
 808              		.loc 2 75 22 is_stmt 1
 809              		.cfi_startproc
 810 040c 130101FF 		addi	sp,sp,-16
 811              		.cfi_def_cfa_offset 16
 812 0410 23341100 		sd	ra,8(sp)
GAS LISTING /tmp/ccYAYxAX.s 			page 18


 813 0414 23308100 		sd	s0,0(sp)
 814              		.cfi_offset 1, -8
 815              		.cfi_offset 8, -16
 816 0418 13040101 		addi	s0,sp,16
 817              		.cfi_def_cfa 8, 0
  76:src/syscall_cpp.cpp ****     return ::getc();
 818              		.loc 2 76 5
 819              		.loc 2 76 18 is_stmt 0
 820 041c 97000000 		call	_Z4getcv@plt
 820      E7800000 
 821              	.LVL54:
  77:src/syscall_cpp.cpp **** }
 822              		.loc 2 77 1
 823 0424 83308100 		ld	ra,8(sp)
 824              		.cfi_restore 1
 825 0428 03340100 		ld	s0,0(sp)
 826              		.cfi_restore 8
 827              		.cfi_def_cfa 2, 16
 828 042c 13010101 		addi	sp,sp,16
 829              		.cfi_def_cfa_offset 0
 830 0430 67800000 		jr	ra
 831              		.cfi_endproc
 832              	.LFE53:
 834              		.align	2
 835              		.globl	_ZN7Console4putcEc
 837              	_ZN7Console4putcEc:
 838              	.LFB54:
  78:src/syscall_cpp.cpp **** 
  79:src/syscall_cpp.cpp **** void Console::putc(char c) {
 839              		.loc 2 79 28 is_stmt 1
 840              		.cfi_startproc
 841              	.LVL55:
 842 0434 130101FF 		addi	sp,sp,-16
 843              		.cfi_def_cfa_offset 16
 844 0438 23341100 		sd	ra,8(sp)
 845 043c 23308100 		sd	s0,0(sp)
 846              		.cfi_offset 1, -8
 847              		.cfi_offset 8, -16
 848 0440 13040101 		addi	s0,sp,16
 849              		.cfi_def_cfa 8, 0
  80:src/syscall_cpp.cpp ****     ::putc(c);
 850              		.loc 2 80 5
 851              		.loc 2 80 11 is_stmt 0
 852 0444 97000000 		call	_Z4putcc@plt
 852      E7800000 
 853              	.LVL56:
  81:src/syscall_cpp.cpp **** }
 854              		.loc 2 81 1
 855 044c 83308100 		ld	ra,8(sp)
 856              		.cfi_restore 1
 857 0450 03340100 		ld	s0,0(sp)
 858              		.cfi_restore 8
 859              		.cfi_def_cfa 2, 16
 860 0454 13010101 		addi	sp,sp,16
 861              		.cfi_def_cfa_offset 0
 862 0458 67800000 		jr	ra
 863              		.cfi_endproc
GAS LISTING /tmp/ccYAYxAX.s 			page 19


 864              	.LFE54:
 866              		.weak	_ZTV6Thread
 867              		.section	.data.rel.ro.local._ZTV6Thread,"awG",@progbits,_ZTV6Thread,comdat
 868              		.align	3
 871              	_ZTV6Thread:
 872 0000 00000000 		.dword	0
 872      00000000 
 873 0008 00000000 		.dword	0
 873      00000000 
 874 0010 00000000 		.dword	_ZN6ThreadD1Ev
 874      00000000 
 875 0018 00000000 		.dword	_ZN6ThreadD0Ev
 875      00000000 
 876 0020 00000000 		.dword	_ZN6Thread3runEv
 876      00000000 
 877              		.weak	_ZTV9Semaphore
 878              		.section	.data.rel.ro.local._ZTV9Semaphore,"awG",@progbits,_ZTV9Semaphore,comdat
 879              		.align	3
 882              	_ZTV9Semaphore:
 883 0000 00000000 		.dword	0
 883      00000000 
 884 0008 00000000 		.dword	0
 884      00000000 
 885 0010 00000000 		.dword	_ZN9SemaphoreD1Ev
 885      00000000 
 886 0018 00000000 		.dword	_ZN9SemaphoreD0Ev
 886      00000000 
 887              		.weak	_ZTV14PeriodicThread
 888              		.section	.data.rel.ro.local._ZTV14PeriodicThread,"awG",@progbits,_ZTV14PeriodicThread,comdat
 889              		.align	3
 892              	_ZTV14PeriodicThread:
 893 0000 00000000 		.dword	0
 893      00000000 
 894 0008 00000000 		.dword	0
 894      00000000 
 895 0010 00000000 		.dword	_ZN14PeriodicThreadD1Ev
 895      00000000 
 896 0018 00000000 		.dword	_ZN14PeriodicThreadD0Ev
 896      00000000 
 897 0020 00000000 		.dword	_ZN14PeriodicThread3runEv
 897      00000000 
 898 0028 00000000 		.dword	_ZN14PeriodicThread18periodicActivationEv
 898      00000000 
 899              		.text
 900              	.Letext0:
 901              		.file 3 "src/../h/../lib/hw.h"
 902              		.file 4 "src/../h/syscall_c.hpp"
 903              		.file 5 "src/../h/_sem.hpp"
 904              		.file 6 "src/../h/../h/list.hpp"
 4037              		.align	3
 4040              	DW.ref.__gxx_personality_v0:
 4041 0000 00000000 		.dword	__gxx_personality_v0
 4041      00000000 
 4042              		.ident	"GCC: (Ubuntu 9.4.0-1ubuntu1~20.04) 9.4.0"
 4043              		.section	.note.GNU-stack,"",@progbits
GAS LISTING /tmp/ccYAYxAX.s 			page 20


DEFINED SYMBOLS
                            *ABS*:0000000000000000 syscall_cpp.cpp
     /tmp/ccYAYxAX.s:10     .text._ZN6Thread3runEv:0000000000000000 _ZN6Thread3runEv
     /tmp/ccYAYxAX.s:14     .text._ZN6Thread3runEv:0000000000000000 .L0 
     /tmp/ccYAYxAX.s:16     .text._ZN6Thread3runEv:0000000000000000 .L0 
     /tmp/ccYAYxAX.s:17     .text._ZN6Thread3runEv:0000000000000004 .L0 
     /tmp/ccYAYxAX.s:19     .text._ZN6Thread3runEv:0000000000000008 .L0 
     /tmp/ccYAYxAX.s:21     .text._ZN6Thread3runEv:000000000000000c .L0 
     /tmp/ccYAYxAX.s:23     .text._ZN6Thread3runEv:000000000000000c .L0 
     /tmp/ccYAYxAX.s:24     .text._ZN6Thread3runEv:0000000000000010 .L0 
     /tmp/ccYAYxAX.s:25     .text._ZN6Thread3runEv:0000000000000010 .L0 
     /tmp/ccYAYxAX.s:27     .text._ZN6Thread3runEv:0000000000000014 .L0 
     /tmp/ccYAYxAX.s:29     .text._ZN6Thread3runEv:0000000000000018 .L0 
     /tmp/ccYAYxAX.s:36     .text._ZN14PeriodicThread18periodicActivationEv:0000000000000000 _ZN14PeriodicThread18periodicActivationEv
     /tmp/ccYAYxAX.s:39     .text._ZN14PeriodicThread18periodicActivationEv:0000000000000000 .L0 
     /tmp/ccYAYxAX.s:41     .text._ZN14PeriodicThread18periodicActivationEv:0000000000000000 .L0 
     /tmp/ccYAYxAX.s:42     .text._ZN14PeriodicThread18periodicActivationEv:0000000000000004 .L0 
     /tmp/ccYAYxAX.s:44     .text._ZN14PeriodicThread18periodicActivationEv:0000000000000008 .L0 
     /tmp/ccYAYxAX.s:46     .text._ZN14PeriodicThread18periodicActivationEv:000000000000000c .L0 
     /tmp/ccYAYxAX.s:48     .text._ZN14PeriodicThread18periodicActivationEv:000000000000000c .L0 
     /tmp/ccYAYxAX.s:49     .text._ZN14PeriodicThread18periodicActivationEv:0000000000000010 .L0 
     /tmp/ccYAYxAX.s:50     .text._ZN14PeriodicThread18periodicActivationEv:0000000000000010 .L0 
     /tmp/ccYAYxAX.s:52     .text._ZN14PeriodicThread18periodicActivationEv:0000000000000014 .L0 
     /tmp/ccYAYxAX.s:54     .text._ZN14PeriodicThread18periodicActivationEv:0000000000000018 .L0 
     /tmp/ccYAYxAX.s:61     .text:0000000000000000 _ZN6Thread22wrapperPolymorphThreadEPv
     /tmp/ccYAYxAX.s:65     .text:0000000000000000 .L0 
     /tmp/ccYAYxAX.s:67     .text:0000000000000000 .L0 
     /tmp/ccYAYxAX.s:68     .text:0000000000000004 .L0 
     /tmp/ccYAYxAX.s:71     .text:000000000000000c .L0 
     /tmp/ccYAYxAX.s:72     .text:000000000000000c .L0 
     /tmp/ccYAYxAX.s:74     .text:0000000000000010 .L0 
     /tmp/ccYAYxAX.s:76     .text:0000000000000010 .L0 
     /tmp/ccYAYxAX.s:77     .text:0000000000000010 .L0 
     /tmp/ccYAYxAX.s:80     .text:0000000000000018 .L0 
     /tmp/ccYAYxAX.s:83     .text:000000000000001c .L0 
     /tmp/ccYAYxAX.s:84     .text:0000000000000020 .L0 
     /tmp/ccYAYxAX.s:86     .text:0000000000000024 .L0 
     /tmp/ccYAYxAX.s:87     .text:0000000000000024 .L0 
     /tmp/ccYAYxAX.s:89     .text:0000000000000028 .L0 
     /tmp/ccYAYxAX.s:91     .text:000000000000002c .L0 
     /tmp/ccYAYxAX.s:97     .text:000000000000002c _ZN6ThreadD2Ev
     /tmp/ccYAYxAX.s:100    .text:000000000000002c .L0 
     /tmp/ccYAYxAX.s:103    .text:000000000000002c .L0 
     /tmp/ccYAYxAX.s:871    .data.rel.ro.local._ZTV6Thread:0000000000000000 _ZTV6Thread
     /tmp/ccYAYxAX.s:104    .text:000000000000002c .L0 
     /tmp/ccYAYxAX.s:107    .text:0000000000000038 .L0 
     /tmp/ccYAYxAX.s:108    .text:0000000000000038 .L0 
     /tmp/ccYAYxAX.s:111    .text:000000000000003c .L0 
     /tmp/ccYAYxAX.s:114    .text:0000000000000040 .L0 
     /tmp/ccYAYxAX.s:115    .text:0000000000000044 .L0 
     /tmp/ccYAYxAX.s:118    .text:000000000000004c .L0 
     /tmp/ccYAYxAX.s:119    .text:000000000000004c .L0 
     /tmp/ccYAYxAX.s:121    .text:0000000000000050 .L0 
     /tmp/ccYAYxAX.s:124    .text:0000000000000050 .L0 
     /tmp/ccYAYxAX.s:130    .text:000000000000005c .L0 
     /tmp/ccYAYxAX.s:131    .text:0000000000000060 .L0 
     /tmp/ccYAYxAX.s:133    .text:0000000000000064 .L0 
GAS LISTING /tmp/ccYAYxAX.s 			page 21


     /tmp/ccYAYxAX.s:134    .text:0000000000000064 .L0 
     /tmp/ccYAYxAX.s:136    .text:0000000000000068 .L0 
     /tmp/ccYAYxAX.s:140    .text:0000000000000070 .L0 
     /tmp/ccYAYxAX.s:97     .text:000000000000002c _ZN6ThreadD1Ev
     /tmp/ccYAYxAX.s:148    .text:0000000000000070 _ZN14PeriodicThreadD2Ev
     /tmp/ccYAYxAX.s:151    .text:0000000000000070 .L0 
     /tmp/ccYAYxAX.s:153    .text:0000000000000070 .L0 
     /tmp/ccYAYxAX.s:154    .text:0000000000000074 .L0 
     /tmp/ccYAYxAX.s:157    .text:000000000000007c .L0 
     /tmp/ccYAYxAX.s:158    .text:000000000000007c .L0 
     /tmp/ccYAYxAX.s:160    .text:0000000000000080 .L0 
     /tmp/ccYAYxAX.s:892    .data.rel.ro.local._ZTV14PeriodicThread:0000000000000000 _ZTV14PeriodicThread
     /tmp/ccYAYxAX.s:163    .text:0000000000000080 .L0 
     /tmp/ccYAYxAX.s:166    .text:000000000000008c .L0 
     /tmp/ccYAYxAX.s:167    .text:000000000000008c .L0 
     /tmp/ccYAYxAX.s:169    .text:0000000000000090 .L0 
     /tmp/ccYAYxAX.s:173    .text:0000000000000098 .L0 
     /tmp/ccYAYxAX.s:174    .text:000000000000009c .L0 
     /tmp/ccYAYxAX.s:176    .text:00000000000000a0 .L0 
     /tmp/ccYAYxAX.s:177    .text:00000000000000a0 .L0 
     /tmp/ccYAYxAX.s:179    .text:00000000000000a4 .L0 
     /tmp/ccYAYxAX.s:181    .text:00000000000000a8 .L0 
     /tmp/ccYAYxAX.s:148    .text:0000000000000070 _ZN14PeriodicThreadD1Ev
     /tmp/ccYAYxAX.s:189    .text:00000000000000a8 _ZN6ThreadD0Ev
     /tmp/ccYAYxAX.s:192    .text:00000000000000a8 .L0 
     /tmp/ccYAYxAX.s:194    .text:00000000000000a8 .L0 
     /tmp/ccYAYxAX.s:195    .text:00000000000000ac .L0 
     /tmp/ccYAYxAX.s:199    .text:00000000000000b8 .L0 
     /tmp/ccYAYxAX.s:200    .text:00000000000000b8 .L0 
     /tmp/ccYAYxAX.s:201    .text:00000000000000b8 .L0 
     /tmp/ccYAYxAX.s:203    .text:00000000000000bc .L0 
     /tmp/ccYAYxAX.s:206    .text:00000000000000c0 .L0 
     /tmp/ccYAYxAX.s:212    .text:00000000000000d8 .L0 
     /tmp/ccYAYxAX.s:214    .text:00000000000000dc .L0 
     /tmp/ccYAYxAX.s:215    .text:00000000000000dc .L0 
     /tmp/ccYAYxAX.s:217    .text:00000000000000e0 .L0 
     /tmp/ccYAYxAX.s:220    .text:00000000000000e4 .L0 
     /tmp/ccYAYxAX.s:222    .text:00000000000000e8 .L0 
     /tmp/ccYAYxAX.s:228    .text:00000000000000e8 _ZN14PeriodicThreadD0Ev
     /tmp/ccYAYxAX.s:231    .text:00000000000000e8 .L0 
     /tmp/ccYAYxAX.s:233    .text:00000000000000e8 .L0 
     /tmp/ccYAYxAX.s:234    .text:00000000000000ec .L0 
     /tmp/ccYAYxAX.s:238    .text:00000000000000f8 .L0 
     /tmp/ccYAYxAX.s:239    .text:00000000000000f8 .L0 
     /tmp/ccYAYxAX.s:240    .text:00000000000000f8 .L0 
     /tmp/ccYAYxAX.s:242    .text:00000000000000fc .L0 
     /tmp/ccYAYxAX.s:245    .text:0000000000000100 .L0 
     /tmp/ccYAYxAX.s:251    .text:0000000000000118 .L0 
     /tmp/ccYAYxAX.s:253    .text:000000000000011c .L0 
     /tmp/ccYAYxAX.s:254    .text:000000000000011c .L0 
     /tmp/ccYAYxAX.s:256    .text:0000000000000120 .L0 
     /tmp/ccYAYxAX.s:259    .text:0000000000000124 .L0 
     /tmp/ccYAYxAX.s:261    .text:0000000000000128 .L0 
     /tmp/ccYAYxAX.s:267    .text:0000000000000128 _ZN14PeriodicThread3runEv
     /tmp/ccYAYxAX.s:270    .text:0000000000000128 .L0 
     /tmp/ccYAYxAX.s:272    .text:0000000000000128 .L0 
     /tmp/ccYAYxAX.s:273    .text:000000000000012c .L0 
GAS LISTING /tmp/ccYAYxAX.s 			page 22


     /tmp/ccYAYxAX.s:277    .text:0000000000000138 .L0 
     /tmp/ccYAYxAX.s:278    .text:0000000000000138 .L0 
     /tmp/ccYAYxAX.s:279    .text:0000000000000138 .L0 
     /tmp/ccYAYxAX.s:281    .text:000000000000013c .L0 
     /tmp/ccYAYxAX.s:286    .text:0000000000000140 .L0 
     /tmp/ccYAYxAX.s:287    .text:0000000000000140 .L0 
     /tmp/ccYAYxAX.s:288    .text:0000000000000140 .L0 
     /tmp/ccYAYxAX.s:290    .text:0000000000000144 .L0 
     /tmp/ccYAYxAX.s:292    .text:0000000000000148 .L0 
     /tmp/ccYAYxAX.s:293    .text:0000000000000148 .L0 
     /tmp/ccYAYxAX.s:296    .text:0000000000000150 .L0 
     /tmp/ccYAYxAX.s:300    .text:0000000000000158 .L0 
     /tmp/ccYAYxAX.s:301    .text:0000000000000158 .L0 
     /tmp/ccYAYxAX.s:305    .text:0000000000000164 .L0 
     /tmp/ccYAYxAX.s:308    .text:0000000000000168 .L0 
     /tmp/ccYAYxAX.s:309    .text:000000000000016c .L0 
     /tmp/ccYAYxAX.s:311    .text:0000000000000170 .L0 
     /tmp/ccYAYxAX.s:312    .text:0000000000000170 .L0 
     /tmp/ccYAYxAX.s:314    .text:0000000000000174 .L0 
     /tmp/ccYAYxAX.s:317    .text:0000000000000178 .L0 
     /tmp/ccYAYxAX.s:319    .text:000000000000017c .L0 
     /tmp/ccYAYxAX.s:325    .text:000000000000017c _ZN9SemaphoreD2Ev
     /tmp/ccYAYxAX.s:328    .text:000000000000017c .L0 
     /tmp/ccYAYxAX.s:4040   .data.rel.local.DW.ref.__gxx_personality_v0:0000000000000000 DW.ref.__gxx_personality_v0
     /tmp/ccYAYxAX.s:332    .text:000000000000017c .L0 
     /tmp/ccYAYxAX.s:333    .text:0000000000000180 .L0 
     /tmp/ccYAYxAX.s:336    .text:0000000000000188 .L0 
     /tmp/ccYAYxAX.s:337    .text:0000000000000188 .L0 
     /tmp/ccYAYxAX.s:339    .text:000000000000018c .L0 
     /tmp/ccYAYxAX.s:882    .data.rel.ro.local._ZTV9Semaphore:0000000000000000 _ZTV9Semaphore
     /tmp/ccYAYxAX.s:342    .text:000000000000018c .L0 
     /tmp/ccYAYxAX.s:345    .text:0000000000000198 .L0 
     /tmp/ccYAYxAX.s:346    .text:0000000000000198 .L0 
     /tmp/ccYAYxAX.s:352    .text:00000000000001a4 .L0 
     /tmp/ccYAYxAX.s:353    .text:00000000000001a8 .L0 
     /tmp/ccYAYxAX.s:355    .text:00000000000001ac .L0 
     /tmp/ccYAYxAX.s:356    .text:00000000000001ac .L0 
     /tmp/ccYAYxAX.s:358    .text:00000000000001b0 .L0 
     /tmp/ccYAYxAX.s:360    .text:00000000000001b4 .L0 
     /tmp/ccYAYxAX.s:325    .text:000000000000017c _ZN9SemaphoreD1Ev
     /tmp/ccYAYxAX.s:376    .text:00000000000001b4 _ZN9SemaphoreD0Ev
     /tmp/ccYAYxAX.s:379    .text:00000000000001b4 .L0 
     /tmp/ccYAYxAX.s:381    .text:00000000000001b4 .L0 
     /tmp/ccYAYxAX.s:382    .text:00000000000001b8 .L0 
     /tmp/ccYAYxAX.s:386    .text:00000000000001c4 .L0 
     /tmp/ccYAYxAX.s:387    .text:00000000000001c4 .L0 
     /tmp/ccYAYxAX.s:388    .text:00000000000001c4 .L0 
     /tmp/ccYAYxAX.s:390    .text:00000000000001c8 .L0 
     /tmp/ccYAYxAX.s:393    .text:00000000000001cc .L0 
     /tmp/ccYAYxAX.s:399    .text:00000000000001e4 .L0 
     /tmp/ccYAYxAX.s:401    .text:00000000000001e8 .L0 
     /tmp/ccYAYxAX.s:402    .text:00000000000001e8 .L0 
     /tmp/ccYAYxAX.s:404    .text:00000000000001ec .L0 
     /tmp/ccYAYxAX.s:407    .text:00000000000001f0 .L0 
     /tmp/ccYAYxAX.s:409    .text:00000000000001f4 .L0 
     /tmp/ccYAYxAX.s:415    .text:00000000000001f4 _ZN6ThreadC2EPFvPvES0_
     /tmp/ccYAYxAX.s:418    .text:00000000000001f4 .L0 
GAS LISTING /tmp/ccYAYxAX.s 			page 23


     /tmp/ccYAYxAX.s:420    .text:00000000000001f4 .L0 
     /tmp/ccYAYxAX.s:421    .text:00000000000001f8 .L0 
     /tmp/ccYAYxAX.s:423    .text:00000000000001fc .L0 
     /tmp/ccYAYxAX.s:425    .text:0000000000000200 .L0 
     /tmp/ccYAYxAX.s:428    .text:0000000000000200 .L0 
     /tmp/ccYAYxAX.s:435    .text:0000000000000218 .L0 
     /tmp/ccYAYxAX.s:436    .text:000000000000021c .L0 
     /tmp/ccYAYxAX.s:437    .text:000000000000021c .L0 
     /tmp/ccYAYxAX.s:439    .text:0000000000000220 .L0 
     /tmp/ccYAYxAX.s:441    .text:0000000000000224 .L0 
     /tmp/ccYAYxAX.s:415    .text:00000000000001f4 _ZN6ThreadC1EPFvPvES0_
     /tmp/ccYAYxAX.s:449    .text:0000000000000224 _ZN6Thread5startEv
     /tmp/ccYAYxAX.s:452    .text:0000000000000224 .L0 
     /tmp/ccYAYxAX.s:454    .text:0000000000000224 .L0 
     /tmp/ccYAYxAX.s:455    .text:0000000000000228 .L0 
     /tmp/ccYAYxAX.s:458    .text:0000000000000230 .L0 
     /tmp/ccYAYxAX.s:459    .text:0000000000000230 .L0 
     /tmp/ccYAYxAX.s:461    .text:0000000000000234 .L0 
     /tmp/ccYAYxAX.s:463    .text:0000000000000234 .L0 
     /tmp/ccYAYxAX.s:464    .text:0000000000000234 .L0 
     /tmp/ccYAYxAX.s:471    .text:0000000000000248 .L0 
     /tmp/ccYAYxAX.s:472    .text:000000000000024c .L0 
     /tmp/ccYAYxAX.s:474    .text:0000000000000250 .L0 
     /tmp/ccYAYxAX.s:475    .text:0000000000000250 .L0 
     /tmp/ccYAYxAX.s:477    .text:0000000000000254 .L0 
     /tmp/ccYAYxAX.s:479    .text:0000000000000258 .L0 
     /tmp/ccYAYxAX.s:485    .text:0000000000000258 _ZN6Thread8dispatchEv
     /tmp/ccYAYxAX.s:488    .text:0000000000000258 .L0 
     /tmp/ccYAYxAX.s:489    .text:0000000000000258 .L0 
     /tmp/ccYAYxAX.s:490    .text:000000000000025c .L0 
     /tmp/ccYAYxAX.s:493    .text:0000000000000264 .L0 
     /tmp/ccYAYxAX.s:494    .text:0000000000000264 .L0 
     /tmp/ccYAYxAX.s:496    .text:0000000000000268 .L0 
     /tmp/ccYAYxAX.s:498    .text:0000000000000268 .L0 
     /tmp/ccYAYxAX.s:499    .text:0000000000000268 .L0 
     /tmp/ccYAYxAX.s:502    .text:0000000000000270 .L0 
     /tmp/ccYAYxAX.s:503    .text:0000000000000274 .L0 
     /tmp/ccYAYxAX.s:505    .text:0000000000000278 .L0 
     /tmp/ccYAYxAX.s:506    .text:0000000000000278 .L0 
     /tmp/ccYAYxAX.s:508    .text:000000000000027c .L0 
     /tmp/ccYAYxAX.s:510    .text:0000000000000280 .L0 
     /tmp/ccYAYxAX.s:516    .text:0000000000000280 _ZN6ThreadC2Ev
     /tmp/ccYAYxAX.s:519    .text:0000000000000280 .L0 
     /tmp/ccYAYxAX.s:521    .text:0000000000000280 .L0 
     /tmp/ccYAYxAX.s:522    .text:0000000000000284 .L0 
     /tmp/ccYAYxAX.s:524    .text:0000000000000288 .L0 
     /tmp/ccYAYxAX.s:526    .text:000000000000028c .L0 
     /tmp/ccYAYxAX.s:529    .text:000000000000028c .L0 
     /tmp/ccYAYxAX.s:537    .text:00000000000002ac .L0 
     /tmp/ccYAYxAX.s:538    .text:00000000000002b0 .L0 
     /tmp/ccYAYxAX.s:539    .text:00000000000002b0 .L0 
     /tmp/ccYAYxAX.s:541    .text:00000000000002b4 .L0 
     /tmp/ccYAYxAX.s:543    .text:00000000000002b8 .L0 
     /tmp/ccYAYxAX.s:516    .text:0000000000000280 _ZN6ThreadC1Ev
     /tmp/ccYAYxAX.s:551    .text:00000000000002b8 _ZN6Thread4joinEv
     /tmp/ccYAYxAX.s:554    .text:00000000000002b8 .L0 
     /tmp/ccYAYxAX.s:556    .text:00000000000002b8 .L0 
GAS LISTING /tmp/ccYAYxAX.s 			page 24


     /tmp/ccYAYxAX.s:557    .text:00000000000002bc .L0 
     /tmp/ccYAYxAX.s:560    .text:00000000000002c4 .L0 
     /tmp/ccYAYxAX.s:561    .text:00000000000002c4 .L0 
     /tmp/ccYAYxAX.s:563    .text:00000000000002c8 .L0 
     /tmp/ccYAYxAX.s:565    .text:00000000000002c8 .L0 
     /tmp/ccYAYxAX.s:566    .text:00000000000002c8 .L0 
     /tmp/ccYAYxAX.s:571    .text:00000000000002d4 .L0 
     /tmp/ccYAYxAX.s:572    .text:00000000000002d8 .L0 
     /tmp/ccYAYxAX.s:574    .text:00000000000002dc .L0 
     /tmp/ccYAYxAX.s:575    .text:00000000000002dc .L0 
     /tmp/ccYAYxAX.s:577    .text:00000000000002e0 .L0 
     /tmp/ccYAYxAX.s:579    .text:00000000000002e4 .L0 
     /tmp/ccYAYxAX.s:585    .text:00000000000002e4 _ZN6Thread5sleepEm
     /tmp/ccYAYxAX.s:588    .text:00000000000002e4 .L0 
     /tmp/ccYAYxAX.s:590    .text:00000000000002e4 .L0 
     /tmp/ccYAYxAX.s:591    .text:00000000000002e8 .L0 
     /tmp/ccYAYxAX.s:594    .text:00000000000002f0 .L0 
     /tmp/ccYAYxAX.s:595    .text:00000000000002f0 .L0 
     /tmp/ccYAYxAX.s:597    .text:00000000000002f4 .L0 
     /tmp/ccYAYxAX.s:599    .text:00000000000002f4 .L0 
     /tmp/ccYAYxAX.s:600    .text:00000000000002f4 .L0 
     /tmp/ccYAYxAX.s:603    .text:00000000000002fc .L0 
     /tmp/ccYAYxAX.s:604    .text:0000000000000300 .L0 
     /tmp/ccYAYxAX.s:606    .text:0000000000000304 .L0 
     /tmp/ccYAYxAX.s:607    .text:0000000000000304 .L0 
     /tmp/ccYAYxAX.s:609    .text:0000000000000308 .L0 
     /tmp/ccYAYxAX.s:611    .text:000000000000030c .L0 
     /tmp/ccYAYxAX.s:617    .text:000000000000030c _ZN9SemaphoreC2Ej
     /tmp/ccYAYxAX.s:620    .text:000000000000030c .L0 
     /tmp/ccYAYxAX.s:622    .text:000000000000030c .L0 
     /tmp/ccYAYxAX.s:623    .text:0000000000000310 .L0 
     /tmp/ccYAYxAX.s:626    .text:0000000000000318 .L0 
     /tmp/ccYAYxAX.s:627    .text:0000000000000318 .L0 
     /tmp/ccYAYxAX.s:629    .text:000000000000031c .L0 
     /tmp/ccYAYxAX.s:632    .text:000000000000031c .L0 
     /tmp/ccYAYxAX.s:636    .text:000000000000032c .L0 
     /tmp/ccYAYxAX.s:637    .text:000000000000032c .L0 
     /tmp/ccYAYxAX.s:643    .text:0000000000000338 .L0 
     /tmp/ccYAYxAX.s:644    .text:000000000000033c .L0 
     /tmp/ccYAYxAX.s:646    .text:0000000000000340 .L0 
     /tmp/ccYAYxAX.s:647    .text:0000000000000340 .L0 
     /tmp/ccYAYxAX.s:649    .text:0000000000000344 .L0 
     /tmp/ccYAYxAX.s:651    .text:0000000000000348 .L0 
     /tmp/ccYAYxAX.s:617    .text:000000000000030c _ZN9SemaphoreC1Ej
     /tmp/ccYAYxAX.s:659    .text:0000000000000348 _ZN9Semaphore4waitEv
     /tmp/ccYAYxAX.s:662    .text:0000000000000348 .L0 
     /tmp/ccYAYxAX.s:664    .text:0000000000000348 .L0 
     /tmp/ccYAYxAX.s:665    .text:000000000000034c .L0 
     /tmp/ccYAYxAX.s:668    .text:0000000000000354 .L0 
     /tmp/ccYAYxAX.s:669    .text:0000000000000354 .L0 
     /tmp/ccYAYxAX.s:671    .text:0000000000000358 .L0 
     /tmp/ccYAYxAX.s:673    .text:0000000000000358 .L0 
     /tmp/ccYAYxAX.s:674    .text:0000000000000358 .L0 
     /tmp/ccYAYxAX.s:679    .text:0000000000000364 .L0 
     /tmp/ccYAYxAX.s:680    .text:0000000000000368 .L0 
     /tmp/ccYAYxAX.s:682    .text:000000000000036c .L0 
     /tmp/ccYAYxAX.s:683    .text:000000000000036c .L0 
GAS LISTING /tmp/ccYAYxAX.s 			page 25


     /tmp/ccYAYxAX.s:685    .text:0000000000000370 .L0 
     /tmp/ccYAYxAX.s:687    .text:0000000000000374 .L0 
     /tmp/ccYAYxAX.s:693    .text:0000000000000374 _ZN9Semaphore6signalEv
     /tmp/ccYAYxAX.s:696    .text:0000000000000374 .L0 
     /tmp/ccYAYxAX.s:698    .text:0000000000000374 .L0 
     /tmp/ccYAYxAX.s:699    .text:0000000000000378 .L0 
     /tmp/ccYAYxAX.s:702    .text:0000000000000380 .L0 
     /tmp/ccYAYxAX.s:703    .text:0000000000000380 .L0 
     /tmp/ccYAYxAX.s:705    .text:0000000000000384 .L0 
     /tmp/ccYAYxAX.s:707    .text:0000000000000384 .L0 
     /tmp/ccYAYxAX.s:708    .text:0000000000000384 .L0 
     /tmp/ccYAYxAX.s:713    .text:0000000000000390 .L0 
     /tmp/ccYAYxAX.s:714    .text:0000000000000394 .L0 
     /tmp/ccYAYxAX.s:716    .text:0000000000000398 .L0 
     /tmp/ccYAYxAX.s:717    .text:0000000000000398 .L0 
     /tmp/ccYAYxAX.s:719    .text:000000000000039c .L0 
     /tmp/ccYAYxAX.s:721    .text:00000000000003a0 .L0 
     /tmp/ccYAYxAX.s:727    .text:00000000000003a0 _ZN14PeriodicThread9terminateEv
     /tmp/ccYAYxAX.s:730    .text:00000000000003a0 .L0 
     /tmp/ccYAYxAX.s:732    .text:00000000000003a0 .L0 
     /tmp/ccYAYxAX.s:733    .text:00000000000003a4 .L0 
     /tmp/ccYAYxAX.s:735    .text:00000000000003a8 .L0 
     /tmp/ccYAYxAX.s:737    .text:00000000000003ac .L0 
     /tmp/ccYAYxAX.s:739    .text:00000000000003ac .L0 
     /tmp/ccYAYxAX.s:740    .text:00000000000003ac .L0 
     /tmp/ccYAYxAX.s:742    .text:00000000000003b0 .L0 
     /tmp/ccYAYxAX.s:743    .text:00000000000003b4 .L0 
     /tmp/ccYAYxAX.s:744    .text:00000000000003b4 .L0 
     /tmp/ccYAYxAX.s:746    .text:00000000000003b8 .L0 
     /tmp/ccYAYxAX.s:748    .text:00000000000003bc .L0 
     /tmp/ccYAYxAX.s:754    .text:00000000000003bc _ZN14PeriodicThreadC2Em
     /tmp/ccYAYxAX.s:757    .text:00000000000003bc .L0 
     /tmp/ccYAYxAX.s:759    .text:00000000000003bc .L0 
     /tmp/ccYAYxAX.s:760    .text:00000000000003c0 .L0 
     /tmp/ccYAYxAX.s:765    .text:00000000000003d0 .L0 
     /tmp/ccYAYxAX.s:766    .text:00000000000003d0 .L0 
     /tmp/ccYAYxAX.s:767    .text:00000000000003d0 .L0 
     /tmp/ccYAYxAX.s:768    .text:00000000000003d0 .L0 
     /tmp/ccYAYxAX.s:770    .text:00000000000003d4 .L0 
     /tmp/ccYAYxAX.s:775    .text:00000000000003dc .L0 
     /tmp/ccYAYxAX.s:780    .text:00000000000003f0 .L0 
     /tmp/ccYAYxAX.s:781    .text:00000000000003f0 .L0 
     /tmp/ccYAYxAX.s:784    .text:00000000000003f4 .L0 
     /tmp/ccYAYxAX.s:785    .text:00000000000003f8 .L0 
     /tmp/ccYAYxAX.s:787    .text:00000000000003fc .L0 
     /tmp/ccYAYxAX.s:788    .text:00000000000003fc .L0 
     /tmp/ccYAYxAX.s:790    .text:0000000000000400 .L0 
     /tmp/ccYAYxAX.s:793    .text:0000000000000404 .L0 
     /tmp/ccYAYxAX.s:796    .text:0000000000000408 .L0 
     /tmp/ccYAYxAX.s:798    .text:000000000000040c .L0 
     /tmp/ccYAYxAX.s:754    .text:00000000000003bc _ZN14PeriodicThreadC1Em
     /tmp/ccYAYxAX.s:806    .text:000000000000040c _ZN7Console4getcEv
     /tmp/ccYAYxAX.s:809    .text:000000000000040c .L0 
     /tmp/ccYAYxAX.s:810    .text:000000000000040c .L0 
     /tmp/ccYAYxAX.s:811    .text:0000000000000410 .L0 
     /tmp/ccYAYxAX.s:814    .text:0000000000000418 .L0 
     /tmp/ccYAYxAX.s:815    .text:0000000000000418 .L0 
GAS LISTING /tmp/ccYAYxAX.s 			page 26


     /tmp/ccYAYxAX.s:817    .text:000000000000041c .L0 
     /tmp/ccYAYxAX.s:819    .text:000000000000041c .L0 
     /tmp/ccYAYxAX.s:820    .text:000000000000041c .L0 
     /tmp/ccYAYxAX.s:823    .text:0000000000000424 .L0 
     /tmp/ccYAYxAX.s:824    .text:0000000000000428 .L0 
     /tmp/ccYAYxAX.s:826    .text:000000000000042c .L0 
     /tmp/ccYAYxAX.s:827    .text:000000000000042c .L0 
     /tmp/ccYAYxAX.s:829    .text:0000000000000430 .L0 
     /tmp/ccYAYxAX.s:831    .text:0000000000000434 .L0 
     /tmp/ccYAYxAX.s:837    .text:0000000000000434 _ZN7Console4putcEc
     /tmp/ccYAYxAX.s:840    .text:0000000000000434 .L0 
     /tmp/ccYAYxAX.s:842    .text:0000000000000434 .L0 
     /tmp/ccYAYxAX.s:843    .text:0000000000000438 .L0 
     /tmp/ccYAYxAX.s:846    .text:0000000000000440 .L0 
     /tmp/ccYAYxAX.s:847    .text:0000000000000440 .L0 
     /tmp/ccYAYxAX.s:849    .text:0000000000000444 .L0 
     /tmp/ccYAYxAX.s:851    .text:0000000000000444 .L0 
     /tmp/ccYAYxAX.s:852    .text:0000000000000444 .L0 
     /tmp/ccYAYxAX.s:855    .text:000000000000044c .L0 
     /tmp/ccYAYxAX.s:856    .text:0000000000000450 .L0 
     /tmp/ccYAYxAX.s:858    .text:0000000000000454 .L0 
     /tmp/ccYAYxAX.s:859    .text:0000000000000454 .L0 
     /tmp/ccYAYxAX.s:861    .text:0000000000000458 .L0 
     /tmp/ccYAYxAX.s:863    .text:000000000000045c .L0 
     /tmp/ccYAYxAX.s:32     .text._ZN6Thread3runEv:0000000000000018 .L0 
     /tmp/ccYAYxAX.s:57     .text._ZN14PeriodicThread18periodicActivationEv:0000000000000018 .L0 
     /tmp/ccYAYxAX.s:905    .text:000000000000045c .L0 
     /tmp/ccYAYxAX.s:104    .text:000000000000002c .L0 
     /tmp/ccYAYxAX.s:163    .text:0000000000000080 .L0 
     /tmp/ccYAYxAX.s:342    .text:000000000000018c .L0 
     /tmp/ccYAYxAX.s:428    .text:0000000000000200 .L0 
     /tmp/ccYAYxAX.s:529    .text:000000000000028c .L0 
     /tmp/ccYAYxAX.s:532    .text:000000000000029c .L0 
     /tmp/ccYAYxAX.s:632    .text:000000000000031c .L0 
     /tmp/ccYAYxAX.s:777    .text:00000000000003e4 .L0 
     /tmp/ccYAYxAX.s:138    .text:000000000000006c .L10
     /tmp/ccYAYxAX.s:306    .text:0000000000000168 .L19
     /tmp/ccYAYxAX.s:284    .text:0000000000000140 .L21
     /tmp/ccYAYxAX.s:2477   .debug_abbrev:0000000000000000 .Ldebug_abbrev0
     /tmp/ccYAYxAX.s:3988   .debug_str:0000000000000725 .LASF135
     /tmp/ccYAYxAX.s:3962   .debug_str:0000000000000659 .LASF136
     /tmp/ccYAYxAX.s:3822   .debug_str:000000000000023c .LASF137
     /tmp/ccYAYxAX.s:3732   .debug_ranges:0000000000000000 .Ldebug_ranges0
     /tmp/ccYAYxAX.s:3742   .debug_line:0000000000000000 .Ldebug_line0
     /tmp/ccYAYxAX.s:3908   .debug_str:00000000000004a9 .LASF0
     /tmp/ccYAYxAX.s:3920   .debug_str:00000000000004fe .LASF1
     /tmp/ccYAYxAX.s:3890   .debug_str:000000000000043a .LASF2
     /tmp/ccYAYxAX.s:3854   .debug_str:0000000000000349 .LASF4
     /tmp/ccYAYxAX.s:3972   .debug_str:00000000000006ab .LASF3
     /tmp/ccYAYxAX.s:3766   .debug_str:00000000000000a6 .LASF5
     /tmp/ccYAYxAX.s:3804   .debug_str:00000000000001c6 .LASF6
     /tmp/ccYAYxAX.s:3926   .debug_str:0000000000000545 .LASF7
     /tmp/ccYAYxAX.s:3906   .debug_str:0000000000000496 .LASF8
     /tmp/ccYAYxAX.s:4006   .debug_str:000000000000085d .LASF9
     /tmp/ccYAYxAX.s:3836   .debug_str:00000000000002b7 .LASF10
     /tmp/ccYAYxAX.s:3938   .debug_str:000000000000058f .LASF11
     /tmp/ccYAYxAX.s:3992   .debug_str:00000000000007f5 .LASF12
GAS LISTING /tmp/ccYAYxAX.s 			page 27


     /tmp/ccYAYxAX.s:3770   .debug_str:00000000000000ba .LASF13
     /tmp/ccYAYxAX.s:3752   .debug_str:000000000000003e .LASF14
     /tmp/ccYAYxAX.s:3784   .debug_str:000000000000012d .LASF15
     /tmp/ccYAYxAX.s:3968   .debug_str:000000000000068c .LASF16
     /tmp/ccYAYxAX.s:3796   .debug_str:000000000000019a .LASF17
     /tmp/ccYAYxAX.s:3744   .debug_str:0000000000000000 .LASF18
     /tmp/ccYAYxAX.s:3814   .debug_str:0000000000000223 .LASF19
     /tmp/ccYAYxAX.s:3852   .debug_str:0000000000000344 .LASF20
     /tmp/ccYAYxAX.s:3982   .debug_str:00000000000006ef .LASF22
     /tmp/ccYAYxAX.s:4004   .debug_str:0000000000000858 .LASF21
     /tmp/ccYAYxAX.s:3774   .debug_str:00000000000000dc .LASF23
     /tmp/ccYAYxAX.s:3746   .debug_str:0000000000000009 .LASF24
     /tmp/ccYAYxAX.s:4002   .debug_str:0000000000000847 .LASF26
     /tmp/ccYAYxAX.s:3818   .debug_str:0000000000000232 .LASF25
     /tmp/ccYAYxAX.s:3954   .debug_str:0000000000000610 .LASF27
     /tmp/ccYAYxAX.s:3930   .debug_str:000000000000055d .LASF28
     /tmp/ccYAYxAX.s:3846   .debug_str:0000000000000313 .LASF29
     /tmp/ccYAYxAX.s:3798   .debug_str:00000000000001b0 .LASF30
     /tmp/ccYAYxAX.s:3998   .debug_str:000000000000082e .LASF31
     /tmp/ccYAYxAX.s:4016   .debug_str:00000000000008aa .LASF32
     /tmp/ccYAYxAX.s:3768   .debug_str:00000000000000ad .LASF33
     /tmp/ccYAYxAX.s:3976   .debug_str:00000000000006c2 .LASF84
     /tmp/ccYAYxAX.s:3826   .debug_str:0000000000000263 .LASF86
     /tmp/ccYAYxAX.s:4010   .debug_str:000000000000087d .LASF34
     /tmp/ccYAYxAX.s:4014   .debug_str:0000000000000895 .LASF35
     /tmp/ccYAYxAX.s:3966   .debug_str:0000000000000682 .LASF36
     /tmp/ccYAYxAX.s:3872   .debug_str:00000000000003cb .LASF37
     /tmp/ccYAYxAX.s:3864   .debug_str:000000000000038d .LASF38
     /tmp/ccYAYxAX.s:3748   .debug_str:000000000000000f .LASF39
     /tmp/ccYAYxAX.s:3894   .debug_str:0000000000000450 .LASF40
     /tmp/ccYAYxAX.s:3786   .debug_str:0000000000000139 .LASF41
     /tmp/ccYAYxAX.s:3904   .debug_str:000000000000048e .LASF42
     /tmp/ccYAYxAX.s:3888   .debug_str:0000000000000433 .LASF43
     /tmp/ccYAYxAX.s:3850   .debug_str:000000000000033c .LASF44
     /tmp/ccYAYxAX.s:3754   .debug_str:000000000000004e .LASF117
     /tmp/ccYAYxAX.s:3778   .debug_str:00000000000000fe .LASF138
     /tmp/ccYAYxAX.s:3896   .debug_str:0000000000000458 .LASF61
     /tmp/ccYAYxAX.s:3922   .debug_str:0000000000000511 .LASF139
     /tmp/ccYAYxAX.s:3928   .debug_str:0000000000000558 .LASF45
     /tmp/ccYAYxAX.s:3878   .debug_str:0000000000000403 .LASF46
     /tmp/ccYAYxAX.s:3880   .debug_str:000000000000040d .LASF140
     /tmp/ccYAYxAX.s:3802   .debug_str:00000000000001c1 .LASF47
     /tmp/ccYAYxAX.s:3884   .debug_str:0000000000000421 .LASF48
     /tmp/ccYAYxAX.s:3934   .debug_str:0000000000000573 .LASF49
     /tmp/ccYAYxAX.s:3980   .debug_str:00000000000006dc .LASF50
     /tmp/ccYAYxAX.s:3958   .debug_str:0000000000000637 .LASF51
     /tmp/ccYAYxAX.s:3900   .debug_str:000000000000046f .LASF66
     /tmp/ccYAYxAX.s:3844   .debug_str:00000000000002fc .LASF68
     /tmp/ccYAYxAX.s:3986   .debug_str:000000000000071c .LASF52
     /tmp/ccYAYxAX.s:3810   .debug_str:00000000000001f7 .LASF53
     /tmp/ccYAYxAX.s:3892   .debug_str:0000000000000448 .LASF54
     /tmp/ccYAYxAX.s:3806   .debug_str:00000000000001cd .LASF55
     /tmp/ccYAYxAX.s:3990   .debug_str:00000000000007e9 .LASF56
     /tmp/ccYAYxAX.s:3750   .debug_str:0000000000000020 .LASF57
     /tmp/ccYAYxAX.s:3780   .debug_str:0000000000000111 .LASF58
     /tmp/ccYAYxAX.s:3870   .debug_str:00000000000003b0 .LASF59
     /tmp/ccYAYxAX.s:3820   .debug_str:0000000000000237 .LASF60
GAS LISTING /tmp/ccYAYxAX.s 			page 28


     /tmp/ccYAYxAX.s:3932   .debug_str:0000000000000564 .LASF62
     /tmp/ccYAYxAX.s:4018   .debug_str:00000000000008b7 .LASF73
     /tmp/ccYAYxAX.s:3758   .debug_str:0000000000000062 .LASF63
     /tmp/ccYAYxAX.s:3984   .debug_str:00000000000006fc .LASF64
     /tmp/ccYAYxAX.s:3762   .debug_str:000000000000007e .LASF65
     /tmp/ccYAYxAX.s:3860   .debug_str:000000000000036f .LASF70
     /tmp/ccYAYxAX.s:3792   .debug_str:000000000000015c .LASF141
     /tmp/ccYAYxAX.s:4024   .debug_str:00000000000008f3 .LASF67
     /tmp/ccYAYxAX.s:3858   .debug_str:0000000000000357 .LASF69
     /tmp/ccYAYxAX.s:3840   .debug_str:00000000000002d8 .LASF89
     /tmp/ccYAYxAX.s:3856   .debug_str:0000000000000350 .LASF71
     /tmp/ccYAYxAX.s:4000   .debug_str:0000000000000840 .LASF72
     /tmp/ccYAYxAX.s:3898   .debug_str:000000000000045d .LASF74
     /tmp/ccYAYxAX.s:3886   .debug_str:0000000000000426 .LASF95
     /tmp/ccYAYxAX.s:3942   .debug_str:00000000000005a8 .LASF75
     /tmp/ccYAYxAX.s:3866   .debug_str:0000000000000393 .LASF76
     /tmp/ccYAYxAX.s:3914   .debug_str:00000000000004d7 .LASF77
     /tmp/ccYAYxAX.s:3918   .debug_str:00000000000004f8 .LASF78
     /tmp/ccYAYxAX.s:3834   .debug_str:00000000000002a4 .LASF79
     /tmp/ccYAYxAX.s:3974   .debug_str:00000000000006bd .LASF80
     /tmp/ccYAYxAX.s:3916   .debug_str:00000000000004e6 .LASF81
     /tmp/ccYAYxAX.s:3910   .debug_str:00000000000004b6 .LASF142
     /tmp/ccYAYxAX.s:3828   .debug_str:0000000000000271 .LASF143
     /tmp/ccYAYxAX.s:4030   .debug_str:0000000000000921 .LASF82
     /tmp/ccYAYxAX.s:3838   .debug_str:00000000000002c5 .LASF83
     /tmp/ccYAYxAX.s:3936   .debug_str:0000000000000578 .LASF85
     /tmp/ccYAYxAX.s:3950   .debug_str:00000000000005de .LASF87
     /tmp/ccYAYxAX.s:3812   .debug_str:0000000000000214 .LASF88
     /tmp/ccYAYxAX.s:4022   .debug_str:00000000000008e2 .LASF90
     /tmp/ccYAYxAX.s:4026   .debug_str:0000000000000903 .LASF91
     /tmp/ccYAYxAX.s:3832   .debug_str:000000000000029f .LASF92
     /tmp/ccYAYxAX.s:3842   .debug_str:00000000000002f2 .LASF93
     /tmp/ccYAYxAX.s:3868   .debug_str:000000000000039b .LASF94
     /tmp/ccYAYxAX.s:3764   .debug_str:0000000000000096 .LASF96
     /tmp/ccYAYxAX.s:3996   .debug_str:000000000000081c .LASF97
     /tmp/ccYAYxAX.s:3960   .debug_str:000000000000064e .LASF98
     /tmp/ccYAYxAX.s:3782   .debug_str:000000000000011b .LASF99
     /tmp/ccYAYxAX.s:3964   .debug_str:000000000000066d .LASF100
     /tmp/ccYAYxAX.s:3956   .debug_str:0000000000000620 .LASF101
     /tmp/ccYAYxAX.s:4008   .debug_str:000000000000086d .LASF144
     /tmp/ccYAYxAX.s:838    .text:0000000000000434 .LFB54
     /tmp/ccYAYxAX.s:864    .text:000000000000045c .LFE54
     /tmp/ccYAYxAX.s:3426   .debug_loc:0000000000000000 .LLST17
     /tmp/ccYAYxAX.s:853    .text:000000000000044c .LVL56
     /tmp/ccYAYxAX.s:807    .text:000000000000040c .LFB53
     /tmp/ccYAYxAX.s:832    .text:0000000000000434 .LFE53
     /tmp/ccYAYxAX.s:821    .text:0000000000000424 .LVL54
     /tmp/ccYAYxAX.s:268    .text:0000000000000128 .LFB52
     /tmp/ccYAYxAX.s:320    .text:000000000000017c .LFE52
     /tmp/ccYAYxAX.s:3946   .debug_str:00000000000005d4 .LASF102
     /tmp/ccYAYxAX.s:3440   .debug_loc:0000000000000039 .LLST5
     /tmp/ccYAYxAX.s:298    .text:0000000000000158 .LVL19
     /tmp/ccYAYxAX.s:303    .text:0000000000000164 .LVL20
     /tmp/ccYAYxAX.s:3940   .debug_str:000000000000059e .LASF103
     /tmp/ccYAYxAX.s:3994   .debug_str:0000000000000804 .LASF104
     /tmp/ccYAYxAX.s:229    .text:00000000000000e8 .LFB51
     /tmp/ccYAYxAX.s:262    .text:0000000000000128 .LFE51
GAS LISTING /tmp/ccYAYxAX.s 			page 29


     /tmp/ccYAYxAX.s:3458   .debug_loc:0000000000000085 .LLST4
     /tmp/ccYAYxAX.s:246    .text:0000000000000108 .LVL14
     /tmp/ccYAYxAX.s:249    .text:0000000000000114 .LVL15
     /tmp/ccYAYxAX.s:3912   .debug_str:00000000000004bf .LASF105
     /tmp/ccYAYxAX.s:149    .text:0000000000000070 .LFB49
     /tmp/ccYAYxAX.s:182    .text:00000000000000a8 .LFE49
     /tmp/ccYAYxAX.s:3476   .debug_loc:00000000000000d1 .LLST2
     /tmp/ccYAYxAX.s:170    .text:0000000000000098 .LVL8
     /tmp/ccYAYxAX.s:3830   .debug_str:0000000000000287 .LASF106
     /tmp/ccYAYxAX.s:755    .text:00000000000003bc .LFB46
     /tmp/ccYAYxAX.s:799    .text:000000000000040c .LFE46
     /tmp/ccYAYxAX.s:3490   .debug_loc:000000000000010a .LLST15
     /tmp/ccYAYxAX.s:3508   .debug_loc:0000000000000156 .LLST16
     /tmp/ccYAYxAX.s:776    .text:00000000000003e4 .LVL51
     /tmp/ccYAYxAX.s:728    .text:00000000000003a0 .LFB44
     /tmp/ccYAYxAX.s:749    .text:00000000000003bc .LFE44
     /tmp/ccYAYxAX.s:694    .text:0000000000000374 .LFB43
     /tmp/ccYAYxAX.s:722    .text:00000000000003a0 .LFE43
     /tmp/ccYAYxAX.s:3527   .debug_loc:00000000000001a3 .LLST14
     /tmp/ccYAYxAX.s:711    .text:0000000000000390 .LVL48
     /tmp/ccYAYxAX.s:660    .text:0000000000000348 .LFB42
     /tmp/ccYAYxAX.s:688    .text:0000000000000374 .LFE42
     /tmp/ccYAYxAX.s:3541   .debug_loc:00000000000001dc .LLST13
     /tmp/ccYAYxAX.s:677    .text:0000000000000364 .LVL45
     /tmp/ccYAYxAX.s:4032   .debug_str:0000000000000927 .LASF107
     /tmp/ccYAYxAX.s:377    .text:00000000000001b4 .LFB41
     /tmp/ccYAYxAX.s:410    .text:00000000000001f4 .LFE41
     /tmp/ccYAYxAX.s:3555   .debug_loc:0000000000000215 .LLST7
     /tmp/ccYAYxAX.s:394    .text:00000000000001d4 .LVL26
     /tmp/ccYAYxAX.s:397    .text:00000000000001e0 .LVL27
     /tmp/ccYAYxAX.s:3772   .debug_str:00000000000000ca .LASF108
     /tmp/ccYAYxAX.s:326    .text:000000000000017c .LFB39
     /tmp/ccYAYxAX.s:361    .text:00000000000001b4 .LFE39
     /tmp/ccYAYxAX.s:3573   .debug_loc:0000000000000261 .LLST6
     /tmp/ccYAYxAX.s:349    .text:00000000000001a4 .LVL24
     /tmp/ccYAYxAX.s:3948   .debug_str:00000000000005d9 .LASF109
     /tmp/ccYAYxAX.s:3760   .debug_str:000000000000006c .LASF110
     /tmp/ccYAYxAX.s:618    .text:000000000000030c .LFB36
     /tmp/ccYAYxAX.s:652    .text:0000000000000348 .LFE36
     /tmp/ccYAYxAX.s:3587   .debug_loc:000000000000029a .LLST11
     /tmp/ccYAYxAX.s:3607   .debug_loc:00000000000002e8 .LLST12
     /tmp/ccYAYxAX.s:640    .text:0000000000000338 .LVL42
     /tmp/ccYAYxAX.s:586    .text:00000000000002e4 .LFB34
     /tmp/ccYAYxAX.s:612    .text:000000000000030c .LFE34
     /tmp/ccYAYxAX.s:3621   .debug_loc:0000000000000321 .LLST10
     /tmp/ccYAYxAX.s:601    .text:00000000000002fc .LVL39
     /tmp/ccYAYxAX.s:552    .text:00000000000002b8 .LFB33
     /tmp/ccYAYxAX.s:580    .text:00000000000002e4 .LFE33
     /tmp/ccYAYxAX.s:3635   .debug_loc:000000000000035a .LLST9
     /tmp/ccYAYxAX.s:569    .text:00000000000002d4 .LVL37
     /tmp/ccYAYxAX.s:4012   .debug_str:0000000000000886 .LASF111
     /tmp/ccYAYxAX.s:517    .text:0000000000000280 .LFB31
     /tmp/ccYAYxAX.s:544    .text:00000000000002b8 .LFE31
     /tmp/ccYAYxAX.s:486    .text:0000000000000258 .LFB29
     /tmp/ccYAYxAX.s:511    .text:0000000000000280 .LFE29
     /tmp/ccYAYxAX.s:500    .text:0000000000000270 .LVL33
     /tmp/ccYAYxAX.s:450    .text:0000000000000224 .LFB28
GAS LISTING /tmp/ccYAYxAX.s 			page 30


     /tmp/ccYAYxAX.s:480    .text:0000000000000258 .LFE28
     /tmp/ccYAYxAX.s:3649   .debug_loc:0000000000000393 .LLST8
     /tmp/ccYAYxAX.s:469    .text:0000000000000248 .LVL32
     /tmp/ccYAYxAX.s:3756   .debug_str:0000000000000053 .LASF112
     /tmp/ccYAYxAX.s:190    .text:00000000000000a8 .LFB27
     /tmp/ccYAYxAX.s:223    .text:00000000000000e8 .LFE27
     /tmp/ccYAYxAX.s:3669   .debug_loc:00000000000003e1 .LLST3
     /tmp/ccYAYxAX.s:207    .text:00000000000000c8 .LVL10
     /tmp/ccYAYxAX.s:210    .text:00000000000000d4 .LVL11
     /tmp/ccYAYxAX.s:3882   .debug_str:0000000000000412 .LASF113
     /tmp/ccYAYxAX.s:98     .text:000000000000002c .LFB25
     /tmp/ccYAYxAX.s:141    .text:0000000000000070 .LFE25
     /tmp/ccYAYxAX.s:3687   .debug_loc:000000000000042d .LLST1
     /tmp/ccYAYxAX.s:3848   .debug_str:0000000000000325 .LASF114
     /tmp/ccYAYxAX.s:416    .text:00000000000001f4 .LFB22
     /tmp/ccYAYxAX.s:442    .text:0000000000000224 .LFE22
     /tmp/ccYAYxAX.s:62     .text:0000000000000000 .LFB20
     /tmp/ccYAYxAX.s:92     .text:000000000000002c .LFE20
     /tmp/ccYAYxAX.s:3701   .debug_loc:0000000000000466 .LLST0
     /tmp/ccYAYxAX.s:81     .text:000000000000001c .LVL3
     /tmp/ccYAYxAX.s:37     .text._ZN14PeriodicThread18periodicActivationEv:0000000000000000 .LFB8
     /tmp/ccYAYxAX.s:55     .text._ZN14PeriodicThread18periodicActivationEv:0000000000000018 .LFE8
     /tmp/ccYAYxAX.s:11     .text._ZN6Thread3runEv:0000000000000000 .LFB7
     /tmp/ccYAYxAX.s:30     .text._ZN6Thread3runEv:0000000000000018 .LFE7
     /tmp/ccYAYxAX.s:3824   .debug_str:000000000000025a .LASF115
     /tmp/ccYAYxAX.s:3970   .debug_str:00000000000006a2 .LASF116
     /tmp/ccYAYxAX.s:4020   .debug_str:00000000000008d2 .LASF118
     /tmp/ccYAYxAX.s:3862   .debug_str:0000000000000382 .LASF119
     /tmp/ccYAYxAX.s:3790   .debug_str:0000000000000155 .LASF120
     /tmp/ccYAYxAX.s:3902   .debug_str:0000000000000479 .LASF121
     /tmp/ccYAYxAX.s:3800   .debug_str:00000000000001b6 .LASF122
     /tmp/ccYAYxAX.s:3776   .debug_str:00000000000000ec .LASF123
     /tmp/ccYAYxAX.s:3788   .debug_str:000000000000014c .LASF124
     /tmp/ccYAYxAX.s:3876   .debug_str:00000000000003f0 .LASF125
     /tmp/ccYAYxAX.s:3978   .debug_str:00000000000006d2 .LASF126
     /tmp/ccYAYxAX.s:3794   .debug_str:0000000000000186 .LASF127
     /tmp/ccYAYxAX.s:3816   .debug_str:0000000000000229 .LASF128
     /tmp/ccYAYxAX.s:4028   .debug_str:000000000000090c .LASF129
     /tmp/ccYAYxAX.s:3952   .debug_str:0000000000000604 .LASF130
     /tmp/ccYAYxAX.s:3944   .debug_str:00000000000005bf .LASF131
     /tmp/ccYAYxAX.s:3874   .debug_str:00000000000003e0 .LASF132
     /tmp/ccYAYxAX.s:3924   .debug_str:0000000000000524 .LASF133
     /tmp/ccYAYxAX.s:3808   .debug_str:00000000000001e9 .LASF134
     /tmp/ccYAYxAX.s:841    .text:0000000000000434 .LVL55
     /tmp/ccYAYxAX.s:271    .text:0000000000000128 .LVL17
     /tmp/ccYAYxAX.s:283    .text:0000000000000140 .LVL18
     /tmp/ccYAYxAX.s:315    .text:0000000000000174 .LVL21
     /tmp/ccYAYxAX.s:232    .text:00000000000000e8 .LVL13
     /tmp/ccYAYxAX.s:257    .text:0000000000000120 .LVL16
     /tmp/ccYAYxAX.s:152    .text:0000000000000070 .LVL7
     /tmp/ccYAYxAX.s:758    .text:00000000000003bc .LVL50
     /tmp/ccYAYxAX.s:791    .text:0000000000000400 .LVL52
     /tmp/ccYAYxAX.s:794    .text:0000000000000404 .LVL53
     /tmp/ccYAYxAX.s:697    .text:0000000000000374 .LVL46
     /tmp/ccYAYxAX.s:709    .text:0000000000000388 .LVL47
     /tmp/ccYAYxAX.s:663    .text:0000000000000348 .LVL43
     /tmp/ccYAYxAX.s:675    .text:000000000000035c .LVL44
GAS LISTING /tmp/ccYAYxAX.s 			page 31


     /tmp/ccYAYxAX.s:380    .text:00000000000001b4 .LVL25
     /tmp/ccYAYxAX.s:405    .text:00000000000001ec .LVL28
     /tmp/ccYAYxAX.s:331    .text:000000000000017c .LVL22
     /tmp/ccYAYxAX.s:347    .text:000000000000019c .LVL23
     /tmp/ccYAYxAX.s:621    .text:000000000000030c .LVL40
     /tmp/ccYAYxAX.s:638    .text:0000000000000330 .LVL41
     /tmp/ccYAYxAX.s:589    .text:00000000000002e4 .LVL38
     /tmp/ccYAYxAX.s:555    .text:00000000000002b8 .LVL35
     /tmp/ccYAYxAX.s:567    .text:00000000000002cc .LVL36
     /tmp/ccYAYxAX.s:453    .text:0000000000000224 .LVL30
     /tmp/ccYAYxAX.s:467    .text:0000000000000240 .LVL31
     /tmp/ccYAYxAX.s:193    .text:00000000000000a8 .LVL9
     /tmp/ccYAYxAX.s:218    .text:00000000000000e0 .LVL12
     /tmp/ccYAYxAX.s:101    .text:000000000000002c .LVL4
     /tmp/ccYAYxAX.s:109    .text:000000000000003c .LVL5
     /tmp/ccYAYxAX.s:66     .text:0000000000000000 .LVL2
     /tmp/ccYAYxAX.s:906    .debug_info:0000000000000000 .Ldebug_info0
     /tmp/ccYAYxAX.s:5      .text:0000000000000000 .Ltext0
     /tmp/ccYAYxAX.s:900    .text:000000000000045c .Letext0
     /tmp/ccYAYxAX.s:364    .gcc_except_table:0000000000000000 .LLSDA39

UNDEFINED SYMBOLS
_ZdlPv
_Z10time_sleepm
_Z9sem_closeP4_sem
__gxx_personality_v0
_Z13thread_createPP3TCBPFvPvES2_
_Z15thread_dispatchv
_Z11thread_joinP3TCB
_Z8sem_openPP4_semj
_Z8sem_waitP4_sem
_Z10sem_signalP4_sem
_Z4getcv
_Z4putcc
