GAS LISTING /tmp/ccneZXpP.s 			page 1


   1              		.file	"syscall_cpp.cpp"
   2              		.option pic
   3              		.option norelax
   4              		.text
   5              	.Ltext0:
   6              		.section	.text._ZN6Thread3runEv,"axG",@progbits,_ZN6Thread3runEv,comdat
   7              		.align	2
   8              		.weak	_ZN6Thread3runEv
  10              	_ZN6Thread3runEv:
  11              	.LFB7:
  12              		.file 1 "src/../h/syscall_cpp.hpp"
   1:src/../h/syscall_cpp.hpp **** //
   2:src/../h/syscall_cpp.hpp **** // Created by os on 7/21/23.
   3:src/../h/syscall_cpp.hpp **** //
   4:src/../h/syscall_cpp.hpp **** #ifndef _syscall_cpp
   5:src/../h/syscall_cpp.hpp **** #define _syscall_cpp
   6:src/../h/syscall_cpp.hpp **** 
   7:src/../h/syscall_cpp.hpp **** 
   8:src/../h/syscall_cpp.hpp **** #include "syscall_c.hpp"
   9:src/../h/syscall_cpp.hpp **** 
  10:src/../h/syscall_cpp.hpp **** 
  11:src/../h/syscall_cpp.hpp **** void* operator new (size_t);
  12:src/../h/syscall_cpp.hpp **** void operator delete (void*);
  13:src/../h/syscall_cpp.hpp **** class Thread {
  14:src/../h/syscall_cpp.hpp **** public:
  15:src/../h/syscall_cpp.hpp ****     Thread (void (*body)(void*), void* arg);
  16:src/../h/syscall_cpp.hpp ****     virtual ~Thread ();
  17:src/../h/syscall_cpp.hpp ****     int start ();
  18:src/../h/syscall_cpp.hpp ****     void join();
  19:src/../h/syscall_cpp.hpp ****     static void dispatch ();
  20:src/../h/syscall_cpp.hpp ****     static int sleep (time_t);
  21:src/../h/syscall_cpp.hpp ****     static void wrapperPolymorphThread(void*);
  22:src/../h/syscall_cpp.hpp **** protected:
  23:src/../h/syscall_cpp.hpp ****     Thread ();
  24:src/../h/syscall_cpp.hpp ****     virtual void run () {}
  13              		.loc 1 24 18
  14              		.cfi_startproc
  15              	.LVL0:
  16 0000 130101FF 		addi	sp,sp,-16
  17              		.cfi_def_cfa_offset 16
  18 0004 23348100 		sd	s0,8(sp)
  19              		.cfi_offset 8, -8
  20 0008 13040101 		addi	s0,sp,16
  21              		.cfi_def_cfa 8, 0
  22              		.loc 1 24 26 is_stmt 0
  23 000c 03348100 		ld	s0,8(sp)
  24              		.cfi_restore 8
  25              		.cfi_def_cfa 2, 16
  26 0010 13010101 		addi	sp,sp,16
  27              		.cfi_def_cfa_offset 0
  28 0014 67800000 		jr	ra
  29              		.cfi_endproc
  30              	.LFE7:
  32              		.section	.text._ZN14PeriodicThread18periodicActivationEv,"axG",@progbits,_ZN14PeriodicThread18peri
  33              		.align	2
  34              		.weak	_ZN14PeriodicThread18periodicActivationEv
  36              	_ZN14PeriodicThread18periodicActivationEv:
GAS LISTING /tmp/ccneZXpP.s 			page 2


  37              	.LFB8:
  25:src/../h/syscall_cpp.hpp **** private:
  26:src/../h/syscall_cpp.hpp ****     thread_t myHandle;
  27:src/../h/syscall_cpp.hpp ****     void (*body)(void*); void* arg;
  28:src/../h/syscall_cpp.hpp **** };
  29:src/../h/syscall_cpp.hpp **** class Semaphore {
  30:src/../h/syscall_cpp.hpp **** public:
  31:src/../h/syscall_cpp.hpp ****     Semaphore (unsigned init = 1);
  32:src/../h/syscall_cpp.hpp ****     virtual ~Semaphore ();
  33:src/../h/syscall_cpp.hpp ****     int wait ();
  34:src/../h/syscall_cpp.hpp ****     int signal ();
  35:src/../h/syscall_cpp.hpp **** private:
  36:src/../h/syscall_cpp.hpp ****     sem_t myHandle;
  37:src/../h/syscall_cpp.hpp **** };
  38:src/../h/syscall_cpp.hpp **** class PeriodicThread : public Thread {
  39:src/../h/syscall_cpp.hpp **** public:
  40:src/../h/syscall_cpp.hpp ****     void terminate ();
  41:src/../h/syscall_cpp.hpp **** protected:
  42:src/../h/syscall_cpp.hpp ****     PeriodicThread (time_t period);
  43:src/../h/syscall_cpp.hpp ****     virtual void periodicActivation () {}
  38              		.loc 1 43 18 is_stmt 1
  39              		.cfi_startproc
  40              	.LVL1:
  41 0000 130101FF 		addi	sp,sp,-16
  42              		.cfi_def_cfa_offset 16
  43 0004 23348100 		sd	s0,8(sp)
  44              		.cfi_offset 8, -8
  45 0008 13040101 		addi	s0,sp,16
  46              		.cfi_def_cfa 8, 0
  47              		.loc 1 43 41 is_stmt 0
  48 000c 03348100 		ld	s0,8(sp)
  49              		.cfi_restore 8
  50              		.cfi_def_cfa 2, 16
  51 0010 13010101 		addi	sp,sp,16
  52              		.cfi_def_cfa_offset 0
  53 0014 67800000 		jr	ra
  54              		.cfi_endproc
  55              	.LFE8:
  57              		.text
  58              		.align	2
  59              		.globl	_ZN6Thread22wrapperPolymorphThreadEPv
  61              	_ZN6Thread22wrapperPolymorphThreadEPv:
  62              	.LFB20:
  63              		.file 2 "src/syscall_cpp.cpp"
   1:src/syscall_cpp.cpp **** //
   2:src/syscall_cpp.cpp **** // Created by os on 7/21/23.
   3:src/syscall_cpp.cpp **** //
   4:src/syscall_cpp.cpp **** 
   5:src/syscall_cpp.cpp **** #include "../h/syscall_cpp.hpp"
   6:src/syscall_cpp.cpp **** #include "../h/_sem.hpp"
   7:src/syscall_cpp.cpp **** 
   8:src/syscall_cpp.cpp **** 
   9:src/syscall_cpp.cpp **** void Thread::wrapperPolymorphThread(void* t){
  64              		.loc 2 9 45 is_stmt 1
  65              		.cfi_startproc
  66              	.LVL2:
  67 0000 130101FF 		addi	sp,sp,-16
GAS LISTING /tmp/ccneZXpP.s 			page 3


  68              		.cfi_def_cfa_offset 16
  69 0004 23341100 		sd	ra,8(sp)
  70 0008 23308100 		sd	s0,0(sp)
  71              		.cfi_offset 1, -8
  72              		.cfi_offset 8, -16
  73 000c 13040101 		addi	s0,sp,16
  74              		.cfi_def_cfa 8, 0
  10:src/syscall_cpp.cpp ****     ((Thread*)t)->run();
  75              		.loc 2 10 5
  76              		.loc 2 10 23 is_stmt 0
  77 0010 83370500 		ld	a5,0(a0)
  78 0014 83B70701 		ld	a5,16(a5)
  79              		.loc 2 10 22
  80 0018 E7800700 		jalr	a5
  81              	.LVL3:
  11:src/syscall_cpp.cpp **** }
  82              		.loc 2 11 1
  83 001c 83308100 		ld	ra,8(sp)
  84              		.cfi_restore 1
  85 0020 03340100 		ld	s0,0(sp)
  86              		.cfi_restore 8
  87              		.cfi_def_cfa 2, 16
  88 0024 13010101 		addi	sp,sp,16
  89              		.cfi_def_cfa_offset 0
  90 0028 67800000 		jr	ra
  91              		.cfi_endproc
  92              	.LFE20:
  94              		.align	2
  95              		.globl	_ZN6ThreadD2Ev
  97              	_ZN6ThreadD2Ev:
  98              	.LFB25:
  12:src/syscall_cpp.cpp **** 
  13:src/syscall_cpp.cpp **** 
  14:src/syscall_cpp.cpp **** Thread::Thread(void (*body)(void *), void *arg) :myHandle(nullptr), body(body), arg(arg){}
  15:src/syscall_cpp.cpp **** 
  16:src/syscall_cpp.cpp **** Thread::~Thread() {
  99              		.loc 2 16 1 is_stmt 1
 100              		.cfi_startproc
 101              		.cfi_personality 0x9b,DW.ref.__gxx_personality_v0
 102              		.cfi_lsda 0x1b,.LLSDA25
 103              	.LVL4:
 104 002c 130101FE 		addi	sp,sp,-32
 105              		.cfi_def_cfa_offset 32
 106 0030 233C1100 		sd	ra,24(sp)
 107 0034 23388100 		sd	s0,16(sp)
 108 0038 23349100 		sd	s1,8(sp)
 109              		.cfi_offset 1, -8
 110              		.cfi_offset 8, -16
 111              		.cfi_offset 9, -24
 112 003c 13040102 		addi	s0,sp,32
 113              		.cfi_def_cfa 8, 0
 114 0040 93040500 		mv	s1,a0
 115              	.LBB2:
 116              		.loc 2 16 17 is_stmt 0
 117 0044 97070000 		lla	a5,_ZTV6Thread+16
 117      93870700 
 118 004c 2330F500 		sd	a5,0(a0)
GAS LISTING /tmp/ccneZXpP.s 			page 4


  17:src/syscall_cpp.cpp ****     thread_join(myHandle);
 119              		.loc 2 17 5 is_stmt 1
 120              		.loc 2 17 16 is_stmt 0
 121 0050 03358500 		ld	a0,8(a0)
 122              	.LVL5:
 123 0054 97000000 		call	_Z11thread_joinP3TCB@plt
 123      E7800000 
 124              	.LVL6:
  18:src/syscall_cpp.cpp ****     delete myHandle;
 125              		.loc 2 18 5 is_stmt 1
 126              		.loc 2 18 12 is_stmt 0
 127 005c 03B58400 		ld	a0,8(s1)
 128              		.loc 2 18 20
 129 0060 63080500 		beqz	a0,.L7
 130              		.loc 2 18 12 discriminator 1
 131 0064 83370500 		ld	a5,0(a0)
 132 0068 83B78700 		ld	a5,8(a5)
 133 006c E7800700 		jalr	a5
 134              	.LVL7:
 135              	.L7:
 136              	.LBE2:
  19:src/syscall_cpp.cpp **** }
 137              		.loc 2 19 1
 138 0070 83308101 		ld	ra,24(sp)
 139              		.cfi_restore 1
 140 0074 03340101 		ld	s0,16(sp)
 141              		.cfi_restore 8
 142              		.cfi_def_cfa 2, 32
 143 0078 83348100 		ld	s1,8(sp)
 144              		.cfi_restore 9
 145              	.LVL8:
 146 007c 13010102 		addi	sp,sp,32
 147              		.cfi_def_cfa_offset 0
 148 0080 67800000 		jr	ra
 149              		.cfi_endproc
 150              	.LFE25:
 151              		.globl	__gxx_personality_v0
 152              		.section	.gcc_except_table,"a",@progbits
 153              	.LLSDA25:
 154 0000 FF       		.byte	0xff
 155 0001 FF       		.byte	0xff
 156 0002 03       		.byte	0x3
 157 0003 00       		.byte	0
 158              		.text
 160              		.globl	_ZN6ThreadD1Ev
 161              		.set	_ZN6ThreadD1Ev,_ZN6ThreadD2Ev
 162              		.align	2
 163              		.globl	_ZN14PeriodicThreadD2Ev
 165              	_ZN14PeriodicThreadD2Ev:
 166              	.LFB49:
  20:src/syscall_cpp.cpp **** 
  21:src/syscall_cpp.cpp **** int Thread::start() {
  22:src/syscall_cpp.cpp ****     return thread_create(&myHandle,this->body, this->arg);
  23:src/syscall_cpp.cpp **** }
  24:src/syscall_cpp.cpp **** 
  25:src/syscall_cpp.cpp **** void Thread::dispatch() {
  26:src/syscall_cpp.cpp ****     thread_dispatch();
GAS LISTING /tmp/ccneZXpP.s 			page 5


  27:src/syscall_cpp.cpp **** }
  28:src/syscall_cpp.cpp **** 
  29:src/syscall_cpp.cpp **** Thread::Thread():myHandle(nullptr),body(wrapperPolymorphThread),arg(this) {}
  30:src/syscall_cpp.cpp **** 
  31:src/syscall_cpp.cpp **** void Thread::join() {
  32:src/syscall_cpp.cpp ****     thread_join(myHandle);
  33:src/syscall_cpp.cpp **** }
  34:src/syscall_cpp.cpp **** 
  35:src/syscall_cpp.cpp **** int Thread::sleep(time_t t) {
  36:src/syscall_cpp.cpp ****     return time_sleep(t);
  37:src/syscall_cpp.cpp **** }
  38:src/syscall_cpp.cpp **** 
  39:src/syscall_cpp.cpp **** Semaphore::Semaphore(unsigned int init) :myHandle(nullptr){
  40:src/syscall_cpp.cpp ****     sem_open(&this->myHandle, init);
  41:src/syscall_cpp.cpp **** }
  42:src/syscall_cpp.cpp **** 
  43:src/syscall_cpp.cpp **** Semaphore::~Semaphore() {
  44:src/syscall_cpp.cpp ****     sem_close(myHandle);
  45:src/syscall_cpp.cpp ****     //delete myHandle;
  46:src/syscall_cpp.cpp **** }
  47:src/syscall_cpp.cpp **** 
  48:src/syscall_cpp.cpp **** int Semaphore::wait() {
  49:src/syscall_cpp.cpp ****     return sem_wait(myHandle);
  50:src/syscall_cpp.cpp **** }
  51:src/syscall_cpp.cpp **** 
  52:src/syscall_cpp.cpp **** int Semaphore::signal() {
  53:src/syscall_cpp.cpp ****     return sem_signal(myHandle);
  54:src/syscall_cpp.cpp **** }
  55:src/syscall_cpp.cpp **** 
  56:src/syscall_cpp.cpp **** void PeriodicThread::terminate() {
  57:src/syscall_cpp.cpp ****     period=0;
  58:src/syscall_cpp.cpp **** }
  59:src/syscall_cpp.cpp **** 
  60:src/syscall_cpp.cpp **** PeriodicThread::PeriodicThread(time_t period) {
  61:src/syscall_cpp.cpp ****     this->period=period;
  62:src/syscall_cpp.cpp **** }
  63:src/syscall_cpp.cpp **** 
  64:src/syscall_cpp.cpp **** PeriodicThread::~PeriodicThread() {
 167              		.loc 2 64 1 is_stmt 1
 168              		.cfi_startproc
 169              	.LVL9:
 170 0084 130101FF 		addi	sp,sp,-16
 171              		.cfi_def_cfa_offset 16
 172 0088 23341100 		sd	ra,8(sp)
 173 008c 23308100 		sd	s0,0(sp)
 174              		.cfi_offset 1, -8
 175              		.cfi_offset 8, -16
 176 0090 13040101 		addi	s0,sp,16
 177              		.cfi_def_cfa 8, 0
 178              	.LBB3:
 179              		.loc 2 64 33 is_stmt 0
 180 0094 17070000 		lla	a4,_ZTV14PeriodicThread+16
 180      13070700 
 181 009c 2330E500 		sd	a4,0(a0)
  65:src/syscall_cpp.cpp ****     period=0;
 182              		.loc 2 65 5 is_stmt 1
 183              		.loc 2 65 11 is_stmt 0
GAS LISTING /tmp/ccneZXpP.s 			page 6


 184 00a0 23300502 		sd	zero,32(a0)
  64:src/syscall_cpp.cpp ****     period=0;
 185              		.loc 2 64 33
 186 00a4 97000000 		call	_ZN6ThreadD2Ev
 186      E7800000 
 187              	.LVL10:
 188              	.LBE3:
  66:src/syscall_cpp.cpp **** }
 189              		.loc 2 66 1
 190 00ac 83308100 		ld	ra,8(sp)
 191              		.cfi_restore 1
 192 00b0 03340100 		ld	s0,0(sp)
 193              		.cfi_restore 8
 194              		.cfi_def_cfa 2, 16
 195 00b4 13010101 		addi	sp,sp,16
 196              		.cfi_def_cfa_offset 0
 197 00b8 67800000 		jr	ra
 198              		.cfi_endproc
 199              	.LFE49:
 201              		.globl	_ZN14PeriodicThreadD1Ev
 202              		.set	_ZN14PeriodicThreadD1Ev,_ZN14PeriodicThreadD2Ev
 203              		.align	2
 204              		.globl	_ZN6ThreadD0Ev
 206              	_ZN6ThreadD0Ev:
 207              	.LFB27:
  16:src/syscall_cpp.cpp ****     thread_join(myHandle);
 208              		.loc 2 16 1 is_stmt 1
 209              		.cfi_startproc
 210              	.LVL11:
 211 00bc 130101FE 		addi	sp,sp,-32
 212              		.cfi_def_cfa_offset 32
 213 00c0 233C1100 		sd	ra,24(sp)
 214 00c4 23388100 		sd	s0,16(sp)
 215 00c8 23349100 		sd	s1,8(sp)
 216              		.cfi_offset 1, -8
 217              		.cfi_offset 8, -16
 218              		.cfi_offset 9, -24
 219 00cc 13040102 		addi	s0,sp,32
 220              		.cfi_def_cfa 8, 0
 221 00d0 93040500 		mv	s1,a0
  19:src/syscall_cpp.cpp **** 
 222              		.loc 2 19 1 is_stmt 0
 223 00d4 97000000 		call	_ZN6ThreadD1Ev
 223      E7800000 
 224              	.LVL12:
 225 00dc 13850400 		mv	a0,s1
 226 00e0 97000000 		call	_ZdlPv@plt
 226      E7800000 
 227              	.LVL13:
 228 00e8 83308101 		ld	ra,24(sp)
 229              		.cfi_restore 1
 230 00ec 03340101 		ld	s0,16(sp)
 231              		.cfi_restore 8
 232              		.cfi_def_cfa 2, 32
 233 00f0 83348100 		ld	s1,8(sp)
 234              		.cfi_restore 9
 235              	.LVL14:
GAS LISTING /tmp/ccneZXpP.s 			page 7


 236 00f4 13010102 		addi	sp,sp,32
 237              		.cfi_def_cfa_offset 0
 238 00f8 67800000 		jr	ra
 239              		.cfi_endproc
 240              	.LFE27:
 242              		.align	2
 243              		.globl	_ZN14PeriodicThreadD0Ev
 245              	_ZN14PeriodicThreadD0Ev:
 246              	.LFB51:
  64:src/syscall_cpp.cpp ****     period=0;
 247              		.loc 2 64 1 is_stmt 1
 248              		.cfi_startproc
 249              	.LVL15:
 250 00fc 130101FE 		addi	sp,sp,-32
 251              		.cfi_def_cfa_offset 32
 252 0100 233C1100 		sd	ra,24(sp)
 253 0104 23388100 		sd	s0,16(sp)
 254 0108 23349100 		sd	s1,8(sp)
 255              		.cfi_offset 1, -8
 256              		.cfi_offset 8, -16
 257              		.cfi_offset 9, -24
 258 010c 13040102 		addi	s0,sp,32
 259              		.cfi_def_cfa 8, 0
 260 0110 93040500 		mv	s1,a0
 261              		.loc 2 66 1 is_stmt 0
 262 0114 97000000 		call	_ZN14PeriodicThreadD1Ev
 262      E7800000 
 263              	.LVL16:
 264 011c 13850400 		mv	a0,s1
 265 0120 97000000 		call	_ZdlPv@plt
 265      E7800000 
 266              	.LVL17:
 267 0128 83308101 		ld	ra,24(sp)
 268              		.cfi_restore 1
 269 012c 03340101 		ld	s0,16(sp)
 270              		.cfi_restore 8
 271              		.cfi_def_cfa 2, 32
 272 0130 83348100 		ld	s1,8(sp)
 273              		.cfi_restore 9
 274              	.LVL18:
 275 0134 13010102 		addi	sp,sp,32
 276              		.cfi_def_cfa_offset 0
 277 0138 67800000 		jr	ra
 278              		.cfi_endproc
 279              	.LFE51:
 281              		.align	2
 282              		.globl	_ZN14PeriodicThread3runEv
 284              	_ZN14PeriodicThread3runEv:
 285              	.LFB52:
  67:src/syscall_cpp.cpp **** 
  68:src/syscall_cpp.cpp **** void PeriodicThread::run() {
 286              		.loc 2 68 28 is_stmt 1
 287              		.cfi_startproc
 288              	.LVL19:
 289 013c 130101FE 		addi	sp,sp,-32
 290              		.cfi_def_cfa_offset 32
 291 0140 233C1100 		sd	ra,24(sp)
GAS LISTING /tmp/ccneZXpP.s 			page 8


 292 0144 23388100 		sd	s0,16(sp)
 293 0148 23349100 		sd	s1,8(sp)
 294              		.cfi_offset 1, -8
 295              		.cfi_offset 8, -16
 296              		.cfi_offset 9, -24
 297 014c 13040102 		addi	s0,sp,32
 298              		.cfi_def_cfa 8, 0
 299 0150 93040500 		mv	s1,a0
 300              	.LVL20:
 301              	.L18:
  69:src/syscall_cpp.cpp ****     while(period!=0){
 302              		.loc 2 69 5
 303              		.loc 2 69 17
 304              		.loc 2 69 11 is_stmt 0
 305 0154 83B70402 		ld	a5,32(s1)
 306              		.loc 2 69 17
 307 0158 63820702 		beqz	a5,.L16
  70:src/syscall_cpp.cpp ****         periodicActivation();
 308              		.loc 2 70 9 is_stmt 1
 309              		.loc 2 70 28 is_stmt 0
 310 015c 83B70400 		ld	a5,0(s1)
 311 0160 83B78701 		ld	a5,24(a5)
 312              		.loc 2 70 27
 313 0164 13850400 		mv	a0,s1
 314 0168 E7800700 		jalr	a5
 315              	.LVL21:
  71:src/syscall_cpp.cpp ****         time_sleep(period);
 316              		.loc 2 71 9 is_stmt 1
 317              		.loc 2 71 19 is_stmt 0
 318 016c 03B50402 		ld	a0,32(s1)
 319 0170 97000000 		call	_Z10time_sleepm@plt
 319      E7800000 
 320              	.LVL22:
  69:src/syscall_cpp.cpp ****     while(period!=0){
 321              		.loc 2 69 5
 322 0178 6FF0DFFD 		j	.L18
 323              	.L16:
  72:src/syscall_cpp.cpp ****     }
  73:src/syscall_cpp.cpp **** }
 324              		.loc 2 73 1
 325 017c 83308101 		ld	ra,24(sp)
 326              		.cfi_restore 1
 327 0180 03340101 		ld	s0,16(sp)
 328              		.cfi_restore 8
 329              		.cfi_def_cfa 2, 32
 330 0184 83348100 		ld	s1,8(sp)
 331              		.cfi_restore 9
 332              	.LVL23:
 333 0188 13010102 		addi	sp,sp,32
 334              		.cfi_def_cfa_offset 0
 335 018c 67800000 		jr	ra
 336              		.cfi_endproc
 337              	.LFE52:
 339              		.align	2
 340              		.globl	_ZN9SemaphoreD2Ev
 342              	_ZN9SemaphoreD2Ev:
 343              	.LFB39:
GAS LISTING /tmp/ccneZXpP.s 			page 9


  43:src/syscall_cpp.cpp ****     sem_close(myHandle);
 344              		.loc 2 43 1 is_stmt 1
 345              		.cfi_startproc
 346              		.cfi_personality 0x9b,DW.ref.__gxx_personality_v0
 347              		.cfi_lsda 0x1b,.LLSDA39
 348              	.LVL24:
 349 0190 130101FF 		addi	sp,sp,-16
 350              		.cfi_def_cfa_offset 16
 351 0194 23341100 		sd	ra,8(sp)
 352 0198 23308100 		sd	s0,0(sp)
 353              		.cfi_offset 1, -8
 354              		.cfi_offset 8, -16
 355 019c 13040101 		addi	s0,sp,16
 356              		.cfi_def_cfa 8, 0
 357              	.LBB4:
  43:src/syscall_cpp.cpp ****     sem_close(myHandle);
 358              		.loc 2 43 23 is_stmt 0
 359 01a0 97070000 		lla	a5,_ZTV9Semaphore+16
 359      93870700 
 360 01a8 2330F500 		sd	a5,0(a0)
  44:src/syscall_cpp.cpp ****     //delete myHandle;
 361              		.loc 2 44 5 is_stmt 1
  44:src/syscall_cpp.cpp ****     //delete myHandle;
 362              		.loc 2 44 14 is_stmt 0
 363 01ac 03358500 		ld	a0,8(a0)
 364              	.LVL25:
 365 01b0 97000000 		call	_Z9sem_closeP4_sem@plt
 365      E7800000 
 366              	.LVL26:
 367              	.LBE4:
  46:src/syscall_cpp.cpp **** 
 368              		.loc 2 46 1
 369 01b8 83308100 		ld	ra,8(sp)
 370              		.cfi_restore 1
 371 01bc 03340100 		ld	s0,0(sp)
 372              		.cfi_restore 8
 373              		.cfi_def_cfa 2, 16
 374 01c0 13010101 		addi	sp,sp,16
 375              		.cfi_def_cfa_offset 0
 376 01c4 67800000 		jr	ra
 377              		.cfi_endproc
 378              	.LFE39:
 379              		.section	.gcc_except_table
 380              	.LLSDA39:
 381 0004 FF       		.byte	0xff
 382 0005 FF       		.byte	0xff
 383 0006 03       		.byte	0x3
 384 0007 00       		.byte	0
 385              		.text
 387              		.globl	_ZN9SemaphoreD1Ev
 388              		.set	_ZN9SemaphoreD1Ev,_ZN9SemaphoreD2Ev
 389              		.align	2
 390              		.globl	_ZN9SemaphoreD0Ev
 392              	_ZN9SemaphoreD0Ev:
 393              	.LFB41:
  43:src/syscall_cpp.cpp ****     sem_close(myHandle);
 394              		.loc 2 43 1 is_stmt 1
GAS LISTING /tmp/ccneZXpP.s 			page 10


 395              		.cfi_startproc
 396              	.LVL27:
 397 01c8 130101FE 		addi	sp,sp,-32
 398              		.cfi_def_cfa_offset 32
 399 01cc 233C1100 		sd	ra,24(sp)
 400 01d0 23388100 		sd	s0,16(sp)
 401 01d4 23349100 		sd	s1,8(sp)
 402              		.cfi_offset 1, -8
 403              		.cfi_offset 8, -16
 404              		.cfi_offset 9, -24
 405 01d8 13040102 		addi	s0,sp,32
 406              		.cfi_def_cfa 8, 0
 407 01dc 93040500 		mv	s1,a0
  46:src/syscall_cpp.cpp **** 
 408              		.loc 2 46 1 is_stmt 0
 409 01e0 97000000 		call	_ZN9SemaphoreD1Ev
 409      E7800000 
 410              	.LVL28:
 411 01e8 13850400 		mv	a0,s1
 412 01ec 97000000 		call	_ZdlPv@plt
 412      E7800000 
 413              	.LVL29:
 414 01f4 83308101 		ld	ra,24(sp)
 415              		.cfi_restore 1
 416 01f8 03340101 		ld	s0,16(sp)
 417              		.cfi_restore 8
 418              		.cfi_def_cfa 2, 32
 419 01fc 83348100 		ld	s1,8(sp)
 420              		.cfi_restore 9
 421              	.LVL30:
 422 0200 13010102 		addi	sp,sp,32
 423              		.cfi_def_cfa_offset 0
 424 0204 67800000 		jr	ra
 425              		.cfi_endproc
 426              	.LFE41:
 428              		.align	2
 429              		.globl	_ZN6ThreadC2EPFvPvES0_
 431              	_ZN6ThreadC2EPFvPvES0_:
 432              	.LFB22:
  14:src/syscall_cpp.cpp **** 
 433              		.loc 2 14 1 is_stmt 1
 434              		.cfi_startproc
 435              	.LVL31:
 436 0208 130101FF 		addi	sp,sp,-16
 437              		.cfi_def_cfa_offset 16
 438 020c 23348100 		sd	s0,8(sp)
 439              		.cfi_offset 8, -8
 440 0210 13040101 		addi	s0,sp,16
 441              		.cfi_def_cfa 8, 0
 442              	.LBB5:
  14:src/syscall_cpp.cpp **** 
 443              		.loc 2 14 88 is_stmt 0
 444 0214 97070000 		lla	a5,_ZTV6Thread+16
 444      93870700 
 445 021c 2330F500 		sd	a5,0(a0)
 446 0220 23340500 		sd	zero,8(a0)
 447 0224 2338B500 		sd	a1,16(a0)
GAS LISTING /tmp/ccneZXpP.s 			page 11


 448 0228 233CC500 		sd	a2,24(a0)
 449              	.LBE5:
  14:src/syscall_cpp.cpp **** 
 450              		.loc 2 14 90
 451 022c 03348100 		ld	s0,8(sp)
 452              		.cfi_restore 8
 453              		.cfi_def_cfa 2, 16
 454 0230 13010101 		addi	sp,sp,16
 455              		.cfi_def_cfa_offset 0
 456 0234 67800000 		jr	ra
 457              		.cfi_endproc
 458              	.LFE22:
 460              		.globl	_ZN6ThreadC1EPFvPvES0_
 461              		.set	_ZN6ThreadC1EPFvPvES0_,_ZN6ThreadC2EPFvPvES0_
 462              		.align	2
 463              		.globl	_ZN6Thread5startEv
 465              	_ZN6Thread5startEv:
 466              	.LFB28:
  21:src/syscall_cpp.cpp ****     return thread_create(&myHandle,this->body, this->arg);
 467              		.loc 2 21 21 is_stmt 1
 468              		.cfi_startproc
 469              	.LVL32:
 470 0238 130101FF 		addi	sp,sp,-16
 471              		.cfi_def_cfa_offset 16
 472 023c 23341100 		sd	ra,8(sp)
 473 0240 23308100 		sd	s0,0(sp)
 474              		.cfi_offset 1, -8
 475              		.cfi_offset 8, -16
 476 0244 13040101 		addi	s0,sp,16
 477              		.cfi_def_cfa 8, 0
  22:src/syscall_cpp.cpp **** }
 478              		.loc 2 22 5
  22:src/syscall_cpp.cpp **** }
 479              		.loc 2 22 25 is_stmt 0
 480 0248 03368501 		ld	a2,24(a0)
 481 024c 83350501 		ld	a1,16(a0)
 482 0250 13058500 		addi	a0,a0,8
 483              	.LVL33:
 484 0254 97000000 		call	_Z13thread_createPP3TCBPFvPvES2_@plt
 484      E7800000 
 485              	.LVL34:
  23:src/syscall_cpp.cpp **** 
 486              		.loc 2 23 1
 487 025c 83308100 		ld	ra,8(sp)
 488              		.cfi_restore 1
 489 0260 03340100 		ld	s0,0(sp)
 490              		.cfi_restore 8
 491              		.cfi_def_cfa 2, 16
 492 0264 13010101 		addi	sp,sp,16
 493              		.cfi_def_cfa_offset 0
 494 0268 67800000 		jr	ra
 495              		.cfi_endproc
 496              	.LFE28:
 498              		.align	2
 499              		.globl	_ZN6Thread8dispatchEv
 501              	_ZN6Thread8dispatchEv:
 502              	.LFB29:
GAS LISTING /tmp/ccneZXpP.s 			page 12


  25:src/syscall_cpp.cpp ****     thread_dispatch();
 503              		.loc 2 25 25 is_stmt 1
 504              		.cfi_startproc
 505 026c 130101FF 		addi	sp,sp,-16
 506              		.cfi_def_cfa_offset 16
 507 0270 23341100 		sd	ra,8(sp)
 508 0274 23308100 		sd	s0,0(sp)
 509              		.cfi_offset 1, -8
 510              		.cfi_offset 8, -16
 511 0278 13040101 		addi	s0,sp,16
 512              		.cfi_def_cfa 8, 0
  26:src/syscall_cpp.cpp **** }
 513              		.loc 2 26 5
  26:src/syscall_cpp.cpp **** }
 514              		.loc 2 26 20 is_stmt 0
 515 027c 97000000 		call	_Z15thread_dispatchv@plt
 515      E7800000 
 516              	.LVL35:
  27:src/syscall_cpp.cpp **** 
 517              		.loc 2 27 1
 518 0284 83308100 		ld	ra,8(sp)
 519              		.cfi_restore 1
 520 0288 03340100 		ld	s0,0(sp)
 521              		.cfi_restore 8
 522              		.cfi_def_cfa 2, 16
 523 028c 13010101 		addi	sp,sp,16
 524              		.cfi_def_cfa_offset 0
 525 0290 67800000 		jr	ra
 526              		.cfi_endproc
 527              	.LFE29:
 529              		.align	2
 530              		.globl	_ZN6ThreadC2Ev
 532              	_ZN6ThreadC2Ev:
 533              	.LFB31:
  29:src/syscall_cpp.cpp **** 
 534              		.loc 2 29 1 is_stmt 1
 535              		.cfi_startproc
 536              	.LVL36:
 537 0294 130101FF 		addi	sp,sp,-16
 538              		.cfi_def_cfa_offset 16
 539 0298 23348100 		sd	s0,8(sp)
 540              		.cfi_offset 8, -8
 541 029c 13040101 		addi	s0,sp,16
 542              		.cfi_def_cfa 8, 0
 543              	.LBB6:
  29:src/syscall_cpp.cpp **** 
 544              		.loc 2 29 73 is_stmt 0
 545 02a0 97070000 		lla	a5,_ZTV6Thread+16
 545      93870700 
 546 02a8 2330F500 		sd	a5,0(a0)
 547 02ac 23340500 		sd	zero,8(a0)
 548 02b0 97070000 		lla	a5,_ZN6Thread22wrapperPolymorphThreadEPv
 548      93870700 
 549 02b8 2338F500 		sd	a5,16(a0)
 550 02bc 233CA500 		sd	a0,24(a0)
 551              	.LBE6:
  29:src/syscall_cpp.cpp **** 
GAS LISTING /tmp/ccneZXpP.s 			page 13


 552              		.loc 2 29 76
 553 02c0 03348100 		ld	s0,8(sp)
 554              		.cfi_restore 8
 555              		.cfi_def_cfa 2, 16
 556 02c4 13010101 		addi	sp,sp,16
 557              		.cfi_def_cfa_offset 0
 558 02c8 67800000 		jr	ra
 559              		.cfi_endproc
 560              	.LFE31:
 562              		.globl	_ZN6ThreadC1Ev
 563              		.set	_ZN6ThreadC1Ev,_ZN6ThreadC2Ev
 564              		.align	2
 565              		.globl	_ZN6Thread4joinEv
 567              	_ZN6Thread4joinEv:
 568              	.LFB33:
  31:src/syscall_cpp.cpp ****     thread_join(myHandle);
 569              		.loc 2 31 21 is_stmt 1
 570              		.cfi_startproc
 571              	.LVL37:
 572 02cc 130101FF 		addi	sp,sp,-16
 573              		.cfi_def_cfa_offset 16
 574 02d0 23341100 		sd	ra,8(sp)
 575 02d4 23308100 		sd	s0,0(sp)
 576              		.cfi_offset 1, -8
 577              		.cfi_offset 8, -16
 578 02d8 13040101 		addi	s0,sp,16
 579              		.cfi_def_cfa 8, 0
  32:src/syscall_cpp.cpp **** }
 580              		.loc 2 32 5
  32:src/syscall_cpp.cpp **** }
 581              		.loc 2 32 16 is_stmt 0
 582 02dc 03358500 		ld	a0,8(a0)
 583              	.LVL38:
 584 02e0 97000000 		call	_Z11thread_joinP3TCB@plt
 584      E7800000 
 585              	.LVL39:
  33:src/syscall_cpp.cpp **** 
 586              		.loc 2 33 1
 587 02e8 83308100 		ld	ra,8(sp)
 588              		.cfi_restore 1
 589 02ec 03340100 		ld	s0,0(sp)
 590              		.cfi_restore 8
 591              		.cfi_def_cfa 2, 16
 592 02f0 13010101 		addi	sp,sp,16
 593              		.cfi_def_cfa_offset 0
 594 02f4 67800000 		jr	ra
 595              		.cfi_endproc
 596              	.LFE33:
 598              		.align	2
 599              		.globl	_ZN6Thread5sleepEm
 601              	_ZN6Thread5sleepEm:
 602              	.LFB34:
  35:src/syscall_cpp.cpp ****     return time_sleep(t);
 603              		.loc 2 35 29 is_stmt 1
 604              		.cfi_startproc
 605              	.LVL40:
 606 02f8 130101FF 		addi	sp,sp,-16
GAS LISTING /tmp/ccneZXpP.s 			page 14


 607              		.cfi_def_cfa_offset 16
 608 02fc 23341100 		sd	ra,8(sp)
 609 0300 23308100 		sd	s0,0(sp)
 610              		.cfi_offset 1, -8
 611              		.cfi_offset 8, -16
 612 0304 13040101 		addi	s0,sp,16
 613              		.cfi_def_cfa 8, 0
  36:src/syscall_cpp.cpp **** }
 614              		.loc 2 36 5
  36:src/syscall_cpp.cpp **** }
 615              		.loc 2 36 22 is_stmt 0
 616 0308 97000000 		call	_Z10time_sleepm@plt
 616      E7800000 
 617              	.LVL41:
  37:src/syscall_cpp.cpp **** 
 618              		.loc 2 37 1
 619 0310 83308100 		ld	ra,8(sp)
 620              		.cfi_restore 1
 621 0314 03340100 		ld	s0,0(sp)
 622              		.cfi_restore 8
 623              		.cfi_def_cfa 2, 16
 624 0318 13010101 		addi	sp,sp,16
 625              		.cfi_def_cfa_offset 0
 626 031c 67800000 		jr	ra
 627              		.cfi_endproc
 628              	.LFE34:
 630              		.align	2
 631              		.globl	_ZN9SemaphoreC2Ej
 633              	_ZN9SemaphoreC2Ej:
 634              	.LFB36:
  39:src/syscall_cpp.cpp ****     sem_open(&this->myHandle, init);
 635              		.loc 2 39 1 is_stmt 1
 636              		.cfi_startproc
 637              	.LVL42:
 638 0320 130101FF 		addi	sp,sp,-16
 639              		.cfi_def_cfa_offset 16
 640 0324 23341100 		sd	ra,8(sp)
 641 0328 23308100 		sd	s0,0(sp)
 642              		.cfi_offset 1, -8
 643              		.cfi_offset 8, -16
 644 032c 13040101 		addi	s0,sp,16
 645              		.cfi_def_cfa 8, 0
 646              	.LBB7:
  39:src/syscall_cpp.cpp ****     sem_open(&this->myHandle, init);
 647              		.loc 2 39 58 is_stmt 0
 648 0330 97070000 		lla	a5,_ZTV9Semaphore+16
 648      93870700 
 649 0338 2330F500 		sd	a5,0(a0)
 650 033c 23340500 		sd	zero,8(a0)
  40:src/syscall_cpp.cpp **** }
 651              		.loc 2 40 5 is_stmt 1
  40:src/syscall_cpp.cpp **** }
 652              		.loc 2 40 13 is_stmt 0
 653 0340 13058500 		addi	a0,a0,8
 654              	.LVL43:
 655 0344 97000000 		call	_Z8sem_openPP4_semj@plt
 655      E7800000 
GAS LISTING /tmp/ccneZXpP.s 			page 15


 656              	.LVL44:
 657              	.LBE7:
  41:src/syscall_cpp.cpp **** 
 658              		.loc 2 41 1
 659 034c 83308100 		ld	ra,8(sp)
 660              		.cfi_restore 1
 661 0350 03340100 		ld	s0,0(sp)
 662              		.cfi_restore 8
 663              		.cfi_def_cfa 2, 16
 664 0354 13010101 		addi	sp,sp,16
 665              		.cfi_def_cfa_offset 0
 666 0358 67800000 		jr	ra
 667              		.cfi_endproc
 668              	.LFE36:
 670              		.globl	_ZN9SemaphoreC1Ej
 671              		.set	_ZN9SemaphoreC1Ej,_ZN9SemaphoreC2Ej
 672              		.align	2
 673              		.globl	_ZN9Semaphore4waitEv
 675              	_ZN9Semaphore4waitEv:
 676              	.LFB42:
  48:src/syscall_cpp.cpp ****     return sem_wait(myHandle);
 677              		.loc 2 48 23 is_stmt 1
 678              		.cfi_startproc
 679              	.LVL45:
 680 035c 130101FF 		addi	sp,sp,-16
 681              		.cfi_def_cfa_offset 16
 682 0360 23341100 		sd	ra,8(sp)
 683 0364 23308100 		sd	s0,0(sp)
 684              		.cfi_offset 1, -8
 685              		.cfi_offset 8, -16
 686 0368 13040101 		addi	s0,sp,16
 687              		.cfi_def_cfa 8, 0
  49:src/syscall_cpp.cpp **** }
 688              		.loc 2 49 5
  49:src/syscall_cpp.cpp **** }
 689              		.loc 2 49 20 is_stmt 0
 690 036c 03358500 		ld	a0,8(a0)
 691              	.LVL46:
 692 0370 97000000 		call	_Z8sem_waitP4_sem@plt
 692      E7800000 
 693              	.LVL47:
  50:src/syscall_cpp.cpp **** 
 694              		.loc 2 50 1
 695 0378 83308100 		ld	ra,8(sp)
 696              		.cfi_restore 1
 697 037c 03340100 		ld	s0,0(sp)
 698              		.cfi_restore 8
 699              		.cfi_def_cfa 2, 16
 700 0380 13010101 		addi	sp,sp,16
 701              		.cfi_def_cfa_offset 0
 702 0384 67800000 		jr	ra
 703              		.cfi_endproc
 704              	.LFE42:
 706              		.align	2
 707              		.globl	_ZN9Semaphore6signalEv
 709              	_ZN9Semaphore6signalEv:
 710              	.LFB43:
GAS LISTING /tmp/ccneZXpP.s 			page 16


  52:src/syscall_cpp.cpp ****     return sem_signal(myHandle);
 711              		.loc 2 52 25 is_stmt 1
 712              		.cfi_startproc
 713              	.LVL48:
 714 0388 130101FF 		addi	sp,sp,-16
 715              		.cfi_def_cfa_offset 16
 716 038c 23341100 		sd	ra,8(sp)
 717 0390 23308100 		sd	s0,0(sp)
 718              		.cfi_offset 1, -8
 719              		.cfi_offset 8, -16
 720 0394 13040101 		addi	s0,sp,16
 721              		.cfi_def_cfa 8, 0
  53:src/syscall_cpp.cpp **** }
 722              		.loc 2 53 5
  53:src/syscall_cpp.cpp **** }
 723              		.loc 2 53 22 is_stmt 0
 724 0398 03358500 		ld	a0,8(a0)
 725              	.LVL49:
 726 039c 97000000 		call	_Z10sem_signalP4_sem@plt
 726      E7800000 
 727              	.LVL50:
  54:src/syscall_cpp.cpp **** 
 728              		.loc 2 54 1
 729 03a4 83308100 		ld	ra,8(sp)
 730              		.cfi_restore 1
 731 03a8 03340100 		ld	s0,0(sp)
 732              		.cfi_restore 8
 733              		.cfi_def_cfa 2, 16
 734 03ac 13010101 		addi	sp,sp,16
 735              		.cfi_def_cfa_offset 0
 736 03b0 67800000 		jr	ra
 737              		.cfi_endproc
 738              	.LFE43:
 740              		.align	2
 741              		.globl	_ZN14PeriodicThread9terminateEv
 743              	_ZN14PeriodicThread9terminateEv:
 744              	.LFB44:
  56:src/syscall_cpp.cpp ****     period=0;
 745              		.loc 2 56 34 is_stmt 1
 746              		.cfi_startproc
 747              	.LVL51:
 748 03b4 130101FF 		addi	sp,sp,-16
 749              		.cfi_def_cfa_offset 16
 750 03b8 23348100 		sd	s0,8(sp)
 751              		.cfi_offset 8, -8
 752 03bc 13040101 		addi	s0,sp,16
 753              		.cfi_def_cfa 8, 0
  57:src/syscall_cpp.cpp **** }
 754              		.loc 2 57 5
  57:src/syscall_cpp.cpp **** }
 755              		.loc 2 57 11 is_stmt 0
 756 03c0 23300502 		sd	zero,32(a0)
  58:src/syscall_cpp.cpp **** 
 757              		.loc 2 58 1
 758 03c4 03348100 		ld	s0,8(sp)
 759              		.cfi_restore 8
 760              		.cfi_def_cfa 2, 16
GAS LISTING /tmp/ccneZXpP.s 			page 17


 761 03c8 13010101 		addi	sp,sp,16
 762              		.cfi_def_cfa_offset 0
 763 03cc 67800000 		jr	ra
 764              		.cfi_endproc
 765              	.LFE44:
 767              		.align	2
 768              		.globl	_ZN14PeriodicThreadC2Em
 770              	_ZN14PeriodicThreadC2Em:
 771              	.LFB46:
  60:src/syscall_cpp.cpp ****     this->period=period;
 772              		.loc 2 60 1 is_stmt 1
 773              		.cfi_startproc
 774              	.LVL52:
 775 03d0 130101FE 		addi	sp,sp,-32
 776              		.cfi_def_cfa_offset 32
 777 03d4 233C1100 		sd	ra,24(sp)
 778 03d8 23388100 		sd	s0,16(sp)
 779 03dc 23349100 		sd	s1,8(sp)
 780 03e0 23302101 		sd	s2,0(sp)
 781              		.cfi_offset 1, -8
 782              		.cfi_offset 8, -16
 783              		.cfi_offset 9, -24
 784              		.cfi_offset 18, -32
 785 03e4 13040102 		addi	s0,sp,32
 786              		.cfi_def_cfa 8, 0
 787 03e8 93040500 		mv	s1,a0
 788 03ec 13890500 		mv	s2,a1
 789              	.LBB8:
  60:src/syscall_cpp.cpp ****     this->period=period;
 790              		.loc 2 60 45 is_stmt 0
 791 03f0 97000000 		call	_ZN6ThreadC2Ev
 791      E7800000 
 792              	.LVL53:
 793 03f8 97070000 		lla	a5,_ZTV14PeriodicThread+16
 793      93870700 
 794 0400 23B0F400 		sd	a5,0(s1)
  61:src/syscall_cpp.cpp **** }
 795              		.loc 2 61 5 is_stmt 1
  61:src/syscall_cpp.cpp **** }
 796              		.loc 2 61 17 is_stmt 0
 797 0404 23B02403 		sd	s2,32(s1)
 798              	.LBE8:
  62:src/syscall_cpp.cpp **** 
 799              		.loc 2 62 1
 800 0408 83308101 		ld	ra,24(sp)
 801              		.cfi_restore 1
 802 040c 03340101 		ld	s0,16(sp)
 803              		.cfi_restore 8
 804              		.cfi_def_cfa 2, 32
 805 0410 83348100 		ld	s1,8(sp)
 806              		.cfi_restore 9
 807              	.LVL54:
 808 0414 03390100 		ld	s2,0(sp)
 809              		.cfi_restore 18
 810              	.LVL55:
 811 0418 13010102 		addi	sp,sp,32
 812              		.cfi_def_cfa_offset 0
GAS LISTING /tmp/ccneZXpP.s 			page 18


 813 041c 67800000 		jr	ra
 814              		.cfi_endproc
 815              	.LFE46:
 817              		.globl	_ZN14PeriodicThreadC1Em
 818              		.set	_ZN14PeriodicThreadC1Em,_ZN14PeriodicThreadC2Em
 819              		.align	2
 820              		.globl	_ZN7Console4getcEv
 822              	_ZN7Console4getcEv:
 823              	.LFB53:
  74:src/syscall_cpp.cpp **** 
  75:src/syscall_cpp.cpp **** char Console::getc() {
 824              		.loc 2 75 22 is_stmt 1
 825              		.cfi_startproc
 826 0420 130101FF 		addi	sp,sp,-16
 827              		.cfi_def_cfa_offset 16
 828 0424 23341100 		sd	ra,8(sp)
 829 0428 23308100 		sd	s0,0(sp)
 830              		.cfi_offset 1, -8
 831              		.cfi_offset 8, -16
 832 042c 13040101 		addi	s0,sp,16
 833              		.cfi_def_cfa 8, 0
  76:src/syscall_cpp.cpp ****     return ::getc();
 834              		.loc 2 76 5
 835              		.loc 2 76 18 is_stmt 0
 836 0430 97000000 		call	_Z4getcv@plt
 836      E7800000 
 837              	.LVL56:
  77:src/syscall_cpp.cpp **** }
 838              		.loc 2 77 1
 839 0438 83308100 		ld	ra,8(sp)
 840              		.cfi_restore 1
 841 043c 03340100 		ld	s0,0(sp)
 842              		.cfi_restore 8
 843              		.cfi_def_cfa 2, 16
 844 0440 13010101 		addi	sp,sp,16
 845              		.cfi_def_cfa_offset 0
 846 0444 67800000 		jr	ra
 847              		.cfi_endproc
 848              	.LFE53:
 850              		.align	2
 851              		.globl	_ZN7Console4putcEc
 853              	_ZN7Console4putcEc:
 854              	.LFB54:
  78:src/syscall_cpp.cpp **** 
  79:src/syscall_cpp.cpp **** void Console::putc(char c) {
 855              		.loc 2 79 28 is_stmt 1
 856              		.cfi_startproc
 857              	.LVL57:
 858 0448 130101FF 		addi	sp,sp,-16
 859              		.cfi_def_cfa_offset 16
 860 044c 23341100 		sd	ra,8(sp)
 861 0450 23308100 		sd	s0,0(sp)
 862              		.cfi_offset 1, -8
 863              		.cfi_offset 8, -16
 864 0454 13040101 		addi	s0,sp,16
 865              		.cfi_def_cfa 8, 0
  80:src/syscall_cpp.cpp ****     ::putc(c);
GAS LISTING /tmp/ccneZXpP.s 			page 19


 866              		.loc 2 80 5
 867              		.loc 2 80 11 is_stmt 0
 868 0458 97000000 		call	_Z4putcc@plt
 868      E7800000 
 869              	.LVL58:
  81:src/syscall_cpp.cpp **** }
 870              		.loc 2 81 1
 871 0460 83308100 		ld	ra,8(sp)
 872              		.cfi_restore 1
 873 0464 03340100 		ld	s0,0(sp)
 874              		.cfi_restore 8
 875              		.cfi_def_cfa 2, 16
 876 0468 13010101 		addi	sp,sp,16
 877              		.cfi_def_cfa_offset 0
 878 046c 67800000 		jr	ra
 879              		.cfi_endproc
 880              	.LFE54:
 882              		.weak	_ZTV6Thread
 883              		.section	.data.rel.ro.local._ZTV6Thread,"awG",@progbits,_ZTV6Thread,comdat
 884              		.align	3
 887              	_ZTV6Thread:
 888 0000 00000000 		.dword	0
 888      00000000 
 889 0008 00000000 		.dword	0
 889      00000000 
 890 0010 00000000 		.dword	_ZN6ThreadD1Ev
 890      00000000 
 891 0018 00000000 		.dword	_ZN6ThreadD0Ev
 891      00000000 
 892 0020 00000000 		.dword	_ZN6Thread3runEv
 892      00000000 
 893              		.weak	_ZTV9Semaphore
 894              		.section	.data.rel.ro.local._ZTV9Semaphore,"awG",@progbits,_ZTV9Semaphore,comdat
 895              		.align	3
 898              	_ZTV9Semaphore:
 899 0000 00000000 		.dword	0
 899      00000000 
 900 0008 00000000 		.dword	0
 900      00000000 
 901 0010 00000000 		.dword	_ZN9SemaphoreD1Ev
 901      00000000 
 902 0018 00000000 		.dword	_ZN9SemaphoreD0Ev
 902      00000000 
 903              		.weak	_ZTV14PeriodicThread
 904              		.section	.data.rel.ro.local._ZTV14PeriodicThread,"awG",@progbits,_ZTV14PeriodicThread,comdat
 905              		.align	3
 908              	_ZTV14PeriodicThread:
 909 0000 00000000 		.dword	0
 909      00000000 
 910 0008 00000000 		.dword	0
 910      00000000 
 911 0010 00000000 		.dword	_ZN14PeriodicThreadD1Ev
 911      00000000 
 912 0018 00000000 		.dword	_ZN14PeriodicThreadD0Ev
 912      00000000 
 913 0020 00000000 		.dword	_ZN14PeriodicThread3runEv
 913      00000000 
GAS LISTING /tmp/ccneZXpP.s 			page 20


 914 0028 00000000 		.dword	_ZN14PeriodicThread18periodicActivationEv
 914      00000000 
 915              		.text
 916              	.Letext0:
 917              		.file 3 "src/../h/../lib/hw.h"
 918              		.file 4 "src/../h/syscall_c.hpp"
 919              		.file 5 "src/../h/_sem.hpp"
 920              		.file 6 "src/../h/../h/list.hpp"
 4060              		.align	3
 4063              	DW.ref.__gxx_personality_v0:
 4064 0000 00000000 		.dword	__gxx_personality_v0
 4064      00000000 
 4065              		.ident	"GCC: (Ubuntu 9.4.0-1ubuntu1~20.04) 9.4.0"
 4066              		.section	.note.GNU-stack,"",@progbits
GAS LISTING /tmp/ccneZXpP.s 			page 21


DEFINED SYMBOLS
                            *ABS*:0000000000000000 syscall_cpp.cpp
     /tmp/ccneZXpP.s:10     .text._ZN6Thread3runEv:0000000000000000 _ZN6Thread3runEv
     /tmp/ccneZXpP.s:14     .text._ZN6Thread3runEv:0000000000000000 .L0 
     /tmp/ccneZXpP.s:16     .text._ZN6Thread3runEv:0000000000000000 .L0 
     /tmp/ccneZXpP.s:17     .text._ZN6Thread3runEv:0000000000000004 .L0 
     /tmp/ccneZXpP.s:19     .text._ZN6Thread3runEv:0000000000000008 .L0 
     /tmp/ccneZXpP.s:21     .text._ZN6Thread3runEv:000000000000000c .L0 
     /tmp/ccneZXpP.s:23     .text._ZN6Thread3runEv:000000000000000c .L0 
     /tmp/ccneZXpP.s:24     .text._ZN6Thread3runEv:0000000000000010 .L0 
     /tmp/ccneZXpP.s:25     .text._ZN6Thread3runEv:0000000000000010 .L0 
     /tmp/ccneZXpP.s:27     .text._ZN6Thread3runEv:0000000000000014 .L0 
     /tmp/ccneZXpP.s:29     .text._ZN6Thread3runEv:0000000000000018 .L0 
     /tmp/ccneZXpP.s:36     .text._ZN14PeriodicThread18periodicActivationEv:0000000000000000 _ZN14PeriodicThread18periodicActivationEv
     /tmp/ccneZXpP.s:39     .text._ZN14PeriodicThread18periodicActivationEv:0000000000000000 .L0 
     /tmp/ccneZXpP.s:41     .text._ZN14PeriodicThread18periodicActivationEv:0000000000000000 .L0 
     /tmp/ccneZXpP.s:42     .text._ZN14PeriodicThread18periodicActivationEv:0000000000000004 .L0 
     /tmp/ccneZXpP.s:44     .text._ZN14PeriodicThread18periodicActivationEv:0000000000000008 .L0 
     /tmp/ccneZXpP.s:46     .text._ZN14PeriodicThread18periodicActivationEv:000000000000000c .L0 
     /tmp/ccneZXpP.s:48     .text._ZN14PeriodicThread18periodicActivationEv:000000000000000c .L0 
     /tmp/ccneZXpP.s:49     .text._ZN14PeriodicThread18periodicActivationEv:0000000000000010 .L0 
     /tmp/ccneZXpP.s:50     .text._ZN14PeriodicThread18periodicActivationEv:0000000000000010 .L0 
     /tmp/ccneZXpP.s:52     .text._ZN14PeriodicThread18periodicActivationEv:0000000000000014 .L0 
     /tmp/ccneZXpP.s:54     .text._ZN14PeriodicThread18periodicActivationEv:0000000000000018 .L0 
     /tmp/ccneZXpP.s:61     .text:0000000000000000 _ZN6Thread22wrapperPolymorphThreadEPv
     /tmp/ccneZXpP.s:65     .text:0000000000000000 .L0 
     /tmp/ccneZXpP.s:67     .text:0000000000000000 .L0 
     /tmp/ccneZXpP.s:68     .text:0000000000000004 .L0 
     /tmp/ccneZXpP.s:71     .text:000000000000000c .L0 
     /tmp/ccneZXpP.s:72     .text:000000000000000c .L0 
     /tmp/ccneZXpP.s:74     .text:0000000000000010 .L0 
     /tmp/ccneZXpP.s:76     .text:0000000000000010 .L0 
     /tmp/ccneZXpP.s:77     .text:0000000000000010 .L0 
     /tmp/ccneZXpP.s:80     .text:0000000000000018 .L0 
     /tmp/ccneZXpP.s:83     .text:000000000000001c .L0 
     /tmp/ccneZXpP.s:84     .text:0000000000000020 .L0 
     /tmp/ccneZXpP.s:86     .text:0000000000000024 .L0 
     /tmp/ccneZXpP.s:87     .text:0000000000000024 .L0 
     /tmp/ccneZXpP.s:89     .text:0000000000000028 .L0 
     /tmp/ccneZXpP.s:91     .text:000000000000002c .L0 
     /tmp/ccneZXpP.s:97     .text:000000000000002c _ZN6ThreadD2Ev
     /tmp/ccneZXpP.s:100    .text:000000000000002c .L0 
     /tmp/ccneZXpP.s:4063   .data.rel.local.DW.ref.__gxx_personality_v0:0000000000000000 DW.ref.__gxx_personality_v0
     /tmp/ccneZXpP.s:104    .text:000000000000002c .L0 
     /tmp/ccneZXpP.s:105    .text:0000000000000030 .L0 
     /tmp/ccneZXpP.s:109    .text:000000000000003c .L0 
     /tmp/ccneZXpP.s:110    .text:000000000000003c .L0 
     /tmp/ccneZXpP.s:111    .text:000000000000003c .L0 
     /tmp/ccneZXpP.s:113    .text:0000000000000040 .L0 
     /tmp/ccneZXpP.s:887    .data.rel.ro.local._ZTV6Thread:0000000000000000 _ZTV6Thread
     /tmp/ccneZXpP.s:117    .text:0000000000000044 .L0 
     /tmp/ccneZXpP.s:120    .text:0000000000000050 .L0 
     /tmp/ccneZXpP.s:121    .text:0000000000000050 .L0 
     /tmp/ccneZXpP.s:126    .text:000000000000005c .L0 
     /tmp/ccneZXpP.s:127    .text:000000000000005c .L0 
     /tmp/ccneZXpP.s:129    .text:0000000000000060 .L0 
     /tmp/ccneZXpP.s:131    .text:0000000000000064 .L0 
GAS LISTING /tmp/ccneZXpP.s 			page 22


     /tmp/ccneZXpP.s:138    .text:0000000000000070 .L0 
     /tmp/ccneZXpP.s:139    .text:0000000000000074 .L0 
     /tmp/ccneZXpP.s:141    .text:0000000000000078 .L0 
     /tmp/ccneZXpP.s:142    .text:0000000000000078 .L0 
     /tmp/ccneZXpP.s:144    .text:000000000000007c .L0 
     /tmp/ccneZXpP.s:147    .text:0000000000000080 .L0 
     /tmp/ccneZXpP.s:149    .text:0000000000000084 .L0 
     /tmp/ccneZXpP.s:97     .text:000000000000002c _ZN6ThreadD1Ev
     /tmp/ccneZXpP.s:165    .text:0000000000000084 _ZN14PeriodicThreadD2Ev
     /tmp/ccneZXpP.s:168    .text:0000000000000084 .L0 
     /tmp/ccneZXpP.s:170    .text:0000000000000084 .L0 
     /tmp/ccneZXpP.s:171    .text:0000000000000088 .L0 
     /tmp/ccneZXpP.s:174    .text:0000000000000090 .L0 
     /tmp/ccneZXpP.s:175    .text:0000000000000090 .L0 
     /tmp/ccneZXpP.s:177    .text:0000000000000094 .L0 
     /tmp/ccneZXpP.s:908    .data.rel.ro.local._ZTV14PeriodicThread:0000000000000000 _ZTV14PeriodicThread
     /tmp/ccneZXpP.s:180    .text:0000000000000094 .L0 
     /tmp/ccneZXpP.s:183    .text:00000000000000a0 .L0 
     /tmp/ccneZXpP.s:184    .text:00000000000000a0 .L0 
     /tmp/ccneZXpP.s:186    .text:00000000000000a4 .L0 
     /tmp/ccneZXpP.s:190    .text:00000000000000ac .L0 
     /tmp/ccneZXpP.s:191    .text:00000000000000b0 .L0 
     /tmp/ccneZXpP.s:193    .text:00000000000000b4 .L0 
     /tmp/ccneZXpP.s:194    .text:00000000000000b4 .L0 
     /tmp/ccneZXpP.s:196    .text:00000000000000b8 .L0 
     /tmp/ccneZXpP.s:198    .text:00000000000000bc .L0 
     /tmp/ccneZXpP.s:165    .text:0000000000000084 _ZN14PeriodicThreadD1Ev
     /tmp/ccneZXpP.s:206    .text:00000000000000bc _ZN6ThreadD0Ev
     /tmp/ccneZXpP.s:209    .text:00000000000000bc .L0 
     /tmp/ccneZXpP.s:211    .text:00000000000000bc .L0 
     /tmp/ccneZXpP.s:212    .text:00000000000000c0 .L0 
     /tmp/ccneZXpP.s:216    .text:00000000000000cc .L0 
     /tmp/ccneZXpP.s:217    .text:00000000000000cc .L0 
     /tmp/ccneZXpP.s:218    .text:00000000000000cc .L0 
     /tmp/ccneZXpP.s:220    .text:00000000000000d0 .L0 
     /tmp/ccneZXpP.s:223    .text:00000000000000d4 .L0 
     /tmp/ccneZXpP.s:229    .text:00000000000000ec .L0 
     /tmp/ccneZXpP.s:231    .text:00000000000000f0 .L0 
     /tmp/ccneZXpP.s:232    .text:00000000000000f0 .L0 
     /tmp/ccneZXpP.s:234    .text:00000000000000f4 .L0 
     /tmp/ccneZXpP.s:237    .text:00000000000000f8 .L0 
     /tmp/ccneZXpP.s:239    .text:00000000000000fc .L0 
     /tmp/ccneZXpP.s:245    .text:00000000000000fc _ZN14PeriodicThreadD0Ev
     /tmp/ccneZXpP.s:248    .text:00000000000000fc .L0 
     /tmp/ccneZXpP.s:250    .text:00000000000000fc .L0 
     /tmp/ccneZXpP.s:251    .text:0000000000000100 .L0 
     /tmp/ccneZXpP.s:255    .text:000000000000010c .L0 
     /tmp/ccneZXpP.s:256    .text:000000000000010c .L0 
     /tmp/ccneZXpP.s:257    .text:000000000000010c .L0 
     /tmp/ccneZXpP.s:259    .text:0000000000000110 .L0 
     /tmp/ccneZXpP.s:262    .text:0000000000000114 .L0 
     /tmp/ccneZXpP.s:268    .text:000000000000012c .L0 
     /tmp/ccneZXpP.s:270    .text:0000000000000130 .L0 
     /tmp/ccneZXpP.s:271    .text:0000000000000130 .L0 
     /tmp/ccneZXpP.s:273    .text:0000000000000134 .L0 
     /tmp/ccneZXpP.s:276    .text:0000000000000138 .L0 
     /tmp/ccneZXpP.s:278    .text:000000000000013c .L0 
GAS LISTING /tmp/ccneZXpP.s 			page 23


     /tmp/ccneZXpP.s:284    .text:000000000000013c _ZN14PeriodicThread3runEv
     /tmp/ccneZXpP.s:287    .text:000000000000013c .L0 
     /tmp/ccneZXpP.s:289    .text:000000000000013c .L0 
     /tmp/ccneZXpP.s:290    .text:0000000000000140 .L0 
     /tmp/ccneZXpP.s:294    .text:000000000000014c .L0 
     /tmp/ccneZXpP.s:295    .text:000000000000014c .L0 
     /tmp/ccneZXpP.s:296    .text:000000000000014c .L0 
     /tmp/ccneZXpP.s:298    .text:0000000000000150 .L0 
     /tmp/ccneZXpP.s:303    .text:0000000000000154 .L0 
     /tmp/ccneZXpP.s:304    .text:0000000000000154 .L0 
     /tmp/ccneZXpP.s:305    .text:0000000000000154 .L0 
     /tmp/ccneZXpP.s:307    .text:0000000000000158 .L0 
     /tmp/ccneZXpP.s:309    .text:000000000000015c .L0 
     /tmp/ccneZXpP.s:310    .text:000000000000015c .L0 
     /tmp/ccneZXpP.s:313    .text:0000000000000164 .L0 
     /tmp/ccneZXpP.s:317    .text:000000000000016c .L0 
     /tmp/ccneZXpP.s:318    .text:000000000000016c .L0 
     /tmp/ccneZXpP.s:322    .text:0000000000000178 .L0 
     /tmp/ccneZXpP.s:325    .text:000000000000017c .L0 
     /tmp/ccneZXpP.s:326    .text:0000000000000180 .L0 
     /tmp/ccneZXpP.s:328    .text:0000000000000184 .L0 
     /tmp/ccneZXpP.s:329    .text:0000000000000184 .L0 
     /tmp/ccneZXpP.s:331    .text:0000000000000188 .L0 
     /tmp/ccneZXpP.s:334    .text:000000000000018c .L0 
     /tmp/ccneZXpP.s:336    .text:0000000000000190 .L0 
     /tmp/ccneZXpP.s:342    .text:0000000000000190 _ZN9SemaphoreD2Ev
     /tmp/ccneZXpP.s:345    .text:0000000000000190 .L0 
     /tmp/ccneZXpP.s:349    .text:0000000000000190 .L0 
     /tmp/ccneZXpP.s:350    .text:0000000000000194 .L0 
     /tmp/ccneZXpP.s:353    .text:000000000000019c .L0 
     /tmp/ccneZXpP.s:354    .text:000000000000019c .L0 
     /tmp/ccneZXpP.s:356    .text:00000000000001a0 .L0 
     /tmp/ccneZXpP.s:898    .data.rel.ro.local._ZTV9Semaphore:0000000000000000 _ZTV9Semaphore
     /tmp/ccneZXpP.s:359    .text:00000000000001a0 .L0 
     /tmp/ccneZXpP.s:362    .text:00000000000001ac .L0 
     /tmp/ccneZXpP.s:363    .text:00000000000001ac .L0 
     /tmp/ccneZXpP.s:369    .text:00000000000001b8 .L0 
     /tmp/ccneZXpP.s:370    .text:00000000000001bc .L0 
     /tmp/ccneZXpP.s:372    .text:00000000000001c0 .L0 
     /tmp/ccneZXpP.s:373    .text:00000000000001c0 .L0 
     /tmp/ccneZXpP.s:375    .text:00000000000001c4 .L0 
     /tmp/ccneZXpP.s:377    .text:00000000000001c8 .L0 
     /tmp/ccneZXpP.s:342    .text:0000000000000190 _ZN9SemaphoreD1Ev
     /tmp/ccneZXpP.s:392    .text:00000000000001c8 _ZN9SemaphoreD0Ev
     /tmp/ccneZXpP.s:395    .text:00000000000001c8 .L0 
     /tmp/ccneZXpP.s:397    .text:00000000000001c8 .L0 
     /tmp/ccneZXpP.s:398    .text:00000000000001cc .L0 
     /tmp/ccneZXpP.s:402    .text:00000000000001d8 .L0 
     /tmp/ccneZXpP.s:403    .text:00000000000001d8 .L0 
     /tmp/ccneZXpP.s:404    .text:00000000000001d8 .L0 
     /tmp/ccneZXpP.s:406    .text:00000000000001dc .L0 
     /tmp/ccneZXpP.s:409    .text:00000000000001e0 .L0 
     /tmp/ccneZXpP.s:415    .text:00000000000001f8 .L0 
     /tmp/ccneZXpP.s:417    .text:00000000000001fc .L0 
     /tmp/ccneZXpP.s:418    .text:00000000000001fc .L0 
     /tmp/ccneZXpP.s:420    .text:0000000000000200 .L0 
     /tmp/ccneZXpP.s:423    .text:0000000000000204 .L0 
GAS LISTING /tmp/ccneZXpP.s 			page 24


     /tmp/ccneZXpP.s:425    .text:0000000000000208 .L0 
     /tmp/ccneZXpP.s:431    .text:0000000000000208 _ZN6ThreadC2EPFvPvES0_
     /tmp/ccneZXpP.s:434    .text:0000000000000208 .L0 
     /tmp/ccneZXpP.s:436    .text:0000000000000208 .L0 
     /tmp/ccneZXpP.s:437    .text:000000000000020c .L0 
     /tmp/ccneZXpP.s:439    .text:0000000000000210 .L0 
     /tmp/ccneZXpP.s:441    .text:0000000000000214 .L0 
     /tmp/ccneZXpP.s:444    .text:0000000000000214 .L0 
     /tmp/ccneZXpP.s:451    .text:000000000000022c .L0 
     /tmp/ccneZXpP.s:452    .text:0000000000000230 .L0 
     /tmp/ccneZXpP.s:453    .text:0000000000000230 .L0 
     /tmp/ccneZXpP.s:455    .text:0000000000000234 .L0 
     /tmp/ccneZXpP.s:457    .text:0000000000000238 .L0 
     /tmp/ccneZXpP.s:431    .text:0000000000000208 _ZN6ThreadC1EPFvPvES0_
     /tmp/ccneZXpP.s:465    .text:0000000000000238 _ZN6Thread5startEv
     /tmp/ccneZXpP.s:468    .text:0000000000000238 .L0 
     /tmp/ccneZXpP.s:470    .text:0000000000000238 .L0 
     /tmp/ccneZXpP.s:471    .text:000000000000023c .L0 
     /tmp/ccneZXpP.s:474    .text:0000000000000244 .L0 
     /tmp/ccneZXpP.s:475    .text:0000000000000244 .L0 
     /tmp/ccneZXpP.s:477    .text:0000000000000248 .L0 
     /tmp/ccneZXpP.s:479    .text:0000000000000248 .L0 
     /tmp/ccneZXpP.s:480    .text:0000000000000248 .L0 
     /tmp/ccneZXpP.s:487    .text:000000000000025c .L0 
     /tmp/ccneZXpP.s:488    .text:0000000000000260 .L0 
     /tmp/ccneZXpP.s:490    .text:0000000000000264 .L0 
     /tmp/ccneZXpP.s:491    .text:0000000000000264 .L0 
     /tmp/ccneZXpP.s:493    .text:0000000000000268 .L0 
     /tmp/ccneZXpP.s:495    .text:000000000000026c .L0 
     /tmp/ccneZXpP.s:501    .text:000000000000026c _ZN6Thread8dispatchEv
     /tmp/ccneZXpP.s:504    .text:000000000000026c .L0 
     /tmp/ccneZXpP.s:505    .text:000000000000026c .L0 
     /tmp/ccneZXpP.s:506    .text:0000000000000270 .L0 
     /tmp/ccneZXpP.s:509    .text:0000000000000278 .L0 
     /tmp/ccneZXpP.s:510    .text:0000000000000278 .L0 
     /tmp/ccneZXpP.s:512    .text:000000000000027c .L0 
     /tmp/ccneZXpP.s:514    .text:000000000000027c .L0 
     /tmp/ccneZXpP.s:515    .text:000000000000027c .L0 
     /tmp/ccneZXpP.s:518    .text:0000000000000284 .L0 
     /tmp/ccneZXpP.s:519    .text:0000000000000288 .L0 
     /tmp/ccneZXpP.s:521    .text:000000000000028c .L0 
     /tmp/ccneZXpP.s:522    .text:000000000000028c .L0 
     /tmp/ccneZXpP.s:524    .text:0000000000000290 .L0 
     /tmp/ccneZXpP.s:526    .text:0000000000000294 .L0 
     /tmp/ccneZXpP.s:532    .text:0000000000000294 _ZN6ThreadC2Ev
     /tmp/ccneZXpP.s:535    .text:0000000000000294 .L0 
     /tmp/ccneZXpP.s:537    .text:0000000000000294 .L0 
     /tmp/ccneZXpP.s:538    .text:0000000000000298 .L0 
     /tmp/ccneZXpP.s:540    .text:000000000000029c .L0 
     /tmp/ccneZXpP.s:542    .text:00000000000002a0 .L0 
     /tmp/ccneZXpP.s:545    .text:00000000000002a0 .L0 
     /tmp/ccneZXpP.s:553    .text:00000000000002c0 .L0 
     /tmp/ccneZXpP.s:554    .text:00000000000002c4 .L0 
     /tmp/ccneZXpP.s:555    .text:00000000000002c4 .L0 
     /tmp/ccneZXpP.s:557    .text:00000000000002c8 .L0 
     /tmp/ccneZXpP.s:559    .text:00000000000002cc .L0 
     /tmp/ccneZXpP.s:532    .text:0000000000000294 _ZN6ThreadC1Ev
GAS LISTING /tmp/ccneZXpP.s 			page 25


     /tmp/ccneZXpP.s:567    .text:00000000000002cc _ZN6Thread4joinEv
     /tmp/ccneZXpP.s:570    .text:00000000000002cc .L0 
     /tmp/ccneZXpP.s:572    .text:00000000000002cc .L0 
     /tmp/ccneZXpP.s:573    .text:00000000000002d0 .L0 
     /tmp/ccneZXpP.s:576    .text:00000000000002d8 .L0 
     /tmp/ccneZXpP.s:577    .text:00000000000002d8 .L0 
     /tmp/ccneZXpP.s:579    .text:00000000000002dc .L0 
     /tmp/ccneZXpP.s:581    .text:00000000000002dc .L0 
     /tmp/ccneZXpP.s:582    .text:00000000000002dc .L0 
     /tmp/ccneZXpP.s:587    .text:00000000000002e8 .L0 
     /tmp/ccneZXpP.s:588    .text:00000000000002ec .L0 
     /tmp/ccneZXpP.s:590    .text:00000000000002f0 .L0 
     /tmp/ccneZXpP.s:591    .text:00000000000002f0 .L0 
     /tmp/ccneZXpP.s:593    .text:00000000000002f4 .L0 
     /tmp/ccneZXpP.s:595    .text:00000000000002f8 .L0 
     /tmp/ccneZXpP.s:601    .text:00000000000002f8 _ZN6Thread5sleepEm
     /tmp/ccneZXpP.s:604    .text:00000000000002f8 .L0 
     /tmp/ccneZXpP.s:606    .text:00000000000002f8 .L0 
     /tmp/ccneZXpP.s:607    .text:00000000000002fc .L0 
     /tmp/ccneZXpP.s:610    .text:0000000000000304 .L0 
     /tmp/ccneZXpP.s:611    .text:0000000000000304 .L0 
     /tmp/ccneZXpP.s:613    .text:0000000000000308 .L0 
     /tmp/ccneZXpP.s:615    .text:0000000000000308 .L0 
     /tmp/ccneZXpP.s:616    .text:0000000000000308 .L0 
     /tmp/ccneZXpP.s:619    .text:0000000000000310 .L0 
     /tmp/ccneZXpP.s:620    .text:0000000000000314 .L0 
     /tmp/ccneZXpP.s:622    .text:0000000000000318 .L0 
     /tmp/ccneZXpP.s:623    .text:0000000000000318 .L0 
     /tmp/ccneZXpP.s:625    .text:000000000000031c .L0 
     /tmp/ccneZXpP.s:627    .text:0000000000000320 .L0 
     /tmp/ccneZXpP.s:633    .text:0000000000000320 _ZN9SemaphoreC2Ej
     /tmp/ccneZXpP.s:636    .text:0000000000000320 .L0 
     /tmp/ccneZXpP.s:638    .text:0000000000000320 .L0 
     /tmp/ccneZXpP.s:639    .text:0000000000000324 .L0 
     /tmp/ccneZXpP.s:642    .text:000000000000032c .L0 
     /tmp/ccneZXpP.s:643    .text:000000000000032c .L0 
     /tmp/ccneZXpP.s:645    .text:0000000000000330 .L0 
     /tmp/ccneZXpP.s:648    .text:0000000000000330 .L0 
     /tmp/ccneZXpP.s:652    .text:0000000000000340 .L0 
     /tmp/ccneZXpP.s:653    .text:0000000000000340 .L0 
     /tmp/ccneZXpP.s:659    .text:000000000000034c .L0 
     /tmp/ccneZXpP.s:660    .text:0000000000000350 .L0 
     /tmp/ccneZXpP.s:662    .text:0000000000000354 .L0 
     /tmp/ccneZXpP.s:663    .text:0000000000000354 .L0 
     /tmp/ccneZXpP.s:665    .text:0000000000000358 .L0 
     /tmp/ccneZXpP.s:667    .text:000000000000035c .L0 
     /tmp/ccneZXpP.s:633    .text:0000000000000320 _ZN9SemaphoreC1Ej
     /tmp/ccneZXpP.s:675    .text:000000000000035c _ZN9Semaphore4waitEv
     /tmp/ccneZXpP.s:678    .text:000000000000035c .L0 
     /tmp/ccneZXpP.s:680    .text:000000000000035c .L0 
     /tmp/ccneZXpP.s:681    .text:0000000000000360 .L0 
     /tmp/ccneZXpP.s:684    .text:0000000000000368 .L0 
     /tmp/ccneZXpP.s:685    .text:0000000000000368 .L0 
     /tmp/ccneZXpP.s:687    .text:000000000000036c .L0 
     /tmp/ccneZXpP.s:689    .text:000000000000036c .L0 
     /tmp/ccneZXpP.s:690    .text:000000000000036c .L0 
     /tmp/ccneZXpP.s:695    .text:0000000000000378 .L0 
GAS LISTING /tmp/ccneZXpP.s 			page 26


     /tmp/ccneZXpP.s:696    .text:000000000000037c .L0 
     /tmp/ccneZXpP.s:698    .text:0000000000000380 .L0 
     /tmp/ccneZXpP.s:699    .text:0000000000000380 .L0 
     /tmp/ccneZXpP.s:701    .text:0000000000000384 .L0 
     /tmp/ccneZXpP.s:703    .text:0000000000000388 .L0 
     /tmp/ccneZXpP.s:709    .text:0000000000000388 _ZN9Semaphore6signalEv
     /tmp/ccneZXpP.s:712    .text:0000000000000388 .L0 
     /tmp/ccneZXpP.s:714    .text:0000000000000388 .L0 
     /tmp/ccneZXpP.s:715    .text:000000000000038c .L0 
     /tmp/ccneZXpP.s:718    .text:0000000000000394 .L0 
     /tmp/ccneZXpP.s:719    .text:0000000000000394 .L0 
     /tmp/ccneZXpP.s:721    .text:0000000000000398 .L0 
     /tmp/ccneZXpP.s:723    .text:0000000000000398 .L0 
     /tmp/ccneZXpP.s:724    .text:0000000000000398 .L0 
     /tmp/ccneZXpP.s:729    .text:00000000000003a4 .L0 
     /tmp/ccneZXpP.s:730    .text:00000000000003a8 .L0 
     /tmp/ccneZXpP.s:732    .text:00000000000003ac .L0 
     /tmp/ccneZXpP.s:733    .text:00000000000003ac .L0 
     /tmp/ccneZXpP.s:735    .text:00000000000003b0 .L0 
     /tmp/ccneZXpP.s:737    .text:00000000000003b4 .L0 
     /tmp/ccneZXpP.s:743    .text:00000000000003b4 _ZN14PeriodicThread9terminateEv
     /tmp/ccneZXpP.s:746    .text:00000000000003b4 .L0 
     /tmp/ccneZXpP.s:748    .text:00000000000003b4 .L0 
     /tmp/ccneZXpP.s:749    .text:00000000000003b8 .L0 
     /tmp/ccneZXpP.s:751    .text:00000000000003bc .L0 
     /tmp/ccneZXpP.s:753    .text:00000000000003c0 .L0 
     /tmp/ccneZXpP.s:755    .text:00000000000003c0 .L0 
     /tmp/ccneZXpP.s:756    .text:00000000000003c0 .L0 
     /tmp/ccneZXpP.s:758    .text:00000000000003c4 .L0 
     /tmp/ccneZXpP.s:759    .text:00000000000003c8 .L0 
     /tmp/ccneZXpP.s:760    .text:00000000000003c8 .L0 
     /tmp/ccneZXpP.s:762    .text:00000000000003cc .L0 
     /tmp/ccneZXpP.s:764    .text:00000000000003d0 .L0 
     /tmp/ccneZXpP.s:770    .text:00000000000003d0 _ZN14PeriodicThreadC2Em
     /tmp/ccneZXpP.s:773    .text:00000000000003d0 .L0 
     /tmp/ccneZXpP.s:775    .text:00000000000003d0 .L0 
     /tmp/ccneZXpP.s:776    .text:00000000000003d4 .L0 
     /tmp/ccneZXpP.s:781    .text:00000000000003e4 .L0 
     /tmp/ccneZXpP.s:782    .text:00000000000003e4 .L0 
     /tmp/ccneZXpP.s:783    .text:00000000000003e4 .L0 
     /tmp/ccneZXpP.s:784    .text:00000000000003e4 .L0 
     /tmp/ccneZXpP.s:786    .text:00000000000003e8 .L0 
     /tmp/ccneZXpP.s:791    .text:00000000000003f0 .L0 
     /tmp/ccneZXpP.s:796    .text:0000000000000404 .L0 
     /tmp/ccneZXpP.s:797    .text:0000000000000404 .L0 
     /tmp/ccneZXpP.s:800    .text:0000000000000408 .L0 
     /tmp/ccneZXpP.s:801    .text:000000000000040c .L0 
     /tmp/ccneZXpP.s:803    .text:0000000000000410 .L0 
     /tmp/ccneZXpP.s:804    .text:0000000000000410 .L0 
     /tmp/ccneZXpP.s:806    .text:0000000000000414 .L0 
     /tmp/ccneZXpP.s:809    .text:0000000000000418 .L0 
     /tmp/ccneZXpP.s:812    .text:000000000000041c .L0 
     /tmp/ccneZXpP.s:814    .text:0000000000000420 .L0 
     /tmp/ccneZXpP.s:770    .text:00000000000003d0 _ZN14PeriodicThreadC1Em
     /tmp/ccneZXpP.s:822    .text:0000000000000420 _ZN7Console4getcEv
     /tmp/ccneZXpP.s:825    .text:0000000000000420 .L0 
     /tmp/ccneZXpP.s:826    .text:0000000000000420 .L0 
GAS LISTING /tmp/ccneZXpP.s 			page 27


     /tmp/ccneZXpP.s:827    .text:0000000000000424 .L0 
     /tmp/ccneZXpP.s:830    .text:000000000000042c .L0 
     /tmp/ccneZXpP.s:831    .text:000000000000042c .L0 
     /tmp/ccneZXpP.s:833    .text:0000000000000430 .L0 
     /tmp/ccneZXpP.s:835    .text:0000000000000430 .L0 
     /tmp/ccneZXpP.s:836    .text:0000000000000430 .L0 
     /tmp/ccneZXpP.s:839    .text:0000000000000438 .L0 
     /tmp/ccneZXpP.s:840    .text:000000000000043c .L0 
     /tmp/ccneZXpP.s:842    .text:0000000000000440 .L0 
     /tmp/ccneZXpP.s:843    .text:0000000000000440 .L0 
     /tmp/ccneZXpP.s:845    .text:0000000000000444 .L0 
     /tmp/ccneZXpP.s:847    .text:0000000000000448 .L0 
     /tmp/ccneZXpP.s:853    .text:0000000000000448 _ZN7Console4putcEc
     /tmp/ccneZXpP.s:856    .text:0000000000000448 .L0 
     /tmp/ccneZXpP.s:858    .text:0000000000000448 .L0 
     /tmp/ccneZXpP.s:859    .text:000000000000044c .L0 
     /tmp/ccneZXpP.s:862    .text:0000000000000454 .L0 
     /tmp/ccneZXpP.s:863    .text:0000000000000454 .L0 
     /tmp/ccneZXpP.s:865    .text:0000000000000458 .L0 
     /tmp/ccneZXpP.s:867    .text:0000000000000458 .L0 
     /tmp/ccneZXpP.s:868    .text:0000000000000458 .L0 
     /tmp/ccneZXpP.s:871    .text:0000000000000460 .L0 
     /tmp/ccneZXpP.s:872    .text:0000000000000464 .L0 
     /tmp/ccneZXpP.s:874    .text:0000000000000468 .L0 
     /tmp/ccneZXpP.s:875    .text:0000000000000468 .L0 
     /tmp/ccneZXpP.s:877    .text:000000000000046c .L0 
     /tmp/ccneZXpP.s:879    .text:0000000000000470 .L0 
     /tmp/ccneZXpP.s:32     .text._ZN6Thread3runEv:0000000000000018 .L0 
     /tmp/ccneZXpP.s:57     .text._ZN14PeriodicThread18periodicActivationEv:0000000000000018 .L0 
     /tmp/ccneZXpP.s:921    .text:0000000000000470 .L0 
     /tmp/ccneZXpP.s:117    .text:0000000000000044 .L0 
     /tmp/ccneZXpP.s:180    .text:0000000000000094 .L0 
     /tmp/ccneZXpP.s:359    .text:00000000000001a0 .L0 
     /tmp/ccneZXpP.s:444    .text:0000000000000214 .L0 
     /tmp/ccneZXpP.s:545    .text:00000000000002a0 .L0 
     /tmp/ccneZXpP.s:548    .text:00000000000002b0 .L0 
     /tmp/ccneZXpP.s:648    .text:0000000000000330 .L0 
     /tmp/ccneZXpP.s:793    .text:00000000000003f8 .L0 
     /tmp/ccneZXpP.s:135    .text:0000000000000070 .L7
     /tmp/ccneZXpP.s:323    .text:000000000000017c .L16
     /tmp/ccneZXpP.s:301    .text:0000000000000154 .L18
     /tmp/ccneZXpP.s:2496   .debug_abbrev:0000000000000000 .Ldebug_abbrev0
     /tmp/ccneZXpP.s:4011   .debug_str:0000000000000725 .LASF135
     /tmp/ccneZXpP.s:3985   .debug_str:0000000000000659 .LASF136
     /tmp/ccneZXpP.s:3845   .debug_str:000000000000023c .LASF137
     /tmp/ccneZXpP.s:3755   .debug_ranges:0000000000000000 .Ldebug_ranges0
     /tmp/ccneZXpP.s:3765   .debug_line:0000000000000000 .Ldebug_line0
     /tmp/ccneZXpP.s:3931   .debug_str:00000000000004a9 .LASF0
     /tmp/ccneZXpP.s:3943   .debug_str:00000000000004fe .LASF1
     /tmp/ccneZXpP.s:3913   .debug_str:000000000000043a .LASF2
     /tmp/ccneZXpP.s:3877   .debug_str:0000000000000349 .LASF4
     /tmp/ccneZXpP.s:3995   .debug_str:00000000000006ab .LASF3
     /tmp/ccneZXpP.s:3789   .debug_str:00000000000000a6 .LASF5
     /tmp/ccneZXpP.s:3827   .debug_str:00000000000001c6 .LASF6
     /tmp/ccneZXpP.s:3949   .debug_str:0000000000000545 .LASF7
     /tmp/ccneZXpP.s:3929   .debug_str:0000000000000496 .LASF8
     /tmp/ccneZXpP.s:4029   .debug_str:000000000000085d .LASF9
GAS LISTING /tmp/ccneZXpP.s 			page 28


     /tmp/ccneZXpP.s:3859   .debug_str:00000000000002b7 .LASF10
     /tmp/ccneZXpP.s:3961   .debug_str:000000000000058f .LASF11
     /tmp/ccneZXpP.s:4015   .debug_str:00000000000007f5 .LASF12
     /tmp/ccneZXpP.s:3793   .debug_str:00000000000000ba .LASF13
     /tmp/ccneZXpP.s:3775   .debug_str:000000000000003e .LASF14
     /tmp/ccneZXpP.s:3807   .debug_str:000000000000012d .LASF15
     /tmp/ccneZXpP.s:3991   .debug_str:000000000000068c .LASF16
     /tmp/ccneZXpP.s:3819   .debug_str:000000000000019a .LASF17
     /tmp/ccneZXpP.s:3767   .debug_str:0000000000000000 .LASF18
     /tmp/ccneZXpP.s:3837   .debug_str:0000000000000223 .LASF19
     /tmp/ccneZXpP.s:3875   .debug_str:0000000000000344 .LASF20
     /tmp/ccneZXpP.s:4005   .debug_str:00000000000006ef .LASF22
     /tmp/ccneZXpP.s:4027   .debug_str:0000000000000858 .LASF21
     /tmp/ccneZXpP.s:3797   .debug_str:00000000000000dc .LASF23
     /tmp/ccneZXpP.s:3769   .debug_str:0000000000000009 .LASF24
     /tmp/ccneZXpP.s:4025   .debug_str:0000000000000847 .LASF26
     /tmp/ccneZXpP.s:3841   .debug_str:0000000000000232 .LASF25
     /tmp/ccneZXpP.s:3977   .debug_str:0000000000000610 .LASF27
     /tmp/ccneZXpP.s:3953   .debug_str:000000000000055d .LASF28
     /tmp/ccneZXpP.s:3869   .debug_str:0000000000000313 .LASF29
     /tmp/ccneZXpP.s:3821   .debug_str:00000000000001b0 .LASF30
     /tmp/ccneZXpP.s:4021   .debug_str:000000000000082e .LASF31
     /tmp/ccneZXpP.s:4039   .debug_str:00000000000008aa .LASF32
     /tmp/ccneZXpP.s:3791   .debug_str:00000000000000ad .LASF33
     /tmp/ccneZXpP.s:3999   .debug_str:00000000000006c2 .LASF84
     /tmp/ccneZXpP.s:3849   .debug_str:0000000000000263 .LASF86
     /tmp/ccneZXpP.s:4033   .debug_str:000000000000087d .LASF34
     /tmp/ccneZXpP.s:4037   .debug_str:0000000000000895 .LASF35
     /tmp/ccneZXpP.s:3989   .debug_str:0000000000000682 .LASF36
     /tmp/ccneZXpP.s:3895   .debug_str:00000000000003cb .LASF37
     /tmp/ccneZXpP.s:3887   .debug_str:000000000000038d .LASF38
     /tmp/ccneZXpP.s:3771   .debug_str:000000000000000f .LASF39
     /tmp/ccneZXpP.s:3917   .debug_str:0000000000000450 .LASF40
     /tmp/ccneZXpP.s:3809   .debug_str:0000000000000139 .LASF41
     /tmp/ccneZXpP.s:3927   .debug_str:000000000000048e .LASF42
     /tmp/ccneZXpP.s:3911   .debug_str:0000000000000433 .LASF43
     /tmp/ccneZXpP.s:3873   .debug_str:000000000000033c .LASF44
     /tmp/ccneZXpP.s:3777   .debug_str:000000000000004e .LASF117
     /tmp/ccneZXpP.s:3801   .debug_str:00000000000000fe .LASF138
     /tmp/ccneZXpP.s:3919   .debug_str:0000000000000458 .LASF61
     /tmp/ccneZXpP.s:3945   .debug_str:0000000000000511 .LASF139
     /tmp/ccneZXpP.s:3951   .debug_str:0000000000000558 .LASF45
     /tmp/ccneZXpP.s:3901   .debug_str:0000000000000403 .LASF46
     /tmp/ccneZXpP.s:3903   .debug_str:000000000000040d .LASF140
     /tmp/ccneZXpP.s:3825   .debug_str:00000000000001c1 .LASF47
     /tmp/ccneZXpP.s:3907   .debug_str:0000000000000421 .LASF48
     /tmp/ccneZXpP.s:3957   .debug_str:0000000000000573 .LASF49
     /tmp/ccneZXpP.s:4003   .debug_str:00000000000006dc .LASF50
     /tmp/ccneZXpP.s:3981   .debug_str:0000000000000637 .LASF51
     /tmp/ccneZXpP.s:3923   .debug_str:000000000000046f .LASF66
     /tmp/ccneZXpP.s:3867   .debug_str:00000000000002fc .LASF68
     /tmp/ccneZXpP.s:4009   .debug_str:000000000000071c .LASF52
     /tmp/ccneZXpP.s:3833   .debug_str:00000000000001f7 .LASF53
     /tmp/ccneZXpP.s:3915   .debug_str:0000000000000448 .LASF54
     /tmp/ccneZXpP.s:3829   .debug_str:00000000000001cd .LASF55
     /tmp/ccneZXpP.s:4013   .debug_str:00000000000007e9 .LASF56
     /tmp/ccneZXpP.s:3773   .debug_str:0000000000000020 .LASF57
GAS LISTING /tmp/ccneZXpP.s 			page 29


     /tmp/ccneZXpP.s:3803   .debug_str:0000000000000111 .LASF58
     /tmp/ccneZXpP.s:3893   .debug_str:00000000000003b0 .LASF59
     /tmp/ccneZXpP.s:3843   .debug_str:0000000000000237 .LASF60
     /tmp/ccneZXpP.s:3955   .debug_str:0000000000000564 .LASF62
     /tmp/ccneZXpP.s:4041   .debug_str:00000000000008b7 .LASF73
     /tmp/ccneZXpP.s:3781   .debug_str:0000000000000062 .LASF63
     /tmp/ccneZXpP.s:4007   .debug_str:00000000000006fc .LASF64
     /tmp/ccneZXpP.s:3785   .debug_str:000000000000007e .LASF65
     /tmp/ccneZXpP.s:3883   .debug_str:000000000000036f .LASF70
     /tmp/ccneZXpP.s:3815   .debug_str:000000000000015c .LASF141
     /tmp/ccneZXpP.s:4047   .debug_str:00000000000008f3 .LASF67
     /tmp/ccneZXpP.s:3881   .debug_str:0000000000000357 .LASF69
     /tmp/ccneZXpP.s:3863   .debug_str:00000000000002d8 .LASF89
     /tmp/ccneZXpP.s:3879   .debug_str:0000000000000350 .LASF71
     /tmp/ccneZXpP.s:4023   .debug_str:0000000000000840 .LASF72
     /tmp/ccneZXpP.s:3921   .debug_str:000000000000045d .LASF74
     /tmp/ccneZXpP.s:3909   .debug_str:0000000000000426 .LASF95
     /tmp/ccneZXpP.s:3965   .debug_str:00000000000005a8 .LASF75
     /tmp/ccneZXpP.s:3889   .debug_str:0000000000000393 .LASF76
     /tmp/ccneZXpP.s:3937   .debug_str:00000000000004d7 .LASF77
     /tmp/ccneZXpP.s:3941   .debug_str:00000000000004f8 .LASF78
     /tmp/ccneZXpP.s:3857   .debug_str:00000000000002a4 .LASF79
     /tmp/ccneZXpP.s:3997   .debug_str:00000000000006bd .LASF80
     /tmp/ccneZXpP.s:3939   .debug_str:00000000000004e6 .LASF81
     /tmp/ccneZXpP.s:3933   .debug_str:00000000000004b6 .LASF142
     /tmp/ccneZXpP.s:3851   .debug_str:0000000000000271 .LASF143
     /tmp/ccneZXpP.s:4053   .debug_str:0000000000000921 .LASF82
     /tmp/ccneZXpP.s:3861   .debug_str:00000000000002c5 .LASF83
     /tmp/ccneZXpP.s:3959   .debug_str:0000000000000578 .LASF85
     /tmp/ccneZXpP.s:3973   .debug_str:00000000000005de .LASF87
     /tmp/ccneZXpP.s:3835   .debug_str:0000000000000214 .LASF88
     /tmp/ccneZXpP.s:4045   .debug_str:00000000000008e2 .LASF90
     /tmp/ccneZXpP.s:4049   .debug_str:0000000000000903 .LASF91
     /tmp/ccneZXpP.s:3855   .debug_str:000000000000029f .LASF92
     /tmp/ccneZXpP.s:3865   .debug_str:00000000000002f2 .LASF93
     /tmp/ccneZXpP.s:3891   .debug_str:000000000000039b .LASF94
     /tmp/ccneZXpP.s:3787   .debug_str:0000000000000096 .LASF96
     /tmp/ccneZXpP.s:4019   .debug_str:000000000000081c .LASF97
     /tmp/ccneZXpP.s:3983   .debug_str:000000000000064e .LASF98
     /tmp/ccneZXpP.s:3805   .debug_str:000000000000011b .LASF99
     /tmp/ccneZXpP.s:3987   .debug_str:000000000000066d .LASF100
     /tmp/ccneZXpP.s:3979   .debug_str:0000000000000620 .LASF101
     /tmp/ccneZXpP.s:4031   .debug_str:000000000000086d .LASF144
     /tmp/ccneZXpP.s:854    .text:0000000000000448 .LFB54
     /tmp/ccneZXpP.s:880    .text:0000000000000470 .LFE54
     /tmp/ccneZXpP.s:3445   .debug_loc:0000000000000000 .LLST17
     /tmp/ccneZXpP.s:869    .text:0000000000000460 .LVL58
     /tmp/ccneZXpP.s:823    .text:0000000000000420 .LFB53
     /tmp/ccneZXpP.s:848    .text:0000000000000448 .LFE53
     /tmp/ccneZXpP.s:837    .text:0000000000000438 .LVL56
     /tmp/ccneZXpP.s:285    .text:000000000000013c .LFB52
     /tmp/ccneZXpP.s:337    .text:0000000000000190 .LFE52
     /tmp/ccneZXpP.s:3969   .debug_str:00000000000005d4 .LASF102
     /tmp/ccneZXpP.s:3459   .debug_loc:0000000000000039 .LLST5
     /tmp/ccneZXpP.s:315    .text:000000000000016c .LVL21
     /tmp/ccneZXpP.s:320    .text:0000000000000178 .LVL22
     /tmp/ccneZXpP.s:3963   .debug_str:000000000000059e .LASF103
GAS LISTING /tmp/ccneZXpP.s 			page 30


     /tmp/ccneZXpP.s:4017   .debug_str:0000000000000804 .LASF104
     /tmp/ccneZXpP.s:246    .text:00000000000000fc .LFB51
     /tmp/ccneZXpP.s:279    .text:000000000000013c .LFE51
     /tmp/ccneZXpP.s:3477   .debug_loc:0000000000000085 .LLST4
     /tmp/ccneZXpP.s:263    .text:000000000000011c .LVL16
     /tmp/ccneZXpP.s:266    .text:0000000000000128 .LVL17
     /tmp/ccneZXpP.s:3935   .debug_str:00000000000004bf .LASF105
     /tmp/ccneZXpP.s:166    .text:0000000000000084 .LFB49
     /tmp/ccneZXpP.s:199    .text:00000000000000bc .LFE49
     /tmp/ccneZXpP.s:3495   .debug_loc:00000000000000d1 .LLST2
     /tmp/ccneZXpP.s:187    .text:00000000000000ac .LVL10
     /tmp/ccneZXpP.s:3853   .debug_str:0000000000000287 .LASF106
     /tmp/ccneZXpP.s:771    .text:00000000000003d0 .LFB46
     /tmp/ccneZXpP.s:815    .text:0000000000000420 .LFE46
     /tmp/ccneZXpP.s:3509   .debug_loc:000000000000010a .LLST15
     /tmp/ccneZXpP.s:3527   .debug_loc:0000000000000156 .LLST16
     /tmp/ccneZXpP.s:792    .text:00000000000003f8 .LVL53
     /tmp/ccneZXpP.s:744    .text:00000000000003b4 .LFB44
     /tmp/ccneZXpP.s:765    .text:00000000000003d0 .LFE44
     /tmp/ccneZXpP.s:710    .text:0000000000000388 .LFB43
     /tmp/ccneZXpP.s:738    .text:00000000000003b4 .LFE43
     /tmp/ccneZXpP.s:3546   .debug_loc:00000000000001a3 .LLST14
     /tmp/ccneZXpP.s:727    .text:00000000000003a4 .LVL50
     /tmp/ccneZXpP.s:676    .text:000000000000035c .LFB42
     /tmp/ccneZXpP.s:704    .text:0000000000000388 .LFE42
     /tmp/ccneZXpP.s:3560   .debug_loc:00000000000001dc .LLST13
     /tmp/ccneZXpP.s:693    .text:0000000000000378 .LVL47
     /tmp/ccneZXpP.s:4055   .debug_str:0000000000000927 .LASF107
     /tmp/ccneZXpP.s:393    .text:00000000000001c8 .LFB41
     /tmp/ccneZXpP.s:426    .text:0000000000000208 .LFE41
     /tmp/ccneZXpP.s:3574   .debug_loc:0000000000000215 .LLST7
     /tmp/ccneZXpP.s:410    .text:00000000000001e8 .LVL28
     /tmp/ccneZXpP.s:413    .text:00000000000001f4 .LVL29
     /tmp/ccneZXpP.s:3795   .debug_str:00000000000000ca .LASF108
     /tmp/ccneZXpP.s:343    .text:0000000000000190 .LFB39
     /tmp/ccneZXpP.s:378    .text:00000000000001c8 .LFE39
     /tmp/ccneZXpP.s:3592   .debug_loc:0000000000000261 .LLST6
     /tmp/ccneZXpP.s:366    .text:00000000000001b8 .LVL26
     /tmp/ccneZXpP.s:3971   .debug_str:00000000000005d9 .LASF109
     /tmp/ccneZXpP.s:3783   .debug_str:000000000000006c .LASF110
     /tmp/ccneZXpP.s:634    .text:0000000000000320 .LFB36
     /tmp/ccneZXpP.s:668    .text:000000000000035c .LFE36
     /tmp/ccneZXpP.s:3606   .debug_loc:000000000000029a .LLST11
     /tmp/ccneZXpP.s:3626   .debug_loc:00000000000002e8 .LLST12
     /tmp/ccneZXpP.s:656    .text:000000000000034c .LVL44
     /tmp/ccneZXpP.s:602    .text:00000000000002f8 .LFB34
     /tmp/ccneZXpP.s:628    .text:0000000000000320 .LFE34
     /tmp/ccneZXpP.s:3640   .debug_loc:0000000000000321 .LLST10
     /tmp/ccneZXpP.s:617    .text:0000000000000310 .LVL41
     /tmp/ccneZXpP.s:568    .text:00000000000002cc .LFB33
     /tmp/ccneZXpP.s:596    .text:00000000000002f8 .LFE33
     /tmp/ccneZXpP.s:3654   .debug_loc:000000000000035a .LLST9
     /tmp/ccneZXpP.s:585    .text:00000000000002e8 .LVL39
     /tmp/ccneZXpP.s:4035   .debug_str:0000000000000886 .LASF111
     /tmp/ccneZXpP.s:533    .text:0000000000000294 .LFB31
     /tmp/ccneZXpP.s:560    .text:00000000000002cc .LFE31
     /tmp/ccneZXpP.s:502    .text:000000000000026c .LFB29
GAS LISTING /tmp/ccneZXpP.s 			page 31


     /tmp/ccneZXpP.s:527    .text:0000000000000294 .LFE29
     /tmp/ccneZXpP.s:516    .text:0000000000000284 .LVL35
     /tmp/ccneZXpP.s:466    .text:0000000000000238 .LFB28
     /tmp/ccneZXpP.s:496    .text:000000000000026c .LFE28
     /tmp/ccneZXpP.s:3668   .debug_loc:0000000000000393 .LLST8
     /tmp/ccneZXpP.s:485    .text:000000000000025c .LVL34
     /tmp/ccneZXpP.s:3779   .debug_str:0000000000000053 .LASF112
     /tmp/ccneZXpP.s:207    .text:00000000000000bc .LFB27
     /tmp/ccneZXpP.s:240    .text:00000000000000fc .LFE27
     /tmp/ccneZXpP.s:3688   .debug_loc:00000000000003e1 .LLST3
     /tmp/ccneZXpP.s:224    .text:00000000000000dc .LVL12
     /tmp/ccneZXpP.s:227    .text:00000000000000e8 .LVL13
     /tmp/ccneZXpP.s:3905   .debug_str:0000000000000412 .LASF113
     /tmp/ccneZXpP.s:98     .text:000000000000002c .LFB25
     /tmp/ccneZXpP.s:150    .text:0000000000000084 .LFE25
     /tmp/ccneZXpP.s:3706   .debug_loc:000000000000042d .LLST1
     /tmp/ccneZXpP.s:124    .text:000000000000005c .LVL6
     /tmp/ccneZXpP.s:3871   .debug_str:0000000000000325 .LASF114
     /tmp/ccneZXpP.s:432    .text:0000000000000208 .LFB22
     /tmp/ccneZXpP.s:458    .text:0000000000000238 .LFE22
     /tmp/ccneZXpP.s:62     .text:0000000000000000 .LFB20
     /tmp/ccneZXpP.s:92     .text:000000000000002c .LFE20
     /tmp/ccneZXpP.s:3724   .debug_loc:0000000000000479 .LLST0
     /tmp/ccneZXpP.s:81     .text:000000000000001c .LVL3
     /tmp/ccneZXpP.s:37     .text._ZN14PeriodicThread18periodicActivationEv:0000000000000000 .LFB8
     /tmp/ccneZXpP.s:55     .text._ZN14PeriodicThread18periodicActivationEv:0000000000000018 .LFE8
     /tmp/ccneZXpP.s:11     .text._ZN6Thread3runEv:0000000000000000 .LFB7
     /tmp/ccneZXpP.s:30     .text._ZN6Thread3runEv:0000000000000018 .LFE7
     /tmp/ccneZXpP.s:3847   .debug_str:000000000000025a .LASF115
     /tmp/ccneZXpP.s:3993   .debug_str:00000000000006a2 .LASF116
     /tmp/ccneZXpP.s:4043   .debug_str:00000000000008d2 .LASF118
     /tmp/ccneZXpP.s:3885   .debug_str:0000000000000382 .LASF119
     /tmp/ccneZXpP.s:3813   .debug_str:0000000000000155 .LASF120
     /tmp/ccneZXpP.s:3925   .debug_str:0000000000000479 .LASF121
     /tmp/ccneZXpP.s:3823   .debug_str:00000000000001b6 .LASF122
     /tmp/ccneZXpP.s:3799   .debug_str:00000000000000ec .LASF123
     /tmp/ccneZXpP.s:3811   .debug_str:000000000000014c .LASF124
     /tmp/ccneZXpP.s:3899   .debug_str:00000000000003f0 .LASF125
     /tmp/ccneZXpP.s:4001   .debug_str:00000000000006d2 .LASF126
     /tmp/ccneZXpP.s:3817   .debug_str:0000000000000186 .LASF127
     /tmp/ccneZXpP.s:3839   .debug_str:0000000000000229 .LASF128
     /tmp/ccneZXpP.s:4051   .debug_str:000000000000090c .LASF129
     /tmp/ccneZXpP.s:3975   .debug_str:0000000000000604 .LASF130
     /tmp/ccneZXpP.s:3967   .debug_str:00000000000005bf .LASF131
     /tmp/ccneZXpP.s:3897   .debug_str:00000000000003e0 .LASF132
     /tmp/ccneZXpP.s:3947   .debug_str:0000000000000524 .LASF133
     /tmp/ccneZXpP.s:3831   .debug_str:00000000000001e9 .LASF134
     /tmp/ccneZXpP.s:857    .text:0000000000000448 .LVL57
     /tmp/ccneZXpP.s:288    .text:000000000000013c .LVL19
     /tmp/ccneZXpP.s:300    .text:0000000000000154 .LVL20
     /tmp/ccneZXpP.s:332    .text:0000000000000188 .LVL23
     /tmp/ccneZXpP.s:249    .text:00000000000000fc .LVL15
     /tmp/ccneZXpP.s:274    .text:0000000000000134 .LVL18
     /tmp/ccneZXpP.s:169    .text:0000000000000084 .LVL9
     /tmp/ccneZXpP.s:774    .text:00000000000003d0 .LVL52
     /tmp/ccneZXpP.s:807    .text:0000000000000414 .LVL54
     /tmp/ccneZXpP.s:810    .text:0000000000000418 .LVL55
GAS LISTING /tmp/ccneZXpP.s 			page 32


     /tmp/ccneZXpP.s:713    .text:0000000000000388 .LVL48
     /tmp/ccneZXpP.s:725    .text:000000000000039c .LVL49
     /tmp/ccneZXpP.s:679    .text:000000000000035c .LVL45
     /tmp/ccneZXpP.s:691    .text:0000000000000370 .LVL46
     /tmp/ccneZXpP.s:396    .text:00000000000001c8 .LVL27
     /tmp/ccneZXpP.s:421    .text:0000000000000200 .LVL30
     /tmp/ccneZXpP.s:348    .text:0000000000000190 .LVL24
     /tmp/ccneZXpP.s:364    .text:00000000000001b0 .LVL25
     /tmp/ccneZXpP.s:637    .text:0000000000000320 .LVL42
     /tmp/ccneZXpP.s:654    .text:0000000000000344 .LVL43
     /tmp/ccneZXpP.s:605    .text:00000000000002f8 .LVL40
     /tmp/ccneZXpP.s:571    .text:00000000000002cc .LVL37
     /tmp/ccneZXpP.s:583    .text:00000000000002e0 .LVL38
     /tmp/ccneZXpP.s:469    .text:0000000000000238 .LVL32
     /tmp/ccneZXpP.s:483    .text:0000000000000254 .LVL33
     /tmp/ccneZXpP.s:210    .text:00000000000000bc .LVL11
     /tmp/ccneZXpP.s:235    .text:00000000000000f4 .LVL14
     /tmp/ccneZXpP.s:103    .text:000000000000002c .LVL4
     /tmp/ccneZXpP.s:122    .text:0000000000000054 .LVL5
     /tmp/ccneZXpP.s:145    .text:000000000000007c .LVL8
     /tmp/ccneZXpP.s:66     .text:0000000000000000 .LVL2
     /tmp/ccneZXpP.s:922    .debug_info:0000000000000000 .Ldebug_info0
     /tmp/ccneZXpP.s:5      .text:0000000000000000 .Ltext0
     /tmp/ccneZXpP.s:916    .text:0000000000000470 .Letext0
     /tmp/ccneZXpP.s:153    .gcc_except_table:0000000000000000 .LLSDA25
     /tmp/ccneZXpP.s:380    .gcc_except_table:0000000000000004 .LLSDA39

UNDEFINED SYMBOLS
_Z11thread_joinP3TCB
__gxx_personality_v0
_ZdlPv
_Z10time_sleepm
_Z9sem_closeP4_sem
_Z13thread_createPP3TCBPFvPvES2_
_Z15thread_dispatchv
_Z8sem_openPP4_semj
_Z8sem_waitP4_sem
_Z10sem_signalP4_sem
_Z4getcv
_Z4putcc
