GAS LISTING /tmp/ccFPo4MV.s 			page 1


   1              		.file	"syscall_c.cpp"
   2              		.option pic
   3              		.option norelax
   4              		.text
   5              	.Ltext0:
   6              		.align	2
   7              		.globl	_Z18commonPartSysCallsiz
   9              	_Z18commonPartSysCallsiz:
  10              	.LFB3:
  11              		.file 1 "src/syscall_c.cpp"
   1:src/syscall_c.cpp **** //
   2:src/syscall_c.cpp **** // Created by os on 7/6/23.
   3:src/syscall_c.cpp **** //
   4:src/syscall_c.cpp **** 
   5:src/syscall_c.cpp **** 
   6:src/syscall_c.cpp **** #include "../h/syscall_c.hpp"
   7:src/syscall_c.cpp **** #include "../lib/console.h"
   8:src/syscall_c.cpp **** 
   9:src/syscall_c.cpp **** void commonPartSysCalls(int code, ...){
  12              		.loc 1 9 39
  13              		.cfi_startproc
  14              	.LVL0:
  15 0000 130101FB 		addi	sp,sp,-80
  16              		.cfi_def_cfa_offset 80
  17 0004 23348100 		sd	s0,8(sp)
  18              		.cfi_offset 8, -72
  19 0008 13040101 		addi	s0,sp,16
  20              		.cfi_def_cfa 8, 64
  21 000c 2334B400 		sd	a1,8(s0)
  22 0010 2338C400 		sd	a2,16(s0)
  23 0014 233CD400 		sd	a3,24(s0)
  24 0018 2330E402 		sd	a4,32(s0)
  25 001c 2334F402 		sd	a5,40(s0)
  26 0020 23380403 		sd	a6,48(s0)
  27 0024 233C1403 		sd	a7,56(s0)
  10:src/syscall_c.cpp ****     __asm__ volatile("ecall");
  28              		.loc 1 10 5
  29              		.loc 1 10 30 is_stmt 0
  30              	#APP
  31              	# 10 "src/syscall_c.cpp" 1
  11              	}
  32              		ecall
  33              	# 0 "" 2
  34              		.loc 1 11 1
  35              	#NO_APP
  36 002c 03348100 		ld	s0,8(sp)
  37              		.cfi_restore 8
  38              		.cfi_def_cfa 2, 80
  39 0030 13010105 		addi	sp,sp,80
  40              		.cfi_def_cfa_offset 0
  41 0034 67800000 		jr	ra
  42              		.cfi_endproc
  43              	.LFE3:
  45              		.align	2
  46              		.globl	_Z9mem_allocm
  48              	_Z9mem_allocm:
  49              	.LFB4:
GAS LISTING /tmp/ccFPo4MV.s 			page 2


  12:src/syscall_c.cpp **** 
  13:src/syscall_c.cpp **** 
  14:src/syscall_c.cpp **** 
  15:src/syscall_c.cpp **** 
  16:src/syscall_c.cpp **** void *mem_alloc(size_t size) {
  50              		.loc 1 16 30 is_stmt 1
  51              		.cfi_startproc
  52              	.LVL1:
  53 0038 130101FE 		addi	sp,sp,-32
  54              		.cfi_def_cfa_offset 32
  55 003c 233C1100 		sd	ra,24(sp)
  56 0040 23388100 		sd	s0,16(sp)
  57              		.cfi_offset 1, -8
  58              		.cfi_offset 8, -16
  59 0044 13040102 		addi	s0,sp,32
  60              		.cfi_def_cfa 8, 0
  17:src/syscall_c.cpp ****     /*
  18:src/syscall_c.cpp ****     __asm__ volatile("mv a1, %0": : "r"((size+MEM_BLOCK_SIZE-1)/MEM_BLOCK_SIZE));
  19:src/syscall_c.cpp ****     __asm__ volatile ("mv a0, %0" : : "r"(0x01));//kod sist. poziva
  20:src/syscall_c.cpp **** 
  21:src/syscall_c.cpp ****     __asm__ volatile("ecall");
  22:src/syscall_c.cpp ****      */
  23:src/syscall_c.cpp **** 
  24:src/syscall_c.cpp ****     commonPartSysCalls(0x01, ((size+MEM_BLOCK_SIZE-1)/MEM_BLOCK_SIZE));
  61              		.loc 1 24 5
  62              		.loc 1 24 51 is_stmt 0
  63 0048 9305F503 		addi	a1,a0,63
  64              		.loc 1 24 23
  65 004c 93D56500 		srli	a1,a1,6
  66 0050 13051000 		li	a0,1
  67              	.LVL2:
  68 0054 97000000 		call	_Z18commonPartSysCallsiz
  68      E7800000 
  69              	.LVL3:
  25:src/syscall_c.cpp **** 
  26:src/syscall_c.cpp ****     //mozda nije potrebno volatile proveriti
  27:src/syscall_c.cpp ****     volatile uint64 ret;
  70              		.loc 1 27 5 is_stmt 1
  28:src/syscall_c.cpp ****     __asm__ volatile ("mv %0, a0": "=r"(ret));
  71              		.loc 1 28 5
  72              		.loc 1 28 46 is_stmt 0
  73              	#APP
  74              	# 28 "src/syscall_c.cpp" 1
  29              	    return (void*)ret;
  75              		mv a5, a0
  76              	# 0 "" 2
  77              	#NO_APP
  78 0060 2334F4FE 		sd	a5,-24(s0)
  79              		.loc 1 29 5 is_stmt 1
  80              		.loc 1 29 19 is_stmt 0
  81 0064 033584FE 		ld	a0,-24(s0)
  30:src/syscall_c.cpp **** }
  82              		.loc 1 30 1
  83 0068 83308101 		ld	ra,24(sp)
  84              		.cfi_restore 1
  85 006c 03340101 		ld	s0,16(sp)
  86              		.cfi_restore 8
GAS LISTING /tmp/ccFPo4MV.s 			page 3


  87              		.cfi_def_cfa 2, 32
  88 0070 13010102 		addi	sp,sp,32
  89              		.cfi_def_cfa_offset 0
  90 0074 67800000 		jr	ra
  91              		.cfi_endproc
  92              	.LFE4:
  94              		.align	2
  95              		.globl	_Z8mem_freePv
  97              	_Z8mem_freePv:
  98              	.LFB5:
  31:src/syscall_c.cpp **** 
  32:src/syscall_c.cpp **** int mem_free(void *ptr) {
  99              		.loc 1 32 25 is_stmt 1
 100              		.cfi_startproc
 101              	.LVL4:
 102 0078 130101FE 		addi	sp,sp,-32
 103              		.cfi_def_cfa_offset 32
 104 007c 233C1100 		sd	ra,24(sp)
 105 0080 23388100 		sd	s0,16(sp)
 106              		.cfi_offset 1, -8
 107              		.cfi_offset 8, -16
 108 0084 13040102 		addi	s0,sp,32
 109              		.cfi_def_cfa 8, 0
 110 0088 93050500 		mv	a1,a0
  33:src/syscall_c.cpp ****     /*
  34:src/syscall_c.cpp ****     __asm__ volatile("mv a1, %0": : "r"((uint64)ptr));
  35:src/syscall_c.cpp ****     __asm__ volatile ("mv a0, %0" : : "r"(0x02));
  36:src/syscall_c.cpp **** 
  37:src/syscall_c.cpp ****     __asm__ volatile("ecall");
  38:src/syscall_c.cpp ****      */
  39:src/syscall_c.cpp ****     commonPartSysCalls(0x02, (uint64)ptr);
 111              		.loc 1 39 5
 112              		.loc 1 39 23 is_stmt 0
 113 008c 13052000 		li	a0,2
 114              	.LVL5:
 115 0090 97000000 		call	_Z18commonPartSysCallsiz
 115      E7800000 
 116              	.LVL6:
  40:src/syscall_c.cpp ****     volatile int ret;
 117              		.loc 1 40 5 is_stmt 1
  41:src/syscall_c.cpp ****     __asm__ volatile ("mv %0, a0": "=r"(ret));
 118              		.loc 1 41 5
 119              		.loc 1 41 46 is_stmt 0
 120              	#APP
 121              	# 41 "src/syscall_c.cpp" 1
  42              	    return ret;
 122              		mv a5, a0
 123              	# 0 "" 2
 124              	#NO_APP
 125 009c 2326F4FE 		sw	a5,-20(s0)
 126              		.loc 1 42 5 is_stmt 1
 127              		.loc 1 42 12 is_stmt 0
 128 00a0 0325C4FE 		lw	a0,-20(s0)
  43:src/syscall_c.cpp **** }
 129              		.loc 1 43 1
 130 00a4 1B050500 		sext.w	a0,a0
 131 00a8 83308101 		ld	ra,24(sp)
GAS LISTING /tmp/ccFPo4MV.s 			page 4


 132              		.cfi_restore 1
 133 00ac 03340101 		ld	s0,16(sp)
 134              		.cfi_restore 8
 135              		.cfi_def_cfa 2, 32
 136 00b0 13010102 		addi	sp,sp,32
 137              		.cfi_def_cfa_offset 0
 138 00b4 67800000 		jr	ra
 139              		.cfi_endproc
 140              	.LFE5:
 142              		.align	2
 143              		.globl	_Z13thread_createPP3TCBPFvPvES2_
 145              	_Z13thread_createPP3TCBPFvPvES2_:
 146              	.LFB6:
  44:src/syscall_c.cpp **** 
  45:src/syscall_c.cpp **** int thread_create(thread_t *handle, void (*start_routine)(void *), void *arg) {
 147              		.loc 1 45 79 is_stmt 1
 148              		.cfi_startproc
 149              	.LVL7:
 150 00b8 130101FC 		addi	sp,sp,-64
 151              		.cfi_def_cfa_offset 64
 152 00bc 233C1102 		sd	ra,56(sp)
 153 00c0 23388102 		sd	s0,48(sp)
 154 00c4 23349102 		sd	s1,40(sp)
 155 00c8 23302103 		sd	s2,32(sp)
 156 00cc 233C3101 		sd	s3,24(sp)
 157              		.cfi_offset 1, -8
 158              		.cfi_offset 8, -16
 159              		.cfi_offset 9, -24
 160              		.cfi_offset 18, -32
 161              		.cfi_offset 19, -40
 162 00d0 13040104 		addi	s0,sp,64
 163              		.cfi_def_cfa 8, 0
 164 00d4 13090500 		mv	s2,a0
 165 00d8 93840500 		mv	s1,a1
 166 00dc 93090600 		mv	s3,a2
  46:src/syscall_c.cpp ****     if(start_routine!=nullptr){
 167              		.loc 1 46 5
 168              	.LBB2:
 169 00e0 638E0504 		beqz	a1,.L8
 170              	.LBB3:
  47:src/syscall_c.cpp ****         uint64* stack=(uint64*) mem_alloc(DEFAULT_STACK_SIZE*8);
 171              		.loc 1 47 9
 172              		.loc 1 47 42 is_stmt 0
 173 00e4 37850000 		li	a0,32768
 174              	.LVL8:
 175 00e8 97000000 		call	_Z9mem_allocm
 175      E7800000 
 176              	.LVL9:
 177 00f0 13070500 		mv	a4,a0
 178              	.LVL10:
  48:src/syscall_c.cpp ****         if(stack==nullptr)return -1;
 179              		.loc 1 48 9 is_stmt 1
 180 00f4 63040506 		beqz	a0,.L11
  49:src/syscall_c.cpp ****         commonPartSysCalls(0x11, handle, start_routine, arg, stack);
 181              		.loc 1 49 9
 182              		.loc 1 49 27 is_stmt 0
 183 00f8 93860900 		mv	a3,s3
GAS LISTING /tmp/ccFPo4MV.s 			page 5


 184 00fc 13860400 		mv	a2,s1
 185 0100 93050900 		mv	a1,s2
 186 0104 13051001 		li	a0,17
 187              	.LVL11:
 188 0108 97000000 		call	_Z18commonPartSysCallsiz
 188      E7800000 
 189              	.LVL12:
 190              	.L10:
 191              	.LBE3:
 192              	.LBE2:
  50:src/syscall_c.cpp ****     }
  51:src/syscall_c.cpp ****     else{
  52:src/syscall_c.cpp ****         commonPartSysCalls(0x11, handle, start_routine, arg, nullptr);
  53:src/syscall_c.cpp ****     }
  54:src/syscall_c.cpp **** 
  55:src/syscall_c.cpp **** 
  56:src/syscall_c.cpp **** 
  57:src/syscall_c.cpp ****     volatile int ret;
 193              		.loc 1 57 5 is_stmt 1
  58:src/syscall_c.cpp ****     __asm__ volatile ("mv %0, a0": "=r"(ret));
 194              		.loc 1 58 5
 195              		.loc 1 58 46 is_stmt 0
 196              	#APP
 197              	# 58 "src/syscall_c.cpp" 1
  59              	    return ret;
 198              		mv a5, a0
 199              	# 0 "" 2
 200              	#NO_APP
 201 0114 2326F4FC 		sw	a5,-52(s0)
 202              		.loc 1 59 5 is_stmt 1
 203              		.loc 1 59 12 is_stmt 0
 204 0118 0325C4FC 		lw	a0,-52(s0)
 205 011c 1B050500 		sext.w	a0,a0
 206              	.L9:
  60:src/syscall_c.cpp **** }
 207              		.loc 1 60 1
 208 0120 83308103 		ld	ra,56(sp)
 209              		.cfi_remember_state
 210              		.cfi_restore 1
 211 0124 03340103 		ld	s0,48(sp)
 212              		.cfi_restore 8
 213              		.cfi_def_cfa 2, 64
 214 0128 83348102 		ld	s1,40(sp)
 215              		.cfi_restore 9
 216              	.LVL13:
 217 012c 03390102 		ld	s2,32(sp)
 218              		.cfi_restore 18
 219              	.LVL14:
 220 0130 83398101 		ld	s3,24(sp)
 221              		.cfi_restore 19
 222              	.LVL15:
 223 0134 13010104 		addi	sp,sp,64
 224              		.cfi_def_cfa_offset 0
 225 0138 67800000 		jr	ra
 226              	.LVL16:
 227              	.L8:
 228              		.cfi_restore_state
GAS LISTING /tmp/ccFPo4MV.s 			page 6


 229              	.LBB5:
  52:src/syscall_c.cpp ****     }
 230              		.loc 1 52 9 is_stmt 1
  52:src/syscall_c.cpp ****     }
 231              		.loc 1 52 27 is_stmt 0
 232 013c 13070000 		li	a4,0
 233 0140 93060600 		mv	a3,a2
 234 0144 13860500 		mv	a2,a1
 235              	.LVL17:
 236 0148 93050500 		mv	a1,a0
 237 014c 13051001 		li	a0,17
 238              	.LVL18:
 239 0150 97000000 		call	_Z18commonPartSysCallsiz
 239      E7800000 
 240              	.LVL19:
 241 0158 6FF09FFB 		j	.L10
 242              	.LVL20:
 243              	.L11:
 244              	.LBB4:
  48:src/syscall_c.cpp ****         commonPartSysCalls(0x11, handle, start_routine, arg, stack);
 245              		.loc 1 48 35
 246 015c 1305F0FF 		li	a0,-1
 247              	.LVL21:
 248 0160 6FF01FFC 		j	.L9
 249              	.LBE4:
 250              	.LBE5:
 251              		.cfi_endproc
 252              	.LFE6:
 254              		.align	2
 255              		.globl	_Z10time_sleepm
 257              	_Z10time_sleepm:
 258              	.LFB7:
  61:src/syscall_c.cpp **** 
  62:src/syscall_c.cpp **** int time_sleep(time_t) {
 259              		.loc 1 62 24 is_stmt 1
 260              		.cfi_startproc
 261 0164 130101FF 		addi	sp,sp,-16
 262              		.cfi_def_cfa_offset 16
 263 0168 23348100 		sd	s0,8(sp)
 264              		.cfi_offset 8, -8
 265 016c 13040101 		addi	s0,sp,16
 266              		.cfi_def_cfa 8, 0
  63:src/syscall_c.cpp ****     return 0;
 267              		.loc 1 63 5
  64:src/syscall_c.cpp **** }
 268              		.loc 1 64 1 is_stmt 0
 269 0170 13050000 		li	a0,0
 270 0174 03348100 		ld	s0,8(sp)
 271              		.cfi_restore 8
 272              		.cfi_def_cfa 2, 16
 273 0178 13010101 		addi	sp,sp,16
 274              		.cfi_def_cfa_offset 0
 275 017c 67800000 		jr	ra
 276              		.cfi_endproc
 277              	.LFE7:
 279              		.align	2
 280              		.globl	_Z11thread_exitv
GAS LISTING /tmp/ccFPo4MV.s 			page 7


 282              	_Z11thread_exitv:
 283              	.LFB8:
  65:src/syscall_c.cpp **** 
  66:src/syscall_c.cpp **** int thread_exit() {
 284              		.loc 1 66 19 is_stmt 1
 285              		.cfi_startproc
 286 0180 130101FE 		addi	sp,sp,-32
 287              		.cfi_def_cfa_offset 32
 288 0184 233C1100 		sd	ra,24(sp)
 289 0188 23388100 		sd	s0,16(sp)
 290              		.cfi_offset 1, -8
 291              		.cfi_offset 8, -16
 292 018c 13040102 		addi	s0,sp,32
 293              		.cfi_def_cfa 8, 0
  67:src/syscall_c.cpp ****     commonPartSysCalls(0x12);
 294              		.loc 1 67 5
 295              		.loc 1 67 23 is_stmt 0
 296 0190 13052001 		li	a0,18
 297 0194 97000000 		call	_Z18commonPartSysCallsiz
 297      E7800000 
 298              	.LVL22:
  68:src/syscall_c.cpp **** 
  69:src/syscall_c.cpp ****     volatile int ret;
 299              		.loc 1 69 5 is_stmt 1
  70:src/syscall_c.cpp ****     __asm__ volatile ("mv %0, a0": "=r"(ret));
 300              		.loc 1 70 5
 301              		.loc 1 70 46 is_stmt 0
 302              	#APP
 303              	# 70 "src/syscall_c.cpp" 1
  71              	    return ret;
 304              		mv a5, a0
 305              	# 0 "" 2
 306              	#NO_APP
 307 01a0 2326F4FE 		sw	a5,-20(s0)
 308              		.loc 1 71 5 is_stmt 1
 309              		.loc 1 71 12 is_stmt 0
 310 01a4 0325C4FE 		lw	a0,-20(s0)
  72:src/syscall_c.cpp **** }
 311              		.loc 1 72 1
 312 01a8 1B050500 		sext.w	a0,a0
 313 01ac 83308101 		ld	ra,24(sp)
 314              		.cfi_restore 1
 315 01b0 03340101 		ld	s0,16(sp)
 316              		.cfi_restore 8
 317              		.cfi_def_cfa 2, 32
 318 01b4 13010102 		addi	sp,sp,32
 319              		.cfi_def_cfa_offset 0
 320 01b8 67800000 		jr	ra
 321              		.cfi_endproc
 322              	.LFE8:
 324              		.align	2
 325              		.globl	_Z15thread_dispatchv
 327              	_Z15thread_dispatchv:
 328              	.LFB9:
  73:src/syscall_c.cpp **** 
  74:src/syscall_c.cpp **** void thread_dispatch() {
 329              		.loc 1 74 24 is_stmt 1
GAS LISTING /tmp/ccFPo4MV.s 			page 8


 330              		.cfi_startproc
 331 01bc 130101FF 		addi	sp,sp,-16
 332              		.cfi_def_cfa_offset 16
 333 01c0 23341100 		sd	ra,8(sp)
 334 01c4 23308100 		sd	s0,0(sp)
 335              		.cfi_offset 1, -8
 336              		.cfi_offset 8, -16
 337 01c8 13040101 		addi	s0,sp,16
 338              		.cfi_def_cfa 8, 0
  75:src/syscall_c.cpp ****     commonPartSysCalls(0x13);
 339              		.loc 1 75 5
 340              		.loc 1 75 23 is_stmt 0
 341 01cc 13053001 		li	a0,19
 342 01d0 97000000 		call	_Z18commonPartSysCallsiz
 342      E7800000 
 343              	.LVL23:
  76:src/syscall_c.cpp **** }
 344              		.loc 1 76 1
 345 01d8 83308100 		ld	ra,8(sp)
 346              		.cfi_restore 1
 347 01dc 03340100 		ld	s0,0(sp)
 348              		.cfi_restore 8
 349              		.cfi_def_cfa 2, 16
 350 01e0 13010101 		addi	sp,sp,16
 351              		.cfi_def_cfa_offset 0
 352 01e4 67800000 		jr	ra
 353              		.cfi_endproc
 354              	.LFE9:
 356              		.align	2
 357              		.globl	_Z11thread_joinP3TCB
 359              	_Z11thread_joinP3TCB:
 360              	.LFB10:
  77:src/syscall_c.cpp **** 
  78:src/syscall_c.cpp **** void thread_join(thread_t handle) {
 361              		.loc 1 78 35 is_stmt 1
 362              		.cfi_startproc
 363              	.LVL24:
 364 01e8 130101FF 		addi	sp,sp,-16
 365              		.cfi_def_cfa_offset 16
 366 01ec 23348100 		sd	s0,8(sp)
 367              		.cfi_offset 8, -8
 368 01f0 13040101 		addi	s0,sp,16
 369              		.cfi_def_cfa 8, 0
  79:src/syscall_c.cpp **** 
  80:src/syscall_c.cpp **** }
 370              		.loc 1 80 1 is_stmt 0
 371 01f4 03348100 		ld	s0,8(sp)
 372              		.cfi_restore 8
 373              		.cfi_def_cfa 2, 16
 374 01f8 13010101 		addi	sp,sp,16
 375              		.cfi_def_cfa_offset 0
 376 01fc 67800000 		jr	ra
 377              		.cfi_endproc
 378              	.LFE10:
 380              		.align	2
 381              		.globl	_Z8sem_openPP4_semj
 383              	_Z8sem_openPP4_semj:
GAS LISTING /tmp/ccFPo4MV.s 			page 9


 384              	.LFB11:
  81:src/syscall_c.cpp **** 
  82:src/syscall_c.cpp **** int sem_open(sem_t *handle, unsigned int init) {
 385              		.loc 1 82 48 is_stmt 1
 386              		.cfi_startproc
 387              	.LVL25:
 388 0200 130101FF 		addi	sp,sp,-16
 389              		.cfi_def_cfa_offset 16
 390 0204 23348100 		sd	s0,8(sp)
 391              		.cfi_offset 8, -8
 392 0208 13040101 		addi	s0,sp,16
 393              		.cfi_def_cfa 8, 0
  83:src/syscall_c.cpp ****     return 0;
 394              		.loc 1 83 5
  84:src/syscall_c.cpp **** }
 395              		.loc 1 84 1 is_stmt 0
 396 020c 13050000 		li	a0,0
 397              	.LVL26:
 398 0210 03348100 		ld	s0,8(sp)
 399              		.cfi_restore 8
 400              		.cfi_def_cfa 2, 16
 401 0214 13010101 		addi	sp,sp,16
 402              		.cfi_def_cfa_offset 0
 403 0218 67800000 		jr	ra
 404              		.cfi_endproc
 405              	.LFE11:
 407              		.align	2
 408              		.globl	_Z9sem_closeP4_sem
 410              	_Z9sem_closeP4_sem:
 411              	.LFB12:
  85:src/syscall_c.cpp **** 
  86:src/syscall_c.cpp **** int sem_close(sem_t handle) {
 412              		.loc 1 86 29 is_stmt 1
 413              		.cfi_startproc
 414              	.LVL27:
 415 021c 130101FF 		addi	sp,sp,-16
 416              		.cfi_def_cfa_offset 16
 417 0220 23348100 		sd	s0,8(sp)
 418              		.cfi_offset 8, -8
 419 0224 13040101 		addi	s0,sp,16
 420              		.cfi_def_cfa 8, 0
  87:src/syscall_c.cpp ****     return 0;
 421              		.loc 1 87 5
  88:src/syscall_c.cpp **** }
 422              		.loc 1 88 1 is_stmt 0
 423 0228 13050000 		li	a0,0
 424              	.LVL28:
 425 022c 03348100 		ld	s0,8(sp)
 426              		.cfi_restore 8
 427              		.cfi_def_cfa 2, 16
 428 0230 13010101 		addi	sp,sp,16
 429              		.cfi_def_cfa_offset 0
 430 0234 67800000 		jr	ra
 431              		.cfi_endproc
 432              	.LFE12:
 434              		.align	2
 435              		.globl	_Z8sem_waitP4_sem
GAS LISTING /tmp/ccFPo4MV.s 			page 10


 437              	_Z8sem_waitP4_sem:
 438              	.LFB13:
  89:src/syscall_c.cpp **** 
  90:src/syscall_c.cpp **** int sem_wait(sem_t id) {
 439              		.loc 1 90 24 is_stmt 1
 440              		.cfi_startproc
 441              	.LVL29:
 442 0238 130101FF 		addi	sp,sp,-16
 443              		.cfi_def_cfa_offset 16
 444 023c 23348100 		sd	s0,8(sp)
 445              		.cfi_offset 8, -8
 446 0240 13040101 		addi	s0,sp,16
 447              		.cfi_def_cfa 8, 0
  91:src/syscall_c.cpp ****     return 0;
 448              		.loc 1 91 5
  92:src/syscall_c.cpp **** }
 449              		.loc 1 92 1 is_stmt 0
 450 0244 13050000 		li	a0,0
 451              	.LVL30:
 452 0248 03348100 		ld	s0,8(sp)
 453              		.cfi_restore 8
 454              		.cfi_def_cfa 2, 16
 455 024c 13010101 		addi	sp,sp,16
 456              		.cfi_def_cfa_offset 0
 457 0250 67800000 		jr	ra
 458              		.cfi_endproc
 459              	.LFE13:
 461              		.align	2
 462              		.globl	_Z10sem_signalP4_sem
 464              	_Z10sem_signalP4_sem:
 465              	.LFB14:
  93:src/syscall_c.cpp **** 
  94:src/syscall_c.cpp **** int sem_signal(sem_t id) {
 466              		.loc 1 94 26 is_stmt 1
 467              		.cfi_startproc
 468              	.LVL31:
 469 0254 130101FF 		addi	sp,sp,-16
 470              		.cfi_def_cfa_offset 16
 471 0258 23348100 		sd	s0,8(sp)
 472              		.cfi_offset 8, -8
 473 025c 13040101 		addi	s0,sp,16
 474              		.cfi_def_cfa 8, 0
  95:src/syscall_c.cpp ****     return 0;
 475              		.loc 1 95 5
  96:src/syscall_c.cpp **** }
 476              		.loc 1 96 1 is_stmt 0
 477 0260 13050000 		li	a0,0
 478              	.LVL32:
 479 0264 03348100 		ld	s0,8(sp)
 480              		.cfi_restore 8
 481              		.cfi_def_cfa 2, 16
 482 0268 13010101 		addi	sp,sp,16
 483              		.cfi_def_cfa_offset 0
 484 026c 67800000 		jr	ra
 485              		.cfi_endproc
 486              	.LFE14:
 488              		.align	2
GAS LISTING /tmp/ccFPo4MV.s 			page 11


 489              		.globl	_Z4getcv
 491              	_Z4getcv:
 492              	.LFB15:
  97:src/syscall_c.cpp **** 
  98:src/syscall_c.cpp **** char getc() {
 493              		.loc 1 98 13 is_stmt 1
 494              		.cfi_startproc
 495 0270 130101FE 		addi	sp,sp,-32
 496              		.cfi_def_cfa_offset 32
 497 0274 233C1100 		sd	ra,24(sp)
 498 0278 23388100 		sd	s0,16(sp)
 499              		.cfi_offset 1, -8
 500              		.cfi_offset 8, -16
 501 027c 13040102 		addi	s0,sp,32
 502              		.cfi_def_cfa 8, 0
  99:src/syscall_c.cpp ****     commonPartSysCalls(0x41);
 503              		.loc 1 99 5
 504              		.loc 1 99 23 is_stmt 0
 505 0280 13051004 		li	a0,65
 506 0284 97000000 		call	_Z18commonPartSysCallsiz
 506      E7800000 
 507              	.LVL33:
 100:src/syscall_c.cpp **** 
 101:src/syscall_c.cpp ****     volatile char ret;
 508              		.loc 1 101 5 is_stmt 1
 102:src/syscall_c.cpp ****     __asm__ volatile ("mv %0, a0": "=r"(ret));
 509              		.loc 1 102 5
 510              		.loc 1 102 46 is_stmt 0
 511              	#APP
 512              	# 102 "src/syscall_c.cpp" 1
 103              	    return ret;
 513              		mv a5, a0
 514              	# 0 "" 2
 515              	#NO_APP
 516 0290 A307F4FE 		sb	a5,-17(s0)
 517              		.loc 1 103 5 is_stmt 1
 518              		.loc 1 103 12 is_stmt 0
 519 0294 0345F4FE 		lbu	a0,-17(s0)
 104:src/syscall_c.cpp **** }
 520              		.loc 1 104 1
 521 0298 1375F50F 		andi	a0,a0,0xff
 522 029c 83308101 		ld	ra,24(sp)
 523              		.cfi_restore 1
 524 02a0 03340101 		ld	s0,16(sp)
 525              		.cfi_restore 8
 526              		.cfi_def_cfa 2, 32
 527 02a4 13010102 		addi	sp,sp,32
 528              		.cfi_def_cfa_offset 0
 529 02a8 67800000 		jr	ra
 530              		.cfi_endproc
 531              	.LFE15:
 533              		.align	2
 534              		.globl	_Z4putcc
 536              	_Z4putcc:
 537              	.LFB16:
 105:src/syscall_c.cpp **** 
 106:src/syscall_c.cpp **** void putc(char c) {
GAS LISTING /tmp/ccFPo4MV.s 			page 12


 538              		.loc 1 106 19 is_stmt 1
 539              		.cfi_startproc
 540              	.LVL34:
 541 02ac 130101FF 		addi	sp,sp,-16
 542              		.cfi_def_cfa_offset 16
 543 02b0 23341100 		sd	ra,8(sp)
 544 02b4 23308100 		sd	s0,0(sp)
 545              		.cfi_offset 1, -8
 546              		.cfi_offset 8, -16
 547 02b8 13040101 		addi	s0,sp,16
 548              		.cfi_def_cfa 8, 0
 549 02bc 93050500 		mv	a1,a0
 107:src/syscall_c.cpp ****     commonPartSysCalls(0x42, c);
 550              		.loc 1 107 5
 551              		.loc 1 107 23 is_stmt 0
 552 02c0 13052004 		li	a0,66
 553              	.LVL35:
 554 02c4 97000000 		call	_Z18commonPartSysCallsiz
 554      E7800000 
 555              	.LVL36:
 108:src/syscall_c.cpp **** }
 556              		.loc 1 108 1
 557 02cc 83308100 		ld	ra,8(sp)
 558              		.cfi_restore 1
 559 02d0 03340100 		ld	s0,0(sp)
 560              		.cfi_restore 8
 561              		.cfi_def_cfa 2, 16
 562 02d4 13010101 		addi	sp,sp,16
 563              		.cfi_def_cfa_offset 0
 564 02d8 67800000 		jr	ra
 565              		.cfi_endproc
 566              	.LFE16:
 568              	.Letext0:
 569              		.file 2 "src/../h/../lib/hw.h"
 570              		.file 3 "src/../h/syscall_c.hpp"
GAS LISTING /tmp/ccFPo4MV.s 			page 13

