GAS LISTING /tmp/ccHWGH3B.s 			page 1


   1              		.file	"syscall_cpp.cpp"
   2              		.option pic
   3              		.option norelax
   4              		.text
   5              	.Ltext0:
   6              		.section	.text._ZN6Thread3runEv,"axG",@progbits,_ZN6Thread3runEv,comdat
   7              		.align	2
   8              		.weak	_ZN6Thread3runEv
  10              	_ZN6Thread3runEv:
  11              	.LFB3:
  12              		.file 1 "src/../h/syscall_cpp.hpp"
   1:src/../h/syscall_cpp.hpp **** //
   2:src/../h/syscall_cpp.hpp **** // Created by os on 7/21/23.
   3:src/../h/syscall_cpp.hpp **** //
   4:src/../h/syscall_cpp.hpp **** #ifndef _syscall_cpp
   5:src/../h/syscall_cpp.hpp **** #define _syscall_cpp
   6:src/../h/syscall_cpp.hpp **** 
   7:src/../h/syscall_cpp.hpp **** 
   8:src/../h/syscall_cpp.hpp **** #include "syscall_c.hpp"
   9:src/../h/syscall_cpp.hpp **** 
  10:src/../h/syscall_cpp.hpp **** 
  11:src/../h/syscall_cpp.hpp **** //void* ::operator new (size_t);
  12:src/../h/syscall_cpp.hpp **** //void ::operator delete (void*);
  13:src/../h/syscall_cpp.hpp **** class Thread {
  14:src/../h/syscall_cpp.hpp **** public:
  15:src/../h/syscall_cpp.hpp ****     Thread (void (*body)(void*), void* arg);
  16:src/../h/syscall_cpp.hpp ****     virtual ~Thread ();
  17:src/../h/syscall_cpp.hpp ****     int start ();
  18:src/../h/syscall_cpp.hpp ****     void join();
  19:src/../h/syscall_cpp.hpp ****     static void dispatch ();
  20:src/../h/syscall_cpp.hpp ****     static int sleep (time_t);
  21:src/../h/syscall_cpp.hpp ****     static void wrapperPolymorphThread(void*);
  22:src/../h/syscall_cpp.hpp **** protected:
  23:src/../h/syscall_cpp.hpp ****     Thread ();
  24:src/../h/syscall_cpp.hpp ****     virtual void run () {}
  13              		.loc 1 24 18
  14              		.cfi_startproc
  15              	.LVL0:
  16 0000 130101FF 		addi	sp,sp,-16
  17              		.cfi_def_cfa_offset 16
  18 0004 23348100 		sd	s0,8(sp)
  19              		.cfi_offset 8, -8
  20 0008 13040101 		addi	s0,sp,16
  21              		.cfi_def_cfa 8, 0
  22              		.loc 1 24 26 is_stmt 0
  23 000c 03348100 		ld	s0,8(sp)
  24              		.cfi_restore 8
  25              		.cfi_def_cfa 2, 16
  26 0010 13010101 		addi	sp,sp,16
  27              		.cfi_def_cfa_offset 0
  28 0014 67800000 		jr	ra
  29              		.cfi_endproc
  30              	.LFE3:
  32              		.section	.text._ZN14PeriodicThread18periodicActivationEv,"axG",@progbits,_ZN14PeriodicThread18peri
  33              		.align	2
  34              		.weak	_ZN14PeriodicThread18periodicActivationEv
  36              	_ZN14PeriodicThread18periodicActivationEv:
GAS LISTING /tmp/ccHWGH3B.s 			page 2


  37              	.LFB4:
  25:src/../h/syscall_cpp.hpp **** private:
  26:src/../h/syscall_cpp.hpp ****     thread_t myHandle;
  27:src/../h/syscall_cpp.hpp ****     void (*body)(void*); void* arg;
  28:src/../h/syscall_cpp.hpp **** };
  29:src/../h/syscall_cpp.hpp **** class Semaphore {
  30:src/../h/syscall_cpp.hpp **** public:
  31:src/../h/syscall_cpp.hpp ****     Semaphore (unsigned init = 1);
  32:src/../h/syscall_cpp.hpp ****     virtual ~Semaphore ();
  33:src/../h/syscall_cpp.hpp ****     int wait ();
  34:src/../h/syscall_cpp.hpp ****     int signal ();
  35:src/../h/syscall_cpp.hpp **** private:
  36:src/../h/syscall_cpp.hpp ****     sem_t myHandle;
  37:src/../h/syscall_cpp.hpp **** };
  38:src/../h/syscall_cpp.hpp **** class PeriodicThread : public Thread {
  39:src/../h/syscall_cpp.hpp **** public:
  40:src/../h/syscall_cpp.hpp ****     void terminate ();
  41:src/../h/syscall_cpp.hpp **** protected:
  42:src/../h/syscall_cpp.hpp ****     PeriodicThread (time_t period);
  43:src/../h/syscall_cpp.hpp ****     virtual void periodicActivation () {}
  38              		.loc 1 43 18 is_stmt 1
  39              		.cfi_startproc
  40              	.LVL1:
  41 0000 130101FF 		addi	sp,sp,-16
  42              		.cfi_def_cfa_offset 16
  43 0004 23348100 		sd	s0,8(sp)
  44              		.cfi_offset 8, -8
  45 0008 13040101 		addi	s0,sp,16
  46              		.cfi_def_cfa 8, 0
  47              		.loc 1 43 41 is_stmt 0
  48 000c 03348100 		ld	s0,8(sp)
  49              		.cfi_restore 8
  50              		.cfi_def_cfa 2, 16
  51 0010 13010101 		addi	sp,sp,16
  52              		.cfi_def_cfa_offset 0
  53 0014 67800000 		jr	ra
  54              		.cfi_endproc
  55              	.LFE4:
  57              		.text
  58              		.align	2
  59              		.globl	_ZN6Thread22wrapperPolymorphThreadEPv
  61              	_ZN6Thread22wrapperPolymorphThreadEPv:
  62              	.LFB5:
  63              		.file 2 "src/syscall_cpp.cpp"
   1:src/syscall_cpp.cpp **** //
   2:src/syscall_cpp.cpp **** // Created by os on 7/21/23.
   3:src/syscall_cpp.cpp **** //
   4:src/syscall_cpp.cpp **** 
   5:src/syscall_cpp.cpp **** #include "../h/syscall_cpp.hpp"
   6:src/syscall_cpp.cpp **** 
   7:src/syscall_cpp.cpp **** void Thread::wrapperPolymorphThread(void* t){
  64              		.loc 2 7 45 is_stmt 1
  65              		.cfi_startproc
  66              	.LVL2:
  67 0000 130101FF 		addi	sp,sp,-16
  68              		.cfi_def_cfa_offset 16
  69 0004 23341100 		sd	ra,8(sp)
GAS LISTING /tmp/ccHWGH3B.s 			page 3


  70 0008 23308100 		sd	s0,0(sp)
  71              		.cfi_offset 1, -8
  72              		.cfi_offset 8, -16
  73 000c 13040101 		addi	s0,sp,16
  74              		.cfi_def_cfa 8, 0
   8:src/syscall_cpp.cpp ****     ((Thread*)t)->run();
  75              		.loc 2 8 5
  76              		.loc 2 8 23 is_stmt 0
  77 0010 83370500 		ld	a5,0(a0)
  78 0014 83B70701 		ld	a5,16(a5)
  79              		.loc 2 8 22
  80 0018 E7800700 		jalr	a5
  81              	.LVL3:
   9:src/syscall_cpp.cpp **** }
  82              		.loc 2 9 1
  83 001c 83308100 		ld	ra,8(sp)
  84              		.cfi_restore 1
  85 0020 03340100 		ld	s0,0(sp)
  86              		.cfi_restore 8
  87              		.cfi_def_cfa 2, 16
  88 0024 13010101 		addi	sp,sp,16
  89              		.cfi_def_cfa_offset 0
  90 0028 67800000 		jr	ra
  91              		.cfi_endproc
  92              	.LFE5:
  94              		.align	2
  95              		.globl	_ZN6ThreadD2Ev
  97              	_ZN6ThreadD2Ev:
  98              	.LFB10:
  10:src/syscall_cpp.cpp **** 
  11:src/syscall_cpp.cpp **** 
  12:src/syscall_cpp.cpp **** Thread::Thread(void (*body)(void *), void *arg) :myHandle(nullptr), body(body), arg(arg){}
  13:src/syscall_cpp.cpp **** 
  14:src/syscall_cpp.cpp **** Thread::~Thread() {
  99              		.loc 2 14 1 is_stmt 1
 100              		.cfi_startproc
 101              	.LVL4:
 102              	.LBB5:
 103              		.loc 2 14 17 is_stmt 0
 104 002c 97070000 		lla	a5,_ZTV6Thread+16
 104      93870700 
 105 0034 2330F500 		sd	a5,0(a0)
  15:src/syscall_cpp.cpp ****     //myHandle->setFinished(true);
  16:src/syscall_cpp.cpp ****     delete myHandle;
 106              		.loc 2 16 5 is_stmt 1
 107              		.loc 2 16 12 is_stmt 0
 108 0038 03358500 		ld	a0,8(a0)
 109              	.LVL5:
 110              		.loc 2 16 20
 111 003c 63080502 		beqz	a0,.L10
 112              	.LBE5:
  14:src/syscall_cpp.cpp ****     //myHandle->setFinished(true);
 113              		.loc 2 14 1 discriminator 1
 114 0040 130101FF 		addi	sp,sp,-16
 115              		.cfi_def_cfa_offset 16
 116 0044 23341100 		sd	ra,8(sp)
 117 0048 23308100 		sd	s0,0(sp)
GAS LISTING /tmp/ccHWGH3B.s 			page 4


 118              		.cfi_offset 1, -8
 119              		.cfi_offset 8, -16
 120 004c 13040101 		addi	s0,sp,16
 121              		.cfi_def_cfa 8, 0
 122              	.LBB6:
 123              		.loc 2 16 12 discriminator 1
 124 0050 83370500 		ld	a5,0(a0)
 125 0054 83B78700 		ld	a5,8(a5)
 126 0058 E7800700 		jalr	a5
 127              	.LVL6:
 128              	.LBE6:
  17:src/syscall_cpp.cpp **** }
 129              		.loc 2 17 1 discriminator 1
 130 005c 83308100 		ld	ra,8(sp)
 131              		.cfi_restore 1
 132 0060 03340100 		ld	s0,0(sp)
 133              		.cfi_restore 8
 134              		.cfi_def_cfa 2, 16
 135 0064 13010101 		addi	sp,sp,16
 136              		.cfi_def_cfa_offset 0
 137 0068 67800000 		jr	ra
 138              	.L10:
 139 006c 67800000 		ret
 140              		.cfi_endproc
 141              	.LFE10:
 143              		.globl	_ZN6ThreadD1Ev
 144              		.set	_ZN6ThreadD1Ev,_ZN6ThreadD2Ev
 145              		.align	2
 146              		.globl	_ZN9SemaphoreD2Ev
 148              	_ZN9SemaphoreD2Ev:
 149              	.LFB24:
  18:src/syscall_cpp.cpp **** 
  19:src/syscall_cpp.cpp **** int Thread::start() {
  20:src/syscall_cpp.cpp ****     return thread_create(&myHandle,this->body, this->arg);
  21:src/syscall_cpp.cpp **** }
  22:src/syscall_cpp.cpp **** 
  23:src/syscall_cpp.cpp **** void Thread::dispatch() {
  24:src/syscall_cpp.cpp ****     thread_dispatch();
  25:src/syscall_cpp.cpp **** }
  26:src/syscall_cpp.cpp **** 
  27:src/syscall_cpp.cpp **** Thread::Thread():myHandle(nullptr),body(wrapperPolymorphThread),arg((void*)this) {}
  28:src/syscall_cpp.cpp **** 
  29:src/syscall_cpp.cpp **** void Thread::join() {
  30:src/syscall_cpp.cpp **** 
  31:src/syscall_cpp.cpp **** }
  32:src/syscall_cpp.cpp **** 
  33:src/syscall_cpp.cpp **** int Thread::sleep(time_t) {
  34:src/syscall_cpp.cpp ****     return 0;
  35:src/syscall_cpp.cpp **** }
  36:src/syscall_cpp.cpp **** 
  37:src/syscall_cpp.cpp **** Semaphore::Semaphore(unsigned int init) {
  38:src/syscall_cpp.cpp **** 
  39:src/syscall_cpp.cpp **** }
  40:src/syscall_cpp.cpp **** 
  41:src/syscall_cpp.cpp **** Semaphore::~Semaphore() {
 150              		.loc 2 41 1 is_stmt 1
 151              		.cfi_startproc
GAS LISTING /tmp/ccHWGH3B.s 			page 5


 152              	.LVL7:
 153 0070 130101FF 		addi	sp,sp,-16
 154              		.cfi_def_cfa_offset 16
 155 0074 23348100 		sd	s0,8(sp)
 156              		.cfi_offset 8, -8
 157 0078 13040101 		addi	s0,sp,16
 158              		.cfi_def_cfa 8, 0
  42:src/syscall_cpp.cpp **** 
  43:src/syscall_cpp.cpp **** }
 159              		.loc 2 43 1 is_stmt 0
 160 007c 03348100 		ld	s0,8(sp)
 161              		.cfi_restore 8
 162              		.cfi_def_cfa 2, 16
 163 0080 13010101 		addi	sp,sp,16
 164              		.cfi_def_cfa_offset 0
 165 0084 67800000 		jr	ra
 166              		.cfi_endproc
 167              	.LFE24:
 169              		.globl	_ZN9SemaphoreD1Ev
 170              		.set	_ZN9SemaphoreD1Ev,_ZN9SemaphoreD2Ev
 171              		.section	.text._ZN14PeriodicThreadD2Ev,"axG",@progbits,_ZN14PeriodicThreadD5Ev,comdat
 172              		.align	2
 173              		.weak	_ZN14PeriodicThreadD2Ev
 175              	_ZN14PeriodicThreadD2Ev:
 176              	.LFB36:
  38:src/../h/syscall_cpp.hpp **** public:
 177              		.loc 1 38 7 is_stmt 1
 178              		.cfi_startproc
 179              	.LVL8:
 180 0000 130101FF 		addi	sp,sp,-16
 181              		.cfi_def_cfa_offset 16
 182 0004 23341100 		sd	ra,8(sp)
 183 0008 23308100 		sd	s0,0(sp)
 184              		.cfi_offset 1, -8
 185              		.cfi_offset 8, -16
 186 000c 13040101 		addi	s0,sp,16
 187              		.cfi_def_cfa 8, 0
 188              	.LBB7:
  38:src/../h/syscall_cpp.hpp **** public:
 189              		.loc 1 38 7 is_stmt 0
 190 0010 97070000 		lla	a5,_ZTV14PeriodicThread+16
 190      93870700 
 191 0018 2330F500 		sd	a5,0(a0)
 192 001c 97000000 		call	_ZN6ThreadD2Ev
 192      E7800000 
 193              	.LVL9:
 194              	.LBE7:
 195 0024 83308100 		ld	ra,8(sp)
 196              		.cfi_restore 1
 197 0028 03340100 		ld	s0,0(sp)
 198              		.cfi_restore 8
 199              		.cfi_def_cfa 2, 16
 200 002c 13010101 		addi	sp,sp,16
 201              		.cfi_def_cfa_offset 0
 202 0030 67800000 		jr	ra
 203              		.cfi_endproc
 204              	.LFE36:
GAS LISTING /tmp/ccHWGH3B.s 			page 6


 206              		.weak	_ZN14PeriodicThreadD1Ev
 207              		.set	_ZN14PeriodicThreadD1Ev,_ZN14PeriodicThreadD2Ev
 208              		.text
 209              		.align	2
 210              		.globl	_ZN6ThreadD0Ev
 212              	_ZN6ThreadD0Ev:
 213              	.LFB12:
  14:src/syscall_cpp.cpp ****     //myHandle->setFinished(true);
 214              		.loc 2 14 1 is_stmt 1
 215              		.cfi_startproc
 216              	.LVL10:
 217 0088 130101FE 		addi	sp,sp,-32
 218              		.cfi_def_cfa_offset 32
 219 008c 233C1100 		sd	ra,24(sp)
 220 0090 23388100 		sd	s0,16(sp)
 221 0094 23349100 		sd	s1,8(sp)
 222              		.cfi_offset 1, -8
 223              		.cfi_offset 8, -16
 224              		.cfi_offset 9, -24
 225 0098 13040102 		addi	s0,sp,32
 226              		.cfi_def_cfa 8, 0
 227 009c 93040500 		mv	s1,a0
  17:src/syscall_cpp.cpp **** 
 228              		.loc 2 17 1 is_stmt 0
 229 00a0 97000000 		call	_ZN6ThreadD1Ev
 229      E7800000 
 230              	.LVL11:
 231 00a8 13850400 		mv	a0,s1
 232 00ac 97000000 		call	_ZdlPv@plt
 232      E7800000 
 233              	.LVL12:
 234 00b4 83308101 		ld	ra,24(sp)
 235              		.cfi_restore 1
 236 00b8 03340101 		ld	s0,16(sp)
 237              		.cfi_restore 8
 238              		.cfi_def_cfa 2, 32
 239 00bc 83348100 		ld	s1,8(sp)
 240              		.cfi_restore 9
 241              	.LVL13:
 242 00c0 13010102 		addi	sp,sp,32
 243              		.cfi_def_cfa_offset 0
 244 00c4 67800000 		jr	ra
 245              		.cfi_endproc
 246              	.LFE12:
 248              		.align	2
 249              		.globl	_ZN9SemaphoreD0Ev
 251              	_ZN9SemaphoreD0Ev:
 252              	.LFB26:
  41:src/syscall_cpp.cpp **** 
 253              		.loc 2 41 1 is_stmt 1
 254              		.cfi_startproc
 255              	.LVL14:
 256 00c8 130101FF 		addi	sp,sp,-16
 257              		.cfi_def_cfa_offset 16
 258 00cc 23341100 		sd	ra,8(sp)
 259 00d0 23308100 		sd	s0,0(sp)
 260              		.cfi_offset 1, -8
GAS LISTING /tmp/ccHWGH3B.s 			page 7


 261              		.cfi_offset 8, -16
 262 00d4 13040101 		addi	s0,sp,16
 263              		.cfi_def_cfa 8, 0
 264              		.loc 2 43 1 is_stmt 0
 265 00d8 97000000 		call	_ZdlPv@plt
 265      E7800000 
 266              	.LVL15:
 267 00e0 83308100 		ld	ra,8(sp)
 268              		.cfi_restore 1
 269 00e4 03340100 		ld	s0,0(sp)
 270              		.cfi_restore 8
 271              		.cfi_def_cfa 2, 16
 272 00e8 13010101 		addi	sp,sp,16
 273              		.cfi_def_cfa_offset 0
 274 00ec 67800000 		jr	ra
 275              		.cfi_endproc
 276              	.LFE26:
 278              		.section	.text._ZN14PeriodicThreadD0Ev,"axG",@progbits,_ZN14PeriodicThreadD5Ev,comdat
 279              		.align	2
 280              		.weak	_ZN14PeriodicThreadD0Ev
 282              	_ZN14PeriodicThreadD0Ev:
 283              	.LFB38:
  38:src/../h/syscall_cpp.hpp **** public:
 284              		.loc 1 38 7 is_stmt 1
 285              		.cfi_startproc
 286              	.LVL16:
 287 0000 130101FE 		addi	sp,sp,-32
 288              		.cfi_def_cfa_offset 32
 289 0004 233C1100 		sd	ra,24(sp)
 290 0008 23388100 		sd	s0,16(sp)
 291 000c 23349100 		sd	s1,8(sp)
 292              		.cfi_offset 1, -8
 293              		.cfi_offset 8, -16
 294              		.cfi_offset 9, -24
 295 0010 13040102 		addi	s0,sp,32
 296              		.cfi_def_cfa 8, 0
 297 0014 93040500 		mv	s1,a0
 298              	.LVL17:
 299              	.LBB8:
 300              	.LBB9:
  38:src/../h/syscall_cpp.hpp **** public:
 301              		.loc 1 38 7 is_stmt 0
 302 0018 97070000 		lla	a5,_ZTV14PeriodicThread+16
 302      93870700 
 303 0020 2330F500 		sd	a5,0(a0)
 304 0024 97000000 		call	_ZN6ThreadD2Ev
 304      E7800000 
 305              	.LVL18:
 306              	.LBE9:
 307              	.LBE8:
 308 002c 13850400 		mv	a0,s1
 309 0030 97000000 		call	_ZdlPv@plt
 309      E7800000 
 310              	.LVL19:
 311 0038 83308101 		ld	ra,24(sp)
 312              		.cfi_restore 1
 313 003c 03340101 		ld	s0,16(sp)
GAS LISTING /tmp/ccHWGH3B.s 			page 8


 314              		.cfi_restore 8
 315              		.cfi_def_cfa 2, 32
 316 0040 83348100 		ld	s1,8(sp)
 317              		.cfi_restore 9
 318              	.LVL20:
 319 0044 13010102 		addi	sp,sp,32
 320              		.cfi_def_cfa_offset 0
 321 0048 67800000 		jr	ra
 322              		.cfi_endproc
 323              	.LFE38:
 325              		.text
 326              		.align	2
 327              		.globl	_ZN6ThreadC2EPFvPvES0_
 329              	_ZN6ThreadC2EPFvPvES0_:
 330              	.LFB7:
  12:src/syscall_cpp.cpp **** 
 331              		.loc 2 12 1 is_stmt 1
 332              		.cfi_startproc
 333              	.LVL21:
 334 00f0 130101FF 		addi	sp,sp,-16
 335              		.cfi_def_cfa_offset 16
 336 00f4 23348100 		sd	s0,8(sp)
 337              		.cfi_offset 8, -8
 338 00f8 13040101 		addi	s0,sp,16
 339              		.cfi_def_cfa 8, 0
 340              	.LBB10:
  12:src/syscall_cpp.cpp **** 
 341              		.loc 2 12 88 is_stmt 0
 342 00fc 97070000 		lla	a5,_ZTV6Thread+16
 342      93870700 
 343 0104 2330F500 		sd	a5,0(a0)
 344 0108 23340500 		sd	zero,8(a0)
 345 010c 2338B500 		sd	a1,16(a0)
 346 0110 233CC500 		sd	a2,24(a0)
 347              	.LBE10:
  12:src/syscall_cpp.cpp **** 
 348              		.loc 2 12 90
 349 0114 03348100 		ld	s0,8(sp)
 350              		.cfi_restore 8
 351              		.cfi_def_cfa 2, 16
 352 0118 13010101 		addi	sp,sp,16
 353              		.cfi_def_cfa_offset 0
 354 011c 67800000 		jr	ra
 355              		.cfi_endproc
 356              	.LFE7:
 358              		.globl	_ZN6ThreadC1EPFvPvES0_
 359              		.set	_ZN6ThreadC1EPFvPvES0_,_ZN6ThreadC2EPFvPvES0_
 360              		.align	2
 361              		.globl	_ZN6Thread5startEv
 363              	_ZN6Thread5startEv:
 364              	.LFB13:
  19:src/syscall_cpp.cpp ****     return thread_create(&myHandle,this->body, this->arg);
 365              		.loc 2 19 21 is_stmt 1
 366              		.cfi_startproc
 367              	.LVL22:
 368 0120 130101FF 		addi	sp,sp,-16
 369              		.cfi_def_cfa_offset 16
GAS LISTING /tmp/ccHWGH3B.s 			page 9


 370 0124 23341100 		sd	ra,8(sp)
 371 0128 23308100 		sd	s0,0(sp)
 372              		.cfi_offset 1, -8
 373              		.cfi_offset 8, -16
 374 012c 13040101 		addi	s0,sp,16
 375              		.cfi_def_cfa 8, 0
  20:src/syscall_cpp.cpp **** }
 376              		.loc 2 20 5
  20:src/syscall_cpp.cpp **** }
 377              		.loc 2 20 25 is_stmt 0
 378 0130 03368501 		ld	a2,24(a0)
 379 0134 83350501 		ld	a1,16(a0)
 380 0138 13058500 		addi	a0,a0,8
 381              	.LVL23:
 382 013c 97000000 		call	_Z13thread_createPP3TCBPFvPvES2_@plt
 382      E7800000 
 383              	.LVL24:
  21:src/syscall_cpp.cpp **** 
 384              		.loc 2 21 1
 385 0144 83308100 		ld	ra,8(sp)
 386              		.cfi_restore 1
 387 0148 03340100 		ld	s0,0(sp)
 388              		.cfi_restore 8
 389              		.cfi_def_cfa 2, 16
 390 014c 13010101 		addi	sp,sp,16
 391              		.cfi_def_cfa_offset 0
 392 0150 67800000 		jr	ra
 393              		.cfi_endproc
 394              	.LFE13:
 396              		.align	2
 397              		.globl	_ZN6Thread8dispatchEv
 399              	_ZN6Thread8dispatchEv:
 400              	.LFB14:
  23:src/syscall_cpp.cpp ****     thread_dispatch();
 401              		.loc 2 23 25 is_stmt 1
 402              		.cfi_startproc
 403 0154 130101FF 		addi	sp,sp,-16
 404              		.cfi_def_cfa_offset 16
 405 0158 23341100 		sd	ra,8(sp)
 406 015c 23308100 		sd	s0,0(sp)
 407              		.cfi_offset 1, -8
 408              		.cfi_offset 8, -16
 409 0160 13040101 		addi	s0,sp,16
 410              		.cfi_def_cfa 8, 0
  24:src/syscall_cpp.cpp **** }
 411              		.loc 2 24 5
  24:src/syscall_cpp.cpp **** }
 412              		.loc 2 24 20 is_stmt 0
 413 0164 97000000 		call	_Z15thread_dispatchv@plt
 413      E7800000 
 414              	.LVL25:
  25:src/syscall_cpp.cpp **** 
 415              		.loc 2 25 1
 416 016c 83308100 		ld	ra,8(sp)
 417              		.cfi_restore 1
 418 0170 03340100 		ld	s0,0(sp)
 419              		.cfi_restore 8
GAS LISTING /tmp/ccHWGH3B.s 			page 10


 420              		.cfi_def_cfa 2, 16
 421 0174 13010101 		addi	sp,sp,16
 422              		.cfi_def_cfa_offset 0
 423 0178 67800000 		jr	ra
 424              		.cfi_endproc
 425              	.LFE14:
 427              		.align	2
 428              		.globl	_ZN6ThreadC2Ev
 430              	_ZN6ThreadC2Ev:
 431              	.LFB16:
  27:src/syscall_cpp.cpp **** 
 432              		.loc 2 27 1 is_stmt 1
 433              		.cfi_startproc
 434              	.LVL26:
 435 017c 130101FF 		addi	sp,sp,-16
 436              		.cfi_def_cfa_offset 16
 437 0180 23348100 		sd	s0,8(sp)
 438              		.cfi_offset 8, -8
 439 0184 13040101 		addi	s0,sp,16
 440              		.cfi_def_cfa 8, 0
 441              	.LBB11:
  27:src/syscall_cpp.cpp **** 
 442              		.loc 2 27 80 is_stmt 0
 443 0188 97070000 		lla	a5,_ZTV6Thread+16
 443      93870700 
 444 0190 2330F500 		sd	a5,0(a0)
 445 0194 23340500 		sd	zero,8(a0)
 446 0198 97070000 		lla	a5,_ZN6Thread22wrapperPolymorphThreadEPv
 446      93870700 
 447 01a0 2338F500 		sd	a5,16(a0)
 448 01a4 233CA500 		sd	a0,24(a0)
 449              	.LBE11:
  27:src/syscall_cpp.cpp **** 
 450              		.loc 2 27 83
 451 01a8 03348100 		ld	s0,8(sp)
 452              		.cfi_restore 8
 453              		.cfi_def_cfa 2, 16
 454 01ac 13010101 		addi	sp,sp,16
 455              		.cfi_def_cfa_offset 0
 456 01b0 67800000 		jr	ra
 457              		.cfi_endproc
 458              	.LFE16:
 460              		.globl	_ZN6ThreadC1Ev
 461              		.set	_ZN6ThreadC1Ev,_ZN6ThreadC2Ev
 462              		.align	2
 463              		.globl	_ZN6Thread4joinEv
 465              	_ZN6Thread4joinEv:
 466              	.LFB18:
  29:src/syscall_cpp.cpp **** 
 467              		.loc 2 29 21 is_stmt 1
 468              		.cfi_startproc
 469              	.LVL27:
 470 01b4 130101FF 		addi	sp,sp,-16
 471              		.cfi_def_cfa_offset 16
 472 01b8 23348100 		sd	s0,8(sp)
 473              		.cfi_offset 8, -8
 474 01bc 13040101 		addi	s0,sp,16
GAS LISTING /tmp/ccHWGH3B.s 			page 11


 475              		.cfi_def_cfa 8, 0
  31:src/syscall_cpp.cpp **** 
 476              		.loc 2 31 1 is_stmt 0
 477 01c0 03348100 		ld	s0,8(sp)
 478              		.cfi_restore 8
 479              		.cfi_def_cfa 2, 16
 480 01c4 13010101 		addi	sp,sp,16
 481              		.cfi_def_cfa_offset 0
 482 01c8 67800000 		jr	ra
 483              		.cfi_endproc
 484              	.LFE18:
 486              		.align	2
 487              		.globl	_ZN6Thread5sleepEm
 489              	_ZN6Thread5sleepEm:
 490              	.LFB19:
  33:src/syscall_cpp.cpp ****     return 0;
 491              		.loc 2 33 27 is_stmt 1
 492              		.cfi_startproc
 493 01cc 130101FF 		addi	sp,sp,-16
 494              		.cfi_def_cfa_offset 16
 495 01d0 23348100 		sd	s0,8(sp)
 496              		.cfi_offset 8, -8
 497 01d4 13040101 		addi	s0,sp,16
 498              		.cfi_def_cfa 8, 0
  34:src/syscall_cpp.cpp **** }
 499              		.loc 2 34 5
  35:src/syscall_cpp.cpp **** 
 500              		.loc 2 35 1 is_stmt 0
 501 01d8 13050000 		li	a0,0
 502 01dc 03348100 		ld	s0,8(sp)
 503              		.cfi_restore 8
 504              		.cfi_def_cfa 2, 16
 505 01e0 13010101 		addi	sp,sp,16
 506              		.cfi_def_cfa_offset 0
 507 01e4 67800000 		jr	ra
 508              		.cfi_endproc
 509              	.LFE19:
 511              		.align	2
 512              		.globl	_ZN9SemaphoreC2Ej
 514              	_ZN9SemaphoreC2Ej:
 515              	.LFB21:
  37:src/syscall_cpp.cpp **** 
 516              		.loc 2 37 1 is_stmt 1
 517              		.cfi_startproc
 518              	.LVL28:
 519 01e8 130101FF 		addi	sp,sp,-16
 520              		.cfi_def_cfa_offset 16
 521 01ec 23348100 		sd	s0,8(sp)
 522              		.cfi_offset 8, -8
 523 01f0 13040101 		addi	s0,sp,16
 524              		.cfi_def_cfa 8, 0
 525              	.LBB12:
  37:src/syscall_cpp.cpp **** 
 526              		.loc 2 37 39 is_stmt 0
 527 01f4 97070000 		lla	a5,_ZTV9Semaphore+16
 527      93870700 
 528 01fc 2330F500 		sd	a5,0(a0)
GAS LISTING /tmp/ccHWGH3B.s 			page 12


 529              	.LBE12:
  39:src/syscall_cpp.cpp **** 
 530              		.loc 2 39 1
 531 0200 03348100 		ld	s0,8(sp)
 532              		.cfi_restore 8
 533              		.cfi_def_cfa 2, 16
 534 0204 13010101 		addi	sp,sp,16
 535              		.cfi_def_cfa_offset 0
 536 0208 67800000 		jr	ra
 537              		.cfi_endproc
 538              	.LFE21:
 540              		.globl	_ZN9SemaphoreC1Ej
 541              		.set	_ZN9SemaphoreC1Ej,_ZN9SemaphoreC2Ej
 542              		.align	2
 543              		.globl	_ZN9Semaphore4waitEv
 545              	_ZN9Semaphore4waitEv:
 546              	.LFB27:
  44:src/syscall_cpp.cpp **** 
  45:src/syscall_cpp.cpp **** int Semaphore::wait() {
 547              		.loc 2 45 23 is_stmt 1
 548              		.cfi_startproc
 549              	.LVL29:
 550 020c 130101FF 		addi	sp,sp,-16
 551              		.cfi_def_cfa_offset 16
 552 0210 23348100 		sd	s0,8(sp)
 553              		.cfi_offset 8, -8
 554 0214 13040101 		addi	s0,sp,16
 555              		.cfi_def_cfa 8, 0
  46:src/syscall_cpp.cpp ****     return 0;
 556              		.loc 2 46 5
  47:src/syscall_cpp.cpp **** }
 557              		.loc 2 47 1 is_stmt 0
 558 0218 13050000 		li	a0,0
 559              	.LVL30:
 560 021c 03348100 		ld	s0,8(sp)
 561              		.cfi_restore 8
 562              		.cfi_def_cfa 2, 16
 563 0220 13010101 		addi	sp,sp,16
 564              		.cfi_def_cfa_offset 0
 565 0224 67800000 		jr	ra
 566              		.cfi_endproc
 567              	.LFE27:
 569              		.align	2
 570              		.globl	_ZN9Semaphore6signalEv
 572              	_ZN9Semaphore6signalEv:
 573              	.LFB28:
  48:src/syscall_cpp.cpp **** 
  49:src/syscall_cpp.cpp **** int Semaphore::signal() {
 574              		.loc 2 49 25 is_stmt 1
 575              		.cfi_startproc
 576              	.LVL31:
 577 0228 130101FF 		addi	sp,sp,-16
 578              		.cfi_def_cfa_offset 16
 579 022c 23348100 		sd	s0,8(sp)
 580              		.cfi_offset 8, -8
 581 0230 13040101 		addi	s0,sp,16
 582              		.cfi_def_cfa 8, 0
GAS LISTING /tmp/ccHWGH3B.s 			page 13


  50:src/syscall_cpp.cpp ****     return 0;
 583              		.loc 2 50 5
  51:src/syscall_cpp.cpp **** }
 584              		.loc 2 51 1 is_stmt 0
 585 0234 13050000 		li	a0,0
 586              	.LVL32:
 587 0238 03348100 		ld	s0,8(sp)
 588              		.cfi_restore 8
 589              		.cfi_def_cfa 2, 16
 590 023c 13010101 		addi	sp,sp,16
 591              		.cfi_def_cfa_offset 0
 592 0240 67800000 		jr	ra
 593              		.cfi_endproc
 594              	.LFE28:
 596              		.align	2
 597              		.globl	_ZN14PeriodicThread9terminateEv
 599              	_ZN14PeriodicThread9terminateEv:
 600              	.LFB29:
  52:src/syscall_cpp.cpp **** 
  53:src/syscall_cpp.cpp **** void PeriodicThread::terminate() {
 601              		.loc 2 53 34 is_stmt 1
 602              		.cfi_startproc
 603              	.LVL33:
 604 0244 130101FF 		addi	sp,sp,-16
 605              		.cfi_def_cfa_offset 16
 606 0248 23348100 		sd	s0,8(sp)
 607              		.cfi_offset 8, -8
 608 024c 13040101 		addi	s0,sp,16
 609              		.cfi_def_cfa 8, 0
  54:src/syscall_cpp.cpp **** 
  55:src/syscall_cpp.cpp **** }
 610              		.loc 2 55 1 is_stmt 0
 611 0250 03348100 		ld	s0,8(sp)
 612              		.cfi_restore 8
 613              		.cfi_def_cfa 2, 16
 614 0254 13010101 		addi	sp,sp,16
 615              		.cfi_def_cfa_offset 0
 616 0258 67800000 		jr	ra
 617              		.cfi_endproc
 618              	.LFE29:
 620              		.align	2
 621              		.globl	_ZN14PeriodicThreadC2Em
 623              	_ZN14PeriodicThreadC2Em:
 624              	.LFB31:
  56:src/syscall_cpp.cpp **** 
  57:src/syscall_cpp.cpp **** PeriodicThread::PeriodicThread(time_t period) {
 625              		.loc 2 57 1 is_stmt 1
 626              		.cfi_startproc
 627              	.LVL34:
 628 025c 130101FE 		addi	sp,sp,-32
 629              		.cfi_def_cfa_offset 32
 630 0260 233C1100 		sd	ra,24(sp)
 631 0264 23388100 		sd	s0,16(sp)
 632 0268 23349100 		sd	s1,8(sp)
 633              		.cfi_offset 1, -8
 634              		.cfi_offset 8, -16
 635              		.cfi_offset 9, -24
GAS LISTING /tmp/ccHWGH3B.s 			page 14


 636 026c 13040102 		addi	s0,sp,32
 637              		.cfi_def_cfa 8, 0
 638 0270 93040500 		mv	s1,a0
 639              	.LBB13:
 640              		.loc 2 57 45 is_stmt 0
 641 0274 97000000 		call	_ZN6ThreadC2Ev
 641      E7800000 
 642              	.LVL35:
 643 027c 97070000 		lla	a5,_ZTV14PeriodicThread+16
 643      93870700 
 644 0284 23B0F400 		sd	a5,0(s1)
 645              	.LBE13:
  58:src/syscall_cpp.cpp **** 
  59:src/syscall_cpp.cpp **** }
 646              		.loc 2 59 1
 647 0288 83308101 		ld	ra,24(sp)
 648              		.cfi_restore 1
 649 028c 03340101 		ld	s0,16(sp)
 650              		.cfi_restore 8
 651              		.cfi_def_cfa 2, 32
 652 0290 83348100 		ld	s1,8(sp)
 653              		.cfi_restore 9
 654              	.LVL36:
 655 0294 13010102 		addi	sp,sp,32
 656              		.cfi_def_cfa_offset 0
 657 0298 67800000 		jr	ra
 658              		.cfi_endproc
 659              	.LFE31:
 661              		.globl	_ZN14PeriodicThreadC1Em
 662              		.set	_ZN14PeriodicThreadC1Em,_ZN14PeriodicThreadC2Em
 663              		.align	2
 664              		.globl	_ZN7Console4getcEv
 666              	_ZN7Console4getcEv:
 667              	.LFB33:
  60:src/syscall_cpp.cpp **** 
  61:src/syscall_cpp.cpp **** char Console::getc() {
 668              		.loc 2 61 22 is_stmt 1
 669              		.cfi_startproc
 670 029c 130101FF 		addi	sp,sp,-16
 671              		.cfi_def_cfa_offset 16
 672 02a0 23348100 		sd	s0,8(sp)
 673              		.cfi_offset 8, -8
 674 02a4 13040101 		addi	s0,sp,16
 675              		.cfi_def_cfa 8, 0
  62:src/syscall_cpp.cpp ****     return 0;
 676              		.loc 2 62 5
  63:src/syscall_cpp.cpp **** }
 677              		.loc 2 63 1 is_stmt 0
 678 02a8 13050000 		li	a0,0
 679 02ac 03348100 		ld	s0,8(sp)
 680              		.cfi_restore 8
 681              		.cfi_def_cfa 2, 16
 682 02b0 13010101 		addi	sp,sp,16
 683              		.cfi_def_cfa_offset 0
 684 02b4 67800000 		jr	ra
 685              		.cfi_endproc
 686              	.LFE33:
GAS LISTING /tmp/ccHWGH3B.s 			page 15


 688              		.align	2
 689              		.globl	_ZN7Console4putcEc
 691              	_ZN7Console4putcEc:
 692              	.LFB34:
  64:src/syscall_cpp.cpp **** 
  65:src/syscall_cpp.cpp **** void Console::putc(char) {
 693              		.loc 2 65 26 is_stmt 1
 694              		.cfi_startproc
 695 02b8 130101FF 		addi	sp,sp,-16
 696              		.cfi_def_cfa_offset 16
 697 02bc 23348100 		sd	s0,8(sp)
 698              		.cfi_offset 8, -8
 699 02c0 13040101 		addi	s0,sp,16
 700              		.cfi_def_cfa 8, 0
  66:src/syscall_cpp.cpp **** 
  67:src/syscall_cpp.cpp **** }
 701              		.loc 2 67 1 is_stmt 0
 702 02c4 03348100 		ld	s0,8(sp)
 703              		.cfi_restore 8
 704              		.cfi_def_cfa 2, 16
 705 02c8 13010101 		addi	sp,sp,16
 706              		.cfi_def_cfa_offset 0
 707 02cc 67800000 		jr	ra
 708              		.cfi_endproc
 709              	.LFE34:
 711              		.weak	_ZTV14PeriodicThread
 712              		.section	.data.rel.ro.local._ZTV14PeriodicThread,"awG",@progbits,_ZTV14PeriodicThread,comdat
 713              		.align	3
 716              	_ZTV14PeriodicThread:
 717 0000 00000000 		.dword	0
 717      00000000 
 718 0008 00000000 		.dword	0
 718      00000000 
 719 0010 00000000 		.dword	_ZN14PeriodicThreadD1Ev
 719      00000000 
 720 0018 00000000 		.dword	_ZN14PeriodicThreadD0Ev
 720      00000000 
 721 0020 00000000 		.dword	_ZN6Thread3runEv
 721      00000000 
 722 0028 00000000 		.dword	_ZN14PeriodicThread18periodicActivationEv
 722      00000000 
 723              		.weak	_ZTV6Thread
 724              		.section	.data.rel.ro.local._ZTV6Thread,"awG",@progbits,_ZTV6Thread,comdat
 725              		.align	3
 728              	_ZTV6Thread:
 729 0000 00000000 		.dword	0
 729      00000000 
 730 0008 00000000 		.dword	0
 730      00000000 
 731 0010 00000000 		.dword	_ZN6ThreadD1Ev
 731      00000000 
 732 0018 00000000 		.dword	_ZN6ThreadD0Ev
 732      00000000 
 733 0020 00000000 		.dword	_ZN6Thread3runEv
 733      00000000 
 734              		.weak	_ZTV9Semaphore
 735              		.section	.data.rel.ro.local._ZTV9Semaphore,"awG",@progbits,_ZTV9Semaphore,comdat
GAS LISTING /tmp/ccHWGH3B.s 			page 16


 736              		.align	3
 739              	_ZTV9Semaphore:
 740 0000 00000000 		.dword	0
 740      00000000 
 741 0008 00000000 		.dword	0
 741      00000000 
 742 0010 00000000 		.dword	_ZN9SemaphoreD1Ev
 742      00000000 
 743 0018 00000000 		.dword	_ZN9SemaphoreD0Ev
 743      00000000 
 744              		.text
 745              	.Letext0:
 746              		.file 3 "src/../h/../lib/hw.h"
 747              		.file 4 "src/../h/syscall_c.hpp"
GAS LISTING /tmp/ccHWGH3B.s 			page 17

