GAS LISTING /tmp/ccpyO7Xv.s 			page 1


   1              		.file	"TCB.cpp"
   2              		.option pic
   3              		.option norelax
   4              		.text
   5              	.Ltext0:
   6              		.align	2
   7              		.globl	_ZN3TCBD2Ev
   9              	_ZN3TCBD2Ev:
  10              	.LFB30:
  11              		.file 1 "src/TCB.cpp"
   1:src/TCB.cpp   **** //
   2:src/TCB.cpp   **** // Created by os on 7/18/23.
   3:src/TCB.cpp   **** //
   4:src/TCB.cpp   **** 
   5:src/TCB.cpp   **** //sa vezbi 7
   6:src/TCB.cpp   **** 
   7:src/TCB.cpp   **** #include "../h/TCB.hpp"
   8:src/TCB.cpp   **** #include "../h/Scheduler.hpp"
   9:src/TCB.cpp   **** #include "../lib/hw.h"
  10:src/TCB.cpp   **** #include "../h/syscall_c.hpp"
  11:src/TCB.cpp   **** #include "../h/riscv.hpp"
  12:src/TCB.cpp   **** #include "../h/MemoryAllocator.hpp"
  13:src/TCB.cpp   **** 
  14:src/TCB.cpp   **** uint64  TCB::timeSliceCounter=0;
  15:src/TCB.cpp   **** TCB* TCB::running=nullptr;
  16:src/TCB.cpp   **** bool TCB::newThrUserMode=false;
  17:src/TCB.cpp   **** 
  18:src/TCB.cpp   **** void TCB::yield() {
  19:src/TCB.cpp   ****     __asm__ volatile("li a0, 0x13");
  20:src/TCB.cpp   ****     __asm__ volatile("ecall");
  21:src/TCB.cpp   **** }
  22:src/TCB.cpp   **** 
  23:src/TCB.cpp   **** TCB *TCB::createThread(TCB::Body body, char* stack, void* arg) {
  24:src/TCB.cpp   ****     return new TCB(body, stack, arg, TIME_SLICE);
  25:src/TCB.cpp   **** }
  26:src/TCB.cpp   **** 
  27:src/TCB.cpp   **** void TCB::dispatch() {
  28:src/TCB.cpp   ****     TCB* old=running;
  29:src/TCB.cpp   ****     if(!(old->isFinished() || old->isBlocked() || old->isSleeping())){
  30:src/TCB.cpp   ****         Scheduler::put(old);
  31:src/TCB.cpp   ****     }
  32:src/TCB.cpp   **** 
  33:src/TCB.cpp   ****     running=Scheduler::get();
  34:src/TCB.cpp   **** 
  35:src/TCB.cpp   ****     TCB::contextSwitch(&old->context, &running->context);
  36:src/TCB.cpp   **** }
  37:src/TCB.cpp   **** 
  38:src/TCB.cpp   **** TCB::TCB(TCB::Body body, char* stack, void* arg, uint64 timeSlice): body(body),
  39:src/TCB.cpp   ****                                     stack(body!=nullptr? stack : nullptr),
  40:src/TCB.cpp   ****                                     context({(uint64)&threadWrapper,
  41:src/TCB.cpp   ****                                      this->stack!=nullptr? (uint64) &this->stack[DEFAULT_STACK_SIZE
  42:src/TCB.cpp   ****                                      }),
  43:src/TCB.cpp   ****                                      timeSlice(timeSlice),
  44:src/TCB.cpp   ****                                      finished(false),
  45:src/TCB.cpp   ****                                      arg(arg),
  46:src/TCB.cpp   ****                                      blocked(false),
  47:src/TCB.cpp   ****                                      sleeping(false),
GAS LISTING /tmp/ccpyO7Xv.s 			page 2


  48:src/TCB.cpp   ****                                      userMode(TCB::newThrUserMode)
  49:src/TCB.cpp   ****     {
  50:src/TCB.cpp   ****         if(body!=nullptr) Scheduler::put(this);
  51:src/TCB.cpp   ****     }
  52:src/TCB.cpp   **** 
  53:src/TCB.cpp   **** TCB::~TCB() {
  12              		.loc 1 53 1
  13              		.cfi_startproc
  14              	.LVL0:
  15              	.LBB16:
  16              		.loc 1 53 11 is_stmt 0
  17 0000 97070000 		lla	a5,_ZTV3TCB+16
  17      93870700 
  18 0008 2330F500 		sd	a5,0(a0)
  54:src/TCB.cpp   ****     //mem_free(stack);
  55:src/TCB.cpp   ****     delete[] stack;
  19              		.loc 1 55 5 is_stmt 1
  20              		.loc 1 55 14 is_stmt 0
  21 000c 03350501 		ld	a0,16(a0)
  22              	.LVL1:
  23              		.loc 1 55 19
  24 0010 63060502 		beqz	a0,.L4
  25              	.LBE16:
  53:src/TCB.cpp   ****     //mem_free(stack);
  26              		.loc 1 53 1 discriminator 1
  27 0014 130101FF 		addi	sp,sp,-16
  28              		.cfi_def_cfa_offset 16
  29 0018 23341100 		sd	ra,8(sp)
  30 001c 23308100 		sd	s0,0(sp)
  31              		.cfi_offset 1, -8
  32              		.cfi_offset 8, -16
  33 0020 13040101 		addi	s0,sp,16
  34              		.cfi_def_cfa 8, 0
  35              	.LBB17:
  36              		.loc 1 55 14 discriminator 1
  37 0024 97000000 		call	_ZdaPv@plt
  37      E7800000 
  38              	.LVL2:
  39              	.LBE17:
  56:src/TCB.cpp   **** }
  40              		.loc 1 56 1 discriminator 1
  41 002c 83308100 		ld	ra,8(sp)
  42              		.cfi_restore 1
  43 0030 03340100 		ld	s0,0(sp)
  44              		.cfi_restore 8
  45              		.cfi_def_cfa 2, 16
  46 0034 13010101 		addi	sp,sp,16
  47              		.cfi_def_cfa_offset 0
  48 0038 67800000 		jr	ra
  49              	.L4:
  50 003c 67800000 		ret
  51              		.cfi_endproc
  52              	.LFE30:
  54              		.globl	_ZN3TCBD1Ev
  55              		.set	_ZN3TCBD1Ev,_ZN3TCBD2Ev
  56              		.align	2
  57              		.globl	_ZN3TCBD0Ev
GAS LISTING /tmp/ccpyO7Xv.s 			page 3


  59              	_ZN3TCBD0Ev:
  60              	.LFB32:
  53:src/TCB.cpp   ****     //mem_free(stack);
  61              		.loc 1 53 1 is_stmt 1
  62              		.cfi_startproc
  63              	.LVL3:
  64 0040 130101FE 		addi	sp,sp,-32
  65              		.cfi_def_cfa_offset 32
  66 0044 233C1100 		sd	ra,24(sp)
  67 0048 23388100 		sd	s0,16(sp)
  68 004c 23349100 		sd	s1,8(sp)
  69              		.cfi_offset 1, -8
  70              		.cfi_offset 8, -16
  71              		.cfi_offset 9, -24
  72 0050 13040102 		addi	s0,sp,32
  73              		.cfi_def_cfa 8, 0
  74 0054 93040500 		mv	s1,a0
  75              		.loc 1 56 1 is_stmt 0
  76 0058 97000000 		call	_ZN3TCBD1Ev
  76      E7800000 
  77              	.LVL4:
  78 0060 13850400 		mv	a0,s1
  79 0064 97000000 		call	_ZdlPv@plt
  79      E7800000 
  80              	.LVL5:
  81 006c 83308101 		ld	ra,24(sp)
  82              		.cfi_restore 1
  83 0070 03340101 		ld	s0,16(sp)
  84              		.cfi_restore 8
  85              		.cfi_def_cfa 2, 32
  86 0074 83348100 		ld	s1,8(sp)
  87              		.cfi_restore 9
  88              	.LVL6:
  89 0078 13010102 		addi	sp,sp,32
  90              		.cfi_def_cfa_offset 0
  91 007c 67800000 		jr	ra
  92              		.cfi_endproc
  93              	.LFE32:
  95              		.align	2
  96              		.globl	_ZN3TCB13threadWrapperEv
  98              	_ZN3TCB13threadWrapperEv:
  99              	.LFB33:
  57:src/TCB.cpp   **** 
  58:src/TCB.cpp   **** void TCB::threadWrapper() {
 100              		.loc 1 58 27 is_stmt 1
 101              		.cfi_startproc
 102 0080 130101FE 		addi	sp,sp,-32
 103              		.cfi_def_cfa_offset 32
 104 0084 233C1100 		sd	ra,24(sp)
 105 0088 23388100 		sd	s0,16(sp)
 106 008c 23349100 		sd	s1,8(sp)
 107              		.cfi_offset 1, -8
 108              		.cfi_offset 8, -16
 109              		.cfi_offset 9, -24
 110 0090 13040102 		addi	s0,sp,32
 111              		.cfi_def_cfa 8, 0
  59:src/TCB.cpp   ****     //ukoliko se zeli preci u korisnicki rezim pri pokretanju niti na ovom mestu
GAS LISTING /tmp/ccpyO7Xv.s 			page 4


  60:src/TCB.cpp   ****     //treba promeniti (naglaseno promeniti a ne samo vratiti stare) privilegije
  61:src/TCB.cpp   ****     //pop SPP i vratiti SPIE?
  62:src/TCB.cpp   ****     Riscv::popSppSpie();
 112              		.loc 1 62 5
 113              		.loc 1 62 22 is_stmt 0
 114 0094 97000000 		call	_ZN5Riscv10popSppSpieEv@plt
 114      E7800000 
 115              	.LVL7:
  63:src/TCB.cpp   ****     running->body(running->arg);
 116              		.loc 1 63 5 is_stmt 1
 117              		.loc 1 63 14 is_stmt 0
 118 009c 97040000 		lla	s1,.LANCHOR0
 118      93840400 
 119 00a4 83B70400 		ld	a5,0(s1)
 120 00a8 03B78700 		ld	a4,8(a5)
 121              		.loc 1 63 18
 122 00ac 03B58703 		ld	a0,56(a5)
 123 00b0 E7000700 		jalr	a4
 124              	.LVL8:
  64:src/TCB.cpp   ****     running->setFinished(true);
 125              		.loc 1 64 5 is_stmt 1
 126              		.loc 1 64 25 is_stmt 0
 127 00b4 83B70400 		ld	a5,0(s1)
 128              	.LVL9:
 129              	.LBB18:
 130              	.LBB19:
 131              		.file 2 "src/../h/TCB.hpp"
   1:src/../h/TCB.hpp **** //
   2:src/../h/TCB.hpp **** // Created by os on 7/18/23.
   3:src/../h/TCB.hpp **** //
   4:src/../h/TCB.hpp **** 
   5:src/../h/TCB.hpp **** //sa vezbi 7
   6:src/../h/TCB.hpp **** 
   7:src/../h/TCB.hpp **** #ifndef PROJECT_BASE_TCB_HPP
   8:src/../h/TCB.hpp **** #define PROJECT_BASE_TCB_HPP
   9:src/../h/TCB.hpp **** 
  10:src/../h/TCB.hpp **** #include "../lib/hw.h"
  11:src/../h/TCB.hpp **** 
  12:src/../h/TCB.hpp **** class TCB{
  13:src/../h/TCB.hpp **** public:
  14:src/../h/TCB.hpp ****     virtual ~TCB();
  15:src/../h/TCB.hpp **** 
  16:src/../h/TCB.hpp ****     bool isBlocked() const {
  17:src/../h/TCB.hpp ****         return blocked;
  18:src/../h/TCB.hpp ****     }
  19:src/../h/TCB.hpp **** 
  20:src/../h/TCB.hpp ****     void setBlocked(bool blocked) {
  21:src/../h/TCB.hpp ****         TCB::blocked = blocked;
  22:src/../h/TCB.hpp ****     }
  23:src/../h/TCB.hpp **** 
  24:src/../h/TCB.hpp ****     bool isFinished() const{
  25:src/../h/TCB.hpp ****         return finished;
  26:src/../h/TCB.hpp ****     }
  27:src/../h/TCB.hpp **** 
  28:src/../h/TCB.hpp ****     void setFinished(bool finished){
  29:src/../h/TCB.hpp ****         TCB::finished = finished;
 132              		.loc 2 29 9 is_stmt 1
GAS LISTING /tmp/ccpyO7Xv.s 			page 5


 133              		.loc 2 29 23 is_stmt 0
 134 00b8 13071000 		li	a4,1
 135 00bc 2388E702 		sb	a4,48(a5)
 136              	.LVL10:
 137              	.LBE19:
 138              	.LBE18:
  65:src/TCB.cpp   ****     thread_dispatch();
 139              		.loc 1 65 5 is_stmt 1
 140              		.loc 1 65 20 is_stmt 0
 141 00c0 97000000 		call	_Z15thread_dispatchv@plt
 141      E7800000 
 142              	.LVL11:
  66:src/TCB.cpp   **** }
 143              		.loc 1 66 1
 144 00c8 83308101 		ld	ra,24(sp)
 145              		.cfi_restore 1
 146 00cc 03340101 		ld	s0,16(sp)
 147              		.cfi_restore 8
 148              		.cfi_def_cfa 2, 32
 149 00d0 83348100 		ld	s1,8(sp)
 150              		.cfi_restore 9
 151 00d4 13010102 		addi	sp,sp,32
 152              		.cfi_def_cfa_offset 0
 153 00d8 67800000 		jr	ra
 154              		.cfi_endproc
 155              	.LFE33:
 157              		.align	2
 158              		.globl	_ZN3TCB5yieldEv
 160              	_ZN3TCB5yieldEv:
 161              	.LFB23:
  18:src/TCB.cpp   ****     __asm__ volatile("li a0, 0x13");
 162              		.loc 1 18 19 is_stmt 1
 163              		.cfi_startproc
 164 00dc 130101FF 		addi	sp,sp,-16
 165              		.cfi_def_cfa_offset 16
 166 00e0 23348100 		sd	s0,8(sp)
 167              		.cfi_offset 8, -8
 168 00e4 13040101 		addi	s0,sp,16
 169              		.cfi_def_cfa 8, 0
  19:src/TCB.cpp   ****     __asm__ volatile("ecall");
 170              		.loc 1 19 5
  19:src/TCB.cpp   ****     __asm__ volatile("ecall");
 171              		.loc 1 19 36 is_stmt 0
 172              	#APP
 173              	# 19 "src/TCB.cpp" 1
  20:src/TCB.cpp   **** }
 174              		li a0, 0x13
 175              	# 0 "" 2
 176              		.loc 1 20 5 is_stmt 1
  20:src/TCB.cpp   **** }
 177              		.loc 1 20 30 is_stmt 0
 178              	# 20 "src/TCB.cpp" 1
  21:src/TCB.cpp   **** 
 179              		ecall
 180              	# 0 "" 2
 181              		.loc 1 21 1
 182              	#NO_APP
GAS LISTING /tmp/ccpyO7Xv.s 			page 6


 183 00f0 03348100 		ld	s0,8(sp)
 184              		.cfi_restore 8
 185              		.cfi_def_cfa 2, 16
 186 00f4 13010101 		addi	sp,sp,16
 187              		.cfi_def_cfa_offset 0
 188 00f8 67800000 		jr	ra
 189              		.cfi_endproc
 190              	.LFE23:
 192              		.align	2
 193              		.globl	_ZN3TCB8dispatchEv
 195              	_ZN3TCB8dispatchEv:
 196              	.LFB25:
  27:src/TCB.cpp   ****     TCB* old=running;
 197              		.loc 1 27 22 is_stmt 1
 198              		.cfi_startproc
 199 00fc 130101FE 		addi	sp,sp,-32
 200              		.cfi_def_cfa_offset 32
 201 0100 233C1100 		sd	ra,24(sp)
 202 0104 23388100 		sd	s0,16(sp)
 203 0108 23349100 		sd	s1,8(sp)
 204              		.cfi_offset 1, -8
 205              		.cfi_offset 8, -16
 206              		.cfi_offset 9, -24
 207 010c 13040102 		addi	s0,sp,32
 208              		.cfi_def_cfa 8, 0
  28:src/TCB.cpp   ****     if(!(old->isFinished() || old->isBlocked() || old->isSleeping())){
 209              		.loc 1 28 5
  28:src/TCB.cpp   ****     if(!(old->isFinished() || old->isBlocked() || old->isSleeping())){
 210              		.loc 1 28 10 is_stmt 0
 211 0110 97040000 		ld	s1,.LANCHOR0
 211      83B40400 
 212              	.LVL12:
  29:src/TCB.cpp   ****         Scheduler::put(old);
 213              		.loc 1 29 5 is_stmt 1
 214              	.LBB20:
 215              	.LBB21:
  25:src/../h/TCB.hpp ****     }
 216              		.loc 2 25 9
  25:src/../h/TCB.hpp ****     }
 217              		.loc 2 25 16 is_stmt 0
 218 0118 83C70403 		lbu	a5,48(s1)
 219              	.LVL13:
 220              	.LBE21:
 221              	.LBE20:
  29:src/TCB.cpp   ****         Scheduler::put(old);
 222              		.loc 1 29 8
 223 011c 639A0700 		bnez	a5,.L14
 224              	.LVL14:
 225              	.LBB22:
 226              	.LBB23:
  17:src/../h/TCB.hpp ****     }
 227              		.loc 2 17 9 is_stmt 1
  17:src/../h/TCB.hpp ****     }
 228              		.loc 2 17 16 is_stmt 0
 229 0120 83C70404 		lbu	a5,64(s1)
 230              	.LVL15:
 231              	.LBE23:
GAS LISTING /tmp/ccpyO7Xv.s 			page 7


 232              	.LBE22:
  29:src/TCB.cpp   ****         Scheduler::put(old);
 233              		.loc 1 29 28
 234 0124 63960700 		bnez	a5,.L14
 235              	.LVL16:
 236              	.LBB24:
 237              	.LBB25:
  30:src/../h/TCB.hpp ****     }
  31:src/../h/TCB.hpp **** 
  32:src/../h/TCB.hpp ****     uint64 getTimeSlice() const{
  33:src/../h/TCB.hpp ****         return timeSlice;
  34:src/../h/TCB.hpp ****     }
  35:src/../h/TCB.hpp **** 
  36:src/../h/TCB.hpp ****     bool isSleeping() const {
  37:src/../h/TCB.hpp ****         return sleeping;
 238              		.loc 2 37 9 is_stmt 1
 239              		.loc 2 37 16 is_stmt 0
 240 0128 83C71404 		lbu	a5,65(s1)
 241              	.LVL17:
 242              	.LBE25:
 243              	.LBE24:
  29:src/TCB.cpp   ****         Scheduler::put(old);
 244              		.loc 1 29 8
 245 012c 638C0702 		beqz	a5,.L16
 246              	.L14:
  33:src/TCB.cpp   **** 
 247              		.loc 1 33 5 is_stmt 1
  33:src/TCB.cpp   **** 
 248              		.loc 1 33 27 is_stmt 0
 249 0130 97000000 		call	_ZN9Scheduler3getEv@plt
 249      E7800000 
 250              	.LVL18:
  33:src/TCB.cpp   **** 
 251              		.loc 1 33 12
 252 0138 97070000 		sd	a0,.LANCHOR0,a5
 252      23B0A700 
  35:src/TCB.cpp   **** }
 253              		.loc 1 35 5 is_stmt 1
  35:src/TCB.cpp   **** }
 254              		.loc 1 35 23 is_stmt 0
 255 0140 93058501 		addi	a1,a0,24
 256 0144 13858401 		addi	a0,s1,24
 257 0148 97000000 		call	_ZN3TCB13contextSwitchEPNS_7ContextES1_@plt
 257      E7800000 
 258              	.LVL19:
  36:src/TCB.cpp   **** 
 259              		.loc 1 36 1
 260 0150 83308101 		ld	ra,24(sp)
 261              		.cfi_remember_state
 262              		.cfi_restore 1
 263 0154 03340101 		ld	s0,16(sp)
 264              		.cfi_restore 8
 265              		.cfi_def_cfa 2, 32
 266 0158 83348100 		ld	s1,8(sp)
 267              		.cfi_restore 9
 268              	.LVL20:
 269 015c 13010102 		addi	sp,sp,32
GAS LISTING /tmp/ccpyO7Xv.s 			page 8


 270              		.cfi_def_cfa_offset 0
 271 0160 67800000 		jr	ra
 272              	.LVL21:
 273              	.L16:
 274              		.cfi_restore_state
  30:src/TCB.cpp   ****     }
 275              		.loc 1 30 9 is_stmt 1
  30:src/TCB.cpp   ****     }
 276              		.loc 1 30 23 is_stmt 0
 277 0164 13850400 		mv	a0,s1
 278 0168 97000000 		call	_ZN9Scheduler3putEP3TCB@plt
 278      E7800000 
 279              	.LVL22:
 280 0170 6FF01FFC 		j	.L14
 281              		.cfi_endproc
 282              	.LFE25:
 284              		.align	2
 285              		.globl	_ZN3TCBC2EPFvPvEPcS0_m
 287              	_ZN3TCBC2EPFvPvEPcS0_m:
 288              	.LFB27:
  38:src/TCB.cpp   ****                                     stack(body!=nullptr? stack : nullptr),
 289              		.loc 1 38 1 is_stmt 1
 290              		.cfi_startproc
 291              	.LVL23:
 292              	.LBB26:
  48:src/TCB.cpp   ****     {
 293              		.loc 1 48 66 is_stmt 0
 294 0174 97070000 		lla	a5,_ZTV3TCB+16
 294      93870700 
 295 017c 2330F500 		sd	a5,0(a0)
 296 0180 2334B500 		sd	a1,8(a0)
  39:src/TCB.cpp   ****                                     context({(uint64)&threadWrapper,
 297              		.loc 1 39 56
 298 0184 63880506 		beqz	a1,.L27
 299              	.LVL24:
 300              	.L18:
  48:src/TCB.cpp   ****     {
 301              		.loc 1 48 66
 302 0188 2338C500 		sd	a2,16(a0)
 303 018c 97070000 		lla	a5,_ZN3TCB13threadWrapperEv
 303      93870700 
 304 0194 233CF500 		sd	a5,24(a0)
  41:src/TCB.cpp   ****                                      }),
 305              		.loc 1 41 58
 306 0198 63020606 		beqz	a2,.L22
  41:src/TCB.cpp   ****                                      }),
 307              		.loc 1 41 69 discriminator 1
 308 019c B7170000 		li	a5,4096
 309 01a0 3306F600 		add	a2,a2,a5
 310              	.L19:
  48:src/TCB.cpp   ****     {
 311              		.loc 1 48 66
 312 01a4 2330C502 		sd	a2,32(a0)
 313 01a8 2334E502 		sd	a4,40(a0)
 314 01ac 23080502 		sb	zero,48(a0)
 315 01b0 233CD502 		sd	a3,56(a0)
 316 01b4 23000504 		sb	zero,64(a0)
GAS LISTING /tmp/ccpyO7Xv.s 			page 9


 317 01b8 A3000504 		sb	zero,65(a0)
 318 01bc 97070000 		lbu	a5,.LANCHOR0+8
 318      83C70700 
 319 01c4 2301F504 		sb	a5,66(a0)
  50:src/TCB.cpp   ****     }
 320              		.loc 1 50 9 is_stmt 1
 321 01c8 638E0502 		beqz	a1,.L24
 322              	.LBE26:
  38:src/TCB.cpp   ****                                     stack(body!=nullptr? stack : nullptr),
 323              		.loc 1 38 1 is_stmt 0 discriminator 1
 324 01cc 130101FF 		addi	sp,sp,-16
 325              		.cfi_def_cfa_offset 16
 326 01d0 23341100 		sd	ra,8(sp)
 327 01d4 23308100 		sd	s0,0(sp)
 328              		.cfi_offset 1, -8
 329              		.cfi_offset 8, -16
 330 01d8 13040101 		addi	s0,sp,16
 331              		.cfi_def_cfa 8, 0
 332              	.LBB27:
  50:src/TCB.cpp   ****     }
 333              		.loc 1 50 27 is_stmt 1 discriminator 1
  50:src/TCB.cpp   ****     }
 334              		.loc 1 50 41 is_stmt 0 discriminator 1
 335 01dc 97000000 		call	_ZN9Scheduler3putEP3TCB@plt
 335      E7800000 
 336              	.LVL25:
 337              	.LBE27:
  51:src/TCB.cpp   **** 
 338              		.loc 1 51 5 discriminator 1
 339 01e4 83308100 		ld	ra,8(sp)
 340              		.cfi_restore 1
 341 01e8 03340100 		ld	s0,0(sp)
 342              		.cfi_restore 8
 343              		.cfi_def_cfa 2, 16
 344 01ec 13010101 		addi	sp,sp,16
 345              		.cfi_def_cfa_offset 0
 346 01f0 67800000 		jr	ra
 347              	.LVL26:
 348              	.L27:
 349              	.LBB28:
  39:src/TCB.cpp   ****                                     context({(uint64)&threadWrapper,
 350              		.loc 1 39 56
 351 01f4 13060000 		li	a2,0
 352              	.LVL27:
 353 01f8 6FF01FF9 		j	.L18
 354              	.L22:
  41:src/TCB.cpp   ****                                      }),
 355              		.loc 1 41 58
 356 01fc 13060000 		li	a2,0
 357 0200 6FF05FFA 		j	.L19
 358              	.L24:
 359 0204 67800000 		ret
 360              	.LBE28:
 361              		.cfi_endproc
 362              	.LFE27:
 364              		.globl	_ZN3TCBC1EPFvPvEPcS0_m
 365              		.set	_ZN3TCBC1EPFvPvEPcS0_m,_ZN3TCBC2EPFvPvEPcS0_m
GAS LISTING /tmp/ccpyO7Xv.s 			page 10


 366              		.align	2
 367              		.globl	_ZN3TCBnwEm
 369              	_ZN3TCBnwEm:
 370              	.LFB34:
  67:src/TCB.cpp   **** 
  68:src/TCB.cpp   **** void *TCB::operator new(uint64 n) {
 371              		.loc 1 68 35 is_stmt 1
 372              		.cfi_startproc
 373              	.LVL28:
 374 0208 130101FF 		addi	sp,sp,-16
 375              		.cfi_def_cfa_offset 16
 376 020c 23341100 		sd	ra,8(sp)
 377 0210 23308100 		sd	s0,0(sp)
 378              		.cfi_offset 1, -8
 379              		.cfi_offset 8, -16
 380 0214 13040101 		addi	s0,sp,16
 381              		.cfi_def_cfa 8, 0
  69:src/TCB.cpp   ****     void* ptr=MemoryAllocator::alloc(((n+MEM_BLOCK_SIZE-1)/MEM_BLOCK_SIZE));
 382              		.loc 1 69 5
 383              		.loc 1 69 56 is_stmt 0
 384 0218 1305F503 		addi	a0,a0,63
 385              	.LVL29:
 386              		.loc 1 69 37
 387 021c 13556500 		srli	a0,a0,6
 388              	.LVL30:
 389 0220 97000000 		call	_ZN15MemoryAllocator5allocEm@plt
 389      E7800000 
 390              	.LVL31:
  70:src/TCB.cpp   ****     return ptr;
 391              		.loc 1 70 5 is_stmt 1
  71:src/TCB.cpp   **** }
 392              		.loc 1 71 1 is_stmt 0
 393 0228 83308100 		ld	ra,8(sp)
 394              		.cfi_restore 1
 395 022c 03340100 		ld	s0,0(sp)
 396              		.cfi_restore 8
 397              		.cfi_def_cfa 2, 16
 398 0230 13010101 		addi	sp,sp,16
 399              		.cfi_def_cfa_offset 0
 400 0234 67800000 		jr	ra
 401              		.cfi_endproc
 402              	.LFE34:
 404              		.align	2
 405              		.globl	_ZN3TCB12createThreadEPFvPvEPcS0_
 407              	_ZN3TCB12createThreadEPFvPvEPcS0_:
 408              	.LFB24:
  23:src/TCB.cpp   ****     return new TCB(body, stack, arg, TIME_SLICE);
 409              		.loc 1 23 64 is_stmt 1
 410              		.cfi_startproc
 411              		.cfi_personality 0x9b,DW.ref.__gxx_personality_v0
 412              		.cfi_lsda 0x1b,.LLSDA24
 413              	.LVL32:
 414 0238 130101FD 		addi	sp,sp,-48
 415              		.cfi_def_cfa_offset 48
 416 023c 23341102 		sd	ra,40(sp)
 417 0240 23308102 		sd	s0,32(sp)
 418 0244 233C9100 		sd	s1,24(sp)
GAS LISTING /tmp/ccpyO7Xv.s 			page 11


 419 0248 23382101 		sd	s2,16(sp)
 420 024c 23343101 		sd	s3,8(sp)
 421 0250 23304101 		sd	s4,0(sp)
 422              		.cfi_offset 1, -8
 423              		.cfi_offset 8, -16
 424              		.cfi_offset 9, -24
 425              		.cfi_offset 18, -32
 426              		.cfi_offset 19, -40
 427              		.cfi_offset 20, -48
 428 0254 13040103 		addi	s0,sp,48
 429              		.cfi_def_cfa 8, 0
 430 0258 13090500 		mv	s2,a0
 431 025c 93890500 		mv	s3,a1
 432 0260 130A0600 		mv	s4,a2
  24:src/TCB.cpp   **** }
 433              		.loc 1 24 5
  24:src/TCB.cpp   **** }
 434              		.loc 1 24 48 is_stmt 0
 435 0264 13058004 		li	a0,72
 436              	.LVL33:
 437              	.LEHB0:
 438 0268 97000000 		call	_ZN3TCBnwEm
 438      E7800000 
 439              	.LVL34:
 440              	.LEHE0:
 441 0270 93040500 		mv	s1,a0
 442 0274 13072000 		li	a4,2
 443 0278 93060A00 		mv	a3,s4
 444 027c 13860900 		mv	a2,s3
 445 0280 93050900 		mv	a1,s2
 446              	.LEHB1:
 447 0284 97000000 		call	_ZN3TCBC1EPFvPvEPcS0_m
 447      E7800000 
 448              	.LVL35:
 449              	.LEHE1:
 450 028c 6F000002 		j	.L35
 451              	.L32:
 452 0290 13090500 		mv	s2,a0
 453              	.LVL36:
 454 0294 13850400 		mv	a0,s1
 455 0298 97000000 		call	_ZdlPv@plt
 455      E7800000 
 456              	.LVL37:
 457 02a0 13050900 		mv	a0,s2
 458              	.LEHB2:
 459 02a4 97000000 		call	_Unwind_Resume@plt
 459      E7800000 
 460              	.LVL38:
 461              	.LEHE2:
 462              	.L35:
  25:src/TCB.cpp   **** 
 463              		.loc 1 25 1
 464 02ac 13850400 		mv	a0,s1
 465 02b0 83308102 		ld	ra,40(sp)
 466              		.cfi_restore 1
 467 02b4 03340102 		ld	s0,32(sp)
 468              		.cfi_restore 8
GAS LISTING /tmp/ccpyO7Xv.s 			page 12


 469              		.cfi_def_cfa 2, 48
 470 02b8 83348101 		ld	s1,24(sp)
 471              		.cfi_restore 9
 472 02bc 03390101 		ld	s2,16(sp)
 473              		.cfi_restore 18
 474              	.LVL39:
 475 02c0 83398100 		ld	s3,8(sp)
 476              		.cfi_restore 19
 477              	.LVL40:
 478 02c4 033A0100 		ld	s4,0(sp)
 479              		.cfi_restore 20
 480              	.LVL41:
 481 02c8 13010103 		addi	sp,sp,48
 482              		.cfi_def_cfa_offset 0
 483 02cc 67800000 		jr	ra
 484              		.cfi_endproc
 485              	.LFE24:
 486              		.globl	__gxx_personality_v0
 487              		.section	.gcc_except_table,"a",@progbits
 488              	.LLSDA24:
 489 0000 FF       		.byte	0xff
 490 0001 FF       		.byte	0xff
 491 0002 03       		.byte	0x3
 492 0003 27       		.byte	0x27
 493 0004 00000000 		.4byte	.LEHB0-.LFB24
 494 0008 00000000 		.4byte	.LEHE0-.LEHB0
 495 000c 00000000 		.4byte	0
 496 0010 00       		.byte	0
 497 0011 00000000 		.4byte	.LEHB1-.LFB24
 498 0015 00000000 		.4byte	.LEHE1-.LEHB1
 499 0019 00000000 		.4byte	.L32-.LFB24
 500 001d 00       		.byte	0
 501 001e 00000000 		.4byte	.LEHB2-.LFB24
 502 0022 00000000 		.4byte	.LEHE2-.LEHB2
 503 0026 00000000 		.4byte	0
 504 002a 00       		.byte	0
 505              		.text
 507              		.align	2
 508              		.globl	_ZN3TCBdaEPv
 510              	_ZN3TCBdaEPv:
 511              	.LFB35:
  72:src/TCB.cpp   **** 
  73:src/TCB.cpp   **** void TCB::operator delete[](void *p) {
 512              		.loc 1 73 38 is_stmt 1
 513              		.cfi_startproc
 514              	.LVL42:
 515 02d0 130101FF 		addi	sp,sp,-16
 516              		.cfi_def_cfa_offset 16
 517 02d4 23341100 		sd	ra,8(sp)
 518 02d8 23308100 		sd	s0,0(sp)
 519              		.cfi_offset 1, -8
 520              		.cfi_offset 8, -16
 521 02dc 13040101 		addi	s0,sp,16
 522              		.cfi_def_cfa 8, 0
  74:src/TCB.cpp   ****     MemoryAllocator::free(p);
 523              		.loc 1 74 5
 524              		.loc 1 74 26 is_stmt 0
GAS LISTING /tmp/ccpyO7Xv.s 			page 13


 525 02e0 97000000 		call	_ZN15MemoryAllocator4freeEPv@plt
 525      E7800000 
 526              	.LVL43:
  75:src/TCB.cpp   **** }
 527              		.loc 1 75 1
 528 02e8 83308100 		ld	ra,8(sp)
 529              		.cfi_restore 1
 530 02ec 03340100 		ld	s0,0(sp)
 531              		.cfi_restore 8
 532              		.cfi_def_cfa 2, 16
 533 02f0 13010101 		addi	sp,sp,16
 534              		.cfi_def_cfa_offset 0
 535 02f4 67800000 		jr	ra
 536              		.cfi_endproc
 537              	.LFE35:
 539              		.align	2
 540              		.globl	_ZN3TCB4exitEv
 542              	_ZN3TCB4exitEv:
 543              	.LFB36:
  76:src/TCB.cpp   **** 
  77:src/TCB.cpp   **** int TCB::exit() {
 544              		.loc 1 77 17 is_stmt 1
 545              		.cfi_startproc
  78:src/TCB.cpp   ****     if(TCB::running->isFinished()){
 546              		.loc 1 78 5
 547              		.loc 1 78 32 is_stmt 0
 548 02f8 97070000 		ld	a5,.LANCHOR0
 548      83B70700 
 549              	.LVL44:
 550              	.LBB29:
 551              	.LBB30:
  25:src/../h/TCB.hpp ****     }
 552              		.loc 2 25 9 is_stmt 1
  25:src/../h/TCB.hpp ****     }
 553              		.loc 2 25 16 is_stmt 0
 554 0300 03C70703 		lbu	a4,48(a5)
 555              	.LVL45:
 556              	.LBE30:
 557              	.LBE29:
 558              		.loc 1 78 5
 559 0304 63100704 		bnez	a4,.L40
  77:src/TCB.cpp   ****     if(TCB::running->isFinished()){
 560              		.loc 1 77 17
 561 0308 130101FF 		addi	sp,sp,-16
 562              		.cfi_def_cfa_offset 16
 563 030c 23341100 		sd	ra,8(sp)
 564 0310 23308100 		sd	s0,0(sp)
 565              		.cfi_offset 1, -8
 566              		.cfi_offset 8, -16
 567 0314 13040101 		addi	s0,sp,16
 568              		.cfi_def_cfa 8, 0
  79:src/TCB.cpp   ****         return -1;
  80:src/TCB.cpp   ****     }
  81:src/TCB.cpp   ****     else{
  82:src/TCB.cpp   ****         TCB::running->setFinished(true);
 569              		.loc 1 82 9 is_stmt 1
 570              	.LVL46:
GAS LISTING /tmp/ccpyO7Xv.s 			page 14


 571              	.LBB31:
 572              	.LBB32:
  29:src/../h/TCB.hpp ****     }
 573              		.loc 2 29 9
  29:src/../h/TCB.hpp ****     }
 574              		.loc 2 29 23 is_stmt 0
 575 0318 13071000 		li	a4,1
 576 031c 2388E702 		sb	a4,48(a5)
 577              	.LVL47:
 578              	.LBE32:
 579              	.LBE31:
  83:src/TCB.cpp   ****         TCB::timeSliceCounter=0;
 580              		.loc 1 83 9 is_stmt 1
 581              		.loc 1 83 30 is_stmt 0
 582 0320 97070000 		sd	zero,.LANCHOR0+16,a5
 582      23B00700 
  84:src/TCB.cpp   ****         TCB::dispatch();
 583              		.loc 1 84 9 is_stmt 1
 584              		.loc 1 84 22 is_stmt 0
 585 0328 97000000 		call	_ZN3TCB8dispatchEv
 585      E7800000 
 586              	.LVL48:
  85:src/TCB.cpp   ****         return 0;
 587              		.loc 1 85 9 is_stmt 1
 588              		.loc 1 85 16 is_stmt 0
 589 0330 13050000 		li	a0,0
  86:src/TCB.cpp   ****     }
  87:src/TCB.cpp   **** }
 590              		.loc 1 87 1
 591 0334 83308100 		ld	ra,8(sp)
 592              		.cfi_restore 1
 593 0338 03340100 		ld	s0,0(sp)
 594              		.cfi_restore 8
 595              		.cfi_def_cfa 2, 16
 596 033c 13010101 		addi	sp,sp,16
 597              		.cfi_def_cfa_offset 0
 598 0340 67800000 		jr	ra
 599              	.L40:
  79:src/TCB.cpp   ****     }
 600              		.loc 1 79 17
 601 0344 1305F0FF 		li	a0,-1
 602              		.loc 1 87 1
 603 0348 67800000 		ret
 604              		.cfi_endproc
 605              	.LFE36:
 607              		.align	2
 608              		.globl	_ZN3TCB4joinEPS_
 610              	_ZN3TCB4joinEPS_:
 611              	.LFB37:
  88:src/TCB.cpp   **** 
  89:src/TCB.cpp   **** void TCB::join(TCB *thr) {
 612              		.loc 1 89 26 is_stmt 1
 613              		.cfi_startproc
 614              	.LVL49:
 615 034c 130101FE 		addi	sp,sp,-32
 616              		.cfi_def_cfa_offset 32
 617 0350 233C1100 		sd	ra,24(sp)
GAS LISTING /tmp/ccpyO7Xv.s 			page 15


 618 0354 23388100 		sd	s0,16(sp)
 619 0358 23349100 		sd	s1,8(sp)
 620              		.cfi_offset 1, -8
 621              		.cfi_offset 8, -16
 622              		.cfi_offset 9, -24
 623 035c 13040102 		addi	s0,sp,32
 624              		.cfi_def_cfa 8, 0
 625 0360 93040500 		mv	s1,a0
 626              	.LVL50:
 627              	.L47:
  90:src/TCB.cpp   ****     while(!thr->isFinished()){
 628              		.loc 1 90 5
 629              		.loc 1 90 11
 630              	.LBB33:
 631              	.LBB34:
  25:src/../h/TCB.hpp ****     }
 632              		.loc 2 25 9
  25:src/../h/TCB.hpp ****     }
 633              		.loc 2 25 16 is_stmt 0
 634 0364 83C70403 		lbu	a5,48(s1)
 635              	.LVL51:
 636              	.LBE34:
 637              	.LBE33:
 638              		.loc 1 90 11
 639 0368 639C0700 		bnez	a5,.L45
  91:src/TCB.cpp   ****         TCB::timeSliceCounter=0;
 640              		.loc 1 91 9 is_stmt 1
 641              		.loc 1 91 30 is_stmt 0
 642 036c 97070000 		sd	zero,.LANCHOR0+16,a5
 642      23B00700 
  92:src/TCB.cpp   ****         TCB::dispatch();
 643              		.loc 1 92 9 is_stmt 1
 644              		.loc 1 92 22 is_stmt 0
 645 0374 97000000 		call	_ZN3TCB8dispatchEv
 645      E7800000 
 646              	.LVL52:
  90:src/TCB.cpp   ****         TCB::timeSliceCounter=0;
 647              		.loc 1 90 5
 648 037c 6FF09FFE 		j	.L47
 649              	.L45:
  93:src/TCB.cpp   ****     }
  94:src/TCB.cpp   **** }
 650              		.loc 1 94 1
 651 0380 83308101 		ld	ra,24(sp)
 652              		.cfi_restore 1
 653 0384 03340101 		ld	s0,16(sp)
 654              		.cfi_restore 8
 655              		.cfi_def_cfa 2, 32
 656 0388 83348100 		ld	s1,8(sp)
 657              		.cfi_restore 9
 658              	.LVL53:
 659 038c 13010102 		addi	sp,sp,32
 660              		.cfi_def_cfa_offset 0
 661 0390 67800000 		jr	ra
 662              		.cfi_endproc
 663              	.LFE37:
 665              		.weak	_ZTV3TCB
GAS LISTING /tmp/ccpyO7Xv.s 			page 16


 666              		.section	.data.rel.ro.local._ZTV3TCB,"awG",@progbits,_ZTV3TCB,comdat
 667              		.align	3
 670              	_ZTV3TCB:
 671 0000 00000000 		.dword	0
 671      00000000 
 672 0008 00000000 		.dword	0
 672      00000000 
 673 0010 00000000 		.dword	_ZN3TCBD1Ev
 673      00000000 
 674 0018 00000000 		.dword	_ZN3TCBD0Ev
 674      00000000 
 675              		.globl	_ZN3TCB14newThrUserModeE
 676              		.globl	_ZN3TCB7runningE
 677              		.globl	_ZN3TCB16timeSliceCounterE
 678              		.bss
 679              		.align	3
 680              		.set	.LANCHOR0,. + 0
 683              	_ZN3TCB7runningE:
 684 0000 00000000 		.zero	8
 684      00000000 
 687              	_ZN3TCB14newThrUserModeE:
 688 0008 00       		.zero	1
 689 0009 00000000 		.zero	7
 689      000000
 692              	_ZN3TCB16timeSliceCounterE:
 693 0010 00000000 		.zero	8
 693      00000000 
 694              		.text
 695              	.Letext0:
 696              		.file 3 "src/../h/../lib/hw.h"
 697              		.file 4 "src/../h/Scheduler.hpp"
 698              		.file 5 "src/../h/riscv.hpp"
 699              		.file 6 "src/../h/MemoryAllocator.hpp"
 700              		.file 7 "src/../h/syscall_c.hpp"
 4047              		.align	3
 4050              	DW.ref.__gxx_personality_v0:
 4051 0000 00000000 		.dword	__gxx_personality_v0
 4051      00000000 
 4052              		.ident	"GCC: (Ubuntu 9.4.0-1ubuntu1~20.04) 9.4.0"
 4053              		.section	.note.GNU-stack,"",@progbits
GAS LISTING /tmp/ccpyO7Xv.s 			page 17


DEFINED SYMBOLS
                            *ABS*:0000000000000000 TCB.cpp
     /tmp/ccpyO7Xv.s:9      .text:0000000000000000 _ZN3TCBD2Ev
     /tmp/ccpyO7Xv.s:13     .text:0000000000000000 .L0 
     /tmp/ccpyO7Xv.s:16     .text:0000000000000000 .L0 
     /tmp/ccpyO7Xv.s:670    .data.rel.ro.local._ZTV3TCB:0000000000000000 _ZTV3TCB
     /tmp/ccpyO7Xv.s:17     .text:0000000000000000 .L0 
     /tmp/ccpyO7Xv.s:20     .text:000000000000000c .L0 
     /tmp/ccpyO7Xv.s:21     .text:000000000000000c .L0 
     /tmp/ccpyO7Xv.s:24     .text:0000000000000010 .L0 
     /tmp/ccpyO7Xv.s:27     .text:0000000000000014 .L0 
     /tmp/ccpyO7Xv.s:28     .text:0000000000000018 .L0 
     /tmp/ccpyO7Xv.s:31     .text:0000000000000020 .L0 
     /tmp/ccpyO7Xv.s:32     .text:0000000000000020 .L0 
     /tmp/ccpyO7Xv.s:34     .text:0000000000000024 .L0 
     /tmp/ccpyO7Xv.s:37     .text:0000000000000024 .L0 
     /tmp/ccpyO7Xv.s:41     .text:000000000000002c .L0 
     /tmp/ccpyO7Xv.s:42     .text:0000000000000030 .L0 
     /tmp/ccpyO7Xv.s:44     .text:0000000000000034 .L0 
     /tmp/ccpyO7Xv.s:45     .text:0000000000000034 .L0 
     /tmp/ccpyO7Xv.s:47     .text:0000000000000038 .L0 
     /tmp/ccpyO7Xv.s:51     .text:0000000000000040 .L0 
     /tmp/ccpyO7Xv.s:9      .text:0000000000000000 _ZN3TCBD1Ev
     /tmp/ccpyO7Xv.s:59     .text:0000000000000040 _ZN3TCBD0Ev
     /tmp/ccpyO7Xv.s:62     .text:0000000000000040 .L0 
     /tmp/ccpyO7Xv.s:64     .text:0000000000000040 .L0 
     /tmp/ccpyO7Xv.s:65     .text:0000000000000044 .L0 
     /tmp/ccpyO7Xv.s:69     .text:0000000000000050 .L0 
     /tmp/ccpyO7Xv.s:70     .text:0000000000000050 .L0 
     /tmp/ccpyO7Xv.s:71     .text:0000000000000050 .L0 
     /tmp/ccpyO7Xv.s:73     .text:0000000000000054 .L0 
     /tmp/ccpyO7Xv.s:76     .text:0000000000000058 .L0 
     /tmp/ccpyO7Xv.s:82     .text:0000000000000070 .L0 
     /tmp/ccpyO7Xv.s:84     .text:0000000000000074 .L0 
     /tmp/ccpyO7Xv.s:85     .text:0000000000000074 .L0 
     /tmp/ccpyO7Xv.s:87     .text:0000000000000078 .L0 
     /tmp/ccpyO7Xv.s:90     .text:000000000000007c .L0 
     /tmp/ccpyO7Xv.s:92     .text:0000000000000080 .L0 
     /tmp/ccpyO7Xv.s:98     .text:0000000000000080 _ZN3TCB13threadWrapperEv
     /tmp/ccpyO7Xv.s:101    .text:0000000000000080 .L0 
     /tmp/ccpyO7Xv.s:102    .text:0000000000000080 .L0 
     /tmp/ccpyO7Xv.s:103    .text:0000000000000084 .L0 
     /tmp/ccpyO7Xv.s:107    .text:0000000000000090 .L0 
     /tmp/ccpyO7Xv.s:108    .text:0000000000000090 .L0 
     /tmp/ccpyO7Xv.s:109    .text:0000000000000090 .L0 
     /tmp/ccpyO7Xv.s:111    .text:0000000000000094 .L0 
     /tmp/ccpyO7Xv.s:113    .text:0000000000000094 .L0 
     /tmp/ccpyO7Xv.s:114    .text:0000000000000094 .L0 
     /tmp/ccpyO7Xv.s:117    .text:000000000000009c .L0 
     /tmp/ccpyO7Xv.s:118    .text:000000000000009c .L0 
     /tmp/ccpyO7Xv.s:122    .text:00000000000000ac .L0 
     /tmp/ccpyO7Xv.s:126    .text:00000000000000b4 .L0 
     /tmp/ccpyO7Xv.s:127    .text:00000000000000b4 .L0 
     /tmp/ccpyO7Xv.s:133    .text:00000000000000b8 .L0 
     /tmp/ccpyO7Xv.s:134    .text:00000000000000b8 .L0 
     /tmp/ccpyO7Xv.s:140    .text:00000000000000c0 .L0 
     /tmp/ccpyO7Xv.s:141    .text:00000000000000c0 .L0 
GAS LISTING /tmp/ccpyO7Xv.s 			page 18


     /tmp/ccpyO7Xv.s:144    .text:00000000000000c8 .L0 
     /tmp/ccpyO7Xv.s:145    .text:00000000000000cc .L0 
     /tmp/ccpyO7Xv.s:147    .text:00000000000000d0 .L0 
     /tmp/ccpyO7Xv.s:148    .text:00000000000000d0 .L0 
     /tmp/ccpyO7Xv.s:150    .text:00000000000000d4 .L0 
     /tmp/ccpyO7Xv.s:152    .text:00000000000000d8 .L0 
     /tmp/ccpyO7Xv.s:154    .text:00000000000000dc .L0 
     /tmp/ccpyO7Xv.s:160    .text:00000000000000dc _ZN3TCB5yieldEv
     /tmp/ccpyO7Xv.s:163    .text:00000000000000dc .L0 
     /tmp/ccpyO7Xv.s:164    .text:00000000000000dc .L0 
     /tmp/ccpyO7Xv.s:165    .text:00000000000000e0 .L0 
     /tmp/ccpyO7Xv.s:167    .text:00000000000000e4 .L0 
     /tmp/ccpyO7Xv.s:169    .text:00000000000000e8 .L0 
     /tmp/ccpyO7Xv.s:171    .text:00000000000000e8 .L0 
         src/TCB.cpp:19     .text:00000000000000e8 .L0 
     /tmp/ccpyO7Xv.s:177    .text:00000000000000ec .L0 
         src/TCB.cpp:20     .text:00000000000000ec .L0 
     /tmp/ccpyO7Xv.s:183    .text:00000000000000f0 .L0 
     /tmp/ccpyO7Xv.s:184    .text:00000000000000f4 .L0 
     /tmp/ccpyO7Xv.s:185    .text:00000000000000f4 .L0 
     /tmp/ccpyO7Xv.s:187    .text:00000000000000f8 .L0 
     /tmp/ccpyO7Xv.s:189    .text:00000000000000fc .L0 
     /tmp/ccpyO7Xv.s:195    .text:00000000000000fc _ZN3TCB8dispatchEv
     /tmp/ccpyO7Xv.s:198    .text:00000000000000fc .L0 
     /tmp/ccpyO7Xv.s:199    .text:00000000000000fc .L0 
     /tmp/ccpyO7Xv.s:200    .text:0000000000000100 .L0 
     /tmp/ccpyO7Xv.s:204    .text:000000000000010c .L0 
     /tmp/ccpyO7Xv.s:205    .text:000000000000010c .L0 
     /tmp/ccpyO7Xv.s:206    .text:000000000000010c .L0 
     /tmp/ccpyO7Xv.s:208    .text:0000000000000110 .L0 
     /tmp/ccpyO7Xv.s:210    .text:0000000000000110 .L0 
     /tmp/ccpyO7Xv.s:211    .text:0000000000000110 .L0 
     /tmp/ccpyO7Xv.s:216    .text:0000000000000118 .L0 
     /tmp/ccpyO7Xv.s:217    .text:0000000000000118 .L0 
     /tmp/ccpyO7Xv.s:218    .text:0000000000000118 .L0 
     /tmp/ccpyO7Xv.s:223    .text:000000000000011c .L0 
     /tmp/ccpyO7Xv.s:228    .text:0000000000000120 .L0 
     /tmp/ccpyO7Xv.s:229    .text:0000000000000120 .L0 
     /tmp/ccpyO7Xv.s:234    .text:0000000000000124 .L0 
     /tmp/ccpyO7Xv.s:239    .text:0000000000000128 .L0 
     /tmp/ccpyO7Xv.s:240    .text:0000000000000128 .L0 
     /tmp/ccpyO7Xv.s:245    .text:000000000000012c .L0 
     /tmp/ccpyO7Xv.s:248    .text:0000000000000130 .L0 
     /tmp/ccpyO7Xv.s:249    .text:0000000000000130 .L0 
     /tmp/ccpyO7Xv.s:252    .text:0000000000000138 .L0 
     /tmp/ccpyO7Xv.s:254    .text:0000000000000140 .L0 
     /tmp/ccpyO7Xv.s:255    .text:0000000000000140 .L0 
     /tmp/ccpyO7Xv.s:260    .text:0000000000000150 .L0 
     /tmp/ccpyO7Xv.s:261    .text:0000000000000154 .L0 
     /tmp/ccpyO7Xv.s:262    .text:0000000000000154 .L0 
     /tmp/ccpyO7Xv.s:264    .text:0000000000000158 .L0 
     /tmp/ccpyO7Xv.s:265    .text:0000000000000158 .L0 
     /tmp/ccpyO7Xv.s:267    .text:000000000000015c .L0 
     /tmp/ccpyO7Xv.s:270    .text:0000000000000160 .L0 
     /tmp/ccpyO7Xv.s:274    .text:0000000000000164 .L0 
     /tmp/ccpyO7Xv.s:276    .text:0000000000000164 .L0 
     /tmp/ccpyO7Xv.s:277    .text:0000000000000164 .L0 
GAS LISTING /tmp/ccpyO7Xv.s 			page 19


     /tmp/ccpyO7Xv.s:281    .text:0000000000000174 .L0 
     /tmp/ccpyO7Xv.s:287    .text:0000000000000174 _ZN3TCBC2EPFvPvEPcS0_m
     /tmp/ccpyO7Xv.s:290    .text:0000000000000174 .L0 
     /tmp/ccpyO7Xv.s:293    .text:0000000000000174 .L0 
     /tmp/ccpyO7Xv.s:294    .text:0000000000000174 .L0 
     /tmp/ccpyO7Xv.s:298    .text:0000000000000184 .L0 
     /tmp/ccpyO7Xv.s:302    .text:0000000000000188 .L0 
     /tmp/ccpyO7Xv.s:306    .text:0000000000000198 .L0 
     /tmp/ccpyO7Xv.s:308    .text:000000000000019c .L0 
     /tmp/ccpyO7Xv.s:312    .text:00000000000001a4 .L0 
     /tmp/ccpyO7Xv.s:321    .text:00000000000001c8 .L0 
     /tmp/ccpyO7Xv.s:324    .text:00000000000001cc .L0 
     /tmp/ccpyO7Xv.s:325    .text:00000000000001d0 .L0 
     /tmp/ccpyO7Xv.s:328    .text:00000000000001d8 .L0 
     /tmp/ccpyO7Xv.s:329    .text:00000000000001d8 .L0 
     /tmp/ccpyO7Xv.s:331    .text:00000000000001dc .L0 
     /tmp/ccpyO7Xv.s:334    .text:00000000000001dc .L0 
     /tmp/ccpyO7Xv.s:335    .text:00000000000001dc .L0 
     /tmp/ccpyO7Xv.s:339    .text:00000000000001e4 .L0 
     /tmp/ccpyO7Xv.s:340    .text:00000000000001e8 .L0 
     /tmp/ccpyO7Xv.s:342    .text:00000000000001ec .L0 
     /tmp/ccpyO7Xv.s:343    .text:00000000000001ec .L0 
     /tmp/ccpyO7Xv.s:345    .text:00000000000001f0 .L0 
     /tmp/ccpyO7Xv.s:351    .text:00000000000001f4 .L0 
     /tmp/ccpyO7Xv.s:356    .text:00000000000001fc .L0 
     /tmp/ccpyO7Xv.s:361    .text:0000000000000208 .L0 
     /tmp/ccpyO7Xv.s:287    .text:0000000000000174 _ZN3TCBC1EPFvPvEPcS0_m
     /tmp/ccpyO7Xv.s:369    .text:0000000000000208 _ZN3TCBnwEm
     /tmp/ccpyO7Xv.s:372    .text:0000000000000208 .L0 
     /tmp/ccpyO7Xv.s:374    .text:0000000000000208 .L0 
     /tmp/ccpyO7Xv.s:375    .text:000000000000020c .L0 
     /tmp/ccpyO7Xv.s:378    .text:0000000000000214 .L0 
     /tmp/ccpyO7Xv.s:379    .text:0000000000000214 .L0 
     /tmp/ccpyO7Xv.s:381    .text:0000000000000218 .L0 
     /tmp/ccpyO7Xv.s:383    .text:0000000000000218 .L0 
     /tmp/ccpyO7Xv.s:384    .text:0000000000000218 .L0 
     /tmp/ccpyO7Xv.s:387    .text:000000000000021c .L0 
     /tmp/ccpyO7Xv.s:392    .text:0000000000000228 .L0 
     /tmp/ccpyO7Xv.s:393    .text:0000000000000228 .L0 
     /tmp/ccpyO7Xv.s:394    .text:000000000000022c .L0 
     /tmp/ccpyO7Xv.s:396    .text:0000000000000230 .L0 
     /tmp/ccpyO7Xv.s:397    .text:0000000000000230 .L0 
     /tmp/ccpyO7Xv.s:399    .text:0000000000000234 .L0 
     /tmp/ccpyO7Xv.s:401    .text:0000000000000238 .L0 
     /tmp/ccpyO7Xv.s:407    .text:0000000000000238 _ZN3TCB12createThreadEPFvPvEPcS0_
     /tmp/ccpyO7Xv.s:410    .text:0000000000000238 .L0 
     /tmp/ccpyO7Xv.s:4050   .data.rel.local.DW.ref.__gxx_personality_v0:0000000000000000 DW.ref.__gxx_personality_v0
     /tmp/ccpyO7Xv.s:414    .text:0000000000000238 .L0 
     /tmp/ccpyO7Xv.s:415    .text:000000000000023c .L0 
     /tmp/ccpyO7Xv.s:422    .text:0000000000000254 .L0 
     /tmp/ccpyO7Xv.s:423    .text:0000000000000254 .L0 
     /tmp/ccpyO7Xv.s:424    .text:0000000000000254 .L0 
     /tmp/ccpyO7Xv.s:425    .text:0000000000000254 .L0 
     /tmp/ccpyO7Xv.s:426    .text:0000000000000254 .L0 
     /tmp/ccpyO7Xv.s:427    .text:0000000000000254 .L0 
     /tmp/ccpyO7Xv.s:429    .text:0000000000000258 .L0 
     /tmp/ccpyO7Xv.s:434    .text:0000000000000264 .L0 
GAS LISTING /tmp/ccpyO7Xv.s 			page 20


     /tmp/ccpyO7Xv.s:435    .text:0000000000000264 .L0 
     /tmp/ccpyO7Xv.s:464    .text:00000000000002ac .L0 
     /tmp/ccpyO7Xv.s:466    .text:00000000000002b4 .L0 
     /tmp/ccpyO7Xv.s:468    .text:00000000000002b8 .L0 
     /tmp/ccpyO7Xv.s:469    .text:00000000000002b8 .L0 
     /tmp/ccpyO7Xv.s:471    .text:00000000000002bc .L0 
     /tmp/ccpyO7Xv.s:473    .text:00000000000002c0 .L0 
     /tmp/ccpyO7Xv.s:476    .text:00000000000002c4 .L0 
     /tmp/ccpyO7Xv.s:479    .text:00000000000002c8 .L0 
     /tmp/ccpyO7Xv.s:482    .text:00000000000002cc .L0 
     /tmp/ccpyO7Xv.s:484    .text:00000000000002d0 .L0 
     /tmp/ccpyO7Xv.s:510    .text:00000000000002d0 _ZN3TCBdaEPv
     /tmp/ccpyO7Xv.s:513    .text:00000000000002d0 .L0 
     /tmp/ccpyO7Xv.s:515    .text:00000000000002d0 .L0 
     /tmp/ccpyO7Xv.s:516    .text:00000000000002d4 .L0 
     /tmp/ccpyO7Xv.s:519    .text:00000000000002dc .L0 
     /tmp/ccpyO7Xv.s:520    .text:00000000000002dc .L0 
     /tmp/ccpyO7Xv.s:522    .text:00000000000002e0 .L0 
     /tmp/ccpyO7Xv.s:524    .text:00000000000002e0 .L0 
     /tmp/ccpyO7Xv.s:525    .text:00000000000002e0 .L0 
     /tmp/ccpyO7Xv.s:528    .text:00000000000002e8 .L0 
     /tmp/ccpyO7Xv.s:529    .text:00000000000002ec .L0 
     /tmp/ccpyO7Xv.s:531    .text:00000000000002f0 .L0 
     /tmp/ccpyO7Xv.s:532    .text:00000000000002f0 .L0 
     /tmp/ccpyO7Xv.s:534    .text:00000000000002f4 .L0 
     /tmp/ccpyO7Xv.s:536    .text:00000000000002f8 .L0 
     /tmp/ccpyO7Xv.s:542    .text:00000000000002f8 _ZN3TCB4exitEv
     /tmp/ccpyO7Xv.s:545    .text:00000000000002f8 .L0 
     /tmp/ccpyO7Xv.s:546    .text:00000000000002f8 .L0 
     /tmp/ccpyO7Xv.s:547    .text:00000000000002f8 .L0 
     /tmp/ccpyO7Xv.s:548    .text:00000000000002f8 .L0 
     /tmp/ccpyO7Xv.s:553    .text:0000000000000300 .L0 
     /tmp/ccpyO7Xv.s:554    .text:0000000000000300 .L0 
     /tmp/ccpyO7Xv.s:559    .text:0000000000000304 .L0 
     /tmp/ccpyO7Xv.s:561    .text:0000000000000308 .L0 
     /tmp/ccpyO7Xv.s:562    .text:000000000000030c .L0 
     /tmp/ccpyO7Xv.s:565    .text:0000000000000314 .L0 
     /tmp/ccpyO7Xv.s:566    .text:0000000000000314 .L0 
     /tmp/ccpyO7Xv.s:568    .text:0000000000000318 .L0 
     /tmp/ccpyO7Xv.s:573    .text:0000000000000318 .L0 
     /tmp/ccpyO7Xv.s:574    .text:0000000000000318 .L0 
     /tmp/ccpyO7Xv.s:575    .text:0000000000000318 .L0 
     /tmp/ccpyO7Xv.s:581    .text:0000000000000320 .L0 
     /tmp/ccpyO7Xv.s:582    .text:0000000000000320 .L0 
     /tmp/ccpyO7Xv.s:584    .text:0000000000000328 .L0 
     /tmp/ccpyO7Xv.s:585    .text:0000000000000328 .L0 
     /tmp/ccpyO7Xv.s:588    .text:0000000000000330 .L0 
     /tmp/ccpyO7Xv.s:589    .text:0000000000000330 .L0 
     /tmp/ccpyO7Xv.s:591    .text:0000000000000334 .L0 
     /tmp/ccpyO7Xv.s:592    .text:0000000000000338 .L0 
     /tmp/ccpyO7Xv.s:594    .text:000000000000033c .L0 
     /tmp/ccpyO7Xv.s:595    .text:000000000000033c .L0 
     /tmp/ccpyO7Xv.s:597    .text:0000000000000340 .L0 
     /tmp/ccpyO7Xv.s:601    .text:0000000000000344 .L0 
     /tmp/ccpyO7Xv.s:603    .text:0000000000000348 .L0 
     /tmp/ccpyO7Xv.s:604    .text:000000000000034c .L0 
     /tmp/ccpyO7Xv.s:610    .text:000000000000034c _ZN3TCB4joinEPS_
GAS LISTING /tmp/ccpyO7Xv.s 			page 21


     /tmp/ccpyO7Xv.s:613    .text:000000000000034c .L0 
     /tmp/ccpyO7Xv.s:615    .text:000000000000034c .L0 
     /tmp/ccpyO7Xv.s:616    .text:0000000000000350 .L0 
     /tmp/ccpyO7Xv.s:620    .text:000000000000035c .L0 
     /tmp/ccpyO7Xv.s:621    .text:000000000000035c .L0 
     /tmp/ccpyO7Xv.s:622    .text:000000000000035c .L0 
     /tmp/ccpyO7Xv.s:624    .text:0000000000000360 .L0 
     /tmp/ccpyO7Xv.s:629    .text:0000000000000364 .L0 
     /tmp/ccpyO7Xv.s:632    .text:0000000000000364 .L0 
     /tmp/ccpyO7Xv.s:633    .text:0000000000000364 .L0 
     /tmp/ccpyO7Xv.s:634    .text:0000000000000364 .L0 
     /tmp/ccpyO7Xv.s:639    .text:0000000000000368 .L0 
     /tmp/ccpyO7Xv.s:641    .text:000000000000036c .L0 
     /tmp/ccpyO7Xv.s:642    .text:000000000000036c .L0 
     /tmp/ccpyO7Xv.s:644    .text:0000000000000374 .L0 
     /tmp/ccpyO7Xv.s:645    .text:0000000000000374 .L0 
     /tmp/ccpyO7Xv.s:648    .text:000000000000037c .L0 
     /tmp/ccpyO7Xv.s:651    .text:0000000000000380 .L0 
     /tmp/ccpyO7Xv.s:652    .text:0000000000000384 .L0 
     /tmp/ccpyO7Xv.s:654    .text:0000000000000388 .L0 
     /tmp/ccpyO7Xv.s:655    .text:0000000000000388 .L0 
     /tmp/ccpyO7Xv.s:657    .text:000000000000038c .L0 
     /tmp/ccpyO7Xv.s:660    .text:0000000000000390 .L0 
     /tmp/ccpyO7Xv.s:662    .text:0000000000000394 .L0 
     /tmp/ccpyO7Xv.s:687    .bss:0000000000000008 _ZN3TCB14newThrUserModeE
     /tmp/ccpyO7Xv.s:683    .bss:0000000000000000 _ZN3TCB7runningE
     /tmp/ccpyO7Xv.s:692    .bss:0000000000000010 _ZN3TCB16timeSliceCounterE
     /tmp/ccpyO7Xv.s:680    .bss:0000000000000000 .LANCHOR0
     /tmp/ccpyO7Xv.s:701    .text:0000000000000394 .L0 
     /tmp/ccpyO7Xv.s:17     .text:0000000000000000 .L0 
     /tmp/ccpyO7Xv.s:118    .text:000000000000009c .L0 
     /tmp/ccpyO7Xv.s:211    .text:0000000000000110 .L0 
     /tmp/ccpyO7Xv.s:252    .text:0000000000000138 .L0 
     /tmp/ccpyO7Xv.s:294    .text:0000000000000174 .L0 
     /tmp/ccpyO7Xv.s:303    .text:000000000000018c .L0 
     /tmp/ccpyO7Xv.s:318    .text:00000000000001bc .L0 
     /tmp/ccpyO7Xv.s:548    .text:00000000000002f8 .L0 
     /tmp/ccpyO7Xv.s:582    .text:0000000000000320 .L0 
     /tmp/ccpyO7Xv.s:642    .text:000000000000036c .L0 
     /tmp/ccpyO7Xv.s:49     .text:000000000000003c .L4
     /tmp/ccpyO7Xv.s:246    .text:0000000000000130 .L14
     /tmp/ccpyO7Xv.s:273    .text:0000000000000164 .L16
     /tmp/ccpyO7Xv.s:348    .text:00000000000001f4 .L27
     /tmp/ccpyO7Xv.s:354    .text:00000000000001fc .L22
     /tmp/ccpyO7Xv.s:358    .text:0000000000000204 .L24
     /tmp/ccpyO7Xv.s:300    .text:0000000000000188 .L18
     /tmp/ccpyO7Xv.s:310    .text:00000000000001a4 .L19
     /tmp/ccpyO7Xv.s:462    .text:00000000000002ac .L35
     /tmp/ccpyO7Xv.s:599    .text:0000000000000344 .L40
     /tmp/ccpyO7Xv.s:649    .text:0000000000000380 .L45
     /tmp/ccpyO7Xv.s:627    .text:0000000000000364 .L47
     /tmp/ccpyO7Xv.s:437    .text:0000000000000268 .LEHB0
     /tmp/ccpyO7Xv.s:408    .text:0000000000000238 .LFB24
     /tmp/ccpyO7Xv.s:440    .text:0000000000000270 .LEHE0
     /tmp/ccpyO7Xv.s:446    .text:0000000000000284 .LEHB1
     /tmp/ccpyO7Xv.s:449    .text:000000000000028c .LEHE1
     /tmp/ccpyO7Xv.s:451    .text:0000000000000290 .L32
GAS LISTING /tmp/ccpyO7Xv.s 			page 22


     /tmp/ccpyO7Xv.s:458    .text:00000000000002a4 .LEHB2
     /tmp/ccpyO7Xv.s:461    .text:00000000000002ac .LEHE2
     /tmp/ccpyO7Xv.s:2270   .debug_abbrev:0000000000000000 .Ldebug_abbrev0
     /tmp/ccpyO7Xv.s:3998   .debug_str:0000000000000853 .LASF146
     /tmp/ccpyO7Xv.s:3754   .debug_str:0000000000000111 .LASF147
     /tmp/ccpyO7Xv.s:3814   .debug_str:00000000000002e8 .LASF148
     /tmp/ccpyO7Xv.s:5      .text:0000000000000000 .Ltext0
     /tmp/ccpyO7Xv.s:695    .text:0000000000000394 .Letext0
     /tmp/ccpyO7Xv.s:3718   .debug_line:0000000000000000 .Ldebug_line0
     /tmp/ccpyO7Xv.s:3906   .debug_str:00000000000005cd .LASF0
     /tmp/ccpyO7Xv.s:3922   .debug_str:0000000000000616 .LASF1
     /tmp/ccpyO7Xv.s:3884   .debug_str:0000000000000528 .LASF2
     /tmp/ccpyO7Xv.s:3844   .debug_str:0000000000000415 .LASF4
     /tmp/ccpyO7Xv.s:3974   .debug_str:00000000000007a4 .LASF3
     /tmp/ccpyO7Xv.s:3750   .debug_str:00000000000000f5 .LASF5
     /tmp/ccpyO7Xv.s:3794   .debug_str:000000000000026b .LASF6
     /tmp/ccpyO7Xv.s:3926   .debug_str:0000000000000636 .LASF7
     /tmp/ccpyO7Xv.s:3904   .debug_str:00000000000005ba .LASF8
     /tmp/ccpyO7Xv.s:4010   .debug_str:000000000000096b .LASF9
     /tmp/ccpyO7Xv.s:3828   .debug_str:0000000000000363 .LASF10
     /tmp/ccpyO7Xv.s:3940   .debug_str:000000000000069e .LASF11
     /tmp/ccpyO7Xv.s:4000   .debug_str:0000000000000917 .LASF12
     /tmp/ccpyO7Xv.s:3864   .debug_str:0000000000000494 .LASF13
     /tmp/ccpyO7Xv.s:3726   .debug_str:0000000000000041 .LASF14
     /tmp/ccpyO7Xv.s:3770   .debug_str:00000000000001a3 .LASF15
     /tmp/ccpyO7Xv.s:3962   .debug_str:0000000000000745 .LASF16
     /tmp/ccpyO7Xv.s:3786   .debug_str:000000000000022f .LASF17
     /tmp/ccpyO7Xv.s:3732   .debug_str:0000000000000064 .LASF149
     /tmp/ccpyO7Xv.s:3936   .debug_str:0000000000000685 .LASF150
     /tmp/ccpyO7Xv.s:3848   .debug_str:0000000000000438 .LASF151
     /tmp/ccpyO7Xv.s:3800   .debug_str:000000000000029d .LASF59
     /tmp/ccpyO7Xv.s:3950   .debug_str:00000000000006ef .LASF61
     /tmp/ccpyO7Xv.s:3730   .debug_str:000000000000005a .LASF18
     /tmp/ccpyO7Xv.s:3860   .debug_str:0000000000000470 .LASF20
     /tmp/ccpyO7Xv.s:3964   .debug_str:000000000000075b .LASF22
     /tmp/ccpyO7Xv.s:4004   .debug_str:000000000000093b .LASF24
     /tmp/ccpyO7Xv.s:3928   .debug_str:0000000000000649 .LASF19
     /tmp/ccpyO7Xv.s:3826   .debug_str:000000000000034c .LASF21
     /tmp/ccpyO7Xv.s:3886   .debug_str:0000000000000536 .LASF23
     /tmp/ccpyO7Xv.s:3840   .debug_str:00000000000003d6 .LASF25
     /tmp/ccpyO7Xv.s:3874   .debug_str:00000000000004e2 .LASF26
     /tmp/ccpyO7Xv.s:3748   .debug_str:00000000000000dc .LASF27
     /tmp/ccpyO7Xv.s:3898   .debug_str:0000000000000588 .LASF28
     /tmp/ccpyO7Xv.s:3796   .debug_str:0000000000000272 .LASF29
     /tmp/ccpyO7Xv.s:3802   .debug_str:00000000000002a2 .LASF30
     /tmp/ccpyO7Xv.s:3810   .debug_str:00000000000002c7 .LASF31
     /tmp/ccpyO7Xv.s:3858   .debug_str:0000000000000463 .LASF32
     /tmp/ccpyO7Xv.s:3888   .debug_str:0000000000000542 .LASF33
     /tmp/ccpyO7Xv.s:3952   .debug_str:00000000000006fb .LASF152
     /tmp/ccpyO7Xv.s:3868   .debug_str:00000000000004bc .LASF56
     /tmp/ccpyO7Xv.s:3760   .debug_str:0000000000000149 .LASF75
     /tmp/ccpyO7Xv.s:3978   .debug_str:00000000000007c7 .LASF38
     /tmp/ccpyO7Xv.s:3944   .debug_str:00000000000006b6 .LASF40
     /tmp/ccpyO7Xv.s:3890   .debug_str:0000000000000564 .LASF70
     /tmp/ccpyO7Xv.s:3894   .debug_str:0000000000000571 .LASF72
     /tmp/ccpyO7Xv.s:3804   .debug_str:00000000000002ae .LASF34
     /tmp/ccpyO7Xv.s:3862   .debug_str:0000000000000485 .LASF35
GAS LISTING /tmp/ccpyO7Xv.s 			page 23


     /tmp/ccpyO7Xv.s:4020   .debug_str:00000000000009c2 .LASF36
     /tmp/ccpyO7Xv.s:3990   .debug_str:0000000000000827 .LASF37
     /tmp/ccpyO7Xv.s:3988   .debug_str:0000000000000814 .LASF39
     /tmp/ccpyO7Xv.s:3764   .debug_str:0000000000000174 .LASF41
     /tmp/ccpyO7Xv.s:3852   .debug_str:000000000000044b .LASF42
     /tmp/ccpyO7Xv.s:3912   .debug_str:00000000000005ea .LASF43
     /tmp/ccpyO7Xv.s:3856   .debug_str:000000000000045b .LASF44
     /tmp/ccpyO7Xv.s:3916   .debug_str:00000000000005f6 .LASF45
     /tmp/ccpyO7Xv.s:3850   .debug_str:0000000000000442 .LASF46
     /tmp/ccpyO7Xv.s:3722   .debug_str:0000000000000020 .LASF47
     /tmp/ccpyO7Xv.s:3942   .debug_str:00000000000006ad .LASF48
     /tmp/ccpyO7Xv.s:3808   .debug_str:00000000000002be .LASF49
     /tmp/ccpyO7Xv.s:3910   .debug_str:00000000000005e1 .LASF51
     /tmp/ccpyO7Xv.s:3876   .debug_str:00000000000004ef .LASF53
     /tmp/ccpyO7Xv.s:4016   .debug_str:00000000000009a0 .LASF50
     /tmp/ccpyO7Xv.s:3842   .debug_str:00000000000003ed .LASF153
     /tmp/ccpyO7Xv.s:3878   .debug_str:0000000000000502 .LASF52
     /tmp/ccpyO7Xv.s:3834   .debug_str:00000000000003a3 .LASF54
     /tmp/ccpyO7Xv.s:3836   .debug_str:00000000000003bc .LASF154
     /tmp/ccpyO7Xv.s:3976   .debug_str:00000000000007b6 .LASF63
     /tmp/ccpyO7Xv.s:3778   .debug_str:00000000000001e3 .LASF155
     /tmp/ccpyO7Xv.s:3938   .debug_str:0000000000000694 .LASF57
     /tmp/ccpyO7Xv.s:3870   .debug_str:00000000000004c1 .LASF67
     /tmp/ccpyO7Xv.s:4038   .debug_str:0000000000000a38 .LASF55
     /tmp/ccpyO7Xv.s:3766   .debug_str:0000000000000181 .LASF156
     /tmp/ccpyO7Xv.s:3798   .debug_str:0000000000000289 .LASF157
     /tmp/ccpyO7Xv.s:4002   .debug_str:0000000000000926 .LASF58
     /tmp/ccpyO7Xv.s:4032   .debug_str:0000000000000a10 .LASF60
     /tmp/ccpyO7Xv.s:4014   .debug_str:000000000000098b .LASF62
     /tmp/ccpyO7Xv.s:4040   .debug_str:0000000000000a3d .LASF64
     /tmp/ccpyO7Xv.s:3918   .debug_str:0000000000000600 .LASF65
     /tmp/ccpyO7Xv.s:3774   .debug_str:00000000000001bb .LASF66
     /tmp/ccpyO7Xv.s:3924   .debug_str:0000000000000629 .LASF68
     /tmp/ccpyO7Xv.s:3744   .debug_str:00000000000000b6 .LASF69
     /tmp/ccpyO7Xv.s:3960   .debug_str:000000000000073a .LASF71
     /tmp/ccpyO7Xv.s:4030   .debug_str:00000000000009f8 .LASF73
     /tmp/ccpyO7Xv.s:3728   .debug_str:0000000000000051 .LASF74
     /tmp/ccpyO7Xv.s:3986   .debug_str:00000000000007ff .LASF76
     /tmp/ccpyO7Xv.s:3780   .debug_str:00000000000001fa .LASF77
     /tmp/ccpyO7Xv.s:3752   .debug_str:00000000000000fc .LASF78
     /tmp/ccpyO7Xv.s:3892   .debug_str:000000000000056a .LASF79
     /tmp/ccpyO7Xv.s:3946   .debug_str:00000000000006c7 .LASF80
     /tmp/ccpyO7Xv.s:3996   .debug_str:000000000000084c .LASF81
     /tmp/ccpyO7Xv.s:4006   .debug_str:0000000000000951 .LASF82
     /tmp/ccpyO7Xv.s:3820   .debug_str:000000000000032e .LASF83
     /tmp/ccpyO7Xv.s:3788   .debug_str:0000000000000245 .LASF84
     /tmp/ccpyO7Xv.s:3968   .debug_str:000000000000076e .LASF85
     /tmp/ccpyO7Xv.s:3980   .debug_str:00000000000007cc .LASF86
     /tmp/ccpyO7Xv.s:3806   .debug_str:00000000000002b6 .LASF87
     /tmp/ccpyO7Xv.s:4018   .debug_str:00000000000009ae .LASF88
     /tmp/ccpyO7Xv.s:3966   .debug_str:0000000000000766 .LASF89
     /tmp/ccpyO7Xv.s:3784   .debug_str:000000000000021b .LASF90
     /tmp/ccpyO7Xv.s:4036   .debug_str:0000000000000a2d .LASF91
     /tmp/ccpyO7Xv.s:3970   .debug_str:0000000000000776 .LASF92
     /tmp/ccpyO7Xv.s:3854   .debug_str:0000000000000450 .LASF93
     /tmp/ccpyO7Xv.s:3866   .debug_str:00000000000004a4 .LASF94
     /tmp/ccpyO7Xv.s:3768   .debug_str:0000000000000199 .LASF95
GAS LISTING /tmp/ccpyO7Xv.s 			page 24


     /tmp/ccpyO7Xv.s:3972   .debug_str:000000000000078e .LASF96
     /tmp/ccpyO7Xv.s:3812   .debug_str:00000000000002de .LASF97
     /tmp/ccpyO7Xv.s:3830   .debug_str:0000000000000371 .LASF98
     /tmp/ccpyO7Xv.s:3908   .debug_str:00000000000005da .LASF99
     /tmp/ccpyO7Xv.s:4024   .debug_str:00000000000009db .LASF100
     /tmp/ccpyO7Xv.s:4008   .debug_str:0000000000000964 .LASF101
     /tmp/ccpyO7Xv.s:3818   .debug_str:000000000000031b .LASF102
     /tmp/ccpyO7Xv.s:3824   .debug_str:0000000000000346 .LASF103
     /tmp/ccpyO7Xv.s:3994   .debug_str:000000000000083a .LASF104
     /tmp/ccpyO7Xv.s:3740   .debug_str:000000000000009e .LASF105
     /tmp/ccpyO7Xv.s:4042   .debug_str:0000000000000a43 .LASF106
     /tmp/ccpyO7Xv.s:3982   .debug_str:00000000000007e0 .LASF107
     /tmp/ccpyO7Xv.s:3762   .debug_str:0000000000000158 .LASF108
     /tmp/ccpyO7Xv.s:3790   .debug_str:0000000000000259 .LASF109
     /tmp/ccpyO7Xv.s:3958   .debug_str:0000000000000722 .LASF110
     /tmp/ccpyO7Xv.s:4034   .debug_str:0000000000000a1a .LASF111
     /tmp/ccpyO7Xv.s:3720   .debug_str:0000000000000000 .LASF112
     /tmp/ccpyO7Xv.s:3948   .debug_str:00000000000006da .LASF113
     /tmp/ccpyO7Xv.s:3776   .debug_str:00000000000001c1 .LASF114
     /tmp/ccpyO7Xv.s:3934   .debug_str:0000000000000676 .LASF115
     /tmp/ccpyO7Xv.s:3832   .debug_str:0000000000000387 .LASF116
     /tmp/ccpyO7Xv.s:3742   .debug_str:00000000000000a4 .LASF117
     /tmp/ccpyO7Xv.s:3756   .debug_str:000000000000011d .LASF118
     /tmp/ccpyO7Xv.s:3758   .debug_str:000000000000013c .LASF119
     /tmp/ccpyO7Xv.s:3902   .debug_str:00000000000005aa .LASF120
     /tmp/ccpyO7Xv.s:3792   .debug_str:0000000000000264 .LASF121
     /tmp/ccpyO7Xv.s:3954   .debug_str:0000000000000700 .LASF122
     /tmp/ccpyO7Xv.s:3914   .debug_str:00000000000005f0 .LASF123
     /tmp/ccpyO7Xv.s:3932   .debug_str:0000000000000659 .LASF124
     /tmp/ccpyO7Xv.s:4028   .debug_str:00000000000009f3 .LASF125
     /tmp/ccpyO7Xv.s:3956   .debug_str:0000000000000705 .LASF126
     /tmp/ccpyO7Xv.s:3882   .debug_str:000000000000051d .LASF127
     /tmp/ccpyO7Xv.s:3736   .debug_str:0000000000000071 .LASF128
     /tmp/ccpyO7Xv.s:3872   .debug_str:00000000000004c6 .LASF129
     /tmp/ccpyO7Xv.s:3846   .debug_str:000000000000041c .LASF130
     /tmp/ccpyO7Xv.s:3880   .debug_str:0000000000000510 .LASF131
     /tmp/ccpyO7Xv.s:3746   .debug_str:00000000000000c1 .LASF158
     /tmp/ccpyO7Xv.s:3920   .debug_str:0000000000000605 .LASF133
     /tmp/ccpyO7Xv.s:3734   .debug_str:000000000000006c .LASF132
     /tmp/ccpyO7Xv.s:3724   .debug_str:0000000000000028 .LASF134
     /tmp/ccpyO7Xv.s:4012   .debug_str:000000000000097b .LASF159
     /tmp/ccpyO7Xv.s:3930   .debug_str:0000000000000654 .LASF135
     /tmp/ccpyO7Xv.s:611    .text:000000000000034c .LFB37
     /tmp/ccpyO7Xv.s:663    .text:0000000000000394 .LFE37
     /tmp/ccpyO7Xv.s:3383   .debug_loc:0000000000000000 .LLST21
     /tmp/ccpyO7Xv.s:630    .text:0000000000000364 .LBB33
     /tmp/ccpyO7Xv.s:637    .text:0000000000000368 .LBE33
     /tmp/ccpyO7Xv.s:3401   .debug_loc:000000000000004c .LLST22
     /tmp/ccpyO7Xv.s:646    .text:000000000000037c .LVL52
     /tmp/ccpyO7Xv.s:543    .text:00000000000002f8 .LFB36
     /tmp/ccpyO7Xv.s:605    .text:000000000000034c .LFE36
     /tmp/ccpyO7Xv.s:550    .text:0000000000000300 .LBB29
     /tmp/ccpyO7Xv.s:557    .text:0000000000000304 .LBE29
     /tmp/ccpyO7Xv.s:3408   .debug_loc:000000000000006f .LLST18
     /tmp/ccpyO7Xv.s:571    .text:0000000000000318 .LBB31
     /tmp/ccpyO7Xv.s:579    .text:0000000000000320 .LBE31
     /tmp/ccpyO7Xv.s:3415   .debug_loc:0000000000000092 .LLST19
GAS LISTING /tmp/ccpyO7Xv.s 			page 25


     /tmp/ccpyO7Xv.s:3423   .debug_loc:00000000000000b6 .LLST20
     /tmp/ccpyO7Xv.s:586    .text:0000000000000330 .LVL48
     /tmp/ccpyO7Xv.s:511    .text:00000000000002d0 .LFB35
     /tmp/ccpyO7Xv.s:537    .text:00000000000002f8 .LFE35
     /tmp/ccpyO7Xv.s:3430   .debug_loc:00000000000000d9 .LLST17
     /tmp/ccpyO7Xv.s:526    .text:00000000000002e8 .LVL43
     /tmp/ccpyO7Xv.s:370    .text:0000000000000208 .LFB34
     /tmp/ccpyO7Xv.s:402    .text:0000000000000238 .LFE34
     /tmp/ccpyO7Xv.s:3444   .debug_loc:0000000000000112 .LLST13
     /tmp/ccpyO7Xv.s:390    .text:0000000000000228 .LVL31
     /tmp/ccpyO7Xv.s:99     .text:0000000000000080 .LFB33
     /tmp/ccpyO7Xv.s:155    .text:00000000000000dc .LFE33
     /tmp/ccpyO7Xv.s:129    .text:00000000000000b8 .LBB18
     /tmp/ccpyO7Xv.s:138    .text:00000000000000c0 .LBE18
     /tmp/ccpyO7Xv.s:3464   .debug_loc:0000000000000160 .LLST2
     /tmp/ccpyO7Xv.s:3472   .debug_loc:0000000000000184 .LLST3
     /tmp/ccpyO7Xv.s:115    .text:000000000000009c .LVL7
     /tmp/ccpyO7Xv.s:142    .text:00000000000000c8 .LVL11
     /tmp/ccpyO7Xv.s:4026   .debug_str:00000000000009ee .LASF136
     /tmp/ccpyO7Xv.s:3738   .debug_str:0000000000000094 .LASF137
     /tmp/ccpyO7Xv.s:3772   .debug_str:00000000000001af .LASF138
     /tmp/ccpyO7Xv.s:60     .text:0000000000000040 .LFB32
     /tmp/ccpyO7Xv.s:93     .text:0000000000000080 .LFE32
     /tmp/ccpyO7Xv.s:3479   .debug_loc:00000000000001a7 .LLST1
     /tmp/ccpyO7Xv.s:77     .text:0000000000000060 .LVL4
     /tmp/ccpyO7Xv.s:80     .text:000000000000006c .LVL5
     /tmp/ccpyO7Xv.s:4022   .debug_str:00000000000009cf .LASF139
     /tmp/ccpyO7Xv.s:10     .text:0000000000000000 .LFB30
     /tmp/ccpyO7Xv.s:52     .text:0000000000000040 .LFE30
     /tmp/ccpyO7Xv.s:3497   .debug_loc:00000000000001f3 .LLST0
     /tmp/ccpyO7Xv.s:38     .text:000000000000002c .LVL2
     /tmp/ccpyO7Xv.s:3900   .debug_str:0000000000000593 .LASF140
     /tmp/ccpyO7Xv.s:288    .text:0000000000000174 .LFB27
     /tmp/ccpyO7Xv.s:362    .text:0000000000000208 .LFE27
     /tmp/ccpyO7Xv.s:3511   .debug_loc:000000000000022c .LLST8
     /tmp/ccpyO7Xv.s:3529   .debug_loc:0000000000000278 .LLST9
     /tmp/ccpyO7Xv.s:3547   .debug_loc:00000000000002c4 .LLST10
     /tmp/ccpyO7Xv.s:3572   .debug_loc:0000000000000326 .LLST11
     /tmp/ccpyO7Xv.s:3590   .debug_loc:0000000000000372 .LLST12
     /tmp/ccpyO7Xv.s:336    .text:00000000000001e4 .LVL25
     /tmp/ccpyO7Xv.s:196    .text:00000000000000fc .LFB25
     /tmp/ccpyO7Xv.s:282    .text:0000000000000174 .LFE25
     /tmp/ccpyO7Xv.s:3608   .debug_loc:00000000000003be .LLST4
     /tmp/ccpyO7Xv.s:214    .text:0000000000000118 .LBB20
     /tmp/ccpyO7Xv.s:221    .text:000000000000011c .LBE20
     /tmp/ccpyO7Xv.s:3619   .debug_loc:00000000000003f4 .LLST5
     /tmp/ccpyO7Xv.s:225    .text:0000000000000120 .LBB22
     /tmp/ccpyO7Xv.s:232    .text:0000000000000124 .LBE22
     /tmp/ccpyO7Xv.s:3626   .debug_loc:0000000000000417 .LLST6
     /tmp/ccpyO7Xv.s:236    .text:0000000000000128 .LBB24
     /tmp/ccpyO7Xv.s:243    .text:000000000000012c .LBE24
     /tmp/ccpyO7Xv.s:3633   .debug_loc:000000000000043a .LLST7
     /tmp/ccpyO7Xv.s:250    .text:0000000000000138 .LVL18
     /tmp/ccpyO7Xv.s:258    .text:0000000000000150 .LVL19
     /tmp/ccpyO7Xv.s:279    .text:0000000000000170 .LVL22
     /tmp/ccpyO7Xv.s:485    .text:00000000000002d0 .LFE24
     /tmp/ccpyO7Xv.s:3640   .debug_loc:000000000000045d .LLST14
GAS LISTING /tmp/ccpyO7Xv.s 			page 26


     /tmp/ccpyO7Xv.s:3669   .debug_loc:00000000000004d2 .LLST15
     /tmp/ccpyO7Xv.s:3687   .debug_loc:000000000000051e .LLST16
     /tmp/ccpyO7Xv.s:439    .text:0000000000000270 .LVL34
     /tmp/ccpyO7Xv.s:448    .text:000000000000028c .LVL35
     /tmp/ccpyO7Xv.s:456    .text:00000000000002a0 .LVL37
     /tmp/ccpyO7Xv.s:460    .text:00000000000002ac .LVL38
     /tmp/ccpyO7Xv.s:161    .text:00000000000000dc .LFB23
     /tmp/ccpyO7Xv.s:190    .text:00000000000000fc .LFE23
     /tmp/ccpyO7Xv.s:3816   .debug_str:0000000000000306 .LASF160
     /tmp/ccpyO7Xv.s:3822   .debug_str:0000000000000336 .LASF161
     /tmp/ccpyO7Xv.s:3896   .debug_str:0000000000000581 .LASF141
     /tmp/ccpyO7Xv.s:3984   .debug_str:00000000000007ef .LASF143
     /tmp/ccpyO7Xv.s:3992   .debug_str:0000000000000833 .LASF142
     /tmp/ccpyO7Xv.s:3838   .debug_str:00000000000003c7 .LASF144
     /tmp/ccpyO7Xv.s:3782   .debug_str:0000000000000203 .LASF145
     /tmp/ccpyO7Xv.s:614    .text:000000000000034c .LVL49
     /tmp/ccpyO7Xv.s:626    .text:0000000000000364 .LVL50
     /tmp/ccpyO7Xv.s:658    .text:000000000000038c .LVL53
     /tmp/ccpyO7Xv.s:635    .text:0000000000000368 .LVL51
     /tmp/ccpyO7Xv.s:549    .text:0000000000000300 .LVL44
     /tmp/ccpyO7Xv.s:555    .text:0000000000000304 .LVL45
     /tmp/ccpyO7Xv.s:570    .text:0000000000000318 .LVL46
     /tmp/ccpyO7Xv.s:577    .text:0000000000000320 .LVL47
     /tmp/ccpyO7Xv.s:514    .text:00000000000002d0 .LVL42
     /tmp/ccpyO7Xv.s:373    .text:0000000000000208 .LVL28
     /tmp/ccpyO7Xv.s:385    .text:000000000000021c .LVL29
     /tmp/ccpyO7Xv.s:388    .text:0000000000000220 .LVL30
     /tmp/ccpyO7Xv.s:128    .text:00000000000000b8 .LVL9
     /tmp/ccpyO7Xv.s:136    .text:00000000000000c0 .LVL10
     /tmp/ccpyO7Xv.s:63     .text:0000000000000040 .LVL3
     /tmp/ccpyO7Xv.s:88     .text:0000000000000078 .LVL6
     /tmp/ccpyO7Xv.s:14     .text:0000000000000000 .LVL0
     /tmp/ccpyO7Xv.s:22     .text:0000000000000010 .LVL1
     /tmp/ccpyO7Xv.s:291    .text:0000000000000174 .LVL23
     /tmp/ccpyO7Xv.s:347    .text:00000000000001f4 .LVL26
     /tmp/ccpyO7Xv.s:299    .text:0000000000000188 .LVL24
     /tmp/ccpyO7Xv.s:352    .text:00000000000001f8 .LVL27
     /tmp/ccpyO7Xv.s:212    .text:0000000000000118 .LVL12
     /tmp/ccpyO7Xv.s:268    .text:000000000000015c .LVL20
     /tmp/ccpyO7Xv.s:272    .text:0000000000000164 .LVL21
     /tmp/ccpyO7Xv.s:219    .text:000000000000011c .LVL13
     /tmp/ccpyO7Xv.s:224    .text:0000000000000120 .LVL14
     /tmp/ccpyO7Xv.s:230    .text:0000000000000124 .LVL15
     /tmp/ccpyO7Xv.s:235    .text:0000000000000128 .LVL16
     /tmp/ccpyO7Xv.s:241    .text:000000000000012c .LVL17
     /tmp/ccpyO7Xv.s:413    .text:0000000000000238 .LVL32
     /tmp/ccpyO7Xv.s:436    .text:0000000000000268 .LVL33
     /tmp/ccpyO7Xv.s:453    .text:0000000000000294 .LVL36
     /tmp/ccpyO7Xv.s:474    .text:00000000000002c0 .LVL39
     /tmp/ccpyO7Xv.s:477    .text:00000000000002c4 .LVL40
     /tmp/ccpyO7Xv.s:480    .text:00000000000002c8 .LVL41
     /tmp/ccpyO7Xv.s:702    .debug_info:0000000000000000 .Ldebug_info0
     /tmp/ccpyO7Xv.s:488    .gcc_except_table:0000000000000000 .LLSDA24

UNDEFINED SYMBOLS
_ZdaPv
_ZdlPv
GAS LISTING /tmp/ccpyO7Xv.s 			page 27


_ZN5Riscv10popSppSpieEv
_Z15thread_dispatchv
_ZN9Scheduler3getEv
_ZN3TCB13contextSwitchEPNS_7ContextES1_
_ZN9Scheduler3putEP3TCB
_ZN15MemoryAllocator5allocEm
_Unwind_Resume
__gxx_personality_v0
_ZN15MemoryAllocator4freeEPv
