GAS LISTING /tmp/cc7ckBXd.s 			page 1


   1              		.file	"TCB.cpp"
   2              		.option pic
   3              		.option norelax
   4              		.text
   5              	.Ltext0:
   6              		.align	2
   7              		.globl	_ZN3TCBD2Ev
   9              	_ZN3TCBD2Ev:
  10              	.LFB30:
  11              		.file 1 "src/TCB.cpp"
   1:src/TCB.cpp   **** //
   2:src/TCB.cpp   **** // Created by os on 7/18/23.
   3:src/TCB.cpp   **** //
   4:src/TCB.cpp   **** 
   5:src/TCB.cpp   **** //sa vezbi  6 i 7 iskoriscen deo
   6:src/TCB.cpp   **** 
   7:src/TCB.cpp   **** #include "../h/TCB.hpp"
   8:src/TCB.cpp   **** #include "../h/Scheduler.hpp"
   9:src/TCB.cpp   **** #include "../h/syscall_c.hpp"
  10:src/TCB.cpp   **** #include "../h/riscv.hpp"
  11:src/TCB.cpp   **** #include "../h/MemoryAllocator.hpp"
  12:src/TCB.cpp   **** 
  13:src/TCB.cpp   **** uint64  TCB::timeSliceCounter=0;
  14:src/TCB.cpp   **** TCB* TCB::running=nullptr;
  15:src/TCB.cpp   **** bool TCB::newThrUserMode=false;
  16:src/TCB.cpp   **** 
  17:src/TCB.cpp   **** void TCB::yield() {
  18:src/TCB.cpp   ****     __asm__ volatile("li a0, 0x13");
  19:src/TCB.cpp   ****     __asm__ volatile("ecall");
  20:src/TCB.cpp   **** }
  21:src/TCB.cpp   **** 
  22:src/TCB.cpp   **** TCB *TCB::createThread(TCB::Body body, char* stack, void* arg) {
  23:src/TCB.cpp   ****     return new TCB(body, stack, arg, DEFAULT_TIME_SLICE);
  24:src/TCB.cpp   **** }
  25:src/TCB.cpp   **** 
  26:src/TCB.cpp   **** void TCB::dispatch() {
  27:src/TCB.cpp   ****     TCB* old=running;
  28:src/TCB.cpp   ****     if(!(old->isFinished() || old->isBlocked() || old->isSleeping())){
  29:src/TCB.cpp   ****         Scheduler::put(old);
  30:src/TCB.cpp   ****     }
  31:src/TCB.cpp   **** 
  32:src/TCB.cpp   ****     running=Scheduler::get();
  33:src/TCB.cpp   **** 
  34:src/TCB.cpp   ****     TCB::contextSwitch(&old->context, &running->context);
  35:src/TCB.cpp   **** }
  36:src/TCB.cpp   **** 
  37:src/TCB.cpp   **** TCB::TCB(TCB::Body body, char* stack, void* arg, uint64 timeSlice): body(body),
  38:src/TCB.cpp   ****                                     stack(body!=nullptr? stack : nullptr),
  39:src/TCB.cpp   ****                                     context({(uint64)&threadWrapper,
  40:src/TCB.cpp   ****                                      this->stack!=nullptr? (uint64) &this->stack[DEFAULT_STACK_SIZE
  41:src/TCB.cpp   ****                                      }),
  42:src/TCB.cpp   ****                                      timeSlice(timeSlice),
  43:src/TCB.cpp   ****                                      finished(false),
  44:src/TCB.cpp   ****                                      arg(arg),
  45:src/TCB.cpp   ****                                      blocked(false),
  46:src/TCB.cpp   ****                                      sleeping(false)
  47:src/TCB.cpp   ****     {
GAS LISTING /tmp/cc7ckBXd.s 			page 2


  48:src/TCB.cpp   ****         if(body!=nullptr) Scheduler::put(this);
  49:src/TCB.cpp   ****     }
  50:src/TCB.cpp   **** 
  51:src/TCB.cpp   **** TCB::~TCB() {
  12              		.loc 1 51 1
  13              		.cfi_startproc
  14              	.LVL0:
  15              	.LBB16:
  16              		.loc 1 51 11 is_stmt 0
  17 0000 97070000 		lla	a5,_ZTV3TCB+16
  17      93870700 
  18 0008 2330F500 		sd	a5,0(a0)
  52:src/TCB.cpp   ****     //mem_free(stack);
  53:src/TCB.cpp   ****     delete[] stack;
  19              		.loc 1 53 5 is_stmt 1
  20              		.loc 1 53 14 is_stmt 0
  21 000c 03350501 		ld	a0,16(a0)
  22              	.LVL1:
  23              		.loc 1 53 19
  24 0010 63060502 		beqz	a0,.L4
  25              	.LBE16:
  51:src/TCB.cpp   ****     //mem_free(stack);
  26              		.loc 1 51 1 discriminator 1
  27 0014 130101FF 		addi	sp,sp,-16
  28              		.cfi_def_cfa_offset 16
  29 0018 23341100 		sd	ra,8(sp)
  30 001c 23308100 		sd	s0,0(sp)
  31              		.cfi_offset 1, -8
  32              		.cfi_offset 8, -16
  33 0020 13040101 		addi	s0,sp,16
  34              		.cfi_def_cfa 8, 0
  35              	.LBB17:
  36              		.loc 1 53 14 discriminator 1
  37 0024 97000000 		call	_ZdaPv@plt
  37      E7800000 
  38              	.LVL2:
  39              	.LBE17:
  54:src/TCB.cpp   **** }
  40              		.loc 1 54 1 discriminator 1
  41 002c 83308100 		ld	ra,8(sp)
  42              		.cfi_restore 1
  43 0030 03340100 		ld	s0,0(sp)
  44              		.cfi_restore 8
  45              		.cfi_def_cfa 2, 16
  46 0034 13010101 		addi	sp,sp,16
  47              		.cfi_def_cfa_offset 0
  48 0038 67800000 		jr	ra
  49              	.L4:
  50 003c 67800000 		ret
  51              		.cfi_endproc
  52              	.LFE30:
  54              		.globl	_ZN3TCBD1Ev
  55              		.set	_ZN3TCBD1Ev,_ZN3TCBD2Ev
  56              		.align	2
  57              		.globl	_ZN3TCBD0Ev
  59              	_ZN3TCBD0Ev:
  60              	.LFB32:
GAS LISTING /tmp/cc7ckBXd.s 			page 3


  51:src/TCB.cpp   ****     //mem_free(stack);
  61              		.loc 1 51 1 is_stmt 1
  62              		.cfi_startproc
  63              	.LVL3:
  64 0040 130101FE 		addi	sp,sp,-32
  65              		.cfi_def_cfa_offset 32
  66 0044 233C1100 		sd	ra,24(sp)
  67 0048 23388100 		sd	s0,16(sp)
  68 004c 23349100 		sd	s1,8(sp)
  69              		.cfi_offset 1, -8
  70              		.cfi_offset 8, -16
  71              		.cfi_offset 9, -24
  72 0050 13040102 		addi	s0,sp,32
  73              		.cfi_def_cfa 8, 0
  74 0054 93040500 		mv	s1,a0
  75              		.loc 1 54 1 is_stmt 0
  76 0058 97000000 		call	_ZN3TCBD1Ev
  76      E7800000 
  77              	.LVL4:
  78 0060 13850400 		mv	a0,s1
  79 0064 97000000 		call	_ZdlPv@plt
  79      E7800000 
  80              	.LVL5:
  81 006c 83308101 		ld	ra,24(sp)
  82              		.cfi_restore 1
  83 0070 03340101 		ld	s0,16(sp)
  84              		.cfi_restore 8
  85              		.cfi_def_cfa 2, 32
  86 0074 83348100 		ld	s1,8(sp)
  87              		.cfi_restore 9
  88              	.LVL6:
  89 0078 13010102 		addi	sp,sp,32
  90              		.cfi_def_cfa_offset 0
  91 007c 67800000 		jr	ra
  92              		.cfi_endproc
  93              	.LFE32:
  95              		.align	2
  96              		.globl	_ZN3TCB13threadWrapperEv
  98              	_ZN3TCB13threadWrapperEv:
  99              	.LFB33:
  55:src/TCB.cpp   **** 
  56:src/TCB.cpp   **** void TCB::threadWrapper() {
 100              		.loc 1 56 27 is_stmt 1
 101              		.cfi_startproc
 102 0080 130101FE 		addi	sp,sp,-32
 103              		.cfi_def_cfa_offset 32
 104 0084 233C1100 		sd	ra,24(sp)
 105 0088 23388100 		sd	s0,16(sp)
 106 008c 23349100 		sd	s1,8(sp)
 107              		.cfi_offset 1, -8
 108              		.cfi_offset 8, -16
 109              		.cfi_offset 9, -24
 110 0090 13040102 		addi	s0,sp,32
 111              		.cfi_def_cfa 8, 0
  57:src/TCB.cpp   ****     Riscv::popSppSpie();
 112              		.loc 1 57 5
 113              		.loc 1 57 22 is_stmt 0
GAS LISTING /tmp/cc7ckBXd.s 			page 4


 114 0094 97000000 		call	_ZN5Riscv10popSppSpieEv@plt
 114      E7800000 
 115              	.LVL7:
  58:src/TCB.cpp   ****     running->body(running->arg);
 116              		.loc 1 58 5 is_stmt 1
 117              		.loc 1 58 14 is_stmt 0
 118 009c 97040000 		lla	s1,.LANCHOR0
 118      93840400 
 119 00a4 83B70400 		ld	a5,0(s1)
 120 00a8 03B78700 		ld	a4,8(a5)
 121              		.loc 1 58 18
 122 00ac 03B58703 		ld	a0,56(a5)
 123 00b0 E7000700 		jalr	a4
 124              	.LVL8:
  59:src/TCB.cpp   ****     running->setFinished(true);
 125              		.loc 1 59 5 is_stmt 1
 126              		.loc 1 59 25 is_stmt 0
 127 00b4 83B70400 		ld	a5,0(s1)
 128              	.LVL9:
 129              	.LBB18:
 130              	.LBB19:
 131              		.file 2 "src/../h/TCB.hpp"
   1:src/../h/TCB.hpp **** //
   2:src/../h/TCB.hpp **** // Created by os on 7/18/23.
   3:src/../h/TCB.hpp **** //
   4:src/../h/TCB.hpp **** 
   5:src/../h/TCB.hpp **** //sa vezbi 6 i 7 iskoriscen deo
   6:src/../h/TCB.hpp **** 
   7:src/../h/TCB.hpp **** #ifndef PROJECT_BASE_TCB_HPP
   8:src/../h/TCB.hpp **** #define PROJECT_BASE_TCB_HPP
   9:src/../h/TCB.hpp **** 
  10:src/../h/TCB.hpp **** #include "../lib/hw.h"
  11:src/../h/TCB.hpp **** 
  12:src/../h/TCB.hpp **** class TCB{
  13:src/../h/TCB.hpp **** public:
  14:src/../h/TCB.hpp ****     virtual ~TCB();
  15:src/../h/TCB.hpp **** 
  16:src/../h/TCB.hpp ****     bool isBlocked() const {
  17:src/../h/TCB.hpp ****         return blocked;
  18:src/../h/TCB.hpp ****     }
  19:src/../h/TCB.hpp **** 
  20:src/../h/TCB.hpp ****     void setBlocked(bool blocked) {
  21:src/../h/TCB.hpp ****         TCB::blocked = blocked;
  22:src/../h/TCB.hpp ****     }
  23:src/../h/TCB.hpp **** 
  24:src/../h/TCB.hpp ****     bool isFinished() const{
  25:src/../h/TCB.hpp ****         return finished;
  26:src/../h/TCB.hpp ****     }
  27:src/../h/TCB.hpp **** 
  28:src/../h/TCB.hpp ****     void setFinished(bool finished){
  29:src/../h/TCB.hpp ****         TCB::finished = finished;
 132              		.loc 2 29 9 is_stmt 1
 133              		.loc 2 29 23 is_stmt 0
 134 00b8 13071000 		li	a4,1
 135 00bc 2388E702 		sb	a4,48(a5)
 136              	.LVL10:
 137              	.LBE19:
GAS LISTING /tmp/cc7ckBXd.s 			page 5


 138              	.LBE18:
  60:src/TCB.cpp   ****     thread_dispatch();
 139              		.loc 1 60 5 is_stmt 1
 140              		.loc 1 60 20 is_stmt 0
 141 00c0 97000000 		call	_Z15thread_dispatchv@plt
 141      E7800000 
 142              	.LVL11:
  61:src/TCB.cpp   **** }
 143              		.loc 1 61 1
 144 00c8 83308101 		ld	ra,24(sp)
 145              		.cfi_restore 1
 146 00cc 03340101 		ld	s0,16(sp)
 147              		.cfi_restore 8
 148              		.cfi_def_cfa 2, 32
 149 00d0 83348100 		ld	s1,8(sp)
 150              		.cfi_restore 9
 151 00d4 13010102 		addi	sp,sp,32
 152              		.cfi_def_cfa_offset 0
 153 00d8 67800000 		jr	ra
 154              		.cfi_endproc
 155              	.LFE33:
 157              		.align	2
 158              		.globl	_ZN3TCB5yieldEv
 160              	_ZN3TCB5yieldEv:
 161              	.LFB23:
  17:src/TCB.cpp   ****     __asm__ volatile("li a0, 0x13");
 162              		.loc 1 17 19 is_stmt 1
 163              		.cfi_startproc
 164 00dc 130101FF 		addi	sp,sp,-16
 165              		.cfi_def_cfa_offset 16
 166 00e0 23348100 		sd	s0,8(sp)
 167              		.cfi_offset 8, -8
 168 00e4 13040101 		addi	s0,sp,16
 169              		.cfi_def_cfa 8, 0
  18:src/TCB.cpp   ****     __asm__ volatile("ecall");
 170              		.loc 1 18 5
  18:src/TCB.cpp   ****     __asm__ volatile("ecall");
 171              		.loc 1 18 36 is_stmt 0
 172              	#APP
 173              	# 18 "src/TCB.cpp" 1
  19:src/TCB.cpp   **** }
 174              		li a0, 0x13
 175              	# 0 "" 2
 176              		.loc 1 19 5 is_stmt 1
  19:src/TCB.cpp   **** }
 177              		.loc 1 19 30 is_stmt 0
 178              	# 19 "src/TCB.cpp" 1
  20:src/TCB.cpp   **** 
 179              		ecall
 180              	# 0 "" 2
 181              		.loc 1 20 1
 182              	#NO_APP
 183 00f0 03348100 		ld	s0,8(sp)
 184              		.cfi_restore 8
 185              		.cfi_def_cfa 2, 16
 186 00f4 13010101 		addi	sp,sp,16
 187              		.cfi_def_cfa_offset 0
GAS LISTING /tmp/cc7ckBXd.s 			page 6


 188 00f8 67800000 		jr	ra
 189              		.cfi_endproc
 190              	.LFE23:
 192              		.align	2
 193              		.globl	_ZN3TCB8dispatchEv
 195              	_ZN3TCB8dispatchEv:
 196              	.LFB25:
  26:src/TCB.cpp   ****     TCB* old=running;
 197              		.loc 1 26 22 is_stmt 1
 198              		.cfi_startproc
 199 00fc 130101FE 		addi	sp,sp,-32
 200              		.cfi_def_cfa_offset 32
 201 0100 233C1100 		sd	ra,24(sp)
 202 0104 23388100 		sd	s0,16(sp)
 203 0108 23349100 		sd	s1,8(sp)
 204              		.cfi_offset 1, -8
 205              		.cfi_offset 8, -16
 206              		.cfi_offset 9, -24
 207 010c 13040102 		addi	s0,sp,32
 208              		.cfi_def_cfa 8, 0
  27:src/TCB.cpp   ****     if(!(old->isFinished() || old->isBlocked() || old->isSleeping())){
 209              		.loc 1 27 5
  27:src/TCB.cpp   ****     if(!(old->isFinished() || old->isBlocked() || old->isSleeping())){
 210              		.loc 1 27 10 is_stmt 0
 211 0110 97040000 		ld	s1,.LANCHOR0
 211      83B40400 
 212              	.LVL12:
  28:src/TCB.cpp   ****         Scheduler::put(old);
 213              		.loc 1 28 5 is_stmt 1
 214              	.LBB20:
 215              	.LBB21:
  25:src/../h/TCB.hpp ****     }
 216              		.loc 2 25 9
  25:src/../h/TCB.hpp ****     }
 217              		.loc 2 25 16 is_stmt 0
 218 0118 83C70403 		lbu	a5,48(s1)
 219              	.LVL13:
 220              	.LBE21:
 221              	.LBE20:
  28:src/TCB.cpp   ****         Scheduler::put(old);
 222              		.loc 1 28 8
 223 011c 639A0700 		bnez	a5,.L14
 224              	.LVL14:
 225              	.LBB22:
 226              	.LBB23:
  17:src/../h/TCB.hpp ****     }
 227              		.loc 2 17 9 is_stmt 1
  17:src/../h/TCB.hpp ****     }
 228              		.loc 2 17 16 is_stmt 0
 229 0120 83C70404 		lbu	a5,64(s1)
 230              	.LVL15:
 231              	.LBE23:
 232              	.LBE22:
  28:src/TCB.cpp   ****         Scheduler::put(old);
 233              		.loc 1 28 28
 234 0124 63960700 		bnez	a5,.L14
 235              	.LVL16:
GAS LISTING /tmp/cc7ckBXd.s 			page 7


 236              	.LBB24:
 237              	.LBB25:
  30:src/../h/TCB.hpp ****     }
  31:src/../h/TCB.hpp **** 
  32:src/../h/TCB.hpp ****     uint64 getTimeSlice() const{
  33:src/../h/TCB.hpp ****         return timeSlice;
  34:src/../h/TCB.hpp ****     }
  35:src/../h/TCB.hpp **** 
  36:src/../h/TCB.hpp ****     bool isSleeping() const {
  37:src/../h/TCB.hpp ****         return sleeping;
 238              		.loc 2 37 9 is_stmt 1
 239              		.loc 2 37 16 is_stmt 0
 240 0128 83C71404 		lbu	a5,65(s1)
 241              	.LVL17:
 242              	.LBE25:
 243              	.LBE24:
  28:src/TCB.cpp   ****         Scheduler::put(old);
 244              		.loc 1 28 8
 245 012c 638C0702 		beqz	a5,.L16
 246              	.L14:
  32:src/TCB.cpp   **** 
 247              		.loc 1 32 5 is_stmt 1
  32:src/TCB.cpp   **** 
 248              		.loc 1 32 27 is_stmt 0
 249 0130 97000000 		call	_ZN9Scheduler3getEv@plt
 249      E7800000 
 250              	.LVL18:
  32:src/TCB.cpp   **** 
 251              		.loc 1 32 12
 252 0138 97070000 		sd	a0,.LANCHOR0,a5
 252      23B0A700 
  34:src/TCB.cpp   **** }
 253              		.loc 1 34 5 is_stmt 1
  34:src/TCB.cpp   **** }
 254              		.loc 1 34 23 is_stmt 0
 255 0140 93058501 		addi	a1,a0,24
 256 0144 13858401 		addi	a0,s1,24
 257 0148 97000000 		call	_ZN3TCB13contextSwitchEPNS_7ContextES1_@plt
 257      E7800000 
 258              	.LVL19:
  35:src/TCB.cpp   **** 
 259              		.loc 1 35 1
 260 0150 83308101 		ld	ra,24(sp)
 261              		.cfi_remember_state
 262              		.cfi_restore 1
 263 0154 03340101 		ld	s0,16(sp)
 264              		.cfi_restore 8
 265              		.cfi_def_cfa 2, 32
 266 0158 83348100 		ld	s1,8(sp)
 267              		.cfi_restore 9
 268              	.LVL20:
 269 015c 13010102 		addi	sp,sp,32
 270              		.cfi_def_cfa_offset 0
 271 0160 67800000 		jr	ra
 272              	.LVL21:
 273              	.L16:
 274              		.cfi_restore_state
GAS LISTING /tmp/cc7ckBXd.s 			page 8


  29:src/TCB.cpp   ****     }
 275              		.loc 1 29 9 is_stmt 1
  29:src/TCB.cpp   ****     }
 276              		.loc 1 29 23 is_stmt 0
 277 0164 13850400 		mv	a0,s1
 278 0168 97000000 		call	_ZN9Scheduler3putEP3TCB@plt
 278      E7800000 
 279              	.LVL22:
 280 0170 6FF01FFC 		j	.L14
 281              		.cfi_endproc
 282              	.LFE25:
 284              		.align	2
 285              		.globl	_ZN3TCBC2EPFvPvEPcS0_m
 287              	_ZN3TCBC2EPFvPvEPcS0_m:
 288              	.LFB27:
  37:src/TCB.cpp   ****                                     stack(body!=nullptr? stack : nullptr),
 289              		.loc 1 37 1 is_stmt 1
 290              		.cfi_startproc
 291              	.LVL23:
 292              	.LBB26:
  46:src/TCB.cpp   ****     {
 293              		.loc 1 46 52 is_stmt 0
 294 0174 97070000 		lla	a5,_ZTV3TCB+16
 294      93870700 
 295 017c 2330F500 		sd	a5,0(a0)
 296 0180 2334B500 		sd	a1,8(a0)
  38:src/TCB.cpp   ****                                     context({(uint64)&threadWrapper,
 297              		.loc 1 38 56
 298 0184 63820506 		beqz	a1,.L27
 299              	.LVL24:
 300              	.L18:
  46:src/TCB.cpp   ****     {
 301              		.loc 1 46 52
 302 0188 2338C500 		sd	a2,16(a0)
 303 018c 97070000 		lla	a5,_ZN3TCB13threadWrapperEv
 303      93870700 
 304 0194 233CF500 		sd	a5,24(a0)
  40:src/TCB.cpp   ****                                      }),
 305              		.loc 1 40 58
 306 0198 630C0604 		beqz	a2,.L22
  40:src/TCB.cpp   ****                                      }),
 307              		.loc 1 40 69 discriminator 1
 308 019c B7170000 		li	a5,4096
 309 01a0 3306F600 		add	a2,a2,a5
 310              	.L19:
  46:src/TCB.cpp   ****     {
 311              		.loc 1 46 52
 312 01a4 2330C502 		sd	a2,32(a0)
 313 01a8 2334E502 		sd	a4,40(a0)
 314 01ac 23080502 		sb	zero,48(a0)
 315 01b0 233CD502 		sd	a3,56(a0)
 316 01b4 23000504 		sb	zero,64(a0)
 317 01b8 A3000504 		sb	zero,65(a0)
  48:src/TCB.cpp   ****     }
 318              		.loc 1 48 9 is_stmt 1
 319 01bc 638E0502 		beqz	a1,.L24
 320              	.LBE26:
GAS LISTING /tmp/cc7ckBXd.s 			page 9


  37:src/TCB.cpp   ****                                     stack(body!=nullptr? stack : nullptr),
 321              		.loc 1 37 1 is_stmt 0 discriminator 1
 322 01c0 130101FF 		addi	sp,sp,-16
 323              		.cfi_def_cfa_offset 16
 324 01c4 23341100 		sd	ra,8(sp)
 325 01c8 23308100 		sd	s0,0(sp)
 326              		.cfi_offset 1, -8
 327              		.cfi_offset 8, -16
 328 01cc 13040101 		addi	s0,sp,16
 329              		.cfi_def_cfa 8, 0
 330              	.LBB27:
  48:src/TCB.cpp   ****     }
 331              		.loc 1 48 27 is_stmt 1 discriminator 1
  48:src/TCB.cpp   ****     }
 332              		.loc 1 48 41 is_stmt 0 discriminator 1
 333 01d0 97000000 		call	_ZN9Scheduler3putEP3TCB@plt
 333      E7800000 
 334              	.LVL25:
 335              	.LBE27:
  49:src/TCB.cpp   **** 
 336              		.loc 1 49 5 discriminator 1
 337 01d8 83308100 		ld	ra,8(sp)
 338              		.cfi_restore 1
 339 01dc 03340100 		ld	s0,0(sp)
 340              		.cfi_restore 8
 341              		.cfi_def_cfa 2, 16
 342 01e0 13010101 		addi	sp,sp,16
 343              		.cfi_def_cfa_offset 0
 344 01e4 67800000 		jr	ra
 345              	.LVL26:
 346              	.L27:
 347              	.LBB28:
  38:src/TCB.cpp   ****                                     context({(uint64)&threadWrapper,
 348              		.loc 1 38 56
 349 01e8 13060000 		li	a2,0
 350              	.LVL27:
 351 01ec 6FF0DFF9 		j	.L18
 352              	.L22:
  40:src/TCB.cpp   ****                                      }),
 353              		.loc 1 40 58
 354 01f0 13060000 		li	a2,0
 355 01f4 6FF01FFB 		j	.L19
 356              	.L24:
 357 01f8 67800000 		ret
 358              	.LBE28:
 359              		.cfi_endproc
 360              	.LFE27:
 362              		.globl	_ZN3TCBC1EPFvPvEPcS0_m
 363              		.set	_ZN3TCBC1EPFvPvEPcS0_m,_ZN3TCBC2EPFvPvEPcS0_m
 364              		.align	2
 365              		.globl	_ZN3TCBnwEm
 367              	_ZN3TCBnwEm:
 368              	.LFB34:
  62:src/TCB.cpp   **** 
  63:src/TCB.cpp   **** void *TCB::operator new(uint64 n) {
 369              		.loc 1 63 35 is_stmt 1
 370              		.cfi_startproc
GAS LISTING /tmp/cc7ckBXd.s 			page 10


 371              	.LVL28:
 372 01fc 130101FF 		addi	sp,sp,-16
 373              		.cfi_def_cfa_offset 16
 374 0200 23341100 		sd	ra,8(sp)
 375 0204 23308100 		sd	s0,0(sp)
 376              		.cfi_offset 1, -8
 377              		.cfi_offset 8, -16
 378 0208 13040101 		addi	s0,sp,16
 379              		.cfi_def_cfa 8, 0
  64:src/TCB.cpp   ****     void* ptr=MemoryAllocator::alloc(((n+MEM_BLOCK_SIZE-1)/MEM_BLOCK_SIZE));
 380              		.loc 1 64 5
 381              		.loc 1 64 56 is_stmt 0
 382 020c 1305F503 		addi	a0,a0,63
 383              	.LVL29:
 384              		.loc 1 64 37
 385 0210 13556500 		srli	a0,a0,6
 386              	.LVL30:
 387 0214 97000000 		call	_ZN15MemoryAllocator5allocEm@plt
 387      E7800000 
 388              	.LVL31:
  65:src/TCB.cpp   ****     return ptr;
 389              		.loc 1 65 5 is_stmt 1
  66:src/TCB.cpp   **** }
 390              		.loc 1 66 1 is_stmt 0
 391 021c 83308100 		ld	ra,8(sp)
 392              		.cfi_restore 1
 393 0220 03340100 		ld	s0,0(sp)
 394              		.cfi_restore 8
 395              		.cfi_def_cfa 2, 16
 396 0224 13010101 		addi	sp,sp,16
 397              		.cfi_def_cfa_offset 0
 398 0228 67800000 		jr	ra
 399              		.cfi_endproc
 400              	.LFE34:
 402              		.align	2
 403              		.globl	_ZN3TCB12createThreadEPFvPvEPcS0_
 405              	_ZN3TCB12createThreadEPFvPvEPcS0_:
 406              	.LFB24:
  22:src/TCB.cpp   ****     return new TCB(body, stack, arg, DEFAULT_TIME_SLICE);
 407              		.loc 1 22 64 is_stmt 1
 408              		.cfi_startproc
 409              		.cfi_personality 0x9b,DW.ref.__gxx_personality_v0
 410              		.cfi_lsda 0x1b,.LLSDA24
 411              	.LVL32:
 412 022c 130101FD 		addi	sp,sp,-48
 413              		.cfi_def_cfa_offset 48
 414 0230 23341102 		sd	ra,40(sp)
 415 0234 23308102 		sd	s0,32(sp)
 416 0238 233C9100 		sd	s1,24(sp)
 417 023c 23382101 		sd	s2,16(sp)
 418 0240 23343101 		sd	s3,8(sp)
 419 0244 23304101 		sd	s4,0(sp)
 420              		.cfi_offset 1, -8
 421              		.cfi_offset 8, -16
 422              		.cfi_offset 9, -24
 423              		.cfi_offset 18, -32
 424              		.cfi_offset 19, -40
GAS LISTING /tmp/cc7ckBXd.s 			page 11


 425              		.cfi_offset 20, -48
 426 0248 13040103 		addi	s0,sp,48
 427              		.cfi_def_cfa 8, 0
 428 024c 13090500 		mv	s2,a0
 429 0250 93890500 		mv	s3,a1
 430 0254 130A0600 		mv	s4,a2
  23:src/TCB.cpp   **** }
 431              		.loc 1 23 5
  23:src/TCB.cpp   **** }
 432              		.loc 1 23 56 is_stmt 0
 433 0258 13058004 		li	a0,72
 434              	.LVL33:
 435              	.LEHB0:
 436 025c 97000000 		call	_ZN3TCBnwEm
 436      E7800000 
 437              	.LVL34:
 438              	.LEHE0:
 439 0264 93040500 		mv	s1,a0
 440 0268 13072000 		li	a4,2
 441 026c 93060A00 		mv	a3,s4
 442 0270 13860900 		mv	a2,s3
 443 0274 93050900 		mv	a1,s2
 444              	.LEHB1:
 445 0278 97000000 		call	_ZN3TCBC1EPFvPvEPcS0_m
 445      E7800000 
 446              	.LVL35:
 447              	.LEHE1:
 448 0280 6F000002 		j	.L35
 449              	.L32:
 450 0284 13090500 		mv	s2,a0
 451              	.LVL36:
 452 0288 13850400 		mv	a0,s1
 453 028c 97000000 		call	_ZdlPv@plt
 453      E7800000 
 454              	.LVL37:
 455 0294 13050900 		mv	a0,s2
 456              	.LEHB2:
 457 0298 97000000 		call	_Unwind_Resume@plt
 457      E7800000 
 458              	.LVL38:
 459              	.LEHE2:
 460              	.L35:
  24:src/TCB.cpp   **** 
 461              		.loc 1 24 1
 462 02a0 13850400 		mv	a0,s1
 463 02a4 83308102 		ld	ra,40(sp)
 464              		.cfi_restore 1
 465 02a8 03340102 		ld	s0,32(sp)
 466              		.cfi_restore 8
 467              		.cfi_def_cfa 2, 48
 468 02ac 83348101 		ld	s1,24(sp)
 469              		.cfi_restore 9
 470 02b0 03390101 		ld	s2,16(sp)
 471              		.cfi_restore 18
 472              	.LVL39:
 473 02b4 83398100 		ld	s3,8(sp)
 474              		.cfi_restore 19
GAS LISTING /tmp/cc7ckBXd.s 			page 12


 475              	.LVL40:
 476 02b8 033A0100 		ld	s4,0(sp)
 477              		.cfi_restore 20
 478              	.LVL41:
 479 02bc 13010103 		addi	sp,sp,48
 480              		.cfi_def_cfa_offset 0
 481 02c0 67800000 		jr	ra
 482              		.cfi_endproc
 483              	.LFE24:
 484              		.globl	__gxx_personality_v0
 485              		.section	.gcc_except_table,"a",@progbits
 486              	.LLSDA24:
 487 0000 FF       		.byte	0xff
 488 0001 FF       		.byte	0xff
 489 0002 03       		.byte	0x3
 490 0003 27       		.byte	0x27
 491 0004 00000000 		.4byte	.LEHB0-.LFB24
 492 0008 00000000 		.4byte	.LEHE0-.LEHB0
 493 000c 00000000 		.4byte	0
 494 0010 00       		.byte	0
 495 0011 00000000 		.4byte	.LEHB1-.LFB24
 496 0015 00000000 		.4byte	.LEHE1-.LEHB1
 497 0019 00000000 		.4byte	.L32-.LFB24
 498 001d 00       		.byte	0
 499 001e 00000000 		.4byte	.LEHB2-.LFB24
 500 0022 00000000 		.4byte	.LEHE2-.LEHB2
 501 0026 00000000 		.4byte	0
 502 002a 00       		.byte	0
 503              		.text
 505              		.align	2
 506              		.globl	_ZN3TCBdaEPv
 508              	_ZN3TCBdaEPv:
 509              	.LFB35:
  67:src/TCB.cpp   **** 
  68:src/TCB.cpp   **** void TCB::operator delete[](void *p) {
 510              		.loc 1 68 38 is_stmt 1
 511              		.cfi_startproc
 512              	.LVL42:
 513 02c4 130101FF 		addi	sp,sp,-16
 514              		.cfi_def_cfa_offset 16
 515 02c8 23341100 		sd	ra,8(sp)
 516 02cc 23308100 		sd	s0,0(sp)
 517              		.cfi_offset 1, -8
 518              		.cfi_offset 8, -16
 519 02d0 13040101 		addi	s0,sp,16
 520              		.cfi_def_cfa 8, 0
  69:src/TCB.cpp   ****     MemoryAllocator::free(p);
 521              		.loc 1 69 5
 522              		.loc 1 69 26 is_stmt 0
 523 02d4 97000000 		call	_ZN15MemoryAllocator4freeEPv@plt
 523      E7800000 
 524              	.LVL43:
  70:src/TCB.cpp   **** }
 525              		.loc 1 70 1
 526 02dc 83308100 		ld	ra,8(sp)
 527              		.cfi_restore 1
 528 02e0 03340100 		ld	s0,0(sp)
GAS LISTING /tmp/cc7ckBXd.s 			page 13


 529              		.cfi_restore 8
 530              		.cfi_def_cfa 2, 16
 531 02e4 13010101 		addi	sp,sp,16
 532              		.cfi_def_cfa_offset 0
 533 02e8 67800000 		jr	ra
 534              		.cfi_endproc
 535              	.LFE35:
 537              		.align	2
 538              		.globl	_ZN3TCB4exitEv
 540              	_ZN3TCB4exitEv:
 541              	.LFB36:
  71:src/TCB.cpp   **** 
  72:src/TCB.cpp   **** int TCB::exit() {
 542              		.loc 1 72 17 is_stmt 1
 543              		.cfi_startproc
  73:src/TCB.cpp   ****     if(TCB::running->isFinished()){
 544              		.loc 1 73 5
 545              		.loc 1 73 32 is_stmt 0
 546 02ec 97070000 		ld	a5,.LANCHOR0
 546      83B70700 
 547              	.LVL44:
 548              	.LBB29:
 549              	.LBB30:
  25:src/../h/TCB.hpp ****     }
 550              		.loc 2 25 9 is_stmt 1
  25:src/../h/TCB.hpp ****     }
 551              		.loc 2 25 16 is_stmt 0
 552 02f4 03C70703 		lbu	a4,48(a5)
 553              	.LVL45:
 554              	.LBE30:
 555              	.LBE29:
 556              		.loc 1 73 5
 557 02f8 63100704 		bnez	a4,.L40
  72:src/TCB.cpp   ****     if(TCB::running->isFinished()){
 558              		.loc 1 72 17
 559 02fc 130101FF 		addi	sp,sp,-16
 560              		.cfi_def_cfa_offset 16
 561 0300 23341100 		sd	ra,8(sp)
 562 0304 23308100 		sd	s0,0(sp)
 563              		.cfi_offset 1, -8
 564              		.cfi_offset 8, -16
 565 0308 13040101 		addi	s0,sp,16
 566              		.cfi_def_cfa 8, 0
  74:src/TCB.cpp   ****         return -1;
  75:src/TCB.cpp   ****     }
  76:src/TCB.cpp   ****     else{
  77:src/TCB.cpp   ****         TCB::running->setFinished(true);
 567              		.loc 1 77 9 is_stmt 1
 568              	.LVL46:
 569              	.LBB31:
 570              	.LBB32:
  29:src/../h/TCB.hpp ****     }
 571              		.loc 2 29 9
  29:src/../h/TCB.hpp ****     }
 572              		.loc 2 29 23 is_stmt 0
 573 030c 13071000 		li	a4,1
 574 0310 2388E702 		sb	a4,48(a5)
GAS LISTING /tmp/cc7ckBXd.s 			page 14


 575              	.LVL47:
 576              	.LBE32:
 577              	.LBE31:
  78:src/TCB.cpp   ****         TCB::timeSliceCounter=0;
 578              		.loc 1 78 9 is_stmt 1
 579              		.loc 1 78 30 is_stmt 0
 580 0314 97070000 		sd	zero,.LANCHOR0+8,a5
 580      23B00700 
  79:src/TCB.cpp   ****         TCB::dispatch();
 581              		.loc 1 79 9 is_stmt 1
 582              		.loc 1 79 22 is_stmt 0
 583 031c 97000000 		call	_ZN3TCB8dispatchEv
 583      E7800000 
 584              	.LVL48:
  80:src/TCB.cpp   ****         return 0;
 585              		.loc 1 80 9 is_stmt 1
 586              		.loc 1 80 16 is_stmt 0
 587 0324 13050000 		li	a0,0
  81:src/TCB.cpp   ****     }
  82:src/TCB.cpp   **** }
 588              		.loc 1 82 1
 589 0328 83308100 		ld	ra,8(sp)
 590              		.cfi_restore 1
 591 032c 03340100 		ld	s0,0(sp)
 592              		.cfi_restore 8
 593              		.cfi_def_cfa 2, 16
 594 0330 13010101 		addi	sp,sp,16
 595              		.cfi_def_cfa_offset 0
 596 0334 67800000 		jr	ra
 597              	.L40:
  74:src/TCB.cpp   ****     }
 598              		.loc 1 74 17
 599 0338 1305F0FF 		li	a0,-1
 600              		.loc 1 82 1
 601 033c 67800000 		ret
 602              		.cfi_endproc
 603              	.LFE36:
 605              		.align	2
 606              		.globl	_ZN3TCB4joinEPS_
 608              	_ZN3TCB4joinEPS_:
 609              	.LFB37:
  83:src/TCB.cpp   **** 
  84:src/TCB.cpp   **** void TCB::join(TCB *thr) {
 610              		.loc 1 84 26 is_stmt 1
 611              		.cfi_startproc
 612              	.LVL49:
 613 0340 130101FE 		addi	sp,sp,-32
 614              		.cfi_def_cfa_offset 32
 615 0344 233C1100 		sd	ra,24(sp)
 616 0348 23388100 		sd	s0,16(sp)
 617 034c 23349100 		sd	s1,8(sp)
 618              		.cfi_offset 1, -8
 619              		.cfi_offset 8, -16
 620              		.cfi_offset 9, -24
 621 0350 13040102 		addi	s0,sp,32
 622              		.cfi_def_cfa 8, 0
 623 0354 93040500 		mv	s1,a0
GAS LISTING /tmp/cc7ckBXd.s 			page 15


 624              	.LVL50:
 625              	.L47:
  85:src/TCB.cpp   ****     while(!thr->isFinished()){
 626              		.loc 1 85 5
 627              		.loc 1 85 11
 628              	.LBB33:
 629              	.LBB34:
  25:src/../h/TCB.hpp ****     }
 630              		.loc 2 25 9
  25:src/../h/TCB.hpp ****     }
 631              		.loc 2 25 16 is_stmt 0
 632 0358 83C70403 		lbu	a5,48(s1)
 633              	.LVL51:
 634              	.LBE34:
 635              	.LBE33:
 636              		.loc 1 85 11
 637 035c 639C0700 		bnez	a5,.L45
  86:src/TCB.cpp   ****         TCB::timeSliceCounter=0;
 638              		.loc 1 86 9 is_stmt 1
 639              		.loc 1 86 30 is_stmt 0
 640 0360 97070000 		sd	zero,.LANCHOR0+8,a5
 640      23B00700 
  87:src/TCB.cpp   ****         TCB::dispatch();
 641              		.loc 1 87 9 is_stmt 1
 642              		.loc 1 87 22 is_stmt 0
 643 0368 97000000 		call	_ZN3TCB8dispatchEv
 643      E7800000 
 644              	.LVL52:
  85:src/TCB.cpp   ****         TCB::timeSliceCounter=0;
 645              		.loc 1 85 5
 646 0370 6FF09FFE 		j	.L47
 647              	.L45:
  88:src/TCB.cpp   ****     }
  89:src/TCB.cpp   **** }
 648              		.loc 1 89 1
 649 0374 83308101 		ld	ra,24(sp)
 650              		.cfi_restore 1
 651 0378 03340101 		ld	s0,16(sp)
 652              		.cfi_restore 8
 653              		.cfi_def_cfa 2, 32
 654 037c 83348100 		ld	s1,8(sp)
 655              		.cfi_restore 9
 656              	.LVL53:
 657 0380 13010102 		addi	sp,sp,32
 658              		.cfi_def_cfa_offset 0
 659 0384 67800000 		jr	ra
 660              		.cfi_endproc
 661              	.LFE37:
 663              		.weak	_ZTV3TCB
 664              		.section	.data.rel.ro.local._ZTV3TCB,"awG",@progbits,_ZTV3TCB,comdat
 665              		.align	3
 668              	_ZTV3TCB:
 669 0000 00000000 		.dword	0
 669      00000000 
 670 0008 00000000 		.dword	0
 670      00000000 
 671 0010 00000000 		.dword	_ZN3TCBD1Ev
GAS LISTING /tmp/cc7ckBXd.s 			page 16


 671      00000000 
 672 0018 00000000 		.dword	_ZN3TCBD0Ev
 672      00000000 
 673              		.globl	_ZN3TCB14newThrUserModeE
 674              		.globl	_ZN3TCB7runningE
 675              		.globl	_ZN3TCB16timeSliceCounterE
 676              		.bss
 677              		.align	3
 678              		.set	.LANCHOR0,. + 0
 681              	_ZN3TCB7runningE:
 682 0000 00000000 		.zero	8
 682      00000000 
 685              	_ZN3TCB16timeSliceCounterE:
 686 0008 00000000 		.zero	8
 686      00000000 
 689              	_ZN3TCB14newThrUserModeE:
 690 0010 00       		.zero	1
 691              		.text
 692              	.Letext0:
 693              		.file 3 "src/../h/../lib/hw.h"
 694              		.file 4 "src/../h/Scheduler.hpp"
 695              		.file 5 "src/../h/riscv.hpp"
 696              		.file 6 "src/../h/MemoryAllocator.hpp"
 697              		.file 7 "src/../h/syscall_c.hpp"
 3857              		.align	3
 3860              	DW.ref.__gxx_personality_v0:
 3861 0000 00000000 		.dword	__gxx_personality_v0
 3861      00000000 
 3862              		.ident	"GCC: (Ubuntu 9.4.0-1ubuntu1~20.04) 9.4.0"
 3863              		.section	.note.GNU-stack,"",@progbits
GAS LISTING /tmp/cc7ckBXd.s 			page 17

